(lp0
(lp1
S'31. Qe2'
p2
a(lp3
(dp4
S'location'
p5
S'a1'
p6
sa(dp7
S'piece'
p8
S'black_rook'
p9
sg5
S'a2'
p10
sa(dp11
g5
S'a3'
p12
sa(dp13
g5
S'a4'
p14
sa(dp15
g5
S'a5'
p16
sa(dp17
g5
S'a6'
p18
sa(dp19
g5
S'a7'
p20
sa(dp21
g5
S'a8'
p22
sa(dp23
g5
S'b1'
p24
sa(dp25
g8
S'white_pawn'
p26
sg5
S'b2'
p27
sa(dp28
g5
S'b3'
p29
sa(dp30
g8
S'black_pawn'
p31
sg5
S'b4'
p32
sa(dp33
g5
S'b5'
p34
sa(dp35
g8
S'black_knight'
p36
sg5
S'b6'
p37
sa(dp38
g5
S'b7'
p39
sa(dp40
g5
S'b8'
p41
sa(dp42
g5
S'c1'
p43
sa(dp44
g8
S'white_pawn'
p45
sg5
S'c2'
p46
sa(dp47
g5
S'c3'
p48
sa(dp49
g5
S'c4'
p50
sa(dp51
g8
S'black_bishop'
p52
sg5
S'c5'
p53
sa(dp54
g8
S'black_pawn'
p55
sg5
S'c6'
p56
sa(dp57
g5
S'c7'
p58
sa(dp59
g5
S'c8'
p60
sa(dp61
g8
S'white_knight'
p62
sg5
S'd1'
p63
sa(dp64
g5
S'd2'
p65
sa(dp66
g8
S'white_bishop'
p67
sg5
S'd3'
p68
sa(dp69
g5
S'd4'
p70
sa(dp71
g5
S'd5'
p72
sa(dp73
g5
S'd6'
p74
sa(dp75
g5
S'd7'
p76
sa(dp77
g8
S'black_queen'
p78
sg5
S'd8'
p79
sa(dp80
g8
S'white_rook'
p81
sg5
S'e1'
p82
sa(dp83
g8
S'white_queen'
p84
sg5
S'e2'
p85
sa(dp86
g5
S'e3'
p87
sa(dp88
g8
S'white_pawn'
p89
sg5
S'e4'
p90
sa(dp91
g8
S'black_pawn'
p92
sg5
S'e5'
p93
sa(dp94
g8
S'black_bishop'
p95
sg5
S'e6'
p96
sa(dp97
g5
S'e7'
p98
sa(dp99
g5
S'e8'
p100
sa(dp101
g8
S'white_king'
p102
sg5
S'f1'
p103
sa(dp104
g5
S'f2'
p105
sa(dp106
g8
S'white_pawn'
p107
sg5
S'f3'
p108
sa(dp109
g5
S'f4'
p110
sa(dp111
g5
S'f5'
p112
sa(dp113
g5
S'f6'
p114
sa(dp115
g8
S'black_pawn'
p116
sg5
S'f7'
p117
sa(dp118
g5
S'f8'
p119
sa(dp120
g8
S'white_knight'
p121
sg5
S'g1'
p122
sa(dp123
g8
S'white_pawn'
p124
sg5
S'g2'
p125
sa(dp126
g5
S'g3'
p127
sa(dp128
g5
S'g4'
p129
sa(dp130
g5
S'g5'
p131
sa(dp132
g8
S'black_pawn'
p133
sg5
S'g6'
p134
sa(dp135
g8
S'black_king'
p136
sg5
S'g7'
p137
sa(dp138
g5
S'g8'
p139
sa(dp140
g5
S'h1'
p141
sa(dp142
g8
S'white_pawn'
p143
sg5
S'h2'
p144
sa(dp145
g5
S'h3'
p146
sa(dp147
g5
S'h4'
p148
sa(dp149
g8
S'black_pawn'
p150
sg5
S'h5'
p151
sa(dp152
g5
S'h6'
p153
sa(dp154
g5
S'h7'
p155
sa(dp156
g5
S'h8'
p157
saaVPreventing Nc4.
p158
aa(lp159
S'31... Qd4'
p160
a(lp161
(dp162
g5
S'a1'
p163
sa(dp164
g8
S'black_rook'
p165
sg5
S'a2'
p166
sa(dp167
g5
S'a3'
p168
sa(dp169
g5
S'a4'
p170
sa(dp171
g5
S'a5'
p172
sa(dp173
g5
S'a6'
p174
sa(dp175
g5
S'a7'
p176
sa(dp177
g5
S'a8'
p178
sa(dp179
g5
S'b1'
p180
sa(dp181
g8
S'white_pawn'
p182
sg5
S'b2'
p183
sa(dp184
g5
S'b3'
p185
sa(dp186
g8
S'black_pawn'
p187
sg5
S'b4'
p188
sa(dp189
g5
S'b5'
p190
sa(dp191
g8
S'black_knight'
p192
sg5
S'b6'
p193
sa(dp194
g5
S'b7'
p195
sa(dp196
g5
S'b8'
p197
sa(dp198
g5
S'c1'
p199
sa(dp200
g8
S'white_pawn'
p201
sg5
S'c2'
p202
sa(dp203
g5
S'c3'
p204
sa(dp205
g5
S'c4'
p206
sa(dp207
g8
S'black_bishop'
p208
sg5
S'c5'
p209
sa(dp210
g8
S'black_pawn'
p211
sg5
S'c6'
p212
sa(dp213
g5
S'c7'
p214
sa(dp215
g5
S'c8'
p216
sa(dp217
g8
S'white_knight'
p218
sg5
S'd1'
p219
sa(dp220
g5
S'd2'
p221
sa(dp222
g8
S'white_bishop'
p223
sg5
S'd3'
p224
sa(dp225
g8
S'black_queen'
p226
sg5
S'd4'
p227
sa(dp228
g5
S'd5'
p229
sa(dp230
g5
S'd6'
p231
sa(dp232
g5
S'd7'
p233
sa(dp234
g5
S'd8'
p235
sa(dp236
g8
S'white_rook'
p237
sg5
S'e1'
p238
sa(dp239
g8
S'white_queen'
p240
sg5
S'e2'
p241
sa(dp242
g5
S'e3'
p243
sa(dp244
g8
S'white_pawn'
p245
sg5
S'e4'
p246
sa(dp247
g8
S'black_pawn'
p248
sg5
S'e5'
p249
sa(dp250
g8
S'black_bishop'
p251
sg5
S'e6'
p252
sa(dp253
g5
S'e7'
p254
sa(dp255
g5
S'e8'
p256
sa(dp257
g8
S'white_king'
p258
sg5
S'f1'
p259
sa(dp260
g5
S'f2'
p261
sa(dp262
g8
S'white_pawn'
p263
sg5
S'f3'
p264
sa(dp265
g5
S'f4'
p266
sa(dp267
g5
S'f5'
p268
sa(dp269
g5
S'f6'
p270
sa(dp271
g8
S'black_pawn'
p272
sg5
S'f7'
p273
sa(dp274
g5
S'f8'
p275
sa(dp276
g8
S'white_knight'
p277
sg5
S'g1'
p278
sa(dp279
g8
S'white_pawn'
p280
sg5
S'g2'
p281
sa(dp282
g5
S'g3'
p283
sa(dp284
g5
S'g4'
p285
sa(dp286
g5
S'g5'
p287
sa(dp288
g8
S'black_pawn'
p289
sg5
S'g6'
p290
sa(dp291
g8
S'black_king'
p292
sg5
S'g7'
p293
sa(dp294
g5
S'g8'
p295
sa(dp296
g5
S'h1'
p297
sa(dp298
g8
S'white_pawn'
p299
sg5
S'h2'
p300
sa(dp301
g5
S'h3'
p302
sa(dp303
g5
S'h4'
p304
sa(dp305
g8
S'black_pawn'
p306
sg5
S'h5'
p307
sa(dp308
g5
S'h6'
p309
sa(dp310
g5
S'h7'
p311
sa(dp312
g5
S'h8'
p313
saaVThreatening mate on g1.
p314
aa(lp315
S'32. Qf2'
p316
a(lp317
(dp318
g5
S'a1'
p319
sa(dp320
g8
S'black_rook'
p321
sg5
S'a2'
p322
sa(dp323
g5
S'a3'
p324
sa(dp325
g5
S'a4'
p326
sa(dp327
g5
S'a5'
p328
sa(dp329
g5
S'a6'
p330
sa(dp331
g5
S'a7'
p332
sa(dp333
g5
S'a8'
p334
sa(dp335
g5
S'b1'
p336
sa(dp337
g8
S'white_pawn'
p338
sg5
S'b2'
p339
sa(dp340
g5
S'b3'
p341
sa(dp342
g8
S'black_pawn'
p343
sg5
S'b4'
p344
sa(dp345
g5
S'b5'
p346
sa(dp347
g8
S'black_knight'
p348
sg5
S'b6'
p349
sa(dp350
g5
S'b7'
p351
sa(dp352
g5
S'b8'
p353
sa(dp354
g5
S'c1'
p355
sa(dp356
g8
S'white_pawn'
p357
sg5
S'c2'
p358
sa(dp359
g5
S'c3'
p360
sa(dp361
g5
S'c4'
p362
sa(dp363
g8
S'black_bishop'
p364
sg5
S'c5'
p365
sa(dp366
g8
S'black_pawn'
p367
sg5
S'c6'
p368
sa(dp369
g5
S'c7'
p370
sa(dp371
g5
S'c8'
p372
sa(dp373
g8
S'white_knight'
p374
sg5
S'd1'
p375
sa(dp376
g5
S'd2'
p377
sa(dp378
g8
S'white_bishop'
p379
sg5
S'd3'
p380
sa(dp381
g8
S'black_queen'
p382
sg5
S'd4'
p383
sa(dp384
g5
S'd5'
p385
sa(dp386
g5
S'd6'
p387
sa(dp388
g5
S'd7'
p389
sa(dp390
g5
S'd8'
p391
sa(dp392
g8
S'white_rook'
p393
sg5
S'e1'
p394
sa(dp395
g5
S'e2'
p396
sa(dp397
g5
S'e3'
p398
sa(dp399
g8
S'white_pawn'
p400
sg5
S'e4'
p401
sa(dp402
g8
S'black_pawn'
p403
sg5
S'e5'
p404
sa(dp405
g8
S'black_bishop'
p406
sg5
S'e6'
p407
sa(dp408
g5
S'e7'
p409
sa(dp410
g5
S'e8'
p411
sa(dp412
g8
S'white_king'
p413
sg5
S'f1'
p414
sa(dp415
g8
S'white_queen'
p416
sg5
S'f2'
p417
sa(dp418
g8
S'white_pawn'
p419
sg5
S'f3'
p420
sa(dp421
g5
S'f4'
p422
sa(dp423
g5
S'f5'
p424
sa(dp425
g5
S'f6'
p426
sa(dp427
g8
S'black_pawn'
p428
sg5
S'f7'
p429
sa(dp430
g5
S'f8'
p431
sa(dp432
g8
S'white_knight'
p433
sg5
S'g1'
p434
sa(dp435
g8
S'white_pawn'
p436
sg5
S'g2'
p437
sa(dp438
g5
S'g3'
p439
sa(dp440
g5
S'g4'
p441
sa(dp442
g5
S'g5'
p443
sa(dp444
g8
S'black_pawn'
p445
sg5
S'g6'
p446
sa(dp447
g8
S'black_king'
p448
sg5
S'g7'
p449
sa(dp450
g5
S'g8'
p451
sa(dp452
g5
S'h1'
p453
sa(dp454
g8
S'white_pawn'
p455
sg5
S'h2'
p456
sa(dp457
g5
S'h3'
p458
sa(dp459
g5
S'h4'
p460
sa(dp461
g8
S'black_pawn'
p462
sg5
S'h5'
p463
sa(dp464
g5
S'h6'
p465
sa(dp466
g5
S'h7'
p467
sa(dp468
g5
S'h8'
p469
saaVWhich I have to stop.
p470
aa(lp471
S'32... Qxf2+'
p472
a(lp473
(dp474
g5
S'a1'
p475
sa(dp476
g8
S'black_rook'
p477
sg5
S'a2'
p478
sa(dp479
g5
S'a3'
p480
sa(dp481
g5
S'a4'
p482
sa(dp483
g5
S'a5'
p484
sa(dp485
g5
S'a6'
p486
sa(dp487
g5
S'a7'
p488
sa(dp489
g5
S'a8'
p490
sa(dp491
g5
S'b1'
p492
sa(dp493
g8
S'white_pawn'
p494
sg5
S'b2'
p495
sa(dp496
g5
S'b3'
p497
sa(dp498
g8
S'black_pawn'
p499
sg5
S'b4'
p500
sa(dp501
g5
S'b5'
p502
sa(dp503
g8
S'black_knight'
p504
sg5
S'b6'
p505
sa(dp506
g5
S'b7'
p507
sa(dp508
g5
S'b8'
p509
sa(dp510
g5
S'c1'
p511
sa(dp512
g8
S'white_pawn'
p513
sg5
S'c2'
p514
sa(dp515
g5
S'c3'
p516
sa(dp517
g5
S'c4'
p518
sa(dp519
g8
S'black_bishop'
p520
sg5
S'c5'
p521
sa(dp522
g8
S'black_pawn'
p523
sg5
S'c6'
p524
sa(dp525
g5
S'c7'
p526
sa(dp527
g5
S'c8'
p528
sa(dp529
g8
S'white_knight'
p530
sg5
S'd1'
p531
sa(dp532
g5
S'd2'
p533
sa(dp534
g8
S'white_bishop'
p535
sg5
S'd3'
p536
sa(dp537
g5
S'd4'
p538
sa(dp539
g5
S'd5'
p540
sa(dp541
g5
S'd6'
p542
sa(dp543
g5
S'd7'
p544
sa(dp545
g5
S'd8'
p546
sa(dp547
g8
S'white_rook'
p548
sg5
S'e1'
p549
sa(dp550
g5
S'e2'
p551
sa(dp552
g5
S'e3'
p553
sa(dp554
g8
S'white_pawn'
p555
sg5
S'e4'
p556
sa(dp557
g8
S'black_pawn'
p558
sg5
S'e5'
p559
sa(dp560
g8
S'black_bishop'
p561
sg5
S'e6'
p562
sa(dp563
g5
S'e7'
p564
sa(dp565
g5
S'e8'
p566
sa(dp567
g8
S'white_king'
p568
sg5
S'f1'
p569
sa(dp570
g8
S'black_queen'
p571
sg5
S'f2'
p572
sa(dp573
g8
S'white_pawn'
p574
sg5
S'f3'
p575
sa(dp576
g5
S'f4'
p577
sa(dp578
g5
S'f5'
p579
sa(dp580
g5
S'f6'
p581
sa(dp582
g8
S'black_pawn'
p583
sg5
S'f7'
p584
sa(dp585
g5
S'f8'
p586
sa(dp587
g8
S'white_knight'
p588
sg5
S'g1'
p589
sa(dp590
g8
S'white_pawn'
p591
sg5
S'g2'
p592
sa(dp593
g5
S'g3'
p594
sa(dp595
g5
S'g4'
p596
sa(dp597
g5
S'g5'
p598
sa(dp599
g8
S'black_pawn'
p600
sg5
S'g6'
p601
sa(dp602
g8
S'black_king'
p603
sg5
S'g7'
p604
sa(dp605
g5
S'g8'
p606
sa(dp607
g5
S'h1'
p608
sa(dp609
g8
S'white_pawn'
p610
sg5
S'h2'
p611
sa(dp612
g5
S'h3'
p613
sa(dp614
g5
S'h4'
p615
sa(dp616
g8
S'black_pawn'
p617
sg5
S'h5'
p618
sa(dp619
g5
S'h6'
p620
sa(dp621
g5
S'h7'
p622
sa(dp623
g5
S'h8'
p624
saaVHe takes.
p625
aa(lp626
S'33. Nxf2'
p627
a(lp628
(dp629
g5
S'a1'
p630
sa(dp631
g8
S'black_rook'
p632
sg5
S'a2'
p633
sa(dp634
g5
S'a3'
p635
sa(dp636
g5
S'a4'
p637
sa(dp638
g5
S'a5'
p639
sa(dp640
g5
S'a6'
p641
sa(dp642
g5
S'a7'
p643
sa(dp644
g5
S'a8'
p645
sa(dp646
g5
S'b1'
p647
sa(dp648
g8
S'white_pawn'
p649
sg5
S'b2'
p650
sa(dp651
g5
S'b3'
p652
sa(dp653
g8
S'black_pawn'
p654
sg5
S'b4'
p655
sa(dp656
g5
S'b5'
p657
sa(dp658
g8
S'black_knight'
p659
sg5
S'b6'
p660
sa(dp661
g5
S'b7'
p662
sa(dp663
g5
S'b8'
p664
sa(dp665
g5
S'c1'
p666
sa(dp667
g8
S'white_pawn'
p668
sg5
S'c2'
p669
sa(dp670
g5
S'c3'
p671
sa(dp672
g5
S'c4'
p673
sa(dp674
g8
S'black_bishop'
p675
sg5
S'c5'
p676
sa(dp677
g8
S'black_pawn'
p678
sg5
S'c6'
p679
sa(dp680
g5
S'c7'
p681
sa(dp682
g5
S'c8'
p683
sa(dp684
g5
S'd1'
p685
sa(dp686
g5
S'd2'
p687
sa(dp688
g8
S'white_bishop'
p689
sg5
S'd3'
p690
sa(dp691
g5
S'd4'
p692
sa(dp693
g5
S'd5'
p694
sa(dp695
g5
S'd6'
p696
sa(dp697
g5
S'd7'
p698
sa(dp699
g5
S'd8'
p700
sa(dp701
g8
S'white_rook'
p702
sg5
S'e1'
p703
sa(dp704
g5
S'e2'
p705
sa(dp706
g5
S'e3'
p707
sa(dp708
g8
S'white_pawn'
p709
sg5
S'e4'
p710
sa(dp711
g8
S'black_pawn'
p712
sg5
S'e5'
p713
sa(dp714
g8
S'black_bishop'
p715
sg5
S'e6'
p716
sa(dp717
g5
S'e7'
p718
sa(dp719
g5
S'e8'
p720
sa(dp721
g8
S'white_king'
p722
sg5
S'f1'
p723
sa(dp724
g8
S'white_knight'
p725
sg5
S'f2'
p726
sa(dp727
g8
S'white_pawn'
p728
sg5
S'f3'
p729
sa(dp730
g5
S'f4'
p731
sa(dp732
g5
S'f5'
p733
sa(dp734
g5
S'f6'
p735
sa(dp736
g8
S'black_pawn'
p737
sg5
S'f7'
p738
sa(dp739
g5
S'f8'
p740
sa(dp741
g8
S'white_knight'
p742
sg5
S'g1'
p743
sa(dp744
g8
S'white_pawn'
p745
sg5
S'g2'
p746
sa(dp747
g5
S'g3'
p748
sa(dp749
g5
S'g4'
p750
sa(dp751
g5
S'g5'
p752
sa(dp753
g8
S'black_pawn'
p754
sg5
S'g6'
p755
sa(dp756
g8
S'black_king'
p757
sg5
S'g7'
p758
sa(dp759
g5
S'g8'
p760
sa(dp761
g5
S'h1'
p762
sa(dp763
g8
S'white_pawn'
p764
sg5
S'h2'
p765
sa(dp766
g5
S'h3'
p767
sa(dp768
g5
S'h4'
p769
sa(dp770
g8
S'black_pawn'
p771
sg5
S'h5'
p772
sa(dp773
g5
S'h6'
p774
sa(dp775
g5
S'h7'
p776
sa(dp777
g5
S'h8'
p778
saaVI take back.
p779
aa(lp780
S'33... Rxb2'
p781
a(lp782
(dp783
g5
S'a1'
p784
sa(dp785
g5
S'a2'
p786
sa(dp787
g5
S'a3'
p788
sa(dp789
g5
S'a4'
p790
sa(dp791
g5
S'a5'
p792
sa(dp793
g5
S'a6'
p794
sa(dp795
g5
S'a7'
p796
sa(dp797
g5
S'a8'
p798
sa(dp799
g5
S'b1'
p800
sa(dp801
g8
S'black_rook'
p802
sg5
S'b2'
p803
sa(dp804
g5
S'b3'
p805
sa(dp806
g8
S'black_pawn'
p807
sg5
S'b4'
p808
sa(dp809
g5
S'b5'
p810
sa(dp811
g8
S'black_knight'
p812
sg5
S'b6'
p813
sa(dp814
g5
S'b7'
p815
sa(dp816
g5
S'b8'
p817
sa(dp818
g5
S'c1'
p819
sa(dp820
g8
S'white_pawn'
p821
sg5
S'c2'
p822
sa(dp823
g5
S'c3'
p824
sa(dp825
g5
S'c4'
p826
sa(dp827
g8
S'black_bishop'
p828
sg5
S'c5'
p829
sa(dp830
g8
S'black_pawn'
p831
sg5
S'c6'
p832
sa(dp833
g5
S'c7'
p834
sa(dp835
g5
S'c8'
p836
sa(dp837
g5
S'd1'
p838
sa(dp839
g5
S'd2'
p840
sa(dp841
g8
S'white_bishop'
p842
sg5
S'd3'
p843
sa(dp844
g5
S'd4'
p845
sa(dp846
g5
S'd5'
p847
sa(dp848
g5
S'd6'
p849
sa(dp850
g5
S'd7'
p851
sa(dp852
g5
S'd8'
p853
sa(dp854
g8
S'white_rook'
p855
sg5
S'e1'
p856
sa(dp857
g5
S'e2'
p858
sa(dp859
g5
S'e3'
p860
sa(dp861
g8
S'white_pawn'
p862
sg5
S'e4'
p863
sa(dp864
g8
S'black_pawn'
p865
sg5
S'e5'
p866
sa(dp867
g8
S'black_bishop'
p868
sg5
S'e6'
p869
sa(dp870
g5
S'e7'
p871
sa(dp872
g5
S'e8'
p873
sa(dp874
g8
S'white_king'
p875
sg5
S'f1'
p876
sa(dp877
g8
S'white_knight'
p878
sg5
S'f2'
p879
sa(dp880
g8
S'white_pawn'
p881
sg5
S'f3'
p882
sa(dp883
g5
S'f4'
p884
sa(dp885
g5
S'f5'
p886
sa(dp887
g5
S'f6'
p888
sa(dp889
g8
S'black_pawn'
p890
sg5
S'f7'
p891
sa(dp892
g5
S'f8'
p893
sa(dp894
g8
S'white_knight'
p895
sg5
S'g1'
p896
sa(dp897
g8
S'white_pawn'
p898
sg5
S'g2'
p899
sa(dp900
g5
S'g3'
p901
sa(dp902
g5
S'g4'
p903
sa(dp904
g5
S'g5'
p905
sa(dp906
g8
S'black_pawn'
p907
sg5
S'g6'
p908
sa(dp909
g8
S'black_king'
p910
sg5
S'g7'
p911
sa(dp912
g5
S'g8'
p913
sa(dp914
g5
S'h1'
p915
sa(dp916
g8
S'white_pawn'
p917
sg5
S'h2'
p918
sa(dp919
g5
S'h3'
p920
sa(dp921
g5
S'h4'
p922
sa(dp923
g8
S'black_pawn'
p924
sg5
S'h5'
p925
sa(dp926
g5
S'h6'
p927
sa(dp928
g5
S'h7'
p929
sa(dp930
g5
S'h8'
p931
saaVHe finally wins this pawn. It is very instructive how he didn't hurry to win this pawn, and calmly improved the position of his pieces first.
p932
aa(lp933
S'34. Ra1'
p934
a(lp935
(dp936
g8
S'white_rook'
p937
sg5
S'a1'
p938
sa(dp939
g5
S'a2'
p940
sa(dp941
g5
S'a3'
p942
sa(dp943
g5
S'a4'
p944
sa(dp945
g5
S'a5'
p946
sa(dp947
g5
S'a6'
p948
sa(dp949
g5
S'a7'
p950
sa(dp951
g5
S'a8'
p952
sa(dp953
g5
S'b1'
p954
sa(dp955
g8
S'black_rook'
p956
sg5
S'b2'
p957
sa(dp958
g5
S'b3'
p959
sa(dp960
g8
S'black_pawn'
p961
sg5
S'b4'
p962
sa(dp963
g5
S'b5'
p964
sa(dp965
g8
S'black_knight'
p966
sg5
S'b6'
p967
sa(dp968
g5
S'b7'
p969
sa(dp970
g5
S'b8'
p971
sa(dp972
g5
S'c1'
p973
sa(dp974
g8
S'white_pawn'
p975
sg5
S'c2'
p976
sa(dp977
g5
S'c3'
p978
sa(dp979
g5
S'c4'
p980
sa(dp981
g8
S'black_bishop'
p982
sg5
S'c5'
p983
sa(dp984
g8
S'black_pawn'
p985
sg5
S'c6'
p986
sa(dp987
g5
S'c7'
p988
sa(dp989
g5
S'c8'
p990
sa(dp991
g5
S'd1'
p992
sa(dp993
g5
S'd2'
p994
sa(dp995
g8
S'white_bishop'
p996
sg5
S'd3'
p997
sa(dp998
g5
S'd4'
p999
sa(dp1000
g5
S'd5'
p1001
sa(dp1002
g5
S'd6'
p1003
sa(dp1004
g5
S'd7'
p1005
sa(dp1006
g5
S'd8'
p1007
sa(dp1008
g5
S'e1'
p1009
sa(dp1010
g5
S'e2'
p1011
sa(dp1012
g5
S'e3'
p1013
sa(dp1014
g8
S'white_pawn'
p1015
sg5
S'e4'
p1016
sa(dp1017
g8
S'black_pawn'
p1018
sg5
S'e5'
p1019
sa(dp1020
g8
S'black_bishop'
p1021
sg5
S'e6'
p1022
sa(dp1023
g5
S'e7'
p1024
sa(dp1025
g5
S'e8'
p1026
sa(dp1027
g8
S'white_king'
p1028
sg5
S'f1'
p1029
sa(dp1030
g8
S'white_knight'
p1031
sg5
S'f2'
p1032
sa(dp1033
g8
S'white_pawn'
p1034
sg5
S'f3'
p1035
sa(dp1036
g5
S'f4'
p1037
sa(dp1038
g5
S'f5'
p1039
sa(dp1040
g5
S'f6'
p1041
sa(dp1042
g8
S'black_pawn'
p1043
sg5
S'f7'
p1044
sa(dp1045
g5
S'f8'
p1046
sa(dp1047
g8
S'white_knight'
p1048
sg5
S'g1'
p1049
sa(dp1050
g8
S'white_pawn'
p1051
sg5
S'g2'
p1052
sa(dp1053
g5
S'g3'
p1054
sa(dp1055
g5
S'g4'
p1056
sa(dp1057
g5
S'g5'
p1058
sa(dp1059
g8
S'black_pawn'
p1060
sg5
S'g6'
p1061
sa(dp1062
g8
S'black_king'
p1063
sg5
S'g7'
p1064
sa(dp1065
g5
S'g8'
p1066
sa(dp1067
g5
S'h1'
p1068
sa(dp1069
g8
S'white_pawn'
p1070
sg5
S'h2'
p1071
sa(dp1072
g5
S'h3'
p1073
sa(dp1074
g5
S'h4'
p1075
sa(dp1076
g8
S'black_pawn'
p1077
sg5
S'h5'
p1078
sa(dp1079
g5
S'h6'
p1080
sa(dp1081
g5
S'h7'
p1082
sa(dp1083
g5
S'h8'
p1084
saaVHoping for counter-play along the a file and/or trapping his rook on b2.
p1085
aa(lp1086
S'34... Nc4'
p1087
a(lp1088
(dp1089
g8
S'white_rook'
p1090
sg5
S'a1'
p1091
sa(dp1092
g5
S'a2'
p1093
sa(dp1094
g5
S'a3'
p1095
sa(dp1096
g5
S'a4'
p1097
sa(dp1098
g5
S'a5'
p1099
sa(dp1100
g5
S'a6'
p1101
sa(dp1102
g5
S'a7'
p1103
sa(dp1104
g5
S'a8'
p1105
sa(dp1106
g5
S'b1'
p1107
sa(dp1108
g8
S'black_rook'
p1109
sg5
S'b2'
p1110
sa(dp1111
g5
S'b3'
p1112
sa(dp1113
g8
S'black_pawn'
p1114
sg5
S'b4'
p1115
sa(dp1116
g5
S'b5'
p1117
sa(dp1118
g5
S'b6'
p1119
sa(dp1120
g5
S'b7'
p1121
sa(dp1122
g5
S'b8'
p1123
sa(dp1124
g5
S'c1'
p1125
sa(dp1126
g8
S'white_pawn'
p1127
sg5
S'c2'
p1128
sa(dp1129
g5
S'c3'
p1130
sa(dp1131
g8
S'black_knight'
p1132
sg5
S'c4'
p1133
sa(dp1134
g8
S'black_bishop'
p1135
sg5
S'c5'
p1136
sa(dp1137
g8
S'black_pawn'
p1138
sg5
S'c6'
p1139
sa(dp1140
g5
S'c7'
p1141
sa(dp1142
g5
S'c8'
p1143
sa(dp1144
g5
S'd1'
p1145
sa(dp1146
g5
S'd2'
p1147
sa(dp1148
g8
S'white_bishop'
p1149
sg5
S'd3'
p1150
sa(dp1151
g5
S'd4'
p1152
sa(dp1153
g5
S'd5'
p1154
sa(dp1155
g5
S'd6'
p1156
sa(dp1157
g5
S'd7'
p1158
sa(dp1159
g5
S'd8'
p1160
sa(dp1161
g5
S'e1'
p1162
sa(dp1163
g5
S'e2'
p1164
sa(dp1165
g5
S'e3'
p1166
sa(dp1167
g8
S'white_pawn'
p1168
sg5
S'e4'
p1169
sa(dp1170
g8
S'black_pawn'
p1171
sg5
S'e5'
p1172
sa(dp1173
g8
S'black_bishop'
p1174
sg5
S'e6'
p1175
sa(dp1176
g5
S'e7'
p1177
sa(dp1178
g5
S'e8'
p1179
sa(dp1180
g8
S'white_king'
p1181
sg5
S'f1'
p1182
sa(dp1183
g8
S'white_knight'
p1184
sg5
S'f2'
p1185
sa(dp1186
g8
S'white_pawn'
p1187
sg5
S'f3'
p1188
sa(dp1189
g5
S'f4'
p1190
sa(dp1191
g5
S'f5'
p1192
sa(dp1193
g5
S'f6'
p1194
sa(dp1195
g8
S'black_pawn'
p1196
sg5
S'f7'
p1197
sa(dp1198
g5
S'f8'
p1199
sa(dp1200
g8
S'white_knight'
p1201
sg5
S'g1'
p1202
sa(dp1203
g8
S'white_pawn'
p1204
sg5
S'g2'
p1205
sa(dp1206
g5
S'g3'
p1207
sa(dp1208
g5
S'g4'
p1209
sa(dp1210
g5
S'g5'
p1211
sa(dp1212
g8
S'black_pawn'
p1213
sg5
S'g6'
p1214
sa(dp1215
g8
S'black_king'
p1216
sg5
S'g7'
p1217
sa(dp1218
g5
S'g8'
p1219
sa(dp1220
g5
S'h1'
p1221
sa(dp1222
g8
S'white_pawn'
p1223
sg5
S'h2'
p1224
sa(dp1225
g5
S'h3'
p1226
sa(dp1227
g5
S'h4'
p1228
sa(dp1229
g8
S'black_pawn'
p1230
sg5
S'h5'
p1231
sa(dp1232
g5
S'h6'
p1233
sa(dp1234
g5
S'h7'
p1235
sa(dp1236
g5
S'h8'
p1237
saaVThe knight comes in.
p1238
aa(lp1239
S'35. Nd1'
p1240
a(lp1241
(dp1242
g8
S'white_rook'
p1243
sg5
S'a1'
p1244
sa(dp1245
g5
S'a2'
p1246
sa(dp1247
g5
S'a3'
p1248
sa(dp1249
g5
S'a4'
p1250
sa(dp1251
g5
S'a5'
p1252
sa(dp1253
g5
S'a6'
p1254
sa(dp1255
g5
S'a7'
p1256
sa(dp1257
g5
S'a8'
p1258
sa(dp1259
g5
S'b1'
p1260
sa(dp1261
g8
S'black_rook'
p1262
sg5
S'b2'
p1263
sa(dp1264
g5
S'b3'
p1265
sa(dp1266
g8
S'black_pawn'
p1267
sg5
S'b4'
p1268
sa(dp1269
g5
S'b5'
p1270
sa(dp1271
g5
S'b6'
p1272
sa(dp1273
g5
S'b7'
p1274
sa(dp1275
g5
S'b8'
p1276
sa(dp1277
g5
S'c1'
p1278
sa(dp1279
g8
S'white_pawn'
p1280
sg5
S'c2'
p1281
sa(dp1282
g5
S'c3'
p1283
sa(dp1284
g8
S'black_knight'
p1285
sg5
S'c4'
p1286
sa(dp1287
g8
S'black_bishop'
p1288
sg5
S'c5'
p1289
sa(dp1290
g8
S'black_pawn'
p1291
sg5
S'c6'
p1292
sa(dp1293
g5
S'c7'
p1294
sa(dp1295
g5
S'c8'
p1296
sa(dp1297
g8
S'white_knight'
p1298
sg5
S'd1'
p1299
sa(dp1300
g5
S'd2'
p1301
sa(dp1302
g8
S'white_bishop'
p1303
sg5
S'd3'
p1304
sa(dp1305
g5
S'd4'
p1306
sa(dp1307
g5
S'd5'
p1308
sa(dp1309
g5
S'd6'
p1310
sa(dp1311
g5
S'd7'
p1312
sa(dp1313
g5
S'd8'
p1314
sa(dp1315
g5
S'e1'
p1316
sa(dp1317
g5
S'e2'
p1318
sa(dp1319
g5
S'e3'
p1320
sa(dp1321
g8
S'white_pawn'
p1322
sg5
S'e4'
p1323
sa(dp1324
g8
S'black_pawn'
p1325
sg5
S'e5'
p1326
sa(dp1327
g8
S'black_bishop'
p1328
sg5
S'e6'
p1329
sa(dp1330
g5
S'e7'
p1331
sa(dp1332
g5
S'e8'
p1333
sa(dp1334
g8
S'white_king'
p1335
sg5
S'f1'
p1336
sa(dp1337
g5
S'f2'
p1338
sa(dp1339
g8
S'white_pawn'
p1340
sg5
S'f3'
p1341
sa(dp1342
g5
S'f4'
p1343
sa(dp1344
g5
S'f5'
p1345
sa(dp1346
g5
S'f6'
p1347
sa(dp1348
g8
S'black_pawn'
p1349
sg5
S'f7'
p1350
sa(dp1351
g5
S'f8'
p1352
sa(dp1353
g8
S'white_knight'
p1354
sg5
S'g1'
p1355
sa(dp1356
g8
S'white_pawn'
p1357
sg5
S'g2'
p1358
sa(dp1359
g5
S'g3'
p1360
sa(dp1361
g5
S'g4'
p1362
sa(dp1363
g5
S'g5'
p1364
sa(dp1365
g8
S'black_pawn'
p1366
sg5
S'g6'
p1367
sa(dp1368
g8
S'black_king'
p1369
sg5
S'g7'
p1370
sa(dp1371
g5
S'g8'
p1372
sa(dp1373
g5
S'h1'
p1374
sa(dp1375
g8
S'white_pawn'
p1376
sg5
S'h2'
p1377
sa(dp1378
g5
S'h3'
p1379
sa(dp1380
g5
S'h4'
p1381
sa(dp1382
g8
S'black_pawn'
p1383
sg5
S'h5'
p1384
sa(dp1385
g5
S'h6'
p1386
sa(dp1387
g5
S'h7'
p1388
sa(dp1389
g5
S'h8'
p1390
saaVAttacking his rook.
p1391
aa(lp1392
S'35... Ne3+'
p1393
a(lp1394
(dp1395
g8
S'white_rook'
p1396
sg5
S'a1'
p1397
sa(dp1398
g5
S'a2'
p1399
sa(dp1400
g5
S'a3'
p1401
sa(dp1402
g5
S'a4'
p1403
sa(dp1404
g5
S'a5'
p1405
sa(dp1406
g5
S'a6'
p1407
sa(dp1408
g5
S'a7'
p1409
sa(dp1410
g5
S'a8'
p1411
sa(dp1412
g5
S'b1'
p1413
sa(dp1414
g8
S'black_rook'
p1415
sg5
S'b2'
p1416
sa(dp1417
g5
S'b3'
p1418
sa(dp1419
g8
S'black_pawn'
p1420
sg5
S'b4'
p1421
sa(dp1422
g5
S'b5'
p1423
sa(dp1424
g5
S'b6'
p1425
sa(dp1426
g5
S'b7'
p1427
sa(dp1428
g5
S'b8'
p1429
sa(dp1430
g5
S'c1'
p1431
sa(dp1432
g8
S'white_pawn'
p1433
sg5
S'c2'
p1434
sa(dp1435
g5
S'c3'
p1436
sa(dp1437
g5
S'c4'
p1438
sa(dp1439
g8
S'black_bishop'
p1440
sg5
S'c5'
p1441
sa(dp1442
g8
S'black_pawn'
p1443
sg5
S'c6'
p1444
sa(dp1445
g5
S'c7'
p1446
sa(dp1447
g5
S'c8'
p1448
sa(dp1449
g8
S'white_knight'
p1450
sg5
S'd1'
p1451
sa(dp1452
g5
S'd2'
p1453
sa(dp1454
g8
S'white_bishop'
p1455
sg5
S'd3'
p1456
sa(dp1457
g5
S'd4'
p1458
sa(dp1459
g5
S'd5'
p1460
sa(dp1461
g5
S'd6'
p1462
sa(dp1463
g5
S'd7'
p1464
sa(dp1465
g5
S'd8'
p1466
sa(dp1467
g5
S'e1'
p1468
sa(dp1469
g5
S'e2'
p1470
sa(dp1471
g8
S'black_knight'
p1472
sg5
S'e3'
p1473
sa(dp1474
g8
S'white_pawn'
p1475
sg5
S'e4'
p1476
sa(dp1477
g8
S'black_pawn'
p1478
sg5
S'e5'
p1479
sa(dp1480
g8
S'black_bishop'
p1481
sg5
S'e6'
p1482
sa(dp1483
g5
S'e7'
p1484
sa(dp1485
g5
S'e8'
p1486
sa(dp1487
g8
S'white_king'
p1488
sg5
S'f1'
p1489
sa(dp1490
g5
S'f2'
p1491
sa(dp1492
g8
S'white_pawn'
p1493
sg5
S'f3'
p1494
sa(dp1495
g5
S'f4'
p1496
sa(dp1497
g5
S'f5'
p1498
sa(dp1499
g5
S'f6'
p1500
sa(dp1501
g8
S'black_pawn'
p1502
sg5
S'f7'
p1503
sa(dp1504
g5
S'f8'
p1505
sa(dp1506
g8
S'white_knight'
p1507
sg5
S'g1'
p1508
sa(dp1509
g8
S'white_pawn'
p1510
sg5
S'g2'
p1511
sa(dp1512
g5
S'g3'
p1513
sa(dp1514
g5
S'g4'
p1515
sa(dp1516
g5
S'g5'
p1517
sa(dp1518
g8
S'black_pawn'
p1519
sg5
S'g6'
p1520
sa(dp1521
g8
S'black_king'
p1522
sg5
S'g7'
p1523
sa(dp1524
g5
S'g8'
p1525
sa(dp1526
g5
S'h1'
p1527
sa(dp1528
g8
S'white_pawn'
p1529
sg5
S'h2'
p1530
sa(dp1531
g5
S'h3'
p1532
sa(dp1533
g5
S'h4'
p1534
sa(dp1535
g8
S'black_pawn'
p1536
sg5
S'h5'
p1537
sa(dp1538
g5
S'h6'
p1539
sa(dp1540
g5
S'h7'
p1541
sa(dp1542
g5
S'h8'
p1543
saaVKnight check.
p1544
aa(lp1545
S'36. Nxe3'
p1546
a(lp1547
(dp1548
g8
S'white_rook'
p1549
sg5
S'a1'
p1550
sa(dp1551
g5
S'a2'
p1552
sa(dp1553
g5
S'a3'
p1554
sa(dp1555
g5
S'a4'
p1556
sa(dp1557
g5
S'a5'
p1558
sa(dp1559
g5
S'a6'
p1560
sa(dp1561
g5
S'a7'
p1562
sa(dp1563
g5
S'a8'
p1564
sa(dp1565
g5
S'b1'
p1566
sa(dp1567
g8
S'black_rook'
p1568
sg5
S'b2'
p1569
sa(dp1570
g5
S'b3'
p1571
sa(dp1572
g8
S'black_pawn'
p1573
sg5
S'b4'
p1574
sa(dp1575
g5
S'b5'
p1576
sa(dp1577
g5
S'b6'
p1578
sa(dp1579
g5
S'b7'
p1580
sa(dp1581
g5
S'b8'
p1582
sa(dp1583
g5
S'c1'
p1584
sa(dp1585
g8
S'white_pawn'
p1586
sg5
S'c2'
p1587
sa(dp1588
g5
S'c3'
p1589
sa(dp1590
g5
S'c4'
p1591
sa(dp1592
g8
S'black_bishop'
p1593
sg5
S'c5'
p1594
sa(dp1595
g8
S'black_pawn'
p1596
sg5
S'c6'
p1597
sa(dp1598
g5
S'c7'
p1599
sa(dp1600
g5
S'c8'
p1601
sa(dp1602
g5
S'd1'
p1603
sa(dp1604
g5
S'd2'
p1605
sa(dp1606
g8
S'white_bishop'
p1607
sg5
S'd3'
p1608
sa(dp1609
g5
S'd4'
p1610
sa(dp1611
g5
S'd5'
p1612
sa(dp1613
g5
S'd6'
p1614
sa(dp1615
g5
S'd7'
p1616
sa(dp1617
g5
S'd8'
p1618
sa(dp1619
g5
S'e1'
p1620
sa(dp1621
g5
S'e2'
p1622
sa(dp1623
g8
S'white_knight'
p1624
sg5
S'e3'
p1625
sa(dp1626
g8
S'white_pawn'
p1627
sg5
S'e4'
p1628
sa(dp1629
g8
S'black_pawn'
p1630
sg5
S'e5'
p1631
sa(dp1632
g8
S'black_bishop'
p1633
sg5
S'e6'
p1634
sa(dp1635
g5
S'e7'
p1636
sa(dp1637
g5
S'e8'
p1638
sa(dp1639
g8
S'white_king'
p1640
sg5
S'f1'
p1641
sa(dp1642
g5
S'f2'
p1643
sa(dp1644
g8
S'white_pawn'
p1645
sg5
S'f3'
p1646
sa(dp1647
g5
S'f4'
p1648
sa(dp1649
g5
S'f5'
p1650
sa(dp1651
g5
S'f6'
p1652
sa(dp1653
g8
S'black_pawn'
p1654
sg5
S'f7'
p1655
sa(dp1656
g5
S'f8'
p1657
sa(dp1658
g8
S'white_knight'
p1659
sg5
S'g1'
p1660
sa(dp1661
g8
S'white_pawn'
p1662
sg5
S'g2'
p1663
sa(dp1664
g5
S'g3'
p1665
sa(dp1666
g5
S'g4'
p1667
sa(dp1668
g5
S'g5'
p1669
sa(dp1670
g8
S'black_pawn'
p1671
sg5
S'g6'
p1672
sa(dp1673
g8
S'black_king'
p1674
sg5
S'g7'
p1675
sa(dp1676
g5
S'g8'
p1677
sa(dp1678
g5
S'h1'
p1679
sa(dp1680
g8
S'white_pawn'
p1681
sg5
S'h2'
p1682
sa(dp1683
g5
S'h3'
p1684
sa(dp1685
g5
S'h4'
p1686
sa(dp1687
g8
S'black_pawn'
p1688
sg5
S'h5'
p1689
sa(dp1690
g5
S'h6'
p1691
sa(dp1692
g5
S'h7'
p1693
sa(dp1694
g5
S'h8'
p1695
saaVI take.
p1696
aa(lp1697
S'36... Bxe3'
p1698
a(lp1699
(dp1700
g8
S'white_rook'
p1701
sg5
S'a1'
p1702
sa(dp1703
g5
S'a2'
p1704
sa(dp1705
g5
S'a3'
p1706
sa(dp1707
g5
S'a4'
p1708
sa(dp1709
g5
S'a5'
p1710
sa(dp1711
g5
S'a6'
p1712
sa(dp1713
g5
S'a7'
p1714
sa(dp1715
g5
S'a8'
p1716
sa(dp1717
g5
S'b1'
p1718
sa(dp1719
g8
S'black_rook'
p1720
sg5
S'b2'
p1721
sa(dp1722
g5
S'b3'
p1723
sa(dp1724
g8
S'black_pawn'
p1725
sg5
S'b4'
p1726
sa(dp1727
g5
S'b5'
p1728
sa(dp1729
g5
S'b6'
p1730
sa(dp1731
g5
S'b7'
p1732
sa(dp1733
g5
S'b8'
p1734
sa(dp1735
g5
S'c1'
p1736
sa(dp1737
g8
S'white_pawn'
p1738
sg5
S'c2'
p1739
sa(dp1740
g5
S'c3'
p1741
sa(dp1742
g5
S'c4'
p1743
sa(dp1744
g5
S'c5'
p1745
sa(dp1746
g8
S'black_pawn'
p1747
sg5
S'c6'
p1748
sa(dp1749
g5
S'c7'
p1750
sa(dp1751
g5
S'c8'
p1752
sa(dp1753
g5
S'd1'
p1754
sa(dp1755
g5
S'd2'
p1756
sa(dp1757
g8
S'white_bishop'
p1758
sg5
S'd3'
p1759
sa(dp1760
g5
S'd4'
p1761
sa(dp1762
g5
S'd5'
p1763
sa(dp1764
g5
S'd6'
p1765
sa(dp1766
g5
S'd7'
p1767
sa(dp1768
g5
S'd8'
p1769
sa(dp1770
g5
S'e1'
p1771
sa(dp1772
g5
S'e2'
p1773
sa(dp1774
g8
S'black_bishop'
p1775
sg5
S'e3'
p1776
sa(dp1777
g8
S'white_pawn'
p1778
sg5
S'e4'
p1779
sa(dp1780
g8
S'black_pawn'
p1781
sg5
S'e5'
p1782
sa(dp1783
g8
S'black_bishop'
p1784
sg5
S'e6'
p1785
sa(dp1786
g5
S'e7'
p1787
sa(dp1788
g5
S'e8'
p1789
sa(dp1790
g8
S'white_king'
p1791
sg5
S'f1'
p1792
sa(dp1793
g5
S'f2'
p1794
sa(dp1795
g8
S'white_pawn'
p1796
sg5
S'f3'
p1797
sa(dp1798
g5
S'f4'
p1799
sa(dp1800
g5
S'f5'
p1801
sa(dp1802
g5
S'f6'
p1803
sa(dp1804
g8
S'black_pawn'
p1805
sg5
S'f7'
p1806
sa(dp1807
g5
S'f8'
p1808
sa(dp1809
g8
S'white_knight'
p1810
sg5
S'g1'
p1811
sa(dp1812
g8
S'white_pawn'
p1813
sg5
S'g2'
p1814
sa(dp1815
g5
S'g3'
p1816
sa(dp1817
g5
S'g4'
p1818
sa(dp1819
g5
S'g5'
p1820
sa(dp1821
g8
S'black_pawn'
p1822
sg5
S'g6'
p1823
sa(dp1824
g8
S'black_king'
p1825
sg5
S'g7'
p1826
sa(dp1827
g5
S'g8'
p1828
sa(dp1829
g5
S'h1'
p1830
sa(dp1831
g8
S'white_pawn'
p1832
sg5
S'h2'
p1833
sa(dp1834
g5
S'h3'
p1835
sa(dp1836
g5
S'h4'
p1837
sa(dp1838
g8
S'black_pawn'
p1839
sg5
S'h5'
p1840
sa(dp1841
g5
S'h6'
p1842
sa(dp1843
g5
S'h7'
p1844
sa(dp1845
g5
S'h8'
p1846
saaVHe takes back.
p1847
aa(lp1848
S'37. Ne2'
p1849
a(lp1850
(dp1851
g8
S'white_rook'
p1852
sg5
S'a1'
p1853
sa(dp1854
g5
S'a2'
p1855
sa(dp1856
g5
S'a3'
p1857
sa(dp1858
g5
S'a4'
p1859
sa(dp1860
g5
S'a5'
p1861
sa(dp1862
g5
S'a6'
p1863
sa(dp1864
g5
S'a7'
p1865
sa(dp1866
g5
S'a8'
p1867
sa(dp1868
g5
S'b1'
p1869
sa(dp1870
g8
S'black_rook'
p1871
sg5
S'b2'
p1872
sa(dp1873
g5
S'b3'
p1874
sa(dp1875
g8
S'black_pawn'
p1876
sg5
S'b4'
p1877
sa(dp1878
g5
S'b5'
p1879
sa(dp1880
g5
S'b6'
p1881
sa(dp1882
g5
S'b7'
p1883
sa(dp1884
g5
S'b8'
p1885
sa(dp1886
g5
S'c1'
p1887
sa(dp1888
g8
S'white_pawn'
p1889
sg5
S'c2'
p1890
sa(dp1891
g5
S'c3'
p1892
sa(dp1893
g5
S'c4'
p1894
sa(dp1895
g5
S'c5'
p1896
sa(dp1897
g8
S'black_pawn'
p1898
sg5
S'c6'
p1899
sa(dp1900
g5
S'c7'
p1901
sa(dp1902
g5
S'c8'
p1903
sa(dp1904
g5
S'd1'
p1905
sa(dp1906
g5
S'd2'
p1907
sa(dp1908
g8
S'white_bishop'
p1909
sg5
S'd3'
p1910
sa(dp1911
g5
S'd4'
p1912
sa(dp1913
g5
S'd5'
p1914
sa(dp1915
g5
S'd6'
p1916
sa(dp1917
g5
S'd7'
p1918
sa(dp1919
g5
S'd8'
p1920
sa(dp1921
g5
S'e1'
p1922
sa(dp1923
g8
S'white_knight'
p1924
sg5
S'e2'
p1925
sa(dp1926
g8
S'black_bishop'
p1927
sg5
S'e3'
p1928
sa(dp1929
g8
S'white_pawn'
p1930
sg5
S'e4'
p1931
sa(dp1932
g8
S'black_pawn'
p1933
sg5
S'e5'
p1934
sa(dp1935
g8
S'black_bishop'
p1936
sg5
S'e6'
p1937
sa(dp1938
g5
S'e7'
p1939
sa(dp1940
g5
S'e8'
p1941
sa(dp1942
g8
S'white_king'
p1943
sg5
S'f1'
p1944
sa(dp1945
g5
S'f2'
p1946
sa(dp1947
g8
S'white_pawn'
p1948
sg5
S'f3'
p1949
sa(dp1950
g5
S'f4'
p1951
sa(dp1952
g5
S'f5'
p1953
sa(dp1954
g5
S'f6'
p1955
sa(dp1956
g8
S'black_pawn'
p1957
sg5
S'f7'
p1958
sa(dp1959
g5
S'f8'
p1960
sa(dp1961
g5
S'g1'
p1962
sa(dp1963
g8
S'white_pawn'
p1964
sg5
S'g2'
p1965
sa(dp1966
g5
S'g3'
p1967
sa(dp1968
g5
S'g4'
p1969
sa(dp1970
g5
S'g5'
p1971
sa(dp1972
g8
S'black_pawn'
p1973
sg5
S'g6'
p1974
sa(dp1975
g8
S'black_king'
p1976
sg5
S'g7'
p1977
sa(dp1978
g5
S'g8'
p1979
sa(dp1980
g5
S'h1'
p1981
sa(dp1982
g8
S'white_pawn'
p1983
sg5
S'h2'
p1984
sa(dp1985
g5
S'h3'
p1986
sa(dp1987
g5
S'h4'
p1988
sa(dp1989
g8
S'black_pawn'
p1990
sg5
S'h5'
p1991
sa(dp1992
g5
S'h6'
p1993
sa(dp1994
g5
S'h7'
p1995
sa(dp1996
g5
S'h8'
p1997
saaVThis knight pops out.
p1998
aa(lp1999
S'37... c5'
p2000
a(lp2001
(dp2002
g8
S'white_rook'
p2003
sg5
S'a1'
p2004
sa(dp2005
g5
S'a2'
p2006
sa(dp2007
g5
S'a3'
p2008
sa(dp2009
g5
S'a4'
p2010
sa(dp2011
g5
S'a5'
p2012
sa(dp2013
g5
S'a6'
p2014
sa(dp2015
g5
S'a7'
p2016
sa(dp2017
g5
S'a8'
p2018
sa(dp2019
g5
S'b1'
p2020
sa(dp2021
g8
S'black_rook'
p2022
sg5
S'b2'
p2023
sa(dp2024
g5
S'b3'
p2025
sa(dp2026
g8
S'black_pawn'
p2027
sg5
S'b4'
p2028
sa(dp2029
g5
S'b5'
p2030
sa(dp2031
g5
S'b6'
p2032
sa(dp2033
g5
S'b7'
p2034
sa(dp2035
g5
S'b8'
p2036
sa(dp2037
g5
S'c1'
p2038
sa(dp2039
g8
S'white_pawn'
p2040
sg5
S'c2'
p2041
sa(dp2042
g5
S'c3'
p2043
sa(dp2044
g5
S'c4'
p2045
sa(dp2046
g8
S'black_pawn'
p2047
sg5
S'c5'
p2048
sa(dp2049
g5
S'c6'
p2050
sa(dp2051
g5
S'c7'
p2052
sa(dp2053
g5
S'c8'
p2054
sa(dp2055
g5
S'd1'
p2056
sa(dp2057
g5
S'd2'
p2058
sa(dp2059
g8
S'white_bishop'
p2060
sg5
S'd3'
p2061
sa(dp2062
g5
S'd4'
p2063
sa(dp2064
g5
S'd5'
p2065
sa(dp2066
g5
S'd6'
p2067
sa(dp2068
g5
S'd7'
p2069
sa(dp2070
g5
S'd8'
p2071
sa(dp2072
g5
S'e1'
p2073
sa(dp2074
g8
S'white_knight'
p2075
sg5
S'e2'
p2076
sa(dp2077
g8
S'black_bishop'
p2078
sg5
S'e3'
p2079
sa(dp2080
g8
S'white_pawn'
p2081
sg5
S'e4'
p2082
sa(dp2083
g8
S'black_pawn'
p2084
sg5
S'e5'
p2085
sa(dp2086
g8
S'black_bishop'
p2087
sg5
S'e6'
p2088
sa(dp2089
g5
S'e7'
p2090
sa(dp2091
g5
S'e8'
p2092
sa(dp2093
g8
S'white_king'
p2094
sg5
S'f1'
p2095
sa(dp2096
g5
S'f2'
p2097
sa(dp2098
g8
S'white_pawn'
p2099
sg5
S'f3'
p2100
sa(dp2101
g5
S'f4'
p2102
sa(dp2103
g5
S'f5'
p2104
sa(dp2105
g5
S'f6'
p2106
sa(dp2107
g8
S'black_pawn'
p2108
sg5
S'f7'
p2109
sa(dp2110
g5
S'f8'
p2111
sa(dp2112
g5
S'g1'
p2113
sa(dp2114
g8
S'white_pawn'
p2115
sg5
S'g2'
p2116
sa(dp2117
g5
S'g3'
p2118
sa(dp2119
g5
S'g4'
p2120
sa(dp2121
g5
S'g5'
p2122
sa(dp2123
g8
S'black_pawn'
p2124
sg5
S'g6'
p2125
sa(dp2126
g8
S'black_king'
p2127
sg5
S'g7'
p2128
sa(dp2129
g5
S'g8'
p2130
sa(dp2131
g5
S'h1'
p2132
sa(dp2133
g8
S'white_pawn'
p2134
sg5
S'h2'
p2135
sa(dp2136
g5
S'h3'
p2137
sa(dp2138
g5
S'h4'
p2139
sa(dp2140
g8
S'black_pawn'
p2141
sg5
S'h5'
p2142
sa(dp2143
g5
S'h6'
p2144
sa(dp2145
g5
S'h7'
p2146
sa(dp2147
g5
S'h8'
p2148
saaVThreat - c4 winning the bishop.
p2149
aa(lp2150
S'38. Nc1'
p2151
a(lp2152
(dp2153
g8
S'white_rook'
p2154
sg5
S'a1'
p2155
sa(dp2156
g5
S'a2'
p2157
sa(dp2158
g5
S'a3'
p2159
sa(dp2160
g5
S'a4'
p2161
sa(dp2162
g5
S'a5'
p2163
sa(dp2164
g5
S'a6'
p2165
sa(dp2166
g5
S'a7'
p2167
sa(dp2168
g5
S'a8'
p2169
sa(dp2170
g5
S'b1'
p2171
sa(dp2172
g8
S'black_rook'
p2173
sg5
S'b2'
p2174
sa(dp2175
g5
S'b3'
p2176
sa(dp2177
g8
S'black_pawn'
p2178
sg5
S'b4'
p2179
sa(dp2180
g5
S'b5'
p2181
sa(dp2182
g5
S'b6'
p2183
sa(dp2184
g5
S'b7'
p2185
sa(dp2186
g5
S'b8'
p2187
sa(dp2188
g8
S'white_knight'
p2189
sg5
S'c1'
p2190
sa(dp2191
g8
S'white_pawn'
p2192
sg5
S'c2'
p2193
sa(dp2194
g5
S'c3'
p2195
sa(dp2196
g5
S'c4'
p2197
sa(dp2198
g8
S'black_pawn'
p2199
sg5
S'c5'
p2200
sa(dp2201
g5
S'c6'
p2202
sa(dp2203
g5
S'c7'
p2204
sa(dp2205
g5
S'c8'
p2206
sa(dp2207
g5
S'd1'
p2208
sa(dp2209
g5
S'd2'
p2210
sa(dp2211
g8
S'white_bishop'
p2212
sg5
S'd3'
p2213
sa(dp2214
g5
S'd4'
p2215
sa(dp2216
g5
S'd5'
p2217
sa(dp2218
g5
S'd6'
p2219
sa(dp2220
g5
S'd7'
p2221
sa(dp2222
g5
S'd8'
p2223
sa(dp2224
g5
S'e1'
p2225
sa(dp2226
g5
S'e2'
p2227
sa(dp2228
g8
S'black_bishop'
p2229
sg5
S'e3'
p2230
sa(dp2231
g8
S'white_pawn'
p2232
sg5
S'e4'
p2233
sa(dp2234
g8
S'black_pawn'
p2235
sg5
S'e5'
p2236
sa(dp2237
g8
S'black_bishop'
p2238
sg5
S'e6'
p2239
sa(dp2240
g5
S'e7'
p2241
sa(dp2242
g5
S'e8'
p2243
sa(dp2244
g8
S'white_king'
p2245
sg5
S'f1'
p2246
sa(dp2247
g5
S'f2'
p2248
sa(dp2249
g8
S'white_pawn'
p2250
sg5
S'f3'
p2251
sa(dp2252
g5
S'f4'
p2253
sa(dp2254
g5
S'f5'
p2255
sa(dp2256
g5
S'f6'
p2257
sa(dp2258
g8
S'black_pawn'
p2259
sg5
S'f7'
p2260
sa(dp2261
g5
S'f8'
p2262
sa(dp2263
g5
S'g1'
p2264
sa(dp2265
g8
S'white_pawn'
p2266
sg5
S'g2'
p2267
sa(dp2268
g5
S'g3'
p2269
sa(dp2270
g5
S'g4'
p2271
sa(dp2272
g5
S'g5'
p2273
sa(dp2274
g8
S'black_pawn'
p2275
sg5
S'g6'
p2276
sa(dp2277
g8
S'black_king'
p2278
sg5
S'g7'
p2279
sa(dp2280
g5
S'g8'
p2281
sa(dp2282
g5
S'h1'
p2283
sa(dp2284
g8
S'white_pawn'
p2285
sg5
S'h2'
p2286
sa(dp2287
g5
S'h3'
p2288
sa(dp2289
g5
S'h4'
p2290
sa(dp2291
g8
S'black_pawn'
p2292
sg5
S'h5'
p2293
sa(dp2294
g5
S'h6'
p2295
sa(dp2296
g5
S'h7'
p2297
sa(dp2298
g5
S'h8'
p2299
saaVCreating room for my bishop.
p2300
aa(lp2301
S'38... c4'
p2302
a(lp2303
(dp2304
g8
S'white_rook'
p2305
sg5
S'a1'
p2306
sa(dp2307
g5
S'a2'
p2308
sa(dp2309
g5
S'a3'
p2310
sa(dp2311
g5
S'a4'
p2312
sa(dp2313
g5
S'a5'
p2314
sa(dp2315
g5
S'a6'
p2316
sa(dp2317
g5
S'a7'
p2318
sa(dp2319
g5
S'a8'
p2320
sa(dp2321
g5
S'b1'
p2322
sa(dp2323
g8
S'black_rook'
p2324
sg5
S'b2'
p2325
sa(dp2326
g5
S'b3'
p2327
sa(dp2328
g8
S'black_pawn'
p2329
sg5
S'b4'
p2330
sa(dp2331
g5
S'b5'
p2332
sa(dp2333
g5
S'b6'
p2334
sa(dp2335
g5
S'b7'
p2336
sa(dp2337
g5
S'b8'
p2338
sa(dp2339
g8
S'white_knight'
p2340
sg5
S'c1'
p2341
sa(dp2342
g8
S'white_pawn'
p2343
sg5
S'c2'
p2344
sa(dp2345
g5
S'c3'
p2346
sa(dp2347
g8
S'black_pawn'
p2348
sg5
S'c4'
p2349
sa(dp2350
g5
S'c5'
p2351
sa(dp2352
g5
S'c6'
p2353
sa(dp2354
g5
S'c7'
p2355
sa(dp2356
g5
S'c8'
p2357
sa(dp2358
g5
S'd1'
p2359
sa(dp2360
g5
S'd2'
p2361
sa(dp2362
g8
S'white_bishop'
p2363
sg5
S'd3'
p2364
sa(dp2365
g5
S'd4'
p2366
sa(dp2367
g5
S'd5'
p2368
sa(dp2369
g5
S'd6'
p2370
sa(dp2371
g5
S'd7'
p2372
sa(dp2373
g5
S'd8'
p2374
sa(dp2375
g5
S'e1'
p2376
sa(dp2377
g5
S'e2'
p2378
sa(dp2379
g8
S'black_bishop'
p2380
sg5
S'e3'
p2381
sa(dp2382
g8
S'white_pawn'
p2383
sg5
S'e4'
p2384
sa(dp2385
g8
S'black_pawn'
p2386
sg5
S'e5'
p2387
sa(dp2388
g8
S'black_bishop'
p2389
sg5
S'e6'
p2390
sa(dp2391
g5
S'e7'
p2392
sa(dp2393
g5
S'e8'
p2394
sa(dp2395
g8
S'white_king'
p2396
sg5
S'f1'
p2397
sa(dp2398
g5
S'f2'
p2399
sa(dp2400
g8
S'white_pawn'
p2401
sg5
S'f3'
p2402
sa(dp2403
g5
S'f4'
p2404
sa(dp2405
g5
S'f5'
p2406
sa(dp2407
g5
S'f6'
p2408
sa(dp2409
g8
S'black_pawn'
p2410
sg5
S'f7'
p2411
sa(dp2412
g5
S'f8'
p2413
sa(dp2414
g5
S'g1'
p2415
sa(dp2416
g8
S'white_pawn'
p2417
sg5
S'g2'
p2418
sa(dp2419
g5
S'g3'
p2420
sa(dp2421
g5
S'g4'
p2422
sa(dp2423
g5
S'g5'
p2424
sa(dp2425
g8
S'black_pawn'
p2426
sg5
S'g6'
p2427
sa(dp2428
g8
S'black_king'
p2429
sg5
S'g7'
p2430
sa(dp2431
g5
S'g8'
p2432
sa(dp2433
g5
S'h1'
p2434
sa(dp2435
g8
S'white_pawn'
p2436
sg5
S'h2'
p2437
sa(dp2438
g5
S'h3'
p2439
sa(dp2440
g5
S'h4'
p2441
sa(dp2442
g8
S'black_pawn'
p2443
sg5
S'h5'
p2444
sa(dp2445
g5
S'h6'
p2446
sa(dp2447
g5
S'h7'
p2448
sa(dp2449
g5
S'h8'
p2450
saaVHe hits it anyway. 
p2451
aa(lp2452
S'39. Be2'
p2453
a(lp2454
(dp2455
g8
S'white_rook'
p2456
sg5
S'a1'
p2457
sa(dp2458
g5
S'a2'
p2459
sa(dp2460
g5
S'a3'
p2461
sa(dp2462
g5
S'a4'
p2463
sa(dp2464
g5
S'a5'
p2465
sa(dp2466
g5
S'a6'
p2467
sa(dp2468
g5
S'a7'
p2469
sa(dp2470
g5
S'a8'
p2471
sa(dp2472
g5
S'b1'
p2473
sa(dp2474
g8
S'black_rook'
p2475
sg5
S'b2'
p2476
sa(dp2477
g5
S'b3'
p2478
sa(dp2479
g8
S'black_pawn'
p2480
sg5
S'b4'
p2481
sa(dp2482
g5
S'b5'
p2483
sa(dp2484
g5
S'b6'
p2485
sa(dp2486
g5
S'b7'
p2487
sa(dp2488
g5
S'b8'
p2489
sa(dp2490
g8
S'white_knight'
p2491
sg5
S'c1'
p2492
sa(dp2493
g8
S'white_pawn'
p2494
sg5
S'c2'
p2495
sa(dp2496
g5
S'c3'
p2497
sa(dp2498
g8
S'black_pawn'
p2499
sg5
S'c4'
p2500
sa(dp2501
g5
S'c5'
p2502
sa(dp2503
g5
S'c6'
p2504
sa(dp2505
g5
S'c7'
p2506
sa(dp2507
g5
S'c8'
p2508
sa(dp2509
g5
S'd1'
p2510
sa(dp2511
g5
S'd2'
p2512
sa(dp2513
g5
S'd3'
p2514
sa(dp2515
g5
S'd4'
p2516
sa(dp2517
g5
S'd5'
p2518
sa(dp2519
g5
S'd6'
p2520
sa(dp2521
g5
S'd7'
p2522
sa(dp2523
g5
S'd8'
p2524
sa(dp2525
g5
S'e1'
p2526
sa(dp2527
g8
S'white_bishop'
p2528
sg5
S'e2'
p2529
sa(dp2530
g8
S'black_bishop'
p2531
sg5
S'e3'
p2532
sa(dp2533
g8
S'white_pawn'
p2534
sg5
S'e4'
p2535
sa(dp2536
g8
S'black_pawn'
p2537
sg5
S'e5'
p2538
sa(dp2539
g8
S'black_bishop'
p2540
sg5
S'e6'
p2541
sa(dp2542
g5
S'e7'
p2543
sa(dp2544
g5
S'e8'
p2545
sa(dp2546
g8
S'white_king'
p2547
sg5
S'f1'
p2548
sa(dp2549
g5
S'f2'
p2550
sa(dp2551
g8
S'white_pawn'
p2552
sg5
S'f3'
p2553
sa(dp2554
g5
S'f4'
p2555
sa(dp2556
g5
S'f5'
p2557
sa(dp2558
g5
S'f6'
p2559
sa(dp2560
g8
S'black_pawn'
p2561
sg5
S'f7'
p2562
sa(dp2563
g5
S'f8'
p2564
sa(dp2565
g5
S'g1'
p2566
sa(dp2567
g8
S'white_pawn'
p2568
sg5
S'g2'
p2569
sa(dp2570
g5
S'g3'
p2571
sa(dp2572
g5
S'g4'
p2573
sa(dp2574
g5
S'g5'
p2575
sa(dp2576
g8
S'black_pawn'
p2577
sg5
S'g6'
p2578
sa(dp2579
g8
S'black_king'
p2580
sg5
S'g7'
p2581
sa(dp2582
g5
S'g8'
p2583
sa(dp2584
g5
S'h1'
p2585
sa(dp2586
g8
S'white_pawn'
p2587
sg5
S'h2'
p2588
sa(dp2589
g5
S'h3'
p2590
sa(dp2591
g5
S'h4'
p2592
sa(dp2593
g8
S'black_pawn'
p2594
sg5
S'h5'
p2595
sa(dp2596
g5
S'h6'
p2597
sa(dp2598
g5
S'h7'
p2599
sa(dp2600
g5
S'h8'
p2601
saaVIt retreats.
p2602
aa(lp2603
S'39... Rxc2'
p2604
a(lp2605
(dp2606
g8
S'white_rook'
p2607
sg5
S'a1'
p2608
sa(dp2609
g5
S'a2'
p2610
sa(dp2611
g5
S'a3'
p2612
sa(dp2613
g5
S'a4'
p2614
sa(dp2615
g5
S'a5'
p2616
sa(dp2617
g5
S'a6'
p2618
sa(dp2619
g5
S'a7'
p2620
sa(dp2621
g5
S'a8'
p2622
sa(dp2623
g5
S'b1'
p2624
sa(dp2625
g5
S'b2'
p2626
sa(dp2627
g5
S'b3'
p2628
sa(dp2629
g8
S'black_pawn'
p2630
sg5
S'b4'
p2631
sa(dp2632
g5
S'b5'
p2633
sa(dp2634
g5
S'b6'
p2635
sa(dp2636
g5
S'b7'
p2637
sa(dp2638
g5
S'b8'
p2639
sa(dp2640
g8
S'white_knight'
p2641
sg5
S'c1'
p2642
sa(dp2643
g8
S'black_rook'
p2644
sg5
S'c2'
p2645
sa(dp2646
g5
S'c3'
p2647
sa(dp2648
g8
S'black_pawn'
p2649
sg5
S'c4'
p2650
sa(dp2651
g5
S'c5'
p2652
sa(dp2653
g5
S'c6'
p2654
sa(dp2655
g5
S'c7'
p2656
sa(dp2657
g5
S'c8'
p2658
sa(dp2659
g5
S'd1'
p2660
sa(dp2661
g5
S'd2'
p2662
sa(dp2663
g5
S'd3'
p2664
sa(dp2665
g5
S'd4'
p2666
sa(dp2667
g5
S'd5'
p2668
sa(dp2669
g5
S'd6'
p2670
sa(dp2671
g5
S'd7'
p2672
sa(dp2673
g5
S'd8'
p2674
sa(dp2675
g5
S'e1'
p2676
sa(dp2677
g8
S'white_bishop'
p2678
sg5
S'e2'
p2679
sa(dp2680
g8
S'black_bishop'
p2681
sg5
S'e3'
p2682
sa(dp2683
g8
S'white_pawn'
p2684
sg5
S'e4'
p2685
sa(dp2686
g8
S'black_pawn'
p2687
sg5
S'e5'
p2688
sa(dp2689
g8
S'black_bishop'
p2690
sg5
S'e6'
p2691
sa(dp2692
g5
S'e7'
p2693
sa(dp2694
g5
S'e8'
p2695
sa(dp2696
g8
S'white_king'
p2697
sg5
S'f1'
p2698
sa(dp2699
g5
S'f2'
p2700
sa(dp2701
g8
S'white_pawn'
p2702
sg5
S'f3'
p2703
sa(dp2704
g5
S'f4'
p2705
sa(dp2706
g5
S'f5'
p2707
sa(dp2708
g5
S'f6'
p2709
sa(dp2710
g8
S'black_pawn'
p2711
sg5
S'f7'
p2712
sa(dp2713
g5
S'f8'
p2714
sa(dp2715
g5
S'g1'
p2716
sa(dp2717
g8
S'white_pawn'
p2718
sg5
S'g2'
p2719
sa(dp2720
g5
S'g3'
p2721
sa(dp2722
g5
S'g4'
p2723
sa(dp2724
g5
S'g5'
p2725
sa(dp2726
g8
S'black_pawn'
p2727
sg5
S'g6'
p2728
sa(dp2729
g8
S'black_king'
p2730
sg5
S'g7'
p2731
sa(dp2732
g5
S'g8'
p2733
sa(dp2734
g5
S'h1'
p2735
sa(dp2736
g8
S'white_pawn'
p2737
sg5
S'h2'
p2738
sa(dp2739
g5
S'h3'
p2740
sa(dp2741
g5
S'h4'
p2742
sa(dp2743
g8
S'black_pawn'
p2744
sg5
S'h5'
p2745
sa(dp2746
g5
S'h6'
p2747
sa(dp2748
g5
S'h7'
p2749
sa(dp2750
g5
S'h8'
p2751
saaVA second pawn drops. He is threatening to take my knight now.
p2752
aa(lp2753
S'40. Na2'
p2754
a(lp2755
(dp2756
g8
S'white_rook'
p2757
sg5
S'a1'
p2758
sa(dp2759
g8
S'white_knight'
p2760
sg5
S'a2'
p2761
sa(dp2762
g5
S'a3'
p2763
sa(dp2764
g5
S'a4'
p2765
sa(dp2766
g5
S'a5'
p2767
sa(dp2768
g5
S'a6'
p2769
sa(dp2770
g5
S'a7'
p2771
sa(dp2772
g5
S'a8'
p2773
sa(dp2774
g5
S'b1'
p2775
sa(dp2776
g5
S'b2'
p2777
sa(dp2778
g5
S'b3'
p2779
sa(dp2780
g8
S'black_pawn'
p2781
sg5
S'b4'
p2782
sa(dp2783
g5
S'b5'
p2784
sa(dp2785
g5
S'b6'
p2786
sa(dp2787
g5
S'b7'
p2788
sa(dp2789
g5
S'b8'
p2790
sa(dp2791
g5
S'c1'
p2792
sa(dp2793
g8
S'black_rook'
p2794
sg5
S'c2'
p2795
sa(dp2796
g5
S'c3'
p2797
sa(dp2798
g8
S'black_pawn'
p2799
sg5
S'c4'
p2800
sa(dp2801
g5
S'c5'
p2802
sa(dp2803
g5
S'c6'
p2804
sa(dp2805
g5
S'c7'
p2806
sa(dp2807
g5
S'c8'
p2808
sa(dp2809
g5
S'd1'
p2810
sa(dp2811
g5
S'd2'
p2812
sa(dp2813
g5
S'd3'
p2814
sa(dp2815
g5
S'd4'
p2816
sa(dp2817
g5
S'd5'
p2818
sa(dp2819
g5
S'd6'
p2820
sa(dp2821
g5
S'd7'
p2822
sa(dp2823
g5
S'd8'
p2824
sa(dp2825
g5
S'e1'
p2826
sa(dp2827
g8
S'white_bishop'
p2828
sg5
S'e2'
p2829
sa(dp2830
g8
S'black_bishop'
p2831
sg5
S'e3'
p2832
sa(dp2833
g8
S'white_pawn'
p2834
sg5
S'e4'
p2835
sa(dp2836
g8
S'black_pawn'
p2837
sg5
S'e5'
p2838
sa(dp2839
g8
S'black_bishop'
p2840
sg5
S'e6'
p2841
sa(dp2842
g5
S'e7'
p2843
sa(dp2844
g5
S'e8'
p2845
sa(dp2846
g8
S'white_king'
p2847
sg5
S'f1'
p2848
sa(dp2849
g5
S'f2'
p2850
sa(dp2851
g8
S'white_pawn'
p2852
sg5
S'f3'
p2853
sa(dp2854
g5
S'f4'
p2855
sa(dp2856
g5
S'f5'
p2857
sa(dp2858
g5
S'f6'
p2859
sa(dp2860
g8
S'black_pawn'
p2861
sg5
S'f7'
p2862
sa(dp2863
g5
S'f8'
p2864
sa(dp2865
g5
S'g1'
p2866
sa(dp2867
g8
S'white_pawn'
p2868
sg5
S'g2'
p2869
sa(dp2870
g5
S'g3'
p2871
sa(dp2872
g5
S'g4'
p2873
sa(dp2874
g5
S'g5'
p2875
sa(dp2876
g8
S'black_pawn'
p2877
sg5
S'g6'
p2878
sa(dp2879
g8
S'black_king'
p2880
sg5
S'g7'
p2881
sa(dp2882
g5
S'g8'
p2883
sa(dp2884
g5
S'h1'
p2885
sa(dp2886
g8
S'white_pawn'
p2887
sg5
S'h2'
p2888
sa(dp2889
g5
S'h3'
p2890
sa(dp2891
g5
S'h4'
p2892
sa(dp2893
g8
S'black_pawn'
p2894
sg5
S'h5'
p2895
sa(dp2896
g5
S'h6'
p2897
sa(dp2898
g5
S'h7'
p2899
sa(dp2900
g5
S'h8'
p2901
saaVThis is its only square.
p2902
aa(lp2903
S'40... b3'
p2904
a(lp2905
(dp2906
g8
S'white_rook'
p2907
sg5
S'a1'
p2908
sa(dp2909
g8
S'white_knight'
p2910
sg5
S'a2'
p2911
sa(dp2912
g5
S'a3'
p2913
sa(dp2914
g5
S'a4'
p2915
sa(dp2916
g5
S'a5'
p2917
sa(dp2918
g5
S'a6'
p2919
sa(dp2920
g5
S'a7'
p2921
sa(dp2922
g5
S'a8'
p2923
sa(dp2924
g5
S'b1'
p2925
sa(dp2926
g5
S'b2'
p2927
sa(dp2928
g8
S'black_pawn'
p2929
sg5
S'b3'
p2930
sa(dp2931
g5
S'b4'
p2932
sa(dp2933
g5
S'b5'
p2934
sa(dp2935
g5
S'b6'
p2936
sa(dp2937
g5
S'b7'
p2938
sa(dp2939
g5
S'b8'
p2940
sa(dp2941
g5
S'c1'
p2942
sa(dp2943
g8
S'black_rook'
p2944
sg5
S'c2'
p2945
sa(dp2946
g5
S'c3'
p2947
sa(dp2948
g8
S'black_pawn'
p2949
sg5
S'c4'
p2950
sa(dp2951
g5
S'c5'
p2952
sa(dp2953
g5
S'c6'
p2954
sa(dp2955
g5
S'c7'
p2956
sa(dp2957
g5
S'c8'
p2958
sa(dp2959
g5
S'd1'
p2960
sa(dp2961
g5
S'd2'
p2962
sa(dp2963
g5
S'd3'
p2964
sa(dp2965
g5
S'd4'
p2966
sa(dp2967
g5
S'd5'
p2968
sa(dp2969
g5
S'd6'
p2970
sa(dp2971
g5
S'd7'
p2972
sa(dp2973
g5
S'd8'
p2974
sa(dp2975
g5
S'e1'
p2976
sa(dp2977
g8
S'white_bishop'
p2978
sg5
S'e2'
p2979
sa(dp2980
g8
S'black_bishop'
p2981
sg5
S'e3'
p2982
sa(dp2983
g8
S'white_pawn'
p2984
sg5
S'e4'
p2985
sa(dp2986
g8
S'black_pawn'
p2987
sg5
S'e5'
p2988
sa(dp2989
g8
S'black_bishop'
p2990
sg5
S'e6'
p2991
sa(dp2992
g5
S'e7'
p2993
sa(dp2994
g5
S'e8'
p2995
sa(dp2996
g8
S'white_king'
p2997
sg5
S'f1'
p2998
sa(dp2999
g5
S'f2'
p3000
sa(dp3001
g8
S'white_pawn'
p3002
sg5
S'f3'
p3003
sa(dp3004
g5
S'f4'
p3005
sa(dp3006
g5
S'f5'
p3007
sa(dp3008
g5
S'f6'
p3009
sa(dp3010
g8
S'black_pawn'
p3011
sg5
S'f7'
p3012
sa(dp3013
g5
S'f8'
p3014
sa(dp3015
g5
S'g1'
p3016
sa(dp3017
g8
S'white_pawn'
p3018
sg5
S'g2'
p3019
sa(dp3020
g5
S'g3'
p3021
sa(dp3022
g5
S'g4'
p3023
sa(dp3024
g5
S'g5'
p3025
sa(dp3026
g8
S'black_pawn'
p3027
sg5
S'g6'
p3028
sa(dp3029
g8
S'black_king'
p3030
sg5
S'g7'
p3031
sa(dp3032
g5
S'g8'
p3033
sa(dp3034
g5
S'h1'
p3035
sa(dp3036
g8
S'white_pawn'
p3037
sg5
S'h2'
p3038
sa(dp3039
g5
S'h3'
p3040
sa(dp3041
g5
S'h4'
p3042
sa(dp3043
g8
S'black_pawn'
p3044
sg5
S'h5'
p3045
sa(dp3046
g5
S'h6'
p3047
sa(dp3048
g5
S'h7'
p3049
sa(dp3050
g5
S'h8'
p3051
saaVWhite resigns. I can't stop his b pawn from queening. Many thanks for reading. Please leave a comment or two and rate this annotation with the star system to let me know how I am doing. Until next time dear reader!
p3052
aa.