(lp0
(lp1
S'11. Ne3'
p2
a(lp3
(dp4
S'piece'
p5
S'white_rook'
p6
sS'location'
p7
S'a1'
p8
sa(dp9
g5
S'white_pawn'
p10
sg7
S'a2'
p11
sa(dp12
g7
S'a3'
p13
sa(dp14
g7
S'a4'
p15
sa(dp16
g7
S'a5'
p17
sa(dp18
g5
S'black_pawn'
p19
sg7
S'a6'
p20
sa(dp21
g7
S'a7'
p22
sa(dp23
g5
S'black_rook'
p24
sg7
S'a8'
p25
sa(dp26
g7
S'b1'
p27
sa(dp28
g5
S'white_pawn'
p29
sg7
S'b2'
p30
sa(dp31
g7
S'b3'
p32
sa(dp33
g7
S'b4'
p34
sa(dp35
g5
S'black_pawn'
p36
sg7
S'b5'
p37
sa(dp38
g7
S'b6'
p39
sa(dp40
g7
S'b7'
p41
sa(dp42
g5
S'black_knight'
p43
sg7
S'b8'
p44
sa(dp45
g7
S'c1'
p46
sa(dp47
g5
S'white_pawn'
p48
sg7
S'c2'
p49
sa(dp50
g7
S'c3'
p51
sa(dp52
g7
S'c4'
p53
sa(dp54
g7
S'c5'
p55
sa(dp56
g5
S'black_pawn'
p57
sg7
S'c6'
p58
sa(dp59
g7
S'c7'
p60
sa(dp61
g7
S'c8'
p62
sa(dp63
g7
S'd1'
p64
sa(dp65
g5
S'white_queen'
p66
sg7
S'd2'
p67
sa(dp68
g5
S'white_bishop'
p69
sg7
S'd3'
p70
sa(dp71
g7
S'd4'
p72
sa(dp73
g7
S'd5'
p74
sa(dp75
g7
S'd6'
p76
sa(dp77
g7
S'd7'
p78
sa(dp79
g5
S'black_queen'
p80
sg7
S'd8'
p81
sa(dp82
g5
S'white_king'
p83
sg7
S'e1'
p84
sa(dp85
g5
S'white_knight'
p86
sg7
S'e2'
p87
sa(dp88
g5
S'white_knight'
p89
sg7
S'e3'
p90
sa(dp91
g5
S'white_pawn'
p92
sg7
S'e4'
p93
sa(dp94
g5
S'black_pawn'
p95
sg7
S'e5'
p96
sa(dp97
g5
S'black_bishop'
p98
sg7
S'e6'
p99
sa(dp100
g5
S'black_bishop'
p101
sg7
S'e7'
p102
sa(dp103
g5
S'black_king'
p104
sg7
S'e8'
p105
sa(dp106
g7
S'f1'
p107
sa(dp108
g7
S'f2'
p109
sa(dp110
g5
S'white_pawn'
p111
sg7
S'f3'
p112
sa(dp113
g7
S'f4'
p114
sa(dp115
g7
S'f5'
p116
sa(dp117
g5
S'black_knight'
p118
sg7
S'f6'
p119
sa(dp120
g5
S'black_pawn'
p121
sg7
S'f7'
p122
sa(dp123
g7
S'f8'
p124
sa(dp125
g7
S'g1'
p126
sa(dp127
g5
S'white_pawn'
p128
sg7
S'g2'
p129
sa(dp130
g7
S'g3'
p131
sa(dp132
g7
S'g4'
p133
sa(dp134
g5
S'white_bishop'
p135
sg7
S'g5'
p136
sa(dp137
g7
S'g6'
p138
sa(dp139
g5
S'black_pawn'
p140
sg7
S'g7'
p141
sa(dp142
g7
S'g8'
p143
sa(dp144
g5
S'white_rook'
p145
sg7
S'h1'
p146
sa(dp147
g5
S'white_pawn'
p148
sg7
S'h2'
p149
sa(dp150
g7
S'h3'
p151
sa(dp152
g7
S'h4'
p153
sa(dp154
g5
S'black_pawn'
p155
sg7
S'h5'
p156
sa(dp157
g7
S'h6'
p158
sa(dp159
g7
S'h7'
p160
sa(dp161
g5
S'black_rook'
p162
sg7
S'h8'
p163
saaVHeading for f5.
p164
aa(lp165
S'11... g6'
p166
a(lp167
(dp168
g5
S'white_rook'
p169
sg7
S'a1'
p170
sa(dp171
g5
S'white_pawn'
p172
sg7
S'a2'
p173
sa(dp174
g7
S'a3'
p175
sa(dp176
g7
S'a4'
p177
sa(dp178
g7
S'a5'
p179
sa(dp180
g5
S'black_pawn'
p181
sg7
S'a6'
p182
sa(dp183
g7
S'a7'
p184
sa(dp185
g5
S'black_rook'
p186
sg7
S'a8'
p187
sa(dp188
g7
S'b1'
p189
sa(dp190
g5
S'white_pawn'
p191
sg7
S'b2'
p192
sa(dp193
g7
S'b3'
p194
sa(dp195
g7
S'b4'
p196
sa(dp197
g5
S'black_pawn'
p198
sg7
S'b5'
p199
sa(dp200
g7
S'b6'
p201
sa(dp202
g7
S'b7'
p203
sa(dp204
g5
S'black_knight'
p205
sg7
S'b8'
p206
sa(dp207
g7
S'c1'
p208
sa(dp209
g5
S'white_pawn'
p210
sg7
S'c2'
p211
sa(dp212
g7
S'c3'
p213
sa(dp214
g7
S'c4'
p215
sa(dp216
g7
S'c5'
p217
sa(dp218
g5
S'black_pawn'
p219
sg7
S'c6'
p220
sa(dp221
g7
S'c7'
p222
sa(dp223
g7
S'c8'
p224
sa(dp225
g7
S'd1'
p226
sa(dp227
g5
S'white_queen'
p228
sg7
S'd2'
p229
sa(dp230
g5
S'white_bishop'
p231
sg7
S'd3'
p232
sa(dp233
g7
S'd4'
p234
sa(dp235
g7
S'd5'
p236
sa(dp237
g7
S'd6'
p238
sa(dp239
g7
S'd7'
p240
sa(dp241
g5
S'black_queen'
p242
sg7
S'd8'
p243
sa(dp244
g5
S'white_king'
p245
sg7
S'e1'
p246
sa(dp247
g5
S'white_knight'
p248
sg7
S'e2'
p249
sa(dp250
g5
S'white_knight'
p251
sg7
S'e3'
p252
sa(dp253
g5
S'white_pawn'
p254
sg7
S'e4'
p255
sa(dp256
g5
S'black_pawn'
p257
sg7
S'e5'
p258
sa(dp259
g5
S'black_bishop'
p260
sg7
S'e6'
p261
sa(dp262
g5
S'black_bishop'
p263
sg7
S'e7'
p264
sa(dp265
g5
S'black_king'
p266
sg7
S'e8'
p267
sa(dp268
g7
S'f1'
p269
sa(dp270
g7
S'f2'
p271
sa(dp272
g5
S'white_pawn'
p273
sg7
S'f3'
p274
sa(dp275
g7
S'f4'
p276
sa(dp277
g7
S'f5'
p278
sa(dp279
g5
S'black_knight'
p280
sg7
S'f6'
p281
sa(dp282
g5
S'black_pawn'
p283
sg7
S'f7'
p284
sa(dp285
g7
S'f8'
p286
sa(dp287
g7
S'g1'
p288
sa(dp289
g5
S'white_pawn'
p290
sg7
S'g2'
p291
sa(dp292
g7
S'g3'
p293
sa(dp294
g7
S'g4'
p295
sa(dp296
g5
S'white_bishop'
p297
sg7
S'g5'
p298
sa(dp299
g5
S'black_pawn'
p300
sg7
S'g6'
p301
sa(dp302
g7
S'g7'
p303
sa(dp304
g7
S'g8'
p305
sa(dp306
g5
S'white_rook'
p307
sg7
S'h1'
p308
sa(dp309
g5
S'white_pawn'
p310
sg7
S'h2'
p311
sa(dp312
g7
S'h3'
p313
sa(dp314
g7
S'h4'
p315
sa(dp316
g5
S'black_pawn'
p317
sg7
S'h5'
p318
sa(dp319
g7
S'h6'
p320
sa(dp321
g7
S'h7'
p322
sa(dp323
g5
S'black_rook'
p324
sg7
S'h8'
p325
saaVHe stops Nf5.
p326
aa(lp327
S'12. a4'
p328
a(lp329
(dp330
g5
S'white_rook'
p331
sg7
S'a1'
p332
sa(dp333
g7
S'a2'
p334
sa(dp335
g7
S'a3'
p336
sa(dp337
g5
S'white_pawn'
p338
sg7
S'a4'
p339
sa(dp340
g7
S'a5'
p341
sa(dp342
g5
S'black_pawn'
p343
sg7
S'a6'
p344
sa(dp345
g7
S'a7'
p346
sa(dp347
g5
S'black_rook'
p348
sg7
S'a8'
p349
sa(dp350
g7
S'b1'
p351
sa(dp352
g5
S'white_pawn'
p353
sg7
S'b2'
p354
sa(dp355
g7
S'b3'
p356
sa(dp357
g7
S'b4'
p358
sa(dp359
g5
S'black_pawn'
p360
sg7
S'b5'
p361
sa(dp362
g7
S'b6'
p363
sa(dp364
g7
S'b7'
p365
sa(dp366
g5
S'black_knight'
p367
sg7
S'b8'
p368
sa(dp369
g7
S'c1'
p370
sa(dp371
g5
S'white_pawn'
p372
sg7
S'c2'
p373
sa(dp374
g7
S'c3'
p375
sa(dp376
g7
S'c4'
p377
sa(dp378
g7
S'c5'
p379
sa(dp380
g5
S'black_pawn'
p381
sg7
S'c6'
p382
sa(dp383
g7
S'c7'
p384
sa(dp385
g7
S'c8'
p386
sa(dp387
g7
S'd1'
p388
sa(dp389
g5
S'white_queen'
p390
sg7
S'd2'
p391
sa(dp392
g5
S'white_bishop'
p393
sg7
S'd3'
p394
sa(dp395
g7
S'd4'
p396
sa(dp397
g7
S'd5'
p398
sa(dp399
g7
S'd6'
p400
sa(dp401
g7
S'd7'
p402
sa(dp403
g5
S'black_queen'
p404
sg7
S'd8'
p405
sa(dp406
g5
S'white_king'
p407
sg7
S'e1'
p408
sa(dp409
g5
S'white_knight'
p410
sg7
S'e2'
p411
sa(dp412
g5
S'white_knight'
p413
sg7
S'e3'
p414
sa(dp415
g5
S'white_pawn'
p416
sg7
S'e4'
p417
sa(dp418
g5
S'black_pawn'
p419
sg7
S'e5'
p420
sa(dp421
g5
S'black_bishop'
p422
sg7
S'e6'
p423
sa(dp424
g5
S'black_bishop'
p425
sg7
S'e7'
p426
sa(dp427
g5
S'black_king'
p428
sg7
S'e8'
p429
sa(dp430
g7
S'f1'
p431
sa(dp432
g7
S'f2'
p433
sa(dp434
g5
S'white_pawn'
p435
sg7
S'f3'
p436
sa(dp437
g7
S'f4'
p438
sa(dp439
g7
S'f5'
p440
sa(dp441
g5
S'black_knight'
p442
sg7
S'f6'
p443
sa(dp444
g5
S'black_pawn'
p445
sg7
S'f7'
p446
sa(dp447
g7
S'f8'
p448
sa(dp449
g7
S'g1'
p450
sa(dp451
g5
S'white_pawn'
p452
sg7
S'g2'
p453
sa(dp454
g7
S'g3'
p455
sa(dp456
g7
S'g4'
p457
sa(dp458
g5
S'white_bishop'
p459
sg7
S'g5'
p460
sa(dp461
g5
S'black_pawn'
p462
sg7
S'g6'
p463
sa(dp464
g7
S'g7'
p465
sa(dp466
g7
S'g8'
p467
sa(dp468
g5
S'white_rook'
p469
sg7
S'h1'
p470
sa(dp471
g5
S'white_pawn'
p472
sg7
S'h2'
p473
sa(dp474
g7
S'h3'
p475
sa(dp476
g7
S'h4'
p477
sa(dp478
g5
S'black_pawn'
p479
sg7
S'h5'
p480
sa(dp481
g7
S'h6'
p482
sa(dp483
g7
S'h7'
p484
sa(dp485
g5
S'black_rook'
p486
sg7
S'h8'
p487
saaVAttacking before he catches up fully on development.
p488
aa(lp489
S'12... Nbd7'
p490
a(lp491
(dp492
g5
S'white_rook'
p493
sg7
S'a1'
p494
sa(dp495
g7
S'a2'
p496
sa(dp497
g7
S'a3'
p498
sa(dp499
g5
S'white_pawn'
p500
sg7
S'a4'
p501
sa(dp502
g7
S'a5'
p503
sa(dp504
g5
S'black_pawn'
p505
sg7
S'a6'
p506
sa(dp507
g7
S'a7'
p508
sa(dp509
g5
S'black_rook'
p510
sg7
S'a8'
p511
sa(dp512
g7
S'b1'
p513
sa(dp514
g5
S'white_pawn'
p515
sg7
S'b2'
p516
sa(dp517
g7
S'b3'
p518
sa(dp519
g7
S'b4'
p520
sa(dp521
g5
S'black_pawn'
p522
sg7
S'b5'
p523
sa(dp524
g7
S'b6'
p525
sa(dp526
g7
S'b7'
p527
sa(dp528
g7
S'b8'
p529
sa(dp530
g7
S'c1'
p531
sa(dp532
g5
S'white_pawn'
p533
sg7
S'c2'
p534
sa(dp535
g7
S'c3'
p536
sa(dp537
g7
S'c4'
p538
sa(dp539
g7
S'c5'
p540
sa(dp541
g5
S'black_pawn'
p542
sg7
S'c6'
p543
sa(dp544
g7
S'c7'
p545
sa(dp546
g7
S'c8'
p547
sa(dp548
g7
S'd1'
p549
sa(dp550
g5
S'white_queen'
p551
sg7
S'd2'
p552
sa(dp553
g5
S'white_bishop'
p554
sg7
S'd3'
p555
sa(dp556
g7
S'd4'
p557
sa(dp558
g7
S'd5'
p559
sa(dp560
g7
S'd6'
p561
sa(dp562
g5
S'black_knight'
p563
sg7
S'd7'
p564
sa(dp565
g5
S'black_queen'
p566
sg7
S'd8'
p567
sa(dp568
g5
S'white_king'
p569
sg7
S'e1'
p570
sa(dp571
g5
S'white_knight'
p572
sg7
S'e2'
p573
sa(dp574
g5
S'white_knight'
p575
sg7
S'e3'
p576
sa(dp577
g5
S'white_pawn'
p578
sg7
S'e4'
p579
sa(dp580
g5
S'black_pawn'
p581
sg7
S'e5'
p582
sa(dp583
g5
S'black_bishop'
p584
sg7
S'e6'
p585
sa(dp586
g5
S'black_bishop'
p587
sg7
S'e7'
p588
sa(dp589
g5
S'black_king'
p590
sg7
S'e8'
p591
sa(dp592
g7
S'f1'
p593
sa(dp594
g7
S'f2'
p595
sa(dp596
g5
S'white_pawn'
p597
sg7
S'f3'
p598
sa(dp599
g7
S'f4'
p600
sa(dp601
g7
S'f5'
p602
sa(dp603
g5
S'black_knight'
p604
sg7
S'f6'
p605
sa(dp606
g5
S'black_pawn'
p607
sg7
S'f7'
p608
sa(dp609
g7
S'f8'
p610
sa(dp611
g7
S'g1'
p612
sa(dp613
g5
S'white_pawn'
p614
sg7
S'g2'
p615
sa(dp616
g7
S'g3'
p617
sa(dp618
g7
S'g4'
p619
sa(dp620
g5
S'white_bishop'
p621
sg7
S'g5'
p622
sa(dp623
g5
S'black_pawn'
p624
sg7
S'g6'
p625
sa(dp626
g7
S'g7'
p627
sa(dp628
g7
S'g8'
p629
sa(dp630
g5
S'white_rook'
p631
sg7
S'h1'
p632
sa(dp633
g5
S'white_pawn'
p634
sg7
S'h2'
p635
sa(dp636
g7
S'h3'
p637
sa(dp638
g7
S'h4'
p639
sa(dp640
g5
S'black_pawn'
p641
sg7
S'h5'
p642
sa(dp643
g7
S'h6'
p644
sa(dp645
g7
S'h7'
p646
sa(dp647
g5
S'black_rook'
p648
sg7
S'h8'
p649
saaVHe develops.
p650
aa(lp651
S'13. axb5'
p652
a(lp653
(dp654
g5
S'white_rook'
p655
sg7
S'a1'
p656
sa(dp657
g7
S'a2'
p658
sa(dp659
g7
S'a3'
p660
sa(dp661
g7
S'a4'
p662
sa(dp663
g7
S'a5'
p664
sa(dp665
g5
S'black_pawn'
p666
sg7
S'a6'
p667
sa(dp668
g7
S'a7'
p669
sa(dp670
g5
S'black_rook'
p671
sg7
S'a8'
p672
sa(dp673
g7
S'b1'
p674
sa(dp675
g5
S'white_pawn'
p676
sg7
S'b2'
p677
sa(dp678
g7
S'b3'
p679
sa(dp680
g7
S'b4'
p681
sa(dp682
g5
S'white_pawn'
p683
sg7
S'b5'
p684
sa(dp685
g7
S'b6'
p686
sa(dp687
g7
S'b7'
p688
sa(dp689
g7
S'b8'
p690
sa(dp691
g7
S'c1'
p692
sa(dp693
g5
S'white_pawn'
p694
sg7
S'c2'
p695
sa(dp696
g7
S'c3'
p697
sa(dp698
g7
S'c4'
p699
sa(dp700
g7
S'c5'
p701
sa(dp702
g5
S'black_pawn'
p703
sg7
S'c6'
p704
sa(dp705
g7
S'c7'
p706
sa(dp707
g7
S'c8'
p708
sa(dp709
g7
S'd1'
p710
sa(dp711
g5
S'white_queen'
p712
sg7
S'd2'
p713
sa(dp714
g5
S'white_bishop'
p715
sg7
S'd3'
p716
sa(dp717
g7
S'd4'
p718
sa(dp719
g7
S'd5'
p720
sa(dp721
g7
S'd6'
p722
sa(dp723
g5
S'black_knight'
p724
sg7
S'd7'
p725
sa(dp726
g5
S'black_queen'
p727
sg7
S'd8'
p728
sa(dp729
g5
S'white_king'
p730
sg7
S'e1'
p731
sa(dp732
g5
S'white_knight'
p733
sg7
S'e2'
p734
sa(dp735
g5
S'white_knight'
p736
sg7
S'e3'
p737
sa(dp738
g5
S'white_pawn'
p739
sg7
S'e4'
p740
sa(dp741
g5
S'black_pawn'
p742
sg7
S'e5'
p743
sa(dp744
g5
S'black_bishop'
p745
sg7
S'e6'
p746
sa(dp747
g5
S'black_bishop'
p748
sg7
S'e7'
p749
sa(dp750
g5
S'black_king'
p751
sg7
S'e8'
p752
sa(dp753
g7
S'f1'
p754
sa(dp755
g7
S'f2'
p756
sa(dp757
g5
S'white_pawn'
p758
sg7
S'f3'
p759
sa(dp760
g7
S'f4'
p761
sa(dp762
g7
S'f5'
p763
sa(dp764
g5
S'black_knight'
p765
sg7
S'f6'
p766
sa(dp767
g5
S'black_pawn'
p768
sg7
S'f7'
p769
sa(dp770
g7
S'f8'
p771
sa(dp772
g7
S'g1'
p773
sa(dp774
g5
S'white_pawn'
p775
sg7
S'g2'
p776
sa(dp777
g7
S'g3'
p778
sa(dp779
g7
S'g4'
p780
sa(dp781
g5
S'white_bishop'
p782
sg7
S'g5'
p783
sa(dp784
g5
S'black_pawn'
p785
sg7
S'g6'
p786
sa(dp787
g7
S'g7'
p788
sa(dp789
g7
S'g8'
p790
sa(dp791
g5
S'white_rook'
p792
sg7
S'h1'
p793
sa(dp794
g5
S'white_pawn'
p795
sg7
S'h2'
p796
sa(dp797
g7
S'h3'
p798
sa(dp799
g7
S'h4'
p800
sa(dp801
g5
S'black_pawn'
p802
sg7
S'h5'
p803
sa(dp804
g7
S'h6'
p805
sa(dp806
g7
S'h7'
p807
sa(dp808
g5
S'black_rook'
p809
sg7
S'h8'
p810
saaVI take.
p811
aa(lp812
S'13... axb5'
p813
a(lp814
(dp815
g5
S'white_rook'
p816
sg7
S'a1'
p817
sa(dp818
g7
S'a2'
p819
sa(dp820
g7
S'a3'
p821
sa(dp822
g7
S'a4'
p823
sa(dp824
g7
S'a5'
p825
sa(dp826
g7
S'a6'
p827
sa(dp828
g7
S'a7'
p829
sa(dp830
g5
S'black_rook'
p831
sg7
S'a8'
p832
sa(dp833
g7
S'b1'
p834
sa(dp835
g5
S'white_pawn'
p836
sg7
S'b2'
p837
sa(dp838
g7
S'b3'
p839
sa(dp840
g7
S'b4'
p841
sa(dp842
g5
S'black_pawn'
p843
sg7
S'b5'
p844
sa(dp845
g7
S'b6'
p846
sa(dp847
g7
S'b7'
p848
sa(dp849
g7
S'b8'
p850
sa(dp851
g7
S'c1'
p852
sa(dp853
g5
S'white_pawn'
p854
sg7
S'c2'
p855
sa(dp856
g7
S'c3'
p857
sa(dp858
g7
S'c4'
p859
sa(dp860
g7
S'c5'
p861
sa(dp862
g5
S'black_pawn'
p863
sg7
S'c6'
p864
sa(dp865
g7
S'c7'
p866
sa(dp867
g7
S'c8'
p868
sa(dp869
g7
S'd1'
p870
sa(dp871
g5
S'white_queen'
p872
sg7
S'd2'
p873
sa(dp874
g5
S'white_bishop'
p875
sg7
S'd3'
p876
sa(dp877
g7
S'd4'
p878
sa(dp879
g7
S'd5'
p880
sa(dp881
g7
S'd6'
p882
sa(dp883
g5
S'black_knight'
p884
sg7
S'd7'
p885
sa(dp886
g5
S'black_queen'
p887
sg7
S'd8'
p888
sa(dp889
g5
S'white_king'
p890
sg7
S'e1'
p891
sa(dp892
g5
S'white_knight'
p893
sg7
S'e2'
p894
sa(dp895
g5
S'white_knight'
p896
sg7
S'e3'
p897
sa(dp898
g5
S'white_pawn'
p899
sg7
S'e4'
p900
sa(dp901
g5
S'black_pawn'
p902
sg7
S'e5'
p903
sa(dp904
g5
S'black_bishop'
p905
sg7
S'e6'
p906
sa(dp907
g5
S'black_bishop'
p908
sg7
S'e7'
p909
sa(dp910
g5
S'black_king'
p911
sg7
S'e8'
p912
sa(dp913
g7
S'f1'
p914
sa(dp915
g7
S'f2'
p916
sa(dp917
g5
S'white_pawn'
p918
sg7
S'f3'
p919
sa(dp920
g7
S'f4'
p921
sa(dp922
g7
S'f5'
p923
sa(dp924
g5
S'black_knight'
p925
sg7
S'f6'
p926
sa(dp927
g5
S'black_pawn'
p928
sg7
S'f7'
p929
sa(dp930
g7
S'f8'
p931
sa(dp932
g7
S'g1'
p933
sa(dp934
g5
S'white_pawn'
p935
sg7
S'g2'
p936
sa(dp937
g7
S'g3'
p938
sa(dp939
g7
S'g4'
p940
sa(dp941
g5
S'white_bishop'
p942
sg7
S'g5'
p943
sa(dp944
g5
S'black_pawn'
p945
sg7
S'g6'
p946
sa(dp947
g7
S'g7'
p948
sa(dp949
g7
S'g8'
p950
sa(dp951
g5
S'white_rook'
p952
sg7
S'h1'
p953
sa(dp954
g5
S'white_pawn'
p955
sg7
S'h2'
p956
sa(dp957
g7
S'h3'
p958
sa(dp959
g7
S'h4'
p960
sa(dp961
g5
S'black_pawn'
p962
sg7
S'h5'
p963
sa(dp964
g7
S'h6'
p965
sa(dp966
g7
S'h7'
p967
sa(dp968
g5
S'black_rook'
p969
sg7
S'h8'
p970
saaVHe takes back.
p971
aa(lp972
S'14. O-O'
p973
a(lp974
(dp975
g5
S'white_rook'
p976
sg7
S'a1'
p977
sa(dp978
g7
S'a2'
p979
sa(dp980
g7
S'a3'
p981
sa(dp982
g7
S'a4'
p983
sa(dp984
g7
S'a5'
p985
sa(dp986
g7
S'a6'
p987
sa(dp988
g7
S'a7'
p989
sa(dp990
g5
S'black_rook'
p991
sg7
S'a8'
p992
sa(dp993
g7
S'b1'
p994
sa(dp995
g5
S'white_pawn'
p996
sg7
S'b2'
p997
sa(dp998
g7
S'b3'
p999
sa(dp1000
g7
S'b4'
p1001
sa(dp1002
g5
S'black_pawn'
p1003
sg7
S'b5'
p1004
sa(dp1005
g7
S'b6'
p1006
sa(dp1007
g7
S'b7'
p1008
sa(dp1009
g7
S'b8'
p1010
sa(dp1011
g7
S'c1'
p1012
sa(dp1013
g5
S'white_pawn'
p1014
sg7
S'c2'
p1015
sa(dp1016
g7
S'c3'
p1017
sa(dp1018
g7
S'c4'
p1019
sa(dp1020
g7
S'c5'
p1021
sa(dp1022
g5
S'black_pawn'
p1023
sg7
S'c6'
p1024
sa(dp1025
g7
S'c7'
p1026
sa(dp1027
g7
S'c8'
p1028
sa(dp1029
g7
S'd1'
p1030
sa(dp1031
g5
S'white_queen'
p1032
sg7
S'd2'
p1033
sa(dp1034
g5
S'white_bishop'
p1035
sg7
S'd3'
p1036
sa(dp1037
g7
S'd4'
p1038
sa(dp1039
g7
S'd5'
p1040
sa(dp1041
g7
S'd6'
p1042
sa(dp1043
g5
S'black_knight'
p1044
sg7
S'd7'
p1045
sa(dp1046
g5
S'black_queen'
p1047
sg7
S'd8'
p1048
sa(dp1049
g7
S'e1'
p1050
sa(dp1051
g5
S'white_knight'
p1052
sg7
S'e2'
p1053
sa(dp1054
g5
S'white_knight'
p1055
sg7
S'e3'
p1056
sa(dp1057
g5
S'white_pawn'
p1058
sg7
S'e4'
p1059
sa(dp1060
g5
S'black_pawn'
p1061
sg7
S'e5'
p1062
sa(dp1063
g5
S'black_bishop'
p1064
sg7
S'e6'
p1065
sa(dp1066
g5
S'black_bishop'
p1067
sg7
S'e7'
p1068
sa(dp1069
g5
S'black_king'
p1070
sg7
S'e8'
p1071
sa(dp1072
g5
S'white_rook'
p1073
sg7
S'f1'
p1074
sa(dp1075
g7
S'f2'
p1076
sa(dp1077
g5
S'white_pawn'
p1078
sg7
S'f3'
p1079
sa(dp1080
g7
S'f4'
p1081
sa(dp1082
g7
S'f5'
p1083
sa(dp1084
g5
S'black_knight'
p1085
sg7
S'f6'
p1086
sa(dp1087
g5
S'black_pawn'
p1088
sg7
S'f7'
p1089
sa(dp1090
g7
S'f8'
p1091
sa(dp1092
g5
S'white_king'
p1093
sg7
S'g1'
p1094
sa(dp1095
g5
S'white_pawn'
p1096
sg7
S'g2'
p1097
sa(dp1098
g7
S'g3'
p1099
sa(dp1100
g7
S'g4'
p1101
sa(dp1102
g5
S'white_bishop'
p1103
sg7
S'g5'
p1104
sa(dp1105
g5
S'black_pawn'
p1106
sg7
S'g6'
p1107
sa(dp1108
g7
S'g7'
p1109
sa(dp1110
g7
S'g8'
p1111
sa(dp1112
g7
S'h1'
p1113
sa(dp1114
g5
S'white_pawn'
p1115
sg7
S'h2'
p1116
sa(dp1117
g7
S'h3'
p1118
sa(dp1119
g7
S'h4'
p1120
sa(dp1121
g5
S'black_pawn'
p1122
sg7
S'h5'
p1123
sa(dp1124
g7
S'h6'
p1125
sa(dp1126
g7
S'h7'
p1127
sa(dp1128
g5
S'black_rook'
p1129
sg7
S'h8'
p1130
saaVAnd I castle.
p1131
aa(lp1132
S'14... Rc8'
p1133
a(lp1134
(dp1135
g5
S'white_rook'
p1136
sg7
S'a1'
p1137
sa(dp1138
g7
S'a2'
p1139
sa(dp1140
g7
S'a3'
p1141
sa(dp1142
g7
S'a4'
p1143
sa(dp1144
g7
S'a5'
p1145
sa(dp1146
g7
S'a6'
p1147
sa(dp1148
g7
S'a7'
p1149
sa(dp1150
g7
S'a8'
p1151
sa(dp1152
g7
S'b1'
p1153
sa(dp1154
g5
S'white_pawn'
p1155
sg7
S'b2'
p1156
sa(dp1157
g7
S'b3'
p1158
sa(dp1159
g7
S'b4'
p1160
sa(dp1161
g5
S'black_pawn'
p1162
sg7
S'b5'
p1163
sa(dp1164
g7
S'b6'
p1165
sa(dp1166
g7
S'b7'
p1167
sa(dp1168
g7
S'b8'
p1169
sa(dp1170
g7
S'c1'
p1171
sa(dp1172
g5
S'white_pawn'
p1173
sg7
S'c2'
p1174
sa(dp1175
g7
S'c3'
p1176
sa(dp1177
g7
S'c4'
p1178
sa(dp1179
g7
S'c5'
p1180
sa(dp1181
g5
S'black_pawn'
p1182
sg7
S'c6'
p1183
sa(dp1184
g7
S'c7'
p1185
sa(dp1186
g5
S'black_rook'
p1187
sg7
S'c8'
p1188
sa(dp1189
g7
S'd1'
p1190
sa(dp1191
g5
S'white_queen'
p1192
sg7
S'd2'
p1193
sa(dp1194
g5
S'white_bishop'
p1195
sg7
S'd3'
p1196
sa(dp1197
g7
S'd4'
p1198
sa(dp1199
g7
S'd5'
p1200
sa(dp1201
g7
S'd6'
p1202
sa(dp1203
g5
S'black_knight'
p1204
sg7
S'd7'
p1205
sa(dp1206
g5
S'black_queen'
p1207
sg7
S'd8'
p1208
sa(dp1209
g7
S'e1'
p1210
sa(dp1211
g5
S'white_knight'
p1212
sg7
S'e2'
p1213
sa(dp1214
g5
S'white_knight'
p1215
sg7
S'e3'
p1216
sa(dp1217
g5
S'white_pawn'
p1218
sg7
S'e4'
p1219
sa(dp1220
g5
S'black_pawn'
p1221
sg7
S'e5'
p1222
sa(dp1223
g5
S'black_bishop'
p1224
sg7
S'e6'
p1225
sa(dp1226
g5
S'black_bishop'
p1227
sg7
S'e7'
p1228
sa(dp1229
g5
S'black_king'
p1230
sg7
S'e8'
p1231
sa(dp1232
g5
S'white_rook'
p1233
sg7
S'f1'
p1234
sa(dp1235
g7
S'f2'
p1236
sa(dp1237
g5
S'white_pawn'
p1238
sg7
S'f3'
p1239
sa(dp1240
g7
S'f4'
p1241
sa(dp1242
g7
S'f5'
p1243
sa(dp1244
g5
S'black_knight'
p1245
sg7
S'f6'
p1246
sa(dp1247
g5
S'black_pawn'
p1248
sg7
S'f7'
p1249
sa(dp1250
g7
S'f8'
p1251
sa(dp1252
g5
S'white_king'
p1253
sg7
S'g1'
p1254
sa(dp1255
g5
S'white_pawn'
p1256
sg7
S'g2'
p1257
sa(dp1258
g7
S'g3'
p1259
sa(dp1260
g7
S'g4'
p1261
sa(dp1262
g5
S'white_bishop'
p1263
sg7
S'g5'
p1264
sa(dp1265
g5
S'black_pawn'
p1266
sg7
S'g6'
p1267
sa(dp1268
g7
S'g7'
p1269
sa(dp1270
g7
S'g8'
p1271
sa(dp1272
g7
S'h1'
p1273
sa(dp1274
g5
S'white_pawn'
p1275
sg7
S'h2'
p1276
sa(dp1277
g7
S'h3'
p1278
sa(dp1279
g7
S'h4'
p1280
sa(dp1281
g5
S'black_pawn'
p1282
sg7
S'h5'
p1283
sa(dp1284
g7
S'h6'
p1285
sa(dp1286
g7
S'h7'
p1287
sa(dp1288
g5
S'black_rook'
p1289
sg7
S'h8'
p1290
saaVHe can't play 14.....Nxe4 immediately as I had 15. Bxe4 Bxg5 16. Bxc6 so he protects c6, threatening Nxe4!
p1291
aa(lp1292
S'15. Qe1'
p1293
a(lp1294
(dp1295
g5
S'white_rook'
p1296
sg7
S'a1'
p1297
sa(dp1298
g7
S'a2'
p1299
sa(dp1300
g7
S'a3'
p1301
sa(dp1302
g7
S'a4'
p1303
sa(dp1304
g7
S'a5'
p1305
sa(dp1306
g7
S'a6'
p1307
sa(dp1308
g7
S'a7'
p1309
sa(dp1310
g7
S'a8'
p1311
sa(dp1312
g7
S'b1'
p1313
sa(dp1314
g5
S'white_pawn'
p1315
sg7
S'b2'
p1316
sa(dp1317
g7
S'b3'
p1318
sa(dp1319
g7
S'b4'
p1320
sa(dp1321
g5
S'black_pawn'
p1322
sg7
S'b5'
p1323
sa(dp1324
g7
S'b6'
p1325
sa(dp1326
g7
S'b7'
p1327
sa(dp1328
g7
S'b8'
p1329
sa(dp1330
g7
S'c1'
p1331
sa(dp1332
g5
S'white_pawn'
p1333
sg7
S'c2'
p1334
sa(dp1335
g7
S'c3'
p1336
sa(dp1337
g7
S'c4'
p1338
sa(dp1339
g7
S'c5'
p1340
sa(dp1341
g5
S'black_pawn'
p1342
sg7
S'c6'
p1343
sa(dp1344
g7
S'c7'
p1345
sa(dp1346
g5
S'black_rook'
p1347
sg7
S'c8'
p1348
sa(dp1349
g7
S'd1'
p1350
sa(dp1351
g7
S'd2'
p1352
sa(dp1353
g5
S'white_bishop'
p1354
sg7
S'd3'
p1355
sa(dp1356
g7
S'd4'
p1357
sa(dp1358
g7
S'd5'
p1359
sa(dp1360
g7
S'd6'
p1361
sa(dp1362
g5
S'black_knight'
p1363
sg7
S'd7'
p1364
sa(dp1365
g5
S'black_queen'
p1366
sg7
S'd8'
p1367
sa(dp1368
g5
S'white_queen'
p1369
sg7
S'e1'
p1370
sa(dp1371
g5
S'white_knight'
p1372
sg7
S'e2'
p1373
sa(dp1374
g5
S'white_knight'
p1375
sg7
S'e3'
p1376
sa(dp1377
g5
S'white_pawn'
p1378
sg7
S'e4'
p1379
sa(dp1380
g5
S'black_pawn'
p1381
sg7
S'e5'
p1382
sa(dp1383
g5
S'black_bishop'
p1384
sg7
S'e6'
p1385
sa(dp1386
g5
S'black_bishop'
p1387
sg7
S'e7'
p1388
sa(dp1389
g5
S'black_king'
p1390
sg7
S'e8'
p1391
sa(dp1392
g5
S'white_rook'
p1393
sg7
S'f1'
p1394
sa(dp1395
g7
S'f2'
p1396
sa(dp1397
g5
S'white_pawn'
p1398
sg7
S'f3'
p1399
sa(dp1400
g7
S'f4'
p1401
sa(dp1402
g7
S'f5'
p1403
sa(dp1404
g5
S'black_knight'
p1405
sg7
S'f6'
p1406
sa(dp1407
g5
S'black_pawn'
p1408
sg7
S'f7'
p1409
sa(dp1410
g7
S'f8'
p1411
sa(dp1412
g5
S'white_king'
p1413
sg7
S'g1'
p1414
sa(dp1415
g5
S'white_pawn'
p1416
sg7
S'g2'
p1417
sa(dp1418
g7
S'g3'
p1419
sa(dp1420
g7
S'g4'
p1421
sa(dp1422
g5
S'white_bishop'
p1423
sg7
S'g5'
p1424
sa(dp1425
g5
S'black_pawn'
p1426
sg7
S'g6'
p1427
sa(dp1428
g7
S'g7'
p1429
sa(dp1430
g7
S'g8'
p1431
sa(dp1432
g7
S'h1'
p1433
sa(dp1434
g5
S'white_pawn'
p1435
sg7
S'h2'
p1436
sa(dp1437
g7
S'h3'
p1438
sa(dp1439
g7
S'h4'
p1440
sa(dp1441
g5
S'black_pawn'
p1442
sg7
S'h5'
p1443
sa(dp1444
g7
S'h6'
p1445
sa(dp1446
g7
S'h7'
p1447
sa(dp1448
g5
S'black_rook'
p1449
sg7
S'h8'
p1450
saaVThe plan is to follow up with Qh4 at some stage, but it may be a losing mistake! 15. Qa5 was called for, with equality.
p1451
aa(lp1452
S'15... Qb6'
p1453
a(lp1454
(dp1455
g5
S'white_rook'
p1456
sg7
S'a1'
p1457
sa(dp1458
g7
S'a2'
p1459
sa(dp1460
g7
S'a3'
p1461
sa(dp1462
g7
S'a4'
p1463
sa(dp1464
g7
S'a5'
p1465
sa(dp1466
g7
S'a6'
p1467
sa(dp1468
g7
S'a7'
p1469
sa(dp1470
g7
S'a8'
p1471
sa(dp1472
g7
S'b1'
p1473
sa(dp1474
g5
S'white_pawn'
p1475
sg7
S'b2'
p1476
sa(dp1477
g7
S'b3'
p1478
sa(dp1479
g7
S'b4'
p1480
sa(dp1481
g5
S'black_pawn'
p1482
sg7
S'b5'
p1483
sa(dp1484
g5
S'black_queen'
p1485
sg7
S'b6'
p1486
sa(dp1487
g7
S'b7'
p1488
sa(dp1489
g7
S'b8'
p1490
sa(dp1491
g7
S'c1'
p1492
sa(dp1493
g5
S'white_pawn'
p1494
sg7
S'c2'
p1495
sa(dp1496
g7
S'c3'
p1497
sa(dp1498
g7
S'c4'
p1499
sa(dp1500
g7
S'c5'
p1501
sa(dp1502
g5
S'black_pawn'
p1503
sg7
S'c6'
p1504
sa(dp1505
g7
S'c7'
p1506
sa(dp1507
g5
S'black_rook'
p1508
sg7
S'c8'
p1509
sa(dp1510
g7
S'd1'
p1511
sa(dp1512
g7
S'd2'
p1513
sa(dp1514
g5
S'white_bishop'
p1515
sg7
S'd3'
p1516
sa(dp1517
g7
S'd4'
p1518
sa(dp1519
g7
S'd5'
p1520
sa(dp1521
g7
S'd6'
p1522
sa(dp1523
g5
S'black_knight'
p1524
sg7
S'd7'
p1525
sa(dp1526
g7
S'd8'
p1527
sa(dp1528
g5
S'white_queen'
p1529
sg7
S'e1'
p1530
sa(dp1531
g5
S'white_knight'
p1532
sg7
S'e2'
p1533
sa(dp1534
g5
S'white_knight'
p1535
sg7
S'e3'
p1536
sa(dp1537
g5
S'white_pawn'
p1538
sg7
S'e4'
p1539
sa(dp1540
g5
S'black_pawn'
p1541
sg7
S'e5'
p1542
sa(dp1543
g5
S'black_bishop'
p1544
sg7
S'e6'
p1545
sa(dp1546
g5
S'black_bishop'
p1547
sg7
S'e7'
p1548
sa(dp1549
g5
S'black_king'
p1550
sg7
S'e8'
p1551
sa(dp1552
g5
S'white_rook'
p1553
sg7
S'f1'
p1554
sa(dp1555
g7
S'f2'
p1556
sa(dp1557
g5
S'white_pawn'
p1558
sg7
S'f3'
p1559
sa(dp1560
g7
S'f4'
p1561
sa(dp1562
g7
S'f5'
p1563
sa(dp1564
g5
S'black_knight'
p1565
sg7
S'f6'
p1566
sa(dp1567
g5
S'black_pawn'
p1568
sg7
S'f7'
p1569
sa(dp1570
g7
S'f8'
p1571
sa(dp1572
g5
S'white_king'
p1573
sg7
S'g1'
p1574
sa(dp1575
g5
S'white_pawn'
p1576
sg7
S'g2'
p1577
sa(dp1578
g7
S'g3'
p1579
sa(dp1580
g7
S'g4'
p1581
sa(dp1582
g5
S'white_bishop'
p1583
sg7
S'g5'
p1584
sa(dp1585
g5
S'black_pawn'
p1586
sg7
S'g6'
p1587
sa(dp1588
g7
S'g7'
p1589
sa(dp1590
g7
S'g8'
p1591
sa(dp1592
g7
S'h1'
p1593
sa(dp1594
g5
S'white_pawn'
p1595
sg7
S'h2'
p1596
sa(dp1597
g7
S'h3'
p1598
sa(dp1599
g7
S'h4'
p1600
sa(dp1601
g5
S'black_pawn'
p1602
sg7
S'h5'
p1603
sa(dp1604
g7
S'h6'
p1605
sa(dp1606
g7
S'h7'
p1607
sa(dp1608
g5
S'black_rook'
p1609
sg7
S'h8'
p1610
saaVPinning the knight.
p1611
aa(lp1612
S'16. Kh1'
p1613
a(lp1614
(dp1615
g5
S'white_rook'
p1616
sg7
S'a1'
p1617
sa(dp1618
g7
S'a2'
p1619
sa(dp1620
g7
S'a3'
p1621
sa(dp1622
g7
S'a4'
p1623
sa(dp1624
g7
S'a5'
p1625
sa(dp1626
g7
S'a6'
p1627
sa(dp1628
g7
S'a7'
p1629
sa(dp1630
g7
S'a8'
p1631
sa(dp1632
g7
S'b1'
p1633
sa(dp1634
g5
S'white_pawn'
p1635
sg7
S'b2'
p1636
sa(dp1637
g7
S'b3'
p1638
sa(dp1639
g7
S'b4'
p1640
sa(dp1641
g5
S'black_pawn'
p1642
sg7
S'b5'
p1643
sa(dp1644
g5
S'black_queen'
p1645
sg7
S'b6'
p1646
sa(dp1647
g7
S'b7'
p1648
sa(dp1649
g7
S'b8'
p1650
sa(dp1651
g7
S'c1'
p1652
sa(dp1653
g5
S'white_pawn'
p1654
sg7
S'c2'
p1655
sa(dp1656
g7
S'c3'
p1657
sa(dp1658
g7
S'c4'
p1659
sa(dp1660
g7
S'c5'
p1661
sa(dp1662
g5
S'black_pawn'
p1663
sg7
S'c6'
p1664
sa(dp1665
g7
S'c7'
p1666
sa(dp1667
g5
S'black_rook'
p1668
sg7
S'c8'
p1669
sa(dp1670
g7
S'd1'
p1671
sa(dp1672
g7
S'd2'
p1673
sa(dp1674
g5
S'white_bishop'
p1675
sg7
S'd3'
p1676
sa(dp1677
g7
S'd4'
p1678
sa(dp1679
g7
S'd5'
p1680
sa(dp1681
g7
S'd6'
p1682
sa(dp1683
g5
S'black_knight'
p1684
sg7
S'd7'
p1685
sa(dp1686
g7
S'd8'
p1687
sa(dp1688
g5
S'white_queen'
p1689
sg7
S'e1'
p1690
sa(dp1691
g5
S'white_knight'
p1692
sg7
S'e2'
p1693
sa(dp1694
g5
S'white_knight'
p1695
sg7
S'e3'
p1696
sa(dp1697
g5
S'white_pawn'
p1698
sg7
S'e4'
p1699
sa(dp1700
g5
S'black_pawn'
p1701
sg7
S'e5'
p1702
sa(dp1703
g5
S'black_bishop'
p1704
sg7
S'e6'
p1705
sa(dp1706
g5
S'black_bishop'
p1707
sg7
S'e7'
p1708
sa(dp1709
g5
S'black_king'
p1710
sg7
S'e8'
p1711
sa(dp1712
g5
S'white_rook'
p1713
sg7
S'f1'
p1714
sa(dp1715
g7
S'f2'
p1716
sa(dp1717
g5
S'white_pawn'
p1718
sg7
S'f3'
p1719
sa(dp1720
g7
S'f4'
p1721
sa(dp1722
g7
S'f5'
p1723
sa(dp1724
g5
S'black_knight'
p1725
sg7
S'f6'
p1726
sa(dp1727
g5
S'black_pawn'
p1728
sg7
S'f7'
p1729
sa(dp1730
g7
S'f8'
p1731
sa(dp1732
g7
S'g1'
p1733
sa(dp1734
g5
S'white_pawn'
p1735
sg7
S'g2'
p1736
sa(dp1737
g7
S'g3'
p1738
sa(dp1739
g7
S'g4'
p1740
sa(dp1741
g5
S'white_bishop'
p1742
sg7
S'g5'
p1743
sa(dp1744
g5
S'black_pawn'
p1745
sg7
S'g6'
p1746
sa(dp1747
g7
S'g7'
p1748
sa(dp1749
g7
S'g8'
p1750
sa(dp1751
g5
S'white_king'
p1752
sg7
S'h1'
p1753
sa(dp1754
g5
S'white_pawn'
p1755
sg7
S'h2'
p1756
sa(dp1757
g7
S'h3'
p1758
sa(dp1759
g7
S'h4'
p1760
sa(dp1761
g5
S'black_pawn'
p1762
sg7
S'h5'
p1763
sa(dp1764
g7
S'h6'
p1765
sa(dp1766
g7
S'h7'
p1767
sa(dp1768
g5
S'black_rook'
p1769
sg7
S'h8'
p1770
saaVUnpinning the knight! OK stop and work out black's next move!
p1771
aa(lp1772
S'16... Ng4'
p1773
a(lp1774
(dp1775
g5
S'white_rook'
p1776
sg7
S'a1'
p1777
sa(dp1778
g7
S'a2'
p1779
sa(dp1780
g7
S'a3'
p1781
sa(dp1782
g7
S'a4'
p1783
sa(dp1784
g7
S'a5'
p1785
sa(dp1786
g7
S'a6'
p1787
sa(dp1788
g7
S'a7'
p1789
sa(dp1790
g7
S'a8'
p1791
sa(dp1792
g7
S'b1'
p1793
sa(dp1794
g5
S'white_pawn'
p1795
sg7
S'b2'
p1796
sa(dp1797
g7
S'b3'
p1798
sa(dp1799
g7
S'b4'
p1800
sa(dp1801
g5
S'black_pawn'
p1802
sg7
S'b5'
p1803
sa(dp1804
g5
S'black_queen'
p1805
sg7
S'b6'
p1806
sa(dp1807
g7
S'b7'
p1808
sa(dp1809
g7
S'b8'
p1810
sa(dp1811
g7
S'c1'
p1812
sa(dp1813
g5
S'white_pawn'
p1814
sg7
S'c2'
p1815
sa(dp1816
g7
S'c3'
p1817
sa(dp1818
g7
S'c4'
p1819
sa(dp1820
g7
S'c5'
p1821
sa(dp1822
g5
S'black_pawn'
p1823
sg7
S'c6'
p1824
sa(dp1825
g7
S'c7'
p1826
sa(dp1827
g5
S'black_rook'
p1828
sg7
S'c8'
p1829
sa(dp1830
g7
S'd1'
p1831
sa(dp1832
g7
S'd2'
p1833
sa(dp1834
g5
S'white_bishop'
p1835
sg7
S'd3'
p1836
sa(dp1837
g7
S'd4'
p1838
sa(dp1839
g7
S'd5'
p1840
sa(dp1841
g7
S'd6'
p1842
sa(dp1843
g5
S'black_knight'
p1844
sg7
S'd7'
p1845
sa(dp1846
g7
S'd8'
p1847
sa(dp1848
g5
S'white_queen'
p1849
sg7
S'e1'
p1850
sa(dp1851
g5
S'white_knight'
p1852
sg7
S'e2'
p1853
sa(dp1854
g5
S'white_knight'
p1855
sg7
S'e3'
p1856
sa(dp1857
g5
S'white_pawn'
p1858
sg7
S'e4'
p1859
sa(dp1860
g5
S'black_pawn'
p1861
sg7
S'e5'
p1862
sa(dp1863
g5
S'black_bishop'
p1864
sg7
S'e6'
p1865
sa(dp1866
g5
S'black_bishop'
p1867
sg7
S'e7'
p1868
sa(dp1869
g5
S'black_king'
p1870
sg7
S'e8'
p1871
sa(dp1872
g5
S'white_rook'
p1873
sg7
S'f1'
p1874
sa(dp1875
g7
S'f2'
p1876
sa(dp1877
g5
S'white_pawn'
p1878
sg7
S'f3'
p1879
sa(dp1880
g7
S'f4'
p1881
sa(dp1882
g7
S'f5'
p1883
sa(dp1884
g7
S'f6'
p1885
sa(dp1886
g5
S'black_pawn'
p1887
sg7
S'f7'
p1888
sa(dp1889
g7
S'f8'
p1890
sa(dp1891
g7
S'g1'
p1892
sa(dp1893
g5
S'white_pawn'
p1894
sg7
S'g2'
p1895
sa(dp1896
g7
S'g3'
p1897
sa(dp1898
g5
S'black_knight'
p1899
sg7
S'g4'
p1900
sa(dp1901
g5
S'white_bishop'
p1902
sg7
S'g5'
p1903
sa(dp1904
g5
S'black_pawn'
p1905
sg7
S'g6'
p1906
sa(dp1907
g7
S'g7'
p1908
sa(dp1909
g7
S'g8'
p1910
sa(dp1911
g5
S'white_king'
p1912
sg7
S'h1'
p1913
sa(dp1914
g5
S'white_pawn'
p1915
sg7
S'h2'
p1916
sa(dp1917
g7
S'h3'
p1918
sa(dp1919
g7
S'h4'
p1920
sa(dp1921
g5
S'black_pawn'
p1922
sg7
S'h5'
p1923
sa(dp1924
g7
S'h6'
p1925
sa(dp1926
g7
S'h7'
p1927
sa(dp1928
g5
S'black_rook'
p1929
sg7
S'h8'
p1930
saaVA brilliant move, which I hadn't seen. Black doesn't win any material, but gains the two bishops, most importantly he gains my good dark squared bishop, and he has more active pieces.
p1931
aa(lp1932
S'17. Nxg4'
p1933
a(lp1934
(dp1935
g5
S'white_rook'
p1936
sg7
S'a1'
p1937
sa(dp1938
g7
S'a2'
p1939
sa(dp1940
g7
S'a3'
p1941
sa(dp1942
g7
S'a4'
p1943
sa(dp1944
g7
S'a5'
p1945
sa(dp1946
g7
S'a6'
p1947
sa(dp1948
g7
S'a7'
p1949
sa(dp1950
g7
S'a8'
p1951
sa(dp1952
g7
S'b1'
p1953
sa(dp1954
g5
S'white_pawn'
p1955
sg7
S'b2'
p1956
sa(dp1957
g7
S'b3'
p1958
sa(dp1959
g7
S'b4'
p1960
sa(dp1961
g5
S'black_pawn'
p1962
sg7
S'b5'
p1963
sa(dp1964
g5
S'black_queen'
p1965
sg7
S'b6'
p1966
sa(dp1967
g7
S'b7'
p1968
sa(dp1969
g7
S'b8'
p1970
sa(dp1971
g7
S'c1'
p1972
sa(dp1973
g5
S'white_pawn'
p1974
sg7
S'c2'
p1975
sa(dp1976
g7
S'c3'
p1977
sa(dp1978
g7
S'c4'
p1979
sa(dp1980
g7
S'c5'
p1981
sa(dp1982
g5
S'black_pawn'
p1983
sg7
S'c6'
p1984
sa(dp1985
g7
S'c7'
p1986
sa(dp1987
g5
S'black_rook'
p1988
sg7
S'c8'
p1989
sa(dp1990
g7
S'd1'
p1991
sa(dp1992
g7
S'd2'
p1993
sa(dp1994
g5
S'white_bishop'
p1995
sg7
S'd3'
p1996
sa(dp1997
g7
S'd4'
p1998
sa(dp1999
g7
S'd5'
p2000
sa(dp2001
g7
S'd6'
p2002
sa(dp2003
g5
S'black_knight'
p2004
sg7
S'd7'
p2005
sa(dp2006
g7
S'd8'
p2007
sa(dp2008
g5
S'white_queen'
p2009
sg7
S'e1'
p2010
sa(dp2011
g5
S'white_knight'
p2012
sg7
S'e2'
p2013
sa(dp2014
g7
S'e3'
p2015
sa(dp2016
g5
S'white_pawn'
p2017
sg7
S'e4'
p2018
sa(dp2019
g5
S'black_pawn'
p2020
sg7
S'e5'
p2021
sa(dp2022
g5
S'black_bishop'
p2023
sg7
S'e6'
p2024
sa(dp2025
g5
S'black_bishop'
p2026
sg7
S'e7'
p2027
sa(dp2028
g5
S'black_king'
p2029
sg7
S'e8'
p2030
sa(dp2031
g5
S'white_rook'
p2032
sg7
S'f1'
p2033
sa(dp2034
g7
S'f2'
p2035
sa(dp2036
g5
S'white_pawn'
p2037
sg7
S'f3'
p2038
sa(dp2039
g7
S'f4'
p2040
sa(dp2041
g7
S'f5'
p2042
sa(dp2043
g7
S'f6'
p2044
sa(dp2045
g5
S'black_pawn'
p2046
sg7
S'f7'
p2047
sa(dp2048
g7
S'f8'
p2049
sa(dp2050
g7
S'g1'
p2051
sa(dp2052
g5
S'white_pawn'
p2053
sg7
S'g2'
p2054
sa(dp2055
g7
S'g3'
p2056
sa(dp2057
g5
S'white_knight'
p2058
sg7
S'g4'
p2059
sa(dp2060
g5
S'white_bishop'
p2061
sg7
S'g5'
p2062
sa(dp2063
g5
S'black_pawn'
p2064
sg7
S'g6'
p2065
sa(dp2066
g7
S'g7'
p2067
sa(dp2068
g7
S'g8'
p2069
sa(dp2070
g5
S'white_king'
p2071
sg7
S'h1'
p2072
sa(dp2073
g5
S'white_pawn'
p2074
sg7
S'h2'
p2075
sa(dp2076
g7
S'h3'
p2077
sa(dp2078
g7
S'h4'
p2079
sa(dp2080
g5
S'black_pawn'
p2081
sg7
S'h5'
p2082
sa(dp2083
g7
S'h6'
p2084
sa(dp2085
g7
S'h7'
p2086
sa(dp2087
g5
S'black_rook'
p2088
sg7
S'h8'
p2089
saaVI take.
p2090
aa(lp2091
S'17... Bxg5'
p2092
a(lp2093
(dp2094
g5
S'white_rook'
p2095
sg7
S'a1'
p2096
sa(dp2097
g7
S'a2'
p2098
sa(dp2099
g7
S'a3'
p2100
sa(dp2101
g7
S'a4'
p2102
sa(dp2103
g7
S'a5'
p2104
sa(dp2105
g7
S'a6'
p2106
sa(dp2107
g7
S'a7'
p2108
sa(dp2109
g7
S'a8'
p2110
sa(dp2111
g7
S'b1'
p2112
sa(dp2113
g5
S'white_pawn'
p2114
sg7
S'b2'
p2115
sa(dp2116
g7
S'b3'
p2117
sa(dp2118
g7
S'b4'
p2119
sa(dp2120
g5
S'black_pawn'
p2121
sg7
S'b5'
p2122
sa(dp2123
g5
S'black_queen'
p2124
sg7
S'b6'
p2125
sa(dp2126
g7
S'b7'
p2127
sa(dp2128
g7
S'b8'
p2129
sa(dp2130
g7
S'c1'
p2131
sa(dp2132
g5
S'white_pawn'
p2133
sg7
S'c2'
p2134
sa(dp2135
g7
S'c3'
p2136
sa(dp2137
g7
S'c4'
p2138
sa(dp2139
g7
S'c5'
p2140
sa(dp2141
g5
S'black_pawn'
p2142
sg7
S'c6'
p2143
sa(dp2144
g7
S'c7'
p2145
sa(dp2146
g5
S'black_rook'
p2147
sg7
S'c8'
p2148
sa(dp2149
g7
S'd1'
p2150
sa(dp2151
g7
S'd2'
p2152
sa(dp2153
g5
S'white_bishop'
p2154
sg7
S'd3'
p2155
sa(dp2156
g7
S'd4'
p2157
sa(dp2158
g7
S'd5'
p2159
sa(dp2160
g7
S'd6'
p2161
sa(dp2162
g5
S'black_knight'
p2163
sg7
S'd7'
p2164
sa(dp2165
g7
S'd8'
p2166
sa(dp2167
g5
S'white_queen'
p2168
sg7
S'e1'
p2169
sa(dp2170
g5
S'white_knight'
p2171
sg7
S'e2'
p2172
sa(dp2173
g7
S'e3'
p2174
sa(dp2175
g5
S'white_pawn'
p2176
sg7
S'e4'
p2177
sa(dp2178
g5
S'black_pawn'
p2179
sg7
S'e5'
p2180
sa(dp2181
g5
S'black_bishop'
p2182
sg7
S'e6'
p2183
sa(dp2184
g7
S'e7'
p2185
sa(dp2186
g5
S'black_king'
p2187
sg7
S'e8'
p2188
sa(dp2189
g5
S'white_rook'
p2190
sg7
S'f1'
p2191
sa(dp2192
g7
S'f2'
p2193
sa(dp2194
g5
S'white_pawn'
p2195
sg7
S'f3'
p2196
sa(dp2197
g7
S'f4'
p2198
sa(dp2199
g7
S'f5'
p2200
sa(dp2201
g7
S'f6'
p2202
sa(dp2203
g5
S'black_pawn'
p2204
sg7
S'f7'
p2205
sa(dp2206
g7
S'f8'
p2207
sa(dp2208
g7
S'g1'
p2209
sa(dp2210
g5
S'white_pawn'
p2211
sg7
S'g2'
p2212
sa(dp2213
g7
S'g3'
p2214
sa(dp2215
g5
S'white_knight'
p2216
sg7
S'g4'
p2217
sa(dp2218
g5
S'black_bishop'
p2219
sg7
S'g5'
p2220
sa(dp2221
g5
S'black_pawn'
p2222
sg7
S'g6'
p2223
sa(dp2224
g7
S'g7'
p2225
sa(dp2226
g7
S'g8'
p2227
sa(dp2228
g5
S'white_king'
p2229
sg7
S'h1'
p2230
sa(dp2231
g5
S'white_pawn'
p2232
sg7
S'h2'
p2233
sa(dp2234
g7
S'h3'
p2235
sa(dp2236
g7
S'h4'
p2237
sa(dp2238
g5
S'black_pawn'
p2239
sg7
S'h5'
p2240
sa(dp2241
g7
S'h6'
p2242
sa(dp2243
g7
S'h7'
p2244
sa(dp2245
g5
S'black_rook'
p2246
sg7
S'h8'
p2247
saaVHe takes back.
p2248
aa(lp2249
S'18. Nf2'
p2250
a(lp2251
(dp2252
g5
S'white_rook'
p2253
sg7
S'a1'
p2254
sa(dp2255
g7
S'a2'
p2256
sa(dp2257
g7
S'a3'
p2258
sa(dp2259
g7
S'a4'
p2260
sa(dp2261
g7
S'a5'
p2262
sa(dp2263
g7
S'a6'
p2264
sa(dp2265
g7
S'a7'
p2266
sa(dp2267
g7
S'a8'
p2268
sa(dp2269
g7
S'b1'
p2270
sa(dp2271
g5
S'white_pawn'
p2272
sg7
S'b2'
p2273
sa(dp2274
g7
S'b3'
p2275
sa(dp2276
g7
S'b4'
p2277
sa(dp2278
g5
S'black_pawn'
p2279
sg7
S'b5'
p2280
sa(dp2281
g5
S'black_queen'
p2282
sg7
S'b6'
p2283
sa(dp2284
g7
S'b7'
p2285
sa(dp2286
g7
S'b8'
p2287
sa(dp2288
g7
S'c1'
p2289
sa(dp2290
g5
S'white_pawn'
p2291
sg7
S'c2'
p2292
sa(dp2293
g7
S'c3'
p2294
sa(dp2295
g7
S'c4'
p2296
sa(dp2297
g7
S'c5'
p2298
sa(dp2299
g5
S'black_pawn'
p2300
sg7
S'c6'
p2301
sa(dp2302
g7
S'c7'
p2303
sa(dp2304
g5
S'black_rook'
p2305
sg7
S'c8'
p2306
sa(dp2307
g7
S'd1'
p2308
sa(dp2309
g7
S'd2'
p2310
sa(dp2311
g5
S'white_bishop'
p2312
sg7
S'd3'
p2313
sa(dp2314
g7
S'd4'
p2315
sa(dp2316
g7
S'd5'
p2317
sa(dp2318
g7
S'd6'
p2319
sa(dp2320
g5
S'black_knight'
p2321
sg7
S'd7'
p2322
sa(dp2323
g7
S'd8'
p2324
sa(dp2325
g5
S'white_queen'
p2326
sg7
S'e1'
p2327
sa(dp2328
g5
S'white_knight'
p2329
sg7
S'e2'
p2330
sa(dp2331
g7
S'e3'
p2332
sa(dp2333
g5
S'white_pawn'
p2334
sg7
S'e4'
p2335
sa(dp2336
g5
S'black_pawn'
p2337
sg7
S'e5'
p2338
sa(dp2339
g5
S'black_bishop'
p2340
sg7
S'e6'
p2341
sa(dp2342
g7
S'e7'
p2343
sa(dp2344
g5
S'black_king'
p2345
sg7
S'e8'
p2346
sa(dp2347
g5
S'white_rook'
p2348
sg7
S'f1'
p2349
sa(dp2350
g5
S'white_knight'
p2351
sg7
S'f2'
p2352
sa(dp2353
g5
S'white_pawn'
p2354
sg7
S'f3'
p2355
sa(dp2356
g7
S'f4'
p2357
sa(dp2358
g7
S'f5'
p2359
sa(dp2360
g7
S'f6'
p2361
sa(dp2362
g5
S'black_pawn'
p2363
sg7
S'f7'
p2364
sa(dp2365
g7
S'f8'
p2366
sa(dp2367
g7
S'g1'
p2368
sa(dp2369
g5
S'white_pawn'
p2370
sg7
S'g2'
p2371
sa(dp2372
g7
S'g3'
p2373
sa(dp2374
g7
S'g4'
p2375
sa(dp2376
g5
S'black_bishop'
p2377
sg7
S'g5'
p2378
sa(dp2379
g5
S'black_pawn'
p2380
sg7
S'g6'
p2381
sa(dp2382
g7
S'g7'
p2383
sa(dp2384
g7
S'g8'
p2385
sa(dp2386
g5
S'white_king'
p2387
sg7
S'h1'
p2388
sa(dp2389
g5
S'white_pawn'
p2390
sg7
S'h2'
p2391
sa(dp2392
g7
S'h3'
p2393
sa(dp2394
g7
S'h4'
p2395
sa(dp2396
g5
S'black_pawn'
p2397
sg7
S'h5'
p2398
sa(dp2399
g7
S'h6'
p2400
sa(dp2401
g7
S'h7'
p2402
sa(dp2403
g5
S'black_rook'
p2404
sg7
S'h8'
p2405
saaVThe only safe square for the knight.
p2406
aa(lp2407
S'18... O-O'
p2408
a(lp2409
(dp2410
g5
S'white_rook'
p2411
sg7
S'a1'
p2412
sa(dp2413
g7
S'a2'
p2414
sa(dp2415
g7
S'a3'
p2416
sa(dp2417
g7
S'a4'
p2418
sa(dp2419
g7
S'a5'
p2420
sa(dp2421
g7
S'a6'
p2422
sa(dp2423
g7
S'a7'
p2424
sa(dp2425
g7
S'a8'
p2426
sa(dp2427
g7
S'b1'
p2428
sa(dp2429
g5
S'white_pawn'
p2430
sg7
S'b2'
p2431
sa(dp2432
g7
S'b3'
p2433
sa(dp2434
g7
S'b4'
p2435
sa(dp2436
g5
S'black_pawn'
p2437
sg7
S'b5'
p2438
sa(dp2439
g5
S'black_queen'
p2440
sg7
S'b6'
p2441
sa(dp2442
g7
S'b7'
p2443
sa(dp2444
g7
S'b8'
p2445
sa(dp2446
g7
S'c1'
p2447
sa(dp2448
g5
S'white_pawn'
p2449
sg7
S'c2'
p2450
sa(dp2451
g7
S'c3'
p2452
sa(dp2453
g7
S'c4'
p2454
sa(dp2455
g7
S'c5'
p2456
sa(dp2457
g5
S'black_pawn'
p2458
sg7
S'c6'
p2459
sa(dp2460
g7
S'c7'
p2461
sa(dp2462
g5
S'black_rook'
p2463
sg7
S'c8'
p2464
sa(dp2465
g7
S'd1'
p2466
sa(dp2467
g7
S'd2'
p2468
sa(dp2469
g5
S'white_bishop'
p2470
sg7
S'd3'
p2471
sa(dp2472
g7
S'd4'
p2473
sa(dp2474
g7
S'd5'
p2475
sa(dp2476
g7
S'd6'
p2477
sa(dp2478
g5
S'black_knight'
p2479
sg7
S'd7'
p2480
sa(dp2481
g7
S'd8'
p2482
sa(dp2483
g5
S'white_queen'
p2484
sg7
S'e1'
p2485
sa(dp2486
g5
S'white_knight'
p2487
sg7
S'e2'
p2488
sa(dp2489
g7
S'e3'
p2490
sa(dp2491
g5
S'white_pawn'
p2492
sg7
S'e4'
p2493
sa(dp2494
g5
S'black_pawn'
p2495
sg7
S'e5'
p2496
sa(dp2497
g5
S'black_bishop'
p2498
sg7
S'e6'
p2499
sa(dp2500
g7
S'e7'
p2501
sa(dp2502
g7
S'e8'
p2503
sa(dp2504
g5
S'white_rook'
p2505
sg7
S'f1'
p2506
sa(dp2507
g5
S'white_knight'
p2508
sg7
S'f2'
p2509
sa(dp2510
g5
S'white_pawn'
p2511
sg7
S'f3'
p2512
sa(dp2513
g7
S'f4'
p2514
sa(dp2515
g7
S'f5'
p2516
sa(dp2517
g7
S'f6'
p2518
sa(dp2519
g5
S'black_pawn'
p2520
sg7
S'f7'
p2521
sa(dp2522
g5
S'black_rook'
p2523
sg7
S'f8'
p2524
sa(dp2525
g7
S'g1'
p2526
sa(dp2527
g5
S'white_pawn'
p2528
sg7
S'g2'
p2529
sa(dp2530
g7
S'g3'
p2531
sa(dp2532
g7
S'g4'
p2533
sa(dp2534
g5
S'black_bishop'
p2535
sg7
S'g5'
p2536
sa(dp2537
g5
S'black_pawn'
p2538
sg7
S'g6'
p2539
sa(dp2540
g7
S'g7'
p2541
sa(dp2542
g5
S'black_king'
p2543
sg7
S'g8'
p2544
sa(dp2545
g5
S'white_king'
p2546
sg7
S'h1'
p2547
sa(dp2548
g5
S'white_pawn'
p2549
sg7
S'h2'
p2550
sa(dp2551
g7
S'h3'
p2552
sa(dp2553
g7
S'h4'
p2554
sa(dp2555
g5
S'black_pawn'
p2556
sg7
S'h5'
p2557
sa(dp2558
g7
S'h6'
p2559
sa(dp2560
g7
S'h7'
p2561
sa(dp2562
g7
S'h8'
p2563
saaVHe finally castles.
p2564
aa(lp2565
S'19. Nc3'
p2566
a(lp2567
(dp2568
g5
S'white_rook'
p2569
sg7
S'a1'
p2570
sa(dp2571
g7
S'a2'
p2572
sa(dp2573
g7
S'a3'
p2574
sa(dp2575
g7
S'a4'
p2576
sa(dp2577
g7
S'a5'
p2578
sa(dp2579
g7
S'a6'
p2580
sa(dp2581
g7
S'a7'
p2582
sa(dp2583
g7
S'a8'
p2584
sa(dp2585
g7
S'b1'
p2586
sa(dp2587
g5
S'white_pawn'
p2588
sg7
S'b2'
p2589
sa(dp2590
g7
S'b3'
p2591
sa(dp2592
g7
S'b4'
p2593
sa(dp2594
g5
S'black_pawn'
p2595
sg7
S'b5'
p2596
sa(dp2597
g5
S'black_queen'
p2598
sg7
S'b6'
p2599
sa(dp2600
g7
S'b7'
p2601
sa(dp2602
g7
S'b8'
p2603
sa(dp2604
g7
S'c1'
p2605
sa(dp2606
g5
S'white_pawn'
p2607
sg7
S'c2'
p2608
sa(dp2609
g5
S'white_knight'
p2610
sg7
S'c3'
p2611
sa(dp2612
g7
S'c4'
p2613
sa(dp2614
g7
S'c5'
p2615
sa(dp2616
g5
S'black_pawn'
p2617
sg7
S'c6'
p2618
sa(dp2619
g7
S'c7'
p2620
sa(dp2621
g5
S'black_rook'
p2622
sg7
S'c8'
p2623
sa(dp2624
g7
S'd1'
p2625
sa(dp2626
g7
S'd2'
p2627
sa(dp2628
g5
S'white_bishop'
p2629
sg7
S'd3'
p2630
sa(dp2631
g7
S'd4'
p2632
sa(dp2633
g7
S'd5'
p2634
sa(dp2635
g7
S'd6'
p2636
sa(dp2637
g5
S'black_knight'
p2638
sg7
S'd7'
p2639
sa(dp2640
g7
S'd8'
p2641
sa(dp2642
g5
S'white_queen'
p2643
sg7
S'e1'
p2644
sa(dp2645
g7
S'e2'
p2646
sa(dp2647
g7
S'e3'
p2648
sa(dp2649
g5
S'white_pawn'
p2650
sg7
S'e4'
p2651
sa(dp2652
g5
S'black_pawn'
p2653
sg7
S'e5'
p2654
sa(dp2655
g5
S'black_bishop'
p2656
sg7
S'e6'
p2657
sa(dp2658
g7
S'e7'
p2659
sa(dp2660
g7
S'e8'
p2661
sa(dp2662
g5
S'white_rook'
p2663
sg7
S'f1'
p2664
sa(dp2665
g5
S'white_knight'
p2666
sg7
S'f2'
p2667
sa(dp2668
g5
S'white_pawn'
p2669
sg7
S'f3'
p2670
sa(dp2671
g7
S'f4'
p2672
sa(dp2673
g7
S'f5'
p2674
sa(dp2675
g7
S'f6'
p2676
sa(dp2677
g5
S'black_pawn'
p2678
sg7
S'f7'
p2679
sa(dp2680
g5
S'black_rook'
p2681
sg7
S'f8'
p2682
sa(dp2683
g7
S'g1'
p2684
sa(dp2685
g5
S'white_pawn'
p2686
sg7
S'g2'
p2687
sa(dp2688
g7
S'g3'
p2689
sa(dp2690
g7
S'g4'
p2691
sa(dp2692
g5
S'black_bishop'
p2693
sg7
S'g5'
p2694
sa(dp2695
g5
S'black_pawn'
p2696
sg7
S'g6'
p2697
sa(dp2698
g7
S'g7'
p2699
sa(dp2700
g5
S'black_king'
p2701
sg7
S'g8'
p2702
sa(dp2703
g5
S'white_king'
p2704
sg7
S'h1'
p2705
sa(dp2706
g5
S'white_pawn'
p2707
sg7
S'h2'
p2708
sa(dp2709
g7
S'h3'
p2710
sa(dp2711
g7
S'h4'
p2712
sa(dp2713
g5
S'black_pawn'
p2714
sg7
S'h5'
p2715
sa(dp2716
g7
S'h6'
p2717
sa(dp2718
g7
S'h7'
p2719
sa(dp2720
g7
S'h8'
p2721
saaVI am not sure if the knight is any better places here.
p2722
aa(lp2723
S'19... Rca8'
p2724
a(lp2725
(dp2726
g5
S'white_rook'
p2727
sg7
S'a1'
p2728
sa(dp2729
g7
S'a2'
p2730
sa(dp2731
g7
S'a3'
p2732
sa(dp2733
g7
S'a4'
p2734
sa(dp2735
g7
S'a5'
p2736
sa(dp2737
g7
S'a6'
p2738
sa(dp2739
g7
S'a7'
p2740
sa(dp2741
g5
S'black_rook'
p2742
sg7
S'a8'
p2743
sa(dp2744
g7
S'b1'
p2745
sa(dp2746
g5
S'white_pawn'
p2747
sg7
S'b2'
p2748
sa(dp2749
g7
S'b3'
p2750
sa(dp2751
g7
S'b4'
p2752
sa(dp2753
g5
S'black_pawn'
p2754
sg7
S'b5'
p2755
sa(dp2756
g5
S'black_queen'
p2757
sg7
S'b6'
p2758
sa(dp2759
g7
S'b7'
p2760
sa(dp2761
g7
S'b8'
p2762
sa(dp2763
g7
S'c1'
p2764
sa(dp2765
g5
S'white_pawn'
p2766
sg7
S'c2'
p2767
sa(dp2768
g5
S'white_knight'
p2769
sg7
S'c3'
p2770
sa(dp2771
g7
S'c4'
p2772
sa(dp2773
g7
S'c5'
p2774
sa(dp2775
g5
S'black_pawn'
p2776
sg7
S'c6'
p2777
sa(dp2778
g7
S'c7'
p2779
sa(dp2780
g7
S'c8'
p2781
sa(dp2782
g7
S'd1'
p2783
sa(dp2784
g7
S'd2'
p2785
sa(dp2786
g5
S'white_bishop'
p2787
sg7
S'd3'
p2788
sa(dp2789
g7
S'd4'
p2790
sa(dp2791
g7
S'd5'
p2792
sa(dp2793
g7
S'd6'
p2794
sa(dp2795
g5
S'black_knight'
p2796
sg7
S'd7'
p2797
sa(dp2798
g7
S'd8'
p2799
sa(dp2800
g5
S'white_queen'
p2801
sg7
S'e1'
p2802
sa(dp2803
g7
S'e2'
p2804
sa(dp2805
g7
S'e3'
p2806
sa(dp2807
g5
S'white_pawn'
p2808
sg7
S'e4'
p2809
sa(dp2810
g5
S'black_pawn'
p2811
sg7
S'e5'
p2812
sa(dp2813
g5
S'black_bishop'
p2814
sg7
S'e6'
p2815
sa(dp2816
g7
S'e7'
p2817
sa(dp2818
g7
S'e8'
p2819
sa(dp2820
g5
S'white_rook'
p2821
sg7
S'f1'
p2822
sa(dp2823
g5
S'white_knight'
p2824
sg7
S'f2'
p2825
sa(dp2826
g5
S'white_pawn'
p2827
sg7
S'f3'
p2828
sa(dp2829
g7
S'f4'
p2830
sa(dp2831
g7
S'f5'
p2832
sa(dp2833
g7
S'f6'
p2834
sa(dp2835
g5
S'black_pawn'
p2836
sg7
S'f7'
p2837
sa(dp2838
g5
S'black_rook'
p2839
sg7
S'f8'
p2840
sa(dp2841
g7
S'g1'
p2842
sa(dp2843
g5
S'white_pawn'
p2844
sg7
S'g2'
p2845
sa(dp2846
g7
S'g3'
p2847
sa(dp2848
g7
S'g4'
p2849
sa(dp2850
g5
S'black_bishop'
p2851
sg7
S'g5'
p2852
sa(dp2853
g5
S'black_pawn'
p2854
sg7
S'g6'
p2855
sa(dp2856
g7
S'g7'
p2857
sa(dp2858
g5
S'black_king'
p2859
sg7
S'g8'
p2860
sa(dp2861
g5
S'white_king'
p2862
sg7
S'h1'
p2863
sa(dp2864
g5
S'white_pawn'
p2865
sg7
S'h2'
p2866
sa(dp2867
g7
S'h3'
p2868
sa(dp2869
g7
S'h4'
p2870
sa(dp2871
g5
S'black_pawn'
p2872
sg7
S'h5'
p2873
sa(dp2874
g7
S'h6'
p2875
sa(dp2876
g7
S'h7'
p2877
sa(dp2878
g7
S'h8'
p2879
saaVContesting the a file.
p2880
aa(lp2881
S'20. Qe2'
p2882
a(lp2883
(dp2884
g5
S'white_rook'
p2885
sg7
S'a1'
p2886
sa(dp2887
g7
S'a2'
p2888
sa(dp2889
g7
S'a3'
p2890
sa(dp2891
g7
S'a4'
p2892
sa(dp2893
g7
S'a5'
p2894
sa(dp2895
g7
S'a6'
p2896
sa(dp2897
g7
S'a7'
p2898
sa(dp2899
g5
S'black_rook'
p2900
sg7
S'a8'
p2901
sa(dp2902
g7
S'b1'
p2903
sa(dp2904
g5
S'white_pawn'
p2905
sg7
S'b2'
p2906
sa(dp2907
g7
S'b3'
p2908
sa(dp2909
g7
S'b4'
p2910
sa(dp2911
g5
S'black_pawn'
p2912
sg7
S'b5'
p2913
sa(dp2914
g5
S'black_queen'
p2915
sg7
S'b6'
p2916
sa(dp2917
g7
S'b7'
p2918
sa(dp2919
g7
S'b8'
p2920
sa(dp2921
g7
S'c1'
p2922
sa(dp2923
g5
S'white_pawn'
p2924
sg7
S'c2'
p2925
sa(dp2926
g5
S'white_knight'
p2927
sg7
S'c3'
p2928
sa(dp2929
g7
S'c4'
p2930
sa(dp2931
g7
S'c5'
p2932
sa(dp2933
g5
S'black_pawn'
p2934
sg7
S'c6'
p2935
sa(dp2936
g7
S'c7'
p2937
sa(dp2938
g7
S'c8'
p2939
sa(dp2940
g7
S'd1'
p2941
sa(dp2942
g7
S'd2'
p2943
sa(dp2944
g5
S'white_bishop'
p2945
sg7
S'd3'
p2946
sa(dp2947
g7
S'd4'
p2948
sa(dp2949
g7
S'd5'
p2950
sa(dp2951
g7
S'd6'
p2952
sa(dp2953
g5
S'black_knight'
p2954
sg7
S'd7'
p2955
sa(dp2956
g7
S'd8'
p2957
sa(dp2958
g7
S'e1'
p2959
sa(dp2960
g5
S'white_queen'
p2961
sg7
S'e2'
p2962
sa(dp2963
g7
S'e3'
p2964
sa(dp2965
g5
S'white_pawn'
p2966
sg7
S'e4'
p2967
sa(dp2968
g5
S'black_pawn'
p2969
sg7
S'e5'
p2970
sa(dp2971
g5
S'black_bishop'
p2972
sg7
S'e6'
p2973
sa(dp2974
g7
S'e7'
p2975
sa(dp2976
g7
S'e8'
p2977
sa(dp2978
g5
S'white_rook'
p2979
sg7
S'f1'
p2980
sa(dp2981
g5
S'white_knight'
p2982
sg7
S'f2'
p2983
sa(dp2984
g5
S'white_pawn'
p2985
sg7
S'f3'
p2986
sa(dp2987
g7
S'f4'
p2988
sa(dp2989
g7
S'f5'
p2990
sa(dp2991
g7
S'f6'
p2992
sa(dp2993
g5
S'black_pawn'
p2994
sg7
S'f7'
p2995
sa(dp2996
g5
S'black_rook'
p2997
sg7
S'f8'
p2998
sa(dp2999
g7
S'g1'
p3000
sa(dp3001
g5
S'white_pawn'
p3002
sg7
S'g2'
p3003
sa(dp3004
g7
S'g3'
p3005
sa(dp3006
g7
S'g4'
p3007
sa(dp3008
g5
S'black_bishop'
p3009
sg7
S'g5'
p3010
sa(dp3011
g5
S'black_pawn'
p3012
sg7
S'g6'
p3013
sa(dp3014
g7
S'g7'
p3015
sa(dp3016
g5
S'black_king'
p3017
sg7
S'g8'
p3018
sa(dp3019
g5
S'white_king'
p3020
sg7
S'h1'
p3021
sa(dp3022
g5
S'white_pawn'
p3023
sg7
S'h2'
p3024
sa(dp3025
g7
S'h3'
p3026
sa(dp3027
g7
S'h4'
p3028
sa(dp3029
g5
S'black_pawn'
p3030
sg7
S'h5'
p3031
sa(dp3032
g7
S'h6'
p3033
sa(dp3034
g7
S'h7'
p3035
sa(dp3036
g7
S'h8'
p3037
saaVUniting the rooks.
p3038
aa(lp3039
S'20... Be3'
p3040
a(lp3041
(dp3042
g5
S'white_rook'
p3043
sg7
S'a1'
p3044
sa(dp3045
g7
S'a2'
p3046
sa(dp3047
g7
S'a3'
p3048
sa(dp3049
g7
S'a4'
p3050
sa(dp3051
g7
S'a5'
p3052
sa(dp3053
g7
S'a6'
p3054
sa(dp3055
g7
S'a7'
p3056
sa(dp3057
g5
S'black_rook'
p3058
sg7
S'a8'
p3059
sa(dp3060
g7
S'b1'
p3061
sa(dp3062
g5
S'white_pawn'
p3063
sg7
S'b2'
p3064
sa(dp3065
g7
S'b3'
p3066
sa(dp3067
g7
S'b4'
p3068
sa(dp3069
g5
S'black_pawn'
p3070
sg7
S'b5'
p3071
sa(dp3072
g5
S'black_queen'
p3073
sg7
S'b6'
p3074
sa(dp3075
g7
S'b7'
p3076
sa(dp3077
g7
S'b8'
p3078
sa(dp3079
g7
S'c1'
p3080
sa(dp3081
g5
S'white_pawn'
p3082
sg7
S'c2'
p3083
sa(dp3084
g5
S'white_knight'
p3085
sg7
S'c3'
p3086
sa(dp3087
g7
S'c4'
p3088
sa(dp3089
g7
S'c5'
p3090
sa(dp3091
g5
S'black_pawn'
p3092
sg7
S'c6'
p3093
sa(dp3094
g7
S'c7'
p3095
sa(dp3096
g7
S'c8'
p3097
sa(dp3098
g7
S'd1'
p3099
sa(dp3100
g7
S'd2'
p3101
sa(dp3102
g5
S'white_bishop'
p3103
sg7
S'd3'
p3104
sa(dp3105
g7
S'd4'
p3106
sa(dp3107
g7
S'd5'
p3108
sa(dp3109
g7
S'd6'
p3110
sa(dp3111
g5
S'black_knight'
p3112
sg7
S'd7'
p3113
sa(dp3114
g7
S'd8'
p3115
sa(dp3116
g7
S'e1'
p3117
sa(dp3118
g5
S'white_queen'
p3119
sg7
S'e2'
p3120
sa(dp3121
g5
S'black_bishop'
p3122
sg7
S'e3'
p3123
sa(dp3124
g5
S'white_pawn'
p3125
sg7
S'e4'
p3126
sa(dp3127
g5
S'black_pawn'
p3128
sg7
S'e5'
p3129
sa(dp3130
g5
S'black_bishop'
p3131
sg7
S'e6'
p3132
sa(dp3133
g7
S'e7'
p3134
sa(dp3135
g7
S'e8'
p3136
sa(dp3137
g5
S'white_rook'
p3138
sg7
S'f1'
p3139
sa(dp3140
g5
S'white_knight'
p3141
sg7
S'f2'
p3142
sa(dp3143
g5
S'white_pawn'
p3144
sg7
S'f3'
p3145
sa(dp3146
g7
S'f4'
p3147
sa(dp3148
g7
S'f5'
p3149
sa(dp3150
g7
S'f6'
p3151
sa(dp3152
g5
S'black_pawn'
p3153
sg7
S'f7'
p3154
sa(dp3155
g5
S'black_rook'
p3156
sg7
S'f8'
p3157
sa(dp3158
g7
S'g1'
p3159
sa(dp3160
g5
S'white_pawn'
p3161
sg7
S'g2'
p3162
sa(dp3163
g7
S'g3'
p3164
sa(dp3165
g7
S'g4'
p3166
sa(dp3167
g7
S'g5'
p3168
sa(dp3169
g5
S'black_pawn'
p3170
sg7
S'g6'
p3171
sa(dp3172
g7
S'g7'
p3173
sa(dp3174
g5
S'black_king'
p3175
sg7
S'g8'
p3176
sa(dp3177
g5
S'white_king'
p3178
sg7
S'h1'
p3179
sa(dp3180
g5
S'white_pawn'
p3181
sg7
S'h2'
p3182
sa(dp3183
g7
S'h3'
p3184
sa(dp3185
g7
S'h4'
p3186
sa(dp3187
g5
S'black_pawn'
p3188
sg7
S'h5'
p3189
sa(dp3190
g7
S'h6'
p3191
sa(dp3192
g7
S'h7'
p3193
sa(dp3194
g7
S'h8'
p3195
saaVWith the threat of taking on a1 followed by taking on f2 - or indeed vice versa.
p3196
aa.