(lp0
(lp1
S'1. c4'
p2
a(lp3
(dp4
S'piece'
p5
S'white_rook'
p6
sS'location'
p7
S'a1'
p8
sa(dp9
g5
S'white_pawn'
p10
sg7
S'a2'
p11
sa(dp12
g7
S'a3'
p13
sa(dp14
g7
S'a4'
p15
sa(dp16
g7
S'a5'
p17
sa(dp18
g7
S'a6'
p19
sa(dp20
g5
S'black_pawn'
p21
sg7
S'a7'
p22
sa(dp23
g5
S'black_rook'
p24
sg7
S'a8'
p25
sa(dp26
g5
S'white_knight'
p27
sg7
S'b1'
p28
sa(dp29
g5
S'white_pawn'
p30
sg7
S'b2'
p31
sa(dp32
g7
S'b3'
p33
sa(dp34
g7
S'b4'
p35
sa(dp36
g7
S'b5'
p37
sa(dp38
g7
S'b6'
p39
sa(dp40
g5
S'black_pawn'
p41
sg7
S'b7'
p42
sa(dp43
g5
S'black_knight'
p44
sg7
S'b8'
p45
sa(dp46
g5
S'white_bishop'
p47
sg7
S'c1'
p48
sa(dp49
g7
S'c2'
p50
sa(dp51
g7
S'c3'
p52
sa(dp53
g5
S'white_pawn'
p54
sg7
S'c4'
p55
sa(dp56
g7
S'c5'
p57
sa(dp58
g7
S'c6'
p59
sa(dp60
g5
S'black_pawn'
p61
sg7
S'c7'
p62
sa(dp63
g5
S'black_bishop'
p64
sg7
S'c8'
p65
sa(dp66
g5
S'white_queen'
p67
sg7
S'd1'
p68
sa(dp69
g5
S'white_pawn'
p70
sg7
S'd2'
p71
sa(dp72
g7
S'd3'
p73
sa(dp74
g7
S'd4'
p75
sa(dp76
g7
S'd5'
p77
sa(dp78
g7
S'd6'
p79
sa(dp80
g5
S'black_pawn'
p81
sg7
S'd7'
p82
sa(dp83
g5
S'black_queen'
p84
sg7
S'd8'
p85
sa(dp86
g5
S'white_king'
p87
sg7
S'e1'
p88
sa(dp89
g5
S'white_pawn'
p90
sg7
S'e2'
p91
sa(dp92
g7
S'e3'
p93
sa(dp94
g7
S'e4'
p95
sa(dp96
g7
S'e5'
p97
sa(dp98
g7
S'e6'
p99
sa(dp100
g5
S'black_pawn'
p101
sg7
S'e7'
p102
sa(dp103
g5
S'black_king'
p104
sg7
S'e8'
p105
sa(dp106
g5
S'white_bishop'
p107
sg7
S'f1'
p108
sa(dp109
g5
S'white_pawn'
p110
sg7
S'f2'
p111
sa(dp112
g7
S'f3'
p113
sa(dp114
g7
S'f4'
p115
sa(dp116
g7
S'f5'
p117
sa(dp118
g7
S'f6'
p119
sa(dp120
g5
S'black_pawn'
p121
sg7
S'f7'
p122
sa(dp123
g5
S'black_bishop'
p124
sg7
S'f8'
p125
sa(dp126
g5
S'white_knight'
p127
sg7
S'g1'
p128
sa(dp129
g5
S'white_pawn'
p130
sg7
S'g2'
p131
sa(dp132
g7
S'g3'
p133
sa(dp134
g7
S'g4'
p135
sa(dp136
g7
S'g5'
p137
sa(dp138
g7
S'g6'
p139
sa(dp140
g5
S'black_pawn'
p141
sg7
S'g7'
p142
sa(dp143
g5
S'black_knight'
p144
sg7
S'g8'
p145
sa(dp146
g5
S'white_rook'
p147
sg7
S'h1'
p148
sa(dp149
g5
S'white_pawn'
p150
sg7
S'h2'
p151
sa(dp152
g7
S'h3'
p153
sa(dp154
g7
S'h4'
p155
sa(dp156
g7
S'h5'
p157
sa(dp158
g7
S'h6'
p159
sa(dp160
g5
S'black_pawn'
p161
sg7
S'h7'
p162
sa(dp163
g5
S'black_rook'
p164
sg7
S'h8'
p165
saaVIn this match Malpas & Oswestry were home to Wrexham in Malpas. We(Malpas & Oswestry) were missing several players, so I had to play on top board, rather than board 4. I had already lost to Bob with black earlier in the season, where he played 1. e4 and an open Sicilian. Instead now he plays The English Opening. The English derives its name from the English (unofficial) world champion, Howard Staunton, who played it during his 1843 match with Saint-Amant and at London 1851, the first international tournament.
p166
aa(lp167
S'1... Nf6'
p168
a(lp169
(dp170
g5
S'white_rook'
p171
sg7
S'a1'
p172
sa(dp173
g5
S'white_pawn'
p174
sg7
S'a2'
p175
sa(dp176
g7
S'a3'
p177
sa(dp178
g7
S'a4'
p179
sa(dp180
g7
S'a5'
p181
sa(dp182
g7
S'a6'
p183
sa(dp184
g5
S'black_pawn'
p185
sg7
S'a7'
p186
sa(dp187
g5
S'black_rook'
p188
sg7
S'a8'
p189
sa(dp190
g5
S'white_knight'
p191
sg7
S'b1'
p192
sa(dp193
g5
S'white_pawn'
p194
sg7
S'b2'
p195
sa(dp196
g7
S'b3'
p197
sa(dp198
g7
S'b4'
p199
sa(dp200
g7
S'b5'
p201
sa(dp202
g7
S'b6'
p203
sa(dp204
g5
S'black_pawn'
p205
sg7
S'b7'
p206
sa(dp207
g5
S'black_knight'
p208
sg7
S'b8'
p209
sa(dp210
g5
S'white_bishop'
p211
sg7
S'c1'
p212
sa(dp213
g7
S'c2'
p214
sa(dp215
g7
S'c3'
p216
sa(dp217
g5
S'white_pawn'
p218
sg7
S'c4'
p219
sa(dp220
g7
S'c5'
p221
sa(dp222
g7
S'c6'
p223
sa(dp224
g5
S'black_pawn'
p225
sg7
S'c7'
p226
sa(dp227
g5
S'black_bishop'
p228
sg7
S'c8'
p229
sa(dp230
g5
S'white_queen'
p231
sg7
S'd1'
p232
sa(dp233
g5
S'white_pawn'
p234
sg7
S'd2'
p235
sa(dp236
g7
S'd3'
p237
sa(dp238
g7
S'd4'
p239
sa(dp240
g7
S'd5'
p241
sa(dp242
g7
S'd6'
p243
sa(dp244
g5
S'black_pawn'
p245
sg7
S'd7'
p246
sa(dp247
g5
S'black_queen'
p248
sg7
S'd8'
p249
sa(dp250
g5
S'white_king'
p251
sg7
S'e1'
p252
sa(dp253
g5
S'white_pawn'
p254
sg7
S'e2'
p255
sa(dp256
g7
S'e3'
p257
sa(dp258
g7
S'e4'
p259
sa(dp260
g7
S'e5'
p261
sa(dp262
g7
S'e6'
p263
sa(dp264
g5
S'black_pawn'
p265
sg7
S'e7'
p266
sa(dp267
g5
S'black_king'
p268
sg7
S'e8'
p269
sa(dp270
g5
S'white_bishop'
p271
sg7
S'f1'
p272
sa(dp273
g5
S'white_pawn'
p274
sg7
S'f2'
p275
sa(dp276
g7
S'f3'
p277
sa(dp278
g7
S'f4'
p279
sa(dp280
g7
S'f5'
p281
sa(dp282
g5
S'black_knight'
p283
sg7
S'f6'
p284
sa(dp285
g5
S'black_pawn'
p286
sg7
S'f7'
p287
sa(dp288
g5
S'black_bishop'
p289
sg7
S'f8'
p290
sa(dp291
g5
S'white_knight'
p292
sg7
S'g1'
p293
sa(dp294
g5
S'white_pawn'
p295
sg7
S'g2'
p296
sa(dp297
g7
S'g3'
p298
sa(dp299
g7
S'g4'
p300
sa(dp301
g7
S'g5'
p302
sa(dp303
g7
S'g6'
p304
sa(dp305
g5
S'black_pawn'
p306
sg7
S'g7'
p307
sa(dp308
g7
S'g8'
p309
sa(dp310
g5
S'white_rook'
p311
sg7
S'h1'
p312
sa(dp313
g5
S'white_pawn'
p314
sg7
S'h2'
p315
sa(dp316
g7
S'h3'
p317
sa(dp318
g7
S'h4'
p319
sa(dp320
g7
S'h5'
p321
sa(dp322
g7
S'h6'
p323
sa(dp324
g5
S'black_pawn'
p325
sg7
S'h7'
p326
sa(dp327
g5
S'black_rook'
p328
sg7
S'h8'
p329
saaVHoping to a transposition to main lines with 2. d4.
p330
aa(lp331
S'2. g3'
p332
a(lp333
(dp334
g5
S'white_rook'
p335
sg7
S'a1'
p336
sa(dp337
g5
S'white_pawn'
p338
sg7
S'a2'
p339
sa(dp340
g7
S'a3'
p341
sa(dp342
g7
S'a4'
p343
sa(dp344
g7
S'a5'
p345
sa(dp346
g7
S'a6'
p347
sa(dp348
g5
S'black_pawn'
p349
sg7
S'a7'
p350
sa(dp351
g5
S'black_rook'
p352
sg7
S'a8'
p353
sa(dp354
g5
S'white_knight'
p355
sg7
S'b1'
p356
sa(dp357
g5
S'white_pawn'
p358
sg7
S'b2'
p359
sa(dp360
g7
S'b3'
p361
sa(dp362
g7
S'b4'
p363
sa(dp364
g7
S'b5'
p365
sa(dp366
g7
S'b6'
p367
sa(dp368
g5
S'black_pawn'
p369
sg7
S'b7'
p370
sa(dp371
g5
S'black_knight'
p372
sg7
S'b8'
p373
sa(dp374
g5
S'white_bishop'
p375
sg7
S'c1'
p376
sa(dp377
g7
S'c2'
p378
sa(dp379
g7
S'c3'
p380
sa(dp381
g5
S'white_pawn'
p382
sg7
S'c4'
p383
sa(dp384
g7
S'c5'
p385
sa(dp386
g7
S'c6'
p387
sa(dp388
g5
S'black_pawn'
p389
sg7
S'c7'
p390
sa(dp391
g5
S'black_bishop'
p392
sg7
S'c8'
p393
sa(dp394
g5
S'white_queen'
p395
sg7
S'd1'
p396
sa(dp397
g5
S'white_pawn'
p398
sg7
S'd2'
p399
sa(dp400
g7
S'd3'
p401
sa(dp402
g7
S'd4'
p403
sa(dp404
g7
S'd5'
p405
sa(dp406
g7
S'd6'
p407
sa(dp408
g5
S'black_pawn'
p409
sg7
S'd7'
p410
sa(dp411
g5
S'black_queen'
p412
sg7
S'd8'
p413
sa(dp414
g5
S'white_king'
p415
sg7
S'e1'
p416
sa(dp417
g5
S'white_pawn'
p418
sg7
S'e2'
p419
sa(dp420
g7
S'e3'
p421
sa(dp422
g7
S'e4'
p423
sa(dp424
g7
S'e5'
p425
sa(dp426
g7
S'e6'
p427
sa(dp428
g5
S'black_pawn'
p429
sg7
S'e7'
p430
sa(dp431
g5
S'black_king'
p432
sg7
S'e8'
p433
sa(dp434
g5
S'white_bishop'
p435
sg7
S'f1'
p436
sa(dp437
g5
S'white_pawn'
p438
sg7
S'f2'
p439
sa(dp440
g7
S'f3'
p441
sa(dp442
g7
S'f4'
p443
sa(dp444
g7
S'f5'
p445
sa(dp446
g5
S'black_knight'
p447
sg7
S'f6'
p448
sa(dp449
g5
S'black_pawn'
p450
sg7
S'f7'
p451
sa(dp452
g5
S'black_bishop'
p453
sg7
S'f8'
p454
sa(dp455
g5
S'white_knight'
p456
sg7
S'g1'
p457
sa(dp458
g7
S'g2'
p459
sa(dp460
g5
S'white_pawn'
p461
sg7
S'g3'
p462
sa(dp463
g7
S'g4'
p464
sa(dp465
g7
S'g5'
p466
sa(dp467
g7
S'g6'
p468
sa(dp469
g5
S'black_pawn'
p470
sg7
S'g7'
p471
sa(dp472
g7
S'g8'
p473
sa(dp474
g5
S'white_rook'
p475
sg7
S'h1'
p476
sa(dp477
g5
S'white_pawn'
p478
sg7
S'h2'
p479
sa(dp480
g7
S'h3'
p481
sa(dp482
g7
S'h4'
p483
sa(dp484
g7
S'h5'
p485
sa(dp486
g7
S'h6'
p487
sa(dp488
g5
S'black_pawn'
p489
sg7
S'h7'
p490
sa(dp491
g5
S'black_rook'
p492
sg7
S'h8'
p493
saaVBut he plays this. I decided to copy his fianchetto.
p494
aa(lp495
S'2... g6'
p496
a(lp497
(dp498
g5
S'white_rook'
p499
sg7
S'a1'
p500
sa(dp501
g5
S'white_pawn'
p502
sg7
S'a2'
p503
sa(dp504
g7
S'a3'
p505
sa(dp506
g7
S'a4'
p507
sa(dp508
g7
S'a5'
p509
sa(dp510
g7
S'a6'
p511
sa(dp512
g5
S'black_pawn'
p513
sg7
S'a7'
p514
sa(dp515
g5
S'black_rook'
p516
sg7
S'a8'
p517
sa(dp518
g5
S'white_knight'
p519
sg7
S'b1'
p520
sa(dp521
g5
S'white_pawn'
p522
sg7
S'b2'
p523
sa(dp524
g7
S'b3'
p525
sa(dp526
g7
S'b4'
p527
sa(dp528
g7
S'b5'
p529
sa(dp530
g7
S'b6'
p531
sa(dp532
g5
S'black_pawn'
p533
sg7
S'b7'
p534
sa(dp535
g5
S'black_knight'
p536
sg7
S'b8'
p537
sa(dp538
g5
S'white_bishop'
p539
sg7
S'c1'
p540
sa(dp541
g7
S'c2'
p542
sa(dp543
g7
S'c3'
p544
sa(dp545
g5
S'white_pawn'
p546
sg7
S'c4'
p547
sa(dp548
g7
S'c5'
p549
sa(dp550
g7
S'c6'
p551
sa(dp552
g5
S'black_pawn'
p553
sg7
S'c7'
p554
sa(dp555
g5
S'black_bishop'
p556
sg7
S'c8'
p557
sa(dp558
g5
S'white_queen'
p559
sg7
S'd1'
p560
sa(dp561
g5
S'white_pawn'
p562
sg7
S'd2'
p563
sa(dp564
g7
S'd3'
p565
sa(dp566
g7
S'd4'
p567
sa(dp568
g7
S'd5'
p569
sa(dp570
g7
S'd6'
p571
sa(dp572
g5
S'black_pawn'
p573
sg7
S'd7'
p574
sa(dp575
g5
S'black_queen'
p576
sg7
S'd8'
p577
sa(dp578
g5
S'white_king'
p579
sg7
S'e1'
p580
sa(dp581
g5
S'white_pawn'
p582
sg7
S'e2'
p583
sa(dp584
g7
S'e3'
p585
sa(dp586
g7
S'e4'
p587
sa(dp588
g7
S'e5'
p589
sa(dp590
g7
S'e6'
p591
sa(dp592
g5
S'black_pawn'
p593
sg7
S'e7'
p594
sa(dp595
g5
S'black_king'
p596
sg7
S'e8'
p597
sa(dp598
g5
S'white_bishop'
p599
sg7
S'f1'
p600
sa(dp601
g5
S'white_pawn'
p602
sg7
S'f2'
p603
sa(dp604
g7
S'f3'
p605
sa(dp606
g7
S'f4'
p607
sa(dp608
g7
S'f5'
p609
sa(dp610
g5
S'black_knight'
p611
sg7
S'f6'
p612
sa(dp613
g5
S'black_pawn'
p614
sg7
S'f7'
p615
sa(dp616
g5
S'black_bishop'
p617
sg7
S'f8'
p618
sa(dp619
g5
S'white_knight'
p620
sg7
S'g1'
p621
sa(dp622
g7
S'g2'
p623
sa(dp624
g5
S'white_pawn'
p625
sg7
S'g3'
p626
sa(dp627
g7
S'g4'
p628
sa(dp629
g7
S'g5'
p630
sa(dp631
g5
S'black_pawn'
p632
sg7
S'g6'
p633
sa(dp634
g7
S'g7'
p635
sa(dp636
g7
S'g8'
p637
sa(dp638
g5
S'white_rook'
p639
sg7
S'h1'
p640
sa(dp641
g5
S'white_pawn'
p642
sg7
S'h2'
p643
sa(dp644
g7
S'h3'
p645
sa(dp646
g7
S'h4'
p647
sa(dp648
g7
S'h5'
p649
sa(dp650
g7
S'h6'
p651
sa(dp652
g5
S'black_pawn'
p653
sg7
S'h7'
p654
sa(dp655
g5
S'black_rook'
p656
sg7
S'h8'
p657
saaVWith this.
p658
aa(lp659
S'3. Bg2'
p660
a(lp661
(dp662
g5
S'white_rook'
p663
sg7
S'a1'
p664
sa(dp665
g5
S'white_pawn'
p666
sg7
S'a2'
p667
sa(dp668
g7
S'a3'
p669
sa(dp670
g7
S'a4'
p671
sa(dp672
g7
S'a5'
p673
sa(dp674
g7
S'a6'
p675
sa(dp676
g5
S'black_pawn'
p677
sg7
S'a7'
p678
sa(dp679
g5
S'black_rook'
p680
sg7
S'a8'
p681
sa(dp682
g5
S'white_knight'
p683
sg7
S'b1'
p684
sa(dp685
g5
S'white_pawn'
p686
sg7
S'b2'
p687
sa(dp688
g7
S'b3'
p689
sa(dp690
g7
S'b4'
p691
sa(dp692
g7
S'b5'
p693
sa(dp694
g7
S'b6'
p695
sa(dp696
g5
S'black_pawn'
p697
sg7
S'b7'
p698
sa(dp699
g5
S'black_knight'
p700
sg7
S'b8'
p701
sa(dp702
g5
S'white_bishop'
p703
sg7
S'c1'
p704
sa(dp705
g7
S'c2'
p706
sa(dp707
g7
S'c3'
p708
sa(dp709
g5
S'white_pawn'
p710
sg7
S'c4'
p711
sa(dp712
g7
S'c5'
p713
sa(dp714
g7
S'c6'
p715
sa(dp716
g5
S'black_pawn'
p717
sg7
S'c7'
p718
sa(dp719
g5
S'black_bishop'
p720
sg7
S'c8'
p721
sa(dp722
g5
S'white_queen'
p723
sg7
S'd1'
p724
sa(dp725
g5
S'white_pawn'
p726
sg7
S'd2'
p727
sa(dp728
g7
S'd3'
p729
sa(dp730
g7
S'd4'
p731
sa(dp732
g7
S'd5'
p733
sa(dp734
g7
S'd6'
p735
sa(dp736
g5
S'black_pawn'
p737
sg7
S'd7'
p738
sa(dp739
g5
S'black_queen'
p740
sg7
S'd8'
p741
sa(dp742
g5
S'white_king'
p743
sg7
S'e1'
p744
sa(dp745
g5
S'white_pawn'
p746
sg7
S'e2'
p747
sa(dp748
g7
S'e3'
p749
sa(dp750
g7
S'e4'
p751
sa(dp752
g7
S'e5'
p753
sa(dp754
g7
S'e6'
p755
sa(dp756
g5
S'black_pawn'
p757
sg7
S'e7'
p758
sa(dp759
g5
S'black_king'
p760
sg7
S'e8'
p761
sa(dp762
g7
S'f1'
p763
sa(dp764
g5
S'white_pawn'
p765
sg7
S'f2'
p766
sa(dp767
g7
S'f3'
p768
sa(dp769
g7
S'f4'
p770
sa(dp771
g7
S'f5'
p772
sa(dp773
g5
S'black_knight'
p774
sg7
S'f6'
p775
sa(dp776
g5
S'black_pawn'
p777
sg7
S'f7'
p778
sa(dp779
g5
S'black_bishop'
p780
sg7
S'f8'
p781
sa(dp782
g5
S'white_knight'
p783
sg7
S'g1'
p784
sa(dp785
g5
S'white_bishop'
p786
sg7
S'g2'
p787
sa(dp788
g5
S'white_pawn'
p789
sg7
S'g3'
p790
sa(dp791
g7
S'g4'
p792
sa(dp793
g7
S'g5'
p794
sa(dp795
g5
S'black_pawn'
p796
sg7
S'g6'
p797
sa(dp798
g7
S'g7'
p799
sa(dp800
g7
S'g8'
p801
sa(dp802
g5
S'white_rook'
p803
sg7
S'h1'
p804
sa(dp805
g5
S'white_pawn'
p806
sg7
S'h2'
p807
sa(dp808
g7
S'h3'
p809
sa(dp810
g7
S'h4'
p811
sa(dp812
g7
S'h5'
p813
sa(dp814
g7
S'h6'
p815
sa(dp816
g5
S'black_pawn'
p817
sg7
S'h7'
p818
sa(dp819
g5
S'black_rook'
p820
sg7
S'h8'
p821
saaVHe completes the fianchetto.
p822
aa(lp823
S'3... Bg7'
p824
a(lp825
(dp826
g5
S'white_rook'
p827
sg7
S'a1'
p828
sa(dp829
g5
S'white_pawn'
p830
sg7
S'a2'
p831
sa(dp832
g7
S'a3'
p833
sa(dp834
g7
S'a4'
p835
sa(dp836
g7
S'a5'
p837
sa(dp838
g7
S'a6'
p839
sa(dp840
g5
S'black_pawn'
p841
sg7
S'a7'
p842
sa(dp843
g5
S'black_rook'
p844
sg7
S'a8'
p845
sa(dp846
g5
S'white_knight'
p847
sg7
S'b1'
p848
sa(dp849
g5
S'white_pawn'
p850
sg7
S'b2'
p851
sa(dp852
g7
S'b3'
p853
sa(dp854
g7
S'b4'
p855
sa(dp856
g7
S'b5'
p857
sa(dp858
g7
S'b6'
p859
sa(dp860
g5
S'black_pawn'
p861
sg7
S'b7'
p862
sa(dp863
g5
S'black_knight'
p864
sg7
S'b8'
p865
sa(dp866
g5
S'white_bishop'
p867
sg7
S'c1'
p868
sa(dp869
g7
S'c2'
p870
sa(dp871
g7
S'c3'
p872
sa(dp873
g5
S'white_pawn'
p874
sg7
S'c4'
p875
sa(dp876
g7
S'c5'
p877
sa(dp878
g7
S'c6'
p879
sa(dp880
g5
S'black_pawn'
p881
sg7
S'c7'
p882
sa(dp883
g5
S'black_bishop'
p884
sg7
S'c8'
p885
sa(dp886
g5
S'white_queen'
p887
sg7
S'd1'
p888
sa(dp889
g5
S'white_pawn'
p890
sg7
S'd2'
p891
sa(dp892
g7
S'd3'
p893
sa(dp894
g7
S'd4'
p895
sa(dp896
g7
S'd5'
p897
sa(dp898
g7
S'd6'
p899
sa(dp900
g5
S'black_pawn'
p901
sg7
S'd7'
p902
sa(dp903
g5
S'black_queen'
p904
sg7
S'd8'
p905
sa(dp906
g5
S'white_king'
p907
sg7
S'e1'
p908
sa(dp909
g5
S'white_pawn'
p910
sg7
S'e2'
p911
sa(dp912
g7
S'e3'
p913
sa(dp914
g7
S'e4'
p915
sa(dp916
g7
S'e5'
p917
sa(dp918
g7
S'e6'
p919
sa(dp920
g5
S'black_pawn'
p921
sg7
S'e7'
p922
sa(dp923
g5
S'black_king'
p924
sg7
S'e8'
p925
sa(dp926
g7
S'f1'
p927
sa(dp928
g5
S'white_pawn'
p929
sg7
S'f2'
p930
sa(dp931
g7
S'f3'
p932
sa(dp933
g7
S'f4'
p934
sa(dp935
g7
S'f5'
p936
sa(dp937
g5
S'black_knight'
p938
sg7
S'f6'
p939
sa(dp940
g5
S'black_pawn'
p941
sg7
S'f7'
p942
sa(dp943
g7
S'f8'
p944
sa(dp945
g5
S'white_knight'
p946
sg7
S'g1'
p947
sa(dp948
g5
S'white_bishop'
p949
sg7
S'g2'
p950
sa(dp951
g5
S'white_pawn'
p952
sg7
S'g3'
p953
sa(dp954
g7
S'g4'
p955
sa(dp956
g7
S'g5'
p957
sa(dp958
g5
S'black_pawn'
p959
sg7
S'g6'
p960
sa(dp961
g5
S'black_bishop'
p962
sg7
S'g7'
p963
sa(dp964
g7
S'g8'
p965
sa(dp966
g5
S'white_rook'
p967
sg7
S'h1'
p968
sa(dp969
g5
S'white_pawn'
p970
sg7
S'h2'
p971
sa(dp972
g7
S'h3'
p973
sa(dp974
g7
S'h4'
p975
sa(dp976
g7
S'h5'
p977
sa(dp978
g7
S'h6'
p979
sa(dp980
g5
S'black_pawn'
p981
sg7
S'h7'
p982
sa(dp983
g5
S'black_rook'
p984
sg7
S'h8'
p985
saaVSo do I
p986
aa(lp987
S'4. Nf3'
p988
a(lp989
(dp990
g5
S'white_rook'
p991
sg7
S'a1'
p992
sa(dp993
g5
S'white_pawn'
p994
sg7
S'a2'
p995
sa(dp996
g7
S'a3'
p997
sa(dp998
g7
S'a4'
p999
sa(dp1000
g7
S'a5'
p1001
sa(dp1002
g7
S'a6'
p1003
sa(dp1004
g5
S'black_pawn'
p1005
sg7
S'a7'
p1006
sa(dp1007
g5
S'black_rook'
p1008
sg7
S'a8'
p1009
sa(dp1010
g5
S'white_knight'
p1011
sg7
S'b1'
p1012
sa(dp1013
g5
S'white_pawn'
p1014
sg7
S'b2'
p1015
sa(dp1016
g7
S'b3'
p1017
sa(dp1018
g7
S'b4'
p1019
sa(dp1020
g7
S'b5'
p1021
sa(dp1022
g7
S'b6'
p1023
sa(dp1024
g5
S'black_pawn'
p1025
sg7
S'b7'
p1026
sa(dp1027
g5
S'black_knight'
p1028
sg7
S'b8'
p1029
sa(dp1030
g5
S'white_bishop'
p1031
sg7
S'c1'
p1032
sa(dp1033
g7
S'c2'
p1034
sa(dp1035
g7
S'c3'
p1036
sa(dp1037
g5
S'white_pawn'
p1038
sg7
S'c4'
p1039
sa(dp1040
g7
S'c5'
p1041
sa(dp1042
g7
S'c6'
p1043
sa(dp1044
g5
S'black_pawn'
p1045
sg7
S'c7'
p1046
sa(dp1047
g5
S'black_bishop'
p1048
sg7
S'c8'
p1049
sa(dp1050
g5
S'white_queen'
p1051
sg7
S'd1'
p1052
sa(dp1053
g5
S'white_pawn'
p1054
sg7
S'd2'
p1055
sa(dp1056
g7
S'd3'
p1057
sa(dp1058
g7
S'd4'
p1059
sa(dp1060
g7
S'd5'
p1061
sa(dp1062
g7
S'd6'
p1063
sa(dp1064
g5
S'black_pawn'
p1065
sg7
S'd7'
p1066
sa(dp1067
g5
S'black_queen'
p1068
sg7
S'd8'
p1069
sa(dp1070
g5
S'white_king'
p1071
sg7
S'e1'
p1072
sa(dp1073
g5
S'white_pawn'
p1074
sg7
S'e2'
p1075
sa(dp1076
g7
S'e3'
p1077
sa(dp1078
g7
S'e4'
p1079
sa(dp1080
g7
S'e5'
p1081
sa(dp1082
g7
S'e6'
p1083
sa(dp1084
g5
S'black_pawn'
p1085
sg7
S'e7'
p1086
sa(dp1087
g5
S'black_king'
p1088
sg7
S'e8'
p1089
sa(dp1090
g7
S'f1'
p1091
sa(dp1092
g5
S'white_pawn'
p1093
sg7
S'f2'
p1094
sa(dp1095
g5
S'white_knight'
p1096
sg7
S'f3'
p1097
sa(dp1098
g7
S'f4'
p1099
sa(dp1100
g7
S'f5'
p1101
sa(dp1102
g5
S'black_knight'
p1103
sg7
S'f6'
p1104
sa(dp1105
g5
S'black_pawn'
p1106
sg7
S'f7'
p1107
sa(dp1108
g7
S'f8'
p1109
sa(dp1110
g7
S'g1'
p1111
sa(dp1112
g5
S'white_bishop'
p1113
sg7
S'g2'
p1114
sa(dp1115
g5
S'white_pawn'
p1116
sg7
S'g3'
p1117
sa(dp1118
g7
S'g4'
p1119
sa(dp1120
g7
S'g5'
p1121
sa(dp1122
g5
S'black_pawn'
p1123
sg7
S'g6'
p1124
sa(dp1125
g5
S'black_bishop'
p1126
sg7
S'g7'
p1127
sa(dp1128
g7
S'g8'
p1129
sa(dp1130
g5
S'white_rook'
p1131
sg7
S'h1'
p1132
sa(dp1133
g5
S'white_pawn'
p1134
sg7
S'h2'
p1135
sa(dp1136
g7
S'h3'
p1137
sa(dp1138
g7
S'h4'
p1139
sa(dp1140
g7
S'h5'
p1141
sa(dp1142
g7
S'h6'
p1143
sa(dp1144
g5
S'black_pawn'
p1145
sg7
S'h7'
p1146
sa(dp1147
g5
S'black_rook'
p1148
sg7
S'h8'
p1149
saaVHis knight comes out.
p1150
aa(lp1151
S'4... O-O'
p1152
a(lp1153
(dp1154
g5
S'white_rook'
p1155
sg7
S'a1'
p1156
sa(dp1157
g5
S'white_pawn'
p1158
sg7
S'a2'
p1159
sa(dp1160
g7
S'a3'
p1161
sa(dp1162
g7
S'a4'
p1163
sa(dp1164
g7
S'a5'
p1165
sa(dp1166
g7
S'a6'
p1167
sa(dp1168
g5
S'black_pawn'
p1169
sg7
S'a7'
p1170
sa(dp1171
g5
S'black_rook'
p1172
sg7
S'a8'
p1173
sa(dp1174
g5
S'white_knight'
p1175
sg7
S'b1'
p1176
sa(dp1177
g5
S'white_pawn'
p1178
sg7
S'b2'
p1179
sa(dp1180
g7
S'b3'
p1181
sa(dp1182
g7
S'b4'
p1183
sa(dp1184
g7
S'b5'
p1185
sa(dp1186
g7
S'b6'
p1187
sa(dp1188
g5
S'black_pawn'
p1189
sg7
S'b7'
p1190
sa(dp1191
g5
S'black_knight'
p1192
sg7
S'b8'
p1193
sa(dp1194
g5
S'white_bishop'
p1195
sg7
S'c1'
p1196
sa(dp1197
g7
S'c2'
p1198
sa(dp1199
g7
S'c3'
p1200
sa(dp1201
g5
S'white_pawn'
p1202
sg7
S'c4'
p1203
sa(dp1204
g7
S'c5'
p1205
sa(dp1206
g7
S'c6'
p1207
sa(dp1208
g5
S'black_pawn'
p1209
sg7
S'c7'
p1210
sa(dp1211
g5
S'black_bishop'
p1212
sg7
S'c8'
p1213
sa(dp1214
g5
S'white_queen'
p1215
sg7
S'd1'
p1216
sa(dp1217
g5
S'white_pawn'
p1218
sg7
S'd2'
p1219
sa(dp1220
g7
S'd3'
p1221
sa(dp1222
g7
S'd4'
p1223
sa(dp1224
g7
S'd5'
p1225
sa(dp1226
g7
S'd6'
p1227
sa(dp1228
g5
S'black_pawn'
p1229
sg7
S'd7'
p1230
sa(dp1231
g5
S'black_queen'
p1232
sg7
S'd8'
p1233
sa(dp1234
g5
S'white_king'
p1235
sg7
S'e1'
p1236
sa(dp1237
g5
S'white_pawn'
p1238
sg7
S'e2'
p1239
sa(dp1240
g7
S'e3'
p1241
sa(dp1242
g7
S'e4'
p1243
sa(dp1244
g7
S'e5'
p1245
sa(dp1246
g7
S'e6'
p1247
sa(dp1248
g5
S'black_pawn'
p1249
sg7
S'e7'
p1250
sa(dp1251
g7
S'e8'
p1252
sa(dp1253
g7
S'f1'
p1254
sa(dp1255
g5
S'white_pawn'
p1256
sg7
S'f2'
p1257
sa(dp1258
g5
S'white_knight'
p1259
sg7
S'f3'
p1260
sa(dp1261
g7
S'f4'
p1262
sa(dp1263
g7
S'f5'
p1264
sa(dp1265
g5
S'black_knight'
p1266
sg7
S'f6'
p1267
sa(dp1268
g5
S'black_pawn'
p1269
sg7
S'f7'
p1270
sa(dp1271
g5
S'black_rook'
p1272
sg7
S'f8'
p1273
sa(dp1274
g7
S'g1'
p1275
sa(dp1276
g5
S'white_bishop'
p1277
sg7
S'g2'
p1278
sa(dp1279
g5
S'white_pawn'
p1280
sg7
S'g3'
p1281
sa(dp1282
g7
S'g4'
p1283
sa(dp1284
g7
S'g5'
p1285
sa(dp1286
g5
S'black_pawn'
p1287
sg7
S'g6'
p1288
sa(dp1289
g5
S'black_bishop'
p1290
sg7
S'g7'
p1291
sa(dp1292
g5
S'black_king'
p1293
sg7
S'g8'
p1294
sa(dp1295
g5
S'white_rook'
p1296
sg7
S'h1'
p1297
sa(dp1298
g5
S'white_pawn'
p1299
sg7
S'h2'
p1300
sa(dp1301
g7
S'h3'
p1302
sa(dp1303
g7
S'h4'
p1304
sa(dp1305
g7
S'h5'
p1306
sa(dp1307
g7
S'h6'
p1308
sa(dp1309
g5
S'black_pawn'
p1310
sg7
S'h7'
p1311
sa(dp1312
g7
S'h8'
p1313
saaVI castle.
p1314
aa(lp1315
S'5. O-O'
p1316
a(lp1317
(dp1318
g5
S'white_rook'
p1319
sg7
S'a1'
p1320
sa(dp1321
g5
S'white_pawn'
p1322
sg7
S'a2'
p1323
sa(dp1324
g7
S'a3'
p1325
sa(dp1326
g7
S'a4'
p1327
sa(dp1328
g7
S'a5'
p1329
sa(dp1330
g7
S'a6'
p1331
sa(dp1332
g5
S'black_pawn'
p1333
sg7
S'a7'
p1334
sa(dp1335
g5
S'black_rook'
p1336
sg7
S'a8'
p1337
sa(dp1338
g5
S'white_knight'
p1339
sg7
S'b1'
p1340
sa(dp1341
g5
S'white_pawn'
p1342
sg7
S'b2'
p1343
sa(dp1344
g7
S'b3'
p1345
sa(dp1346
g7
S'b4'
p1347
sa(dp1348
g7
S'b5'
p1349
sa(dp1350
g7
S'b6'
p1351
sa(dp1352
g5
S'black_pawn'
p1353
sg7
S'b7'
p1354
sa(dp1355
g5
S'black_knight'
p1356
sg7
S'b8'
p1357
sa(dp1358
g5
S'white_bishop'
p1359
sg7
S'c1'
p1360
sa(dp1361
g7
S'c2'
p1362
sa(dp1363
g7
S'c3'
p1364
sa(dp1365
g5
S'white_pawn'
p1366
sg7
S'c4'
p1367
sa(dp1368
g7
S'c5'
p1369
sa(dp1370
g7
S'c6'
p1371
sa(dp1372
g5
S'black_pawn'
p1373
sg7
S'c7'
p1374
sa(dp1375
g5
S'black_bishop'
p1376
sg7
S'c8'
p1377
sa(dp1378
g5
S'white_queen'
p1379
sg7
S'd1'
p1380
sa(dp1381
g5
S'white_pawn'
p1382
sg7
S'd2'
p1383
sa(dp1384
g7
S'd3'
p1385
sa(dp1386
g7
S'd4'
p1387
sa(dp1388
g7
S'd5'
p1389
sa(dp1390
g7
S'd6'
p1391
sa(dp1392
g5
S'black_pawn'
p1393
sg7
S'd7'
p1394
sa(dp1395
g5
S'black_queen'
p1396
sg7
S'd8'
p1397
sa(dp1398
g7
S'e1'
p1399
sa(dp1400
g5
S'white_pawn'
p1401
sg7
S'e2'
p1402
sa(dp1403
g7
S'e3'
p1404
sa(dp1405
g7
S'e4'
p1406
sa(dp1407
g7
S'e5'
p1408
sa(dp1409
g7
S'e6'
p1410
sa(dp1411
g5
S'black_pawn'
p1412
sg7
S'e7'
p1413
sa(dp1414
g7
S'e8'
p1415
sa(dp1416
g5
S'white_rook'
p1417
sg7
S'f1'
p1418
sa(dp1419
g5
S'white_pawn'
p1420
sg7
S'f2'
p1421
sa(dp1422
g5
S'white_knight'
p1423
sg7
S'f3'
p1424
sa(dp1425
g7
S'f4'
p1426
sa(dp1427
g7
S'f5'
p1428
sa(dp1429
g5
S'black_knight'
p1430
sg7
S'f6'
p1431
sa(dp1432
g5
S'black_pawn'
p1433
sg7
S'f7'
p1434
sa(dp1435
g5
S'black_rook'
p1436
sg7
S'f8'
p1437
sa(dp1438
g5
S'white_king'
p1439
sg7
S'g1'
p1440
sa(dp1441
g5
S'white_bishop'
p1442
sg7
S'g2'
p1443
sa(dp1444
g5
S'white_pawn'
p1445
sg7
S'g3'
p1446
sa(dp1447
g7
S'g4'
p1448
sa(dp1449
g7
S'g5'
p1450
sa(dp1451
g5
S'black_pawn'
p1452
sg7
S'g6'
p1453
sa(dp1454
g5
S'black_bishop'
p1455
sg7
S'g7'
p1456
sa(dp1457
g5
S'black_king'
p1458
sg7
S'g8'
p1459
sa(dp1460
g7
S'h1'
p1461
sa(dp1462
g5
S'white_pawn'
p1463
sg7
S'h2'
p1464
sa(dp1465
g7
S'h3'
p1466
sa(dp1467
g7
S'h4'
p1468
sa(dp1469
g7
S'h5'
p1470
sa(dp1471
g7
S'h6'
p1472
sa(dp1473
g5
S'black_pawn'
p1474
sg7
S'h7'
p1475
sa(dp1476
g7
S'h8'
p1477
saaVSo does he.
p1478
aa(lp1479
S'5... c5'
p1480
a(lp1481
(dp1482
g5
S'white_rook'
p1483
sg7
S'a1'
p1484
sa(dp1485
g5
S'white_pawn'
p1486
sg7
S'a2'
p1487
sa(dp1488
g7
S'a3'
p1489
sa(dp1490
g7
S'a4'
p1491
sa(dp1492
g7
S'a5'
p1493
sa(dp1494
g7
S'a6'
p1495
sa(dp1496
g5
S'black_pawn'
p1497
sg7
S'a7'
p1498
sa(dp1499
g5
S'black_rook'
p1500
sg7
S'a8'
p1501
sa(dp1502
g5
S'white_knight'
p1503
sg7
S'b1'
p1504
sa(dp1505
g5
S'white_pawn'
p1506
sg7
S'b2'
p1507
sa(dp1508
g7
S'b3'
p1509
sa(dp1510
g7
S'b4'
p1511
sa(dp1512
g7
S'b5'
p1513
sa(dp1514
g7
S'b6'
p1515
sa(dp1516
g5
S'black_pawn'
p1517
sg7
S'b7'
p1518
sa(dp1519
g5
S'black_knight'
p1520
sg7
S'b8'
p1521
sa(dp1522
g5
S'white_bishop'
p1523
sg7
S'c1'
p1524
sa(dp1525
g7
S'c2'
p1526
sa(dp1527
g7
S'c3'
p1528
sa(dp1529
g5
S'white_pawn'
p1530
sg7
S'c4'
p1531
sa(dp1532
g5
S'black_pawn'
p1533
sg7
S'c5'
p1534
sa(dp1535
g7
S'c6'
p1536
sa(dp1537
g7
S'c7'
p1538
sa(dp1539
g5
S'black_bishop'
p1540
sg7
S'c8'
p1541
sa(dp1542
g5
S'white_queen'
p1543
sg7
S'd1'
p1544
sa(dp1545
g5
S'white_pawn'
p1546
sg7
S'd2'
p1547
sa(dp1548
g7
S'd3'
p1549
sa(dp1550
g7
S'd4'
p1551
sa(dp1552
g7
S'd5'
p1553
sa(dp1554
g7
S'd6'
p1555
sa(dp1556
g5
S'black_pawn'
p1557
sg7
S'd7'
p1558
sa(dp1559
g5
S'black_queen'
p1560
sg7
S'd8'
p1561
sa(dp1562
g7
S'e1'
p1563
sa(dp1564
g5
S'white_pawn'
p1565
sg7
S'e2'
p1566
sa(dp1567
g7
S'e3'
p1568
sa(dp1569
g7
S'e4'
p1570
sa(dp1571
g7
S'e5'
p1572
sa(dp1573
g7
S'e6'
p1574
sa(dp1575
g5
S'black_pawn'
p1576
sg7
S'e7'
p1577
sa(dp1578
g7
S'e8'
p1579
sa(dp1580
g5
S'white_rook'
p1581
sg7
S'f1'
p1582
sa(dp1583
g5
S'white_pawn'
p1584
sg7
S'f2'
p1585
sa(dp1586
g5
S'white_knight'
p1587
sg7
S'f3'
p1588
sa(dp1589
g7
S'f4'
p1590
sa(dp1591
g7
S'f5'
p1592
sa(dp1593
g5
S'black_knight'
p1594
sg7
S'f6'
p1595
sa(dp1596
g5
S'black_pawn'
p1597
sg7
S'f7'
p1598
sa(dp1599
g5
S'black_rook'
p1600
sg7
S'f8'
p1601
sa(dp1602
g5
S'white_king'
p1603
sg7
S'g1'
p1604
sa(dp1605
g5
S'white_bishop'
p1606
sg7
S'g2'
p1607
sa(dp1608
g5
S'white_pawn'
p1609
sg7
S'g3'
p1610
sa(dp1611
g7
S'g4'
p1612
sa(dp1613
g7
S'g5'
p1614
sa(dp1615
g5
S'black_pawn'
p1616
sg7
S'g6'
p1617
sa(dp1618
g5
S'black_bishop'
p1619
sg7
S'g7'
p1620
sa(dp1621
g5
S'black_king'
p1622
sg7
S'g8'
p1623
sa(dp1624
g7
S'h1'
p1625
sa(dp1626
g5
S'white_pawn'
p1627
sg7
S'h2'
p1628
sa(dp1629
g7
S'h3'
p1630
sa(dp1631
g7
S'h4'
p1632
sa(dp1633
g7
S'h5'
p1634
sa(dp1635
g7
S'h6'
p1636
sa(dp1637
g5
S'black_pawn'
p1638
sg7
S'h7'
p1639
sa(dp1640
g7
S'h8'
p1641
saaVI decided to turn it into the symmetrical variation of the English Opening. It is drawish, but hey I'd be happy to draw with Bob.
p1642
aa(lp1643
S'6. Nc3'
p1644
a(lp1645
(dp1646
g5
S'white_rook'
p1647
sg7
S'a1'
p1648
sa(dp1649
g5
S'white_pawn'
p1650
sg7
S'a2'
p1651
sa(dp1652
g7
S'a3'
p1653
sa(dp1654
g7
S'a4'
p1655
sa(dp1656
g7
S'a5'
p1657
sa(dp1658
g7
S'a6'
p1659
sa(dp1660
g5
S'black_pawn'
p1661
sg7
S'a7'
p1662
sa(dp1663
g5
S'black_rook'
p1664
sg7
S'a8'
p1665
sa(dp1666
g7
S'b1'
p1667
sa(dp1668
g5
S'white_pawn'
p1669
sg7
S'b2'
p1670
sa(dp1671
g7
S'b3'
p1672
sa(dp1673
g7
S'b4'
p1674
sa(dp1675
g7
S'b5'
p1676
sa(dp1677
g7
S'b6'
p1678
sa(dp1679
g5
S'black_pawn'
p1680
sg7
S'b7'
p1681
sa(dp1682
g5
S'black_knight'
p1683
sg7
S'b8'
p1684
sa(dp1685
g5
S'white_bishop'
p1686
sg7
S'c1'
p1687
sa(dp1688
g7
S'c2'
p1689
sa(dp1690
g5
S'white_knight'
p1691
sg7
S'c3'
p1692
sa(dp1693
g5
S'white_pawn'
p1694
sg7
S'c4'
p1695
sa(dp1696
g5
S'black_pawn'
p1697
sg7
S'c5'
p1698
sa(dp1699
g7
S'c6'
p1700
sa(dp1701
g7
S'c7'
p1702
sa(dp1703
g5
S'black_bishop'
p1704
sg7
S'c8'
p1705
sa(dp1706
g5
S'white_queen'
p1707
sg7
S'd1'
p1708
sa(dp1709
g5
S'white_pawn'
p1710
sg7
S'd2'
p1711
sa(dp1712
g7
S'd3'
p1713
sa(dp1714
g7
S'd4'
p1715
sa(dp1716
g7
S'd5'
p1717
sa(dp1718
g7
S'd6'
p1719
sa(dp1720
g5
S'black_pawn'
p1721
sg7
S'd7'
p1722
sa(dp1723
g5
S'black_queen'
p1724
sg7
S'd8'
p1725
sa(dp1726
g7
S'e1'
p1727
sa(dp1728
g5
S'white_pawn'
p1729
sg7
S'e2'
p1730
sa(dp1731
g7
S'e3'
p1732
sa(dp1733
g7
S'e4'
p1734
sa(dp1735
g7
S'e5'
p1736
sa(dp1737
g7
S'e6'
p1738
sa(dp1739
g5
S'black_pawn'
p1740
sg7
S'e7'
p1741
sa(dp1742
g7
S'e8'
p1743
sa(dp1744
g5
S'white_rook'
p1745
sg7
S'f1'
p1746
sa(dp1747
g5
S'white_pawn'
p1748
sg7
S'f2'
p1749
sa(dp1750
g5
S'white_knight'
p1751
sg7
S'f3'
p1752
sa(dp1753
g7
S'f4'
p1754
sa(dp1755
g7
S'f5'
p1756
sa(dp1757
g5
S'black_knight'
p1758
sg7
S'f6'
p1759
sa(dp1760
g5
S'black_pawn'
p1761
sg7
S'f7'
p1762
sa(dp1763
g5
S'black_rook'
p1764
sg7
S'f8'
p1765
sa(dp1766
g5
S'white_king'
p1767
sg7
S'g1'
p1768
sa(dp1769
g5
S'white_bishop'
p1770
sg7
S'g2'
p1771
sa(dp1772
g5
S'white_pawn'
p1773
sg7
S'g3'
p1774
sa(dp1775
g7
S'g4'
p1776
sa(dp1777
g7
S'g5'
p1778
sa(dp1779
g5
S'black_pawn'
p1780
sg7
S'g6'
p1781
sa(dp1782
g5
S'black_bishop'
p1783
sg7
S'g7'
p1784
sa(dp1785
g5
S'black_king'
p1786
sg7
S'g8'
p1787
sa(dp1788
g7
S'h1'
p1789
sa(dp1790
g5
S'white_pawn'
p1791
sg7
S'h2'
p1792
sa(dp1793
g7
S'h3'
p1794
sa(dp1795
g7
S'h4'
p1796
sa(dp1797
g7
S'h5'
p1798
sa(dp1799
g7
S'h6'
p1800
sa(dp1801
g5
S'black_pawn'
p1802
sg7
S'h7'
p1803
sa(dp1804
g7
S'h8'
p1805
saaVHe develops his knight.
p1806
aa(lp1807
S'6... Nc6'
p1808
a(lp1809
(dp1810
g5
S'white_rook'
p1811
sg7
S'a1'
p1812
sa(dp1813
g5
S'white_pawn'
p1814
sg7
S'a2'
p1815
sa(dp1816
g7
S'a3'
p1817
sa(dp1818
g7
S'a4'
p1819
sa(dp1820
g7
S'a5'
p1821
sa(dp1822
g7
S'a6'
p1823
sa(dp1824
g5
S'black_pawn'
p1825
sg7
S'a7'
p1826
sa(dp1827
g5
S'black_rook'
p1828
sg7
S'a8'
p1829
sa(dp1830
g7
S'b1'
p1831
sa(dp1832
g5
S'white_pawn'
p1833
sg7
S'b2'
p1834
sa(dp1835
g7
S'b3'
p1836
sa(dp1837
g7
S'b4'
p1838
sa(dp1839
g7
S'b5'
p1840
sa(dp1841
g7
S'b6'
p1842
sa(dp1843
g5
S'black_pawn'
p1844
sg7
S'b7'
p1845
sa(dp1846
g7
S'b8'
p1847
sa(dp1848
g5
S'white_bishop'
p1849
sg7
S'c1'
p1850
sa(dp1851
g7
S'c2'
p1852
sa(dp1853
g5
S'white_knight'
p1854
sg7
S'c3'
p1855
sa(dp1856
g5
S'white_pawn'
p1857
sg7
S'c4'
p1858
sa(dp1859
g5
S'black_pawn'
p1860
sg7
S'c5'
p1861
sa(dp1862
g5
S'black_knight'
p1863
sg7
S'c6'
p1864
sa(dp1865
g7
S'c7'
p1866
sa(dp1867
g5
S'black_bishop'
p1868
sg7
S'c8'
p1869
sa(dp1870
g5
S'white_queen'
p1871
sg7
S'd1'
p1872
sa(dp1873
g5
S'white_pawn'
p1874
sg7
S'd2'
p1875
sa(dp1876
g7
S'd3'
p1877
sa(dp1878
g7
S'd4'
p1879
sa(dp1880
g7
S'd5'
p1881
sa(dp1882
g7
S'd6'
p1883
sa(dp1884
g5
S'black_pawn'
p1885
sg7
S'd7'
p1886
sa(dp1887
g5
S'black_queen'
p1888
sg7
S'd8'
p1889
sa(dp1890
g7
S'e1'
p1891
sa(dp1892
g5
S'white_pawn'
p1893
sg7
S'e2'
p1894
sa(dp1895
g7
S'e3'
p1896
sa(dp1897
g7
S'e4'
p1898
sa(dp1899
g7
S'e5'
p1900
sa(dp1901
g7
S'e6'
p1902
sa(dp1903
g5
S'black_pawn'
p1904
sg7
S'e7'
p1905
sa(dp1906
g7
S'e8'
p1907
sa(dp1908
g5
S'white_rook'
p1909
sg7
S'f1'
p1910
sa(dp1911
g5
S'white_pawn'
p1912
sg7
S'f2'
p1913
sa(dp1914
g5
S'white_knight'
p1915
sg7
S'f3'
p1916
sa(dp1917
g7
S'f4'
p1918
sa(dp1919
g7
S'f5'
p1920
sa(dp1921
g5
S'black_knight'
p1922
sg7
S'f6'
p1923
sa(dp1924
g5
S'black_pawn'
p1925
sg7
S'f7'
p1926
sa(dp1927
g5
S'black_rook'
p1928
sg7
S'f8'
p1929
sa(dp1930
g5
S'white_king'
p1931
sg7
S'g1'
p1932
sa(dp1933
g5
S'white_bishop'
p1934
sg7
S'g2'
p1935
sa(dp1936
g5
S'white_pawn'
p1937
sg7
S'g3'
p1938
sa(dp1939
g7
S'g4'
p1940
sa(dp1941
g7
S'g5'
p1942
sa(dp1943
g5
S'black_pawn'
p1944
sg7
S'g6'
p1945
sa(dp1946
g5
S'black_bishop'
p1947
sg7
S'g7'
p1948
sa(dp1949
g5
S'black_king'
p1950
sg7
S'g8'
p1951
sa(dp1952
g7
S'h1'
p1953
sa(dp1954
g5
S'white_pawn'
p1955
sg7
S'h2'
p1956
sa(dp1957
g7
S'h3'
p1958
sa(dp1959
g7
S'h4'
p1960
sa(dp1961
g7
S'h5'
p1962
sa(dp1963
g7
S'h6'
p1964
sa(dp1965
g5
S'black_pawn'
p1966
sg7
S'h7'
p1967
sa(dp1968
g7
S'h8'
p1969
saaVSo do I.
p1970
aa(lp1971
S'7. d4'
p1972
a(lp1973
(dp1974
g5
S'white_rook'
p1975
sg7
S'a1'
p1976
sa(dp1977
g5
S'white_pawn'
p1978
sg7
S'a2'
p1979
sa(dp1980
g7
S'a3'
p1981
sa(dp1982
g7
S'a4'
p1983
sa(dp1984
g7
S'a5'
p1985
sa(dp1986
g7
S'a6'
p1987
sa(dp1988
g5
S'black_pawn'
p1989
sg7
S'a7'
p1990
sa(dp1991
g5
S'black_rook'
p1992
sg7
S'a8'
p1993
sa(dp1994
g7
S'b1'
p1995
sa(dp1996
g5
S'white_pawn'
p1997
sg7
S'b2'
p1998
sa(dp1999
g7
S'b3'
p2000
sa(dp2001
g7
S'b4'
p2002
sa(dp2003
g7
S'b5'
p2004
sa(dp2005
g7
S'b6'
p2006
sa(dp2007
g5
S'black_pawn'
p2008
sg7
S'b7'
p2009
sa(dp2010
g7
S'b8'
p2011
sa(dp2012
g5
S'white_bishop'
p2013
sg7
S'c1'
p2014
sa(dp2015
g7
S'c2'
p2016
sa(dp2017
g5
S'white_knight'
p2018
sg7
S'c3'
p2019
sa(dp2020
g5
S'white_pawn'
p2021
sg7
S'c4'
p2022
sa(dp2023
g5
S'black_pawn'
p2024
sg7
S'c5'
p2025
sa(dp2026
g5
S'black_knight'
p2027
sg7
S'c6'
p2028
sa(dp2029
g7
S'c7'
p2030
sa(dp2031
g5
S'black_bishop'
p2032
sg7
S'c8'
p2033
sa(dp2034
g5
S'white_queen'
p2035
sg7
S'd1'
p2036
sa(dp2037
g7
S'd2'
p2038
sa(dp2039
g7
S'd3'
p2040
sa(dp2041
g5
S'white_pawn'
p2042
sg7
S'd4'
p2043
sa(dp2044
g7
S'd5'
p2045
sa(dp2046
g7
S'd6'
p2047
sa(dp2048
g5
S'black_pawn'
p2049
sg7
S'd7'
p2050
sa(dp2051
g5
S'black_queen'
p2052
sg7
S'd8'
p2053
sa(dp2054
g7
S'e1'
p2055
sa(dp2056
g5
S'white_pawn'
p2057
sg7
S'e2'
p2058
sa(dp2059
g7
S'e3'
p2060
sa(dp2061
g7
S'e4'
p2062
sa(dp2063
g7
S'e5'
p2064
sa(dp2065
g7
S'e6'
p2066
sa(dp2067
g5
S'black_pawn'
p2068
sg7
S'e7'
p2069
sa(dp2070
g7
S'e8'
p2071
sa(dp2072
g5
S'white_rook'
p2073
sg7
S'f1'
p2074
sa(dp2075
g5
S'white_pawn'
p2076
sg7
S'f2'
p2077
sa(dp2078
g5
S'white_knight'
p2079
sg7
S'f3'
p2080
sa(dp2081
g7
S'f4'
p2082
sa(dp2083
g7
S'f5'
p2084
sa(dp2085
g5
S'black_knight'
p2086
sg7
S'f6'
p2087
sa(dp2088
g5
S'black_pawn'
p2089
sg7
S'f7'
p2090
sa(dp2091
g5
S'black_rook'
p2092
sg7
S'f8'
p2093
sa(dp2094
g5
S'white_king'
p2095
sg7
S'g1'
p2096
sa(dp2097
g5
S'white_bishop'
p2098
sg7
S'g2'
p2099
sa(dp2100
g5
S'white_pawn'
p2101
sg7
S'g3'
p2102
sa(dp2103
g7
S'g4'
p2104
sa(dp2105
g7
S'g5'
p2106
sa(dp2107
g5
S'black_pawn'
p2108
sg7
S'g6'
p2109
sa(dp2110
g5
S'black_bishop'
p2111
sg7
S'g7'
p2112
sa(dp2113
g5
S'black_king'
p2114
sg7
S'g8'
p2115
sa(dp2116
g7
S'h1'
p2117
sa(dp2118
g5
S'white_pawn'
p2119
sg7
S'h2'
p2120
sa(dp2121
g7
S'h3'
p2122
sa(dp2123
g7
S'h4'
p2124
sa(dp2125
g7
S'h5'
p2126
sa(dp2127
g7
S'h6'
p2128
sa(dp2129
g5
S'black_pawn'
p2130
sg7
S'h7'
p2131
sa(dp2132
g7
S'h8'
p2133
saaVHe breaks in the centre.
p2134
aa(lp2135
S'7... d5'
p2136
a(lp2137
(dp2138
g5
S'white_rook'
p2139
sg7
S'a1'
p2140
sa(dp2141
g5
S'white_pawn'
p2142
sg7
S'a2'
p2143
sa(dp2144
g7
S'a3'
p2145
sa(dp2146
g7
S'a4'
p2147
sa(dp2148
g7
S'a5'
p2149
sa(dp2150
g7
S'a6'
p2151
sa(dp2152
g5
S'black_pawn'
p2153
sg7
S'a7'
p2154
sa(dp2155
g5
S'black_rook'
p2156
sg7
S'a8'
p2157
sa(dp2158
g7
S'b1'
p2159
sa(dp2160
g5
S'white_pawn'
p2161
sg7
S'b2'
p2162
sa(dp2163
g7
S'b3'
p2164
sa(dp2165
g7
S'b4'
p2166
sa(dp2167
g7
S'b5'
p2168
sa(dp2169
g7
S'b6'
p2170
sa(dp2171
g5
S'black_pawn'
p2172
sg7
S'b7'
p2173
sa(dp2174
g7
S'b8'
p2175
sa(dp2176
g5
S'white_bishop'
p2177
sg7
S'c1'
p2178
sa(dp2179
g7
S'c2'
p2180
sa(dp2181
g5
S'white_knight'
p2182
sg7
S'c3'
p2183
sa(dp2184
g5
S'white_pawn'
p2185
sg7
S'c4'
p2186
sa(dp2187
g5
S'black_pawn'
p2188
sg7
S'c5'
p2189
sa(dp2190
g5
S'black_knight'
p2191
sg7
S'c6'
p2192
sa(dp2193
g7
S'c7'
p2194
sa(dp2195
g5
S'black_bishop'
p2196
sg7
S'c8'
p2197
sa(dp2198
g5
S'white_queen'
p2199
sg7
S'd1'
p2200
sa(dp2201
g7
S'd2'
p2202
sa(dp2203
g7
S'd3'
p2204
sa(dp2205
g5
S'white_pawn'
p2206
sg7
S'd4'
p2207
sa(dp2208
g5
S'black_pawn'
p2209
sg7
S'd5'
p2210
sa(dp2211
g7
S'd6'
p2212
sa(dp2213
g7
S'd7'
p2214
sa(dp2215
g5
S'black_queen'
p2216
sg7
S'd8'
p2217
sa(dp2218
g7
S'e1'
p2219
sa(dp2220
g5
S'white_pawn'
p2221
sg7
S'e2'
p2222
sa(dp2223
g7
S'e3'
p2224
sa(dp2225
g7
S'e4'
p2226
sa(dp2227
g7
S'e5'
p2228
sa(dp2229
g7
S'e6'
p2230
sa(dp2231
g5
S'black_pawn'
p2232
sg7
S'e7'
p2233
sa(dp2234
g7
S'e8'
p2235
sa(dp2236
g5
S'white_rook'
p2237
sg7
S'f1'
p2238
sa(dp2239
g5
S'white_pawn'
p2240
sg7
S'f2'
p2241
sa(dp2242
g5
S'white_knight'
p2243
sg7
S'f3'
p2244
sa(dp2245
g7
S'f4'
p2246
sa(dp2247
g7
S'f5'
p2248
sa(dp2249
g5
S'black_knight'
p2250
sg7
S'f6'
p2251
sa(dp2252
g5
S'black_pawn'
p2253
sg7
S'f7'
p2254
sa(dp2255
g5
S'black_rook'
p2256
sg7
S'f8'
p2257
sa(dp2258
g5
S'white_king'
p2259
sg7
S'g1'
p2260
sa(dp2261
g5
S'white_bishop'
p2262
sg7
S'g2'
p2263
sa(dp2264
g5
S'white_pawn'
p2265
sg7
S'g3'
p2266
sa(dp2267
g7
S'g4'
p2268
sa(dp2269
g7
S'g5'
p2270
sa(dp2271
g5
S'black_pawn'
p2272
sg7
S'g6'
p2273
sa(dp2274
g5
S'black_bishop'
p2275
sg7
S'g7'
p2276
sa(dp2277
g5
S'black_king'
p2278
sg7
S'g8'
p2279
sa(dp2280
g7
S'h1'
p2281
sa(dp2282
g5
S'white_pawn'
p2283
sg7
S'h2'
p2284
sa(dp2285
g7
S'h3'
p2286
sa(dp2287
g7
S'h4'
p2288
sa(dp2289
g7
S'h5'
p2290
sa(dp2291
g7
S'h6'
p2292
sa(dp2293
g5
S'black_pawn'
p2294
sg7
S'h7'
p2295
sa(dp2296
g7
S'h8'
p2297
saaVI maintain the symmetry. 
p2298
aa(lp2299
S'8. dxc5'
p2300
a(lp2301
(dp2302
g5
S'white_rook'
p2303
sg7
S'a1'
p2304
sa(dp2305
g5
S'white_pawn'
p2306
sg7
S'a2'
p2307
sa(dp2308
g7
S'a3'
p2309
sa(dp2310
g7
S'a4'
p2311
sa(dp2312
g7
S'a5'
p2313
sa(dp2314
g7
S'a6'
p2315
sa(dp2316
g5
S'black_pawn'
p2317
sg7
S'a7'
p2318
sa(dp2319
g5
S'black_rook'
p2320
sg7
S'a8'
p2321
sa(dp2322
g7
S'b1'
p2323
sa(dp2324
g5
S'white_pawn'
p2325
sg7
S'b2'
p2326
sa(dp2327
g7
S'b3'
p2328
sa(dp2329
g7
S'b4'
p2330
sa(dp2331
g7
S'b5'
p2332
sa(dp2333
g7
S'b6'
p2334
sa(dp2335
g5
S'black_pawn'
p2336
sg7
S'b7'
p2337
sa(dp2338
g7
S'b8'
p2339
sa(dp2340
g5
S'white_bishop'
p2341
sg7
S'c1'
p2342
sa(dp2343
g7
S'c2'
p2344
sa(dp2345
g5
S'white_knight'
p2346
sg7
S'c3'
p2347
sa(dp2348
g5
S'white_pawn'
p2349
sg7
S'c4'
p2350
sa(dp2351
g5
S'white_pawn'
p2352
sg7
S'c5'
p2353
sa(dp2354
g5
S'black_knight'
p2355
sg7
S'c6'
p2356
sa(dp2357
g7
S'c7'
p2358
sa(dp2359
g5
S'black_bishop'
p2360
sg7
S'c8'
p2361
sa(dp2362
g5
S'white_queen'
p2363
sg7
S'd1'
p2364
sa(dp2365
g7
S'd2'
p2366
sa(dp2367
g7
S'd3'
p2368
sa(dp2369
g7
S'd4'
p2370
sa(dp2371
g5
S'black_pawn'
p2372
sg7
S'd5'
p2373
sa(dp2374
g7
S'd6'
p2375
sa(dp2376
g7
S'd7'
p2377
sa(dp2378
g5
S'black_queen'
p2379
sg7
S'd8'
p2380
sa(dp2381
g7
S'e1'
p2382
sa(dp2383
g5
S'white_pawn'
p2384
sg7
S'e2'
p2385
sa(dp2386
g7
S'e3'
p2387
sa(dp2388
g7
S'e4'
p2389
sa(dp2390
g7
S'e5'
p2391
sa(dp2392
g7
S'e6'
p2393
sa(dp2394
g5
S'black_pawn'
p2395
sg7
S'e7'
p2396
sa(dp2397
g7
S'e8'
p2398
sa(dp2399
g5
S'white_rook'
p2400
sg7
S'f1'
p2401
sa(dp2402
g5
S'white_pawn'
p2403
sg7
S'f2'
p2404
sa(dp2405
g5
S'white_knight'
p2406
sg7
S'f3'
p2407
sa(dp2408
g7
S'f4'
p2409
sa(dp2410
g7
S'f5'
p2411
sa(dp2412
g5
S'black_knight'
p2413
sg7
S'f6'
p2414
sa(dp2415
g5
S'black_pawn'
p2416
sg7
S'f7'
p2417
sa(dp2418
g5
S'black_rook'
p2419
sg7
S'f8'
p2420
sa(dp2421
g5
S'white_king'
p2422
sg7
S'g1'
p2423
sa(dp2424
g5
S'white_bishop'
p2425
sg7
S'g2'
p2426
sa(dp2427
g5
S'white_pawn'
p2428
sg7
S'g3'
p2429
sa(dp2430
g7
S'g4'
p2431
sa(dp2432
g7
S'g5'
p2433
sa(dp2434
g5
S'black_pawn'
p2435
sg7
S'g6'
p2436
sa(dp2437
g5
S'black_bishop'
p2438
sg7
S'g7'
p2439
sa(dp2440
g5
S'black_king'
p2441
sg7
S'g8'
p2442
sa(dp2443
g7
S'h1'
p2444
sa(dp2445
g5
S'white_pawn'
p2446
sg7
S'h2'
p2447
sa(dp2448
g7
S'h3'
p2449
sa(dp2450
g7
S'h4'
p2451
sa(dp2452
g7
S'h5'
p2453
sa(dp2454
g7
S'h6'
p2455
sa(dp2456
g5
S'black_pawn'
p2457
sg7
S'h7'
p2458
sa(dp2459
g7
S'h8'
p2460
saaVHe takes.
p2461
aa(lp2462
S'8... dxc4'
p2463
a(lp2464
(dp2465
g5
S'white_rook'
p2466
sg7
S'a1'
p2467
sa(dp2468
g5
S'white_pawn'
p2469
sg7
S'a2'
p2470
sa(dp2471
g7
S'a3'
p2472
sa(dp2473
g7
S'a4'
p2474
sa(dp2475
g7
S'a5'
p2476
sa(dp2477
g7
S'a6'
p2478
sa(dp2479
g5
S'black_pawn'
p2480
sg7
S'a7'
p2481
sa(dp2482
g5
S'black_rook'
p2483
sg7
S'a8'
p2484
sa(dp2485
g7
S'b1'
p2486
sa(dp2487
g5
S'white_pawn'
p2488
sg7
S'b2'
p2489
sa(dp2490
g7
S'b3'
p2491
sa(dp2492
g7
S'b4'
p2493
sa(dp2494
g7
S'b5'
p2495
sa(dp2496
g7
S'b6'
p2497
sa(dp2498
g5
S'black_pawn'
p2499
sg7
S'b7'
p2500
sa(dp2501
g7
S'b8'
p2502
sa(dp2503
g5
S'white_bishop'
p2504
sg7
S'c1'
p2505
sa(dp2506
g7
S'c2'
p2507
sa(dp2508
g5
S'white_knight'
p2509
sg7
S'c3'
p2510
sa(dp2511
g5
S'black_pawn'
p2512
sg7
S'c4'
p2513
sa(dp2514
g5
S'white_pawn'
p2515
sg7
S'c5'
p2516
sa(dp2517
g5
S'black_knight'
p2518
sg7
S'c6'
p2519
sa(dp2520
g7
S'c7'
p2521
sa(dp2522
g5
S'black_bishop'
p2523
sg7
S'c8'
p2524
sa(dp2525
g5
S'white_queen'
p2526
sg7
S'd1'
p2527
sa(dp2528
g7
S'd2'
p2529
sa(dp2530
g7
S'd3'
p2531
sa(dp2532
g7
S'd4'
p2533
sa(dp2534
g7
S'd5'
p2535
sa(dp2536
g7
S'd6'
p2537
sa(dp2538
g7
S'd7'
p2539
sa(dp2540
g5
S'black_queen'
p2541
sg7
S'd8'
p2542
sa(dp2543
g7
S'e1'
p2544
sa(dp2545
g5
S'white_pawn'
p2546
sg7
S'e2'
p2547
sa(dp2548
g7
S'e3'
p2549
sa(dp2550
g7
S'e4'
p2551
sa(dp2552
g7
S'e5'
p2553
sa(dp2554
g7
S'e6'
p2555
sa(dp2556
g5
S'black_pawn'
p2557
sg7
S'e7'
p2558
sa(dp2559
g7
S'e8'
p2560
sa(dp2561
g5
S'white_rook'
p2562
sg7
S'f1'
p2563
sa(dp2564
g5
S'white_pawn'
p2565
sg7
S'f2'
p2566
sa(dp2567
g5
S'white_knight'
p2568
sg7
S'f3'
p2569
sa(dp2570
g7
S'f4'
p2571
sa(dp2572
g7
S'f5'
p2573
sa(dp2574
g5
S'black_knight'
p2575
sg7
S'f6'
p2576
sa(dp2577
g5
S'black_pawn'
p2578
sg7
S'f7'
p2579
sa(dp2580
g5
S'black_rook'
p2581
sg7
S'f8'
p2582
sa(dp2583
g5
S'white_king'
p2584
sg7
S'g1'
p2585
sa(dp2586
g5
S'white_bishop'
p2587
sg7
S'g2'
p2588
sa(dp2589
g5
S'white_pawn'
p2590
sg7
S'g3'
p2591
sa(dp2592
g7
S'g4'
p2593
sa(dp2594
g7
S'g5'
p2595
sa(dp2596
g5
S'black_pawn'
p2597
sg7
S'g6'
p2598
sa(dp2599
g5
S'black_bishop'
p2600
sg7
S'g7'
p2601
sa(dp2602
g5
S'black_king'
p2603
sg7
S'g8'
p2604
sa(dp2605
g7
S'h1'
p2606
sa(dp2607
g5
S'white_pawn'
p2608
sg7
S'h2'
p2609
sa(dp2610
g7
S'h3'
p2611
sa(dp2612
g7
S'h4'
p2613
sa(dp2614
g7
S'h5'
p2615
sa(dp2616
g7
S'h6'
p2617
sa(dp2618
g5
S'black_pawn'
p2619
sg7
S'h7'
p2620
sa(dp2621
g7
S'h8'
p2622
saaVI take back.
p2623
aa(lp2624
S'9. Qa4'
p2625
a(lp2626
(dp2627
g5
S'white_rook'
p2628
sg7
S'a1'
p2629
sa(dp2630
g5
S'white_pawn'
p2631
sg7
S'a2'
p2632
sa(dp2633
g7
S'a3'
p2634
sa(dp2635
g5
S'white_queen'
p2636
sg7
S'a4'
p2637
sa(dp2638
g7
S'a5'
p2639
sa(dp2640
g7
S'a6'
p2641
sa(dp2642
g5
S'black_pawn'
p2643
sg7
S'a7'
p2644
sa(dp2645
g5
S'black_rook'
p2646
sg7
S'a8'
p2647
sa(dp2648
g7
S'b1'
p2649
sa(dp2650
g5
S'white_pawn'
p2651
sg7
S'b2'
p2652
sa(dp2653
g7
S'b3'
p2654
sa(dp2655
g7
S'b4'
p2656
sa(dp2657
g7
S'b5'
p2658
sa(dp2659
g7
S'b6'
p2660
sa(dp2661
g5
S'black_pawn'
p2662
sg7
S'b7'
p2663
sa(dp2664
g7
S'b8'
p2665
sa(dp2666
g5
S'white_bishop'
p2667
sg7
S'c1'
p2668
sa(dp2669
g7
S'c2'
p2670
sa(dp2671
g5
S'white_knight'
p2672
sg7
S'c3'
p2673
sa(dp2674
g5
S'black_pawn'
p2675
sg7
S'c4'
p2676
sa(dp2677
g5
S'white_pawn'
p2678
sg7
S'c5'
p2679
sa(dp2680
g5
S'black_knight'
p2681
sg7
S'c6'
p2682
sa(dp2683
g7
S'c7'
p2684
sa(dp2685
g5
S'black_bishop'
p2686
sg7
S'c8'
p2687
sa(dp2688
g7
S'd1'
p2689
sa(dp2690
g7
S'd2'
p2691
sa(dp2692
g7
S'd3'
p2693
sa(dp2694
g7
S'd4'
p2695
sa(dp2696
g7
S'd5'
p2697
sa(dp2698
g7
S'd6'
p2699
sa(dp2700
g7
S'd7'
p2701
sa(dp2702
g5
S'black_queen'
p2703
sg7
S'd8'
p2704
sa(dp2705
g7
S'e1'
p2706
sa(dp2707
g5
S'white_pawn'
p2708
sg7
S'e2'
p2709
sa(dp2710
g7
S'e3'
p2711
sa(dp2712
g7
S'e4'
p2713
sa(dp2714
g7
S'e5'
p2715
sa(dp2716
g7
S'e6'
p2717
sa(dp2718
g5
S'black_pawn'
p2719
sg7
S'e7'
p2720
sa(dp2721
g7
S'e8'
p2722
sa(dp2723
g5
S'white_rook'
p2724
sg7
S'f1'
p2725
sa(dp2726
g5
S'white_pawn'
p2727
sg7
S'f2'
p2728
sa(dp2729
g5
S'white_knight'
p2730
sg7
S'f3'
p2731
sa(dp2732
g7
S'f4'
p2733
sa(dp2734
g7
S'f5'
p2735
sa(dp2736
g5
S'black_knight'
p2737
sg7
S'f6'
p2738
sa(dp2739
g5
S'black_pawn'
p2740
sg7
S'f7'
p2741
sa(dp2742
g5
S'black_rook'
p2743
sg7
S'f8'
p2744
sa(dp2745
g5
S'white_king'
p2746
sg7
S'g1'
p2747
sa(dp2748
g5
S'white_bishop'
p2749
sg7
S'g2'
p2750
sa(dp2751
g5
S'white_pawn'
p2752
sg7
S'g3'
p2753
sa(dp2754
g7
S'g4'
p2755
sa(dp2756
g7
S'g5'
p2757
sa(dp2758
g5
S'black_pawn'
p2759
sg7
S'g6'
p2760
sa(dp2761
g5
S'black_bishop'
p2762
sg7
S'g7'
p2763
sa(dp2764
g5
S'black_king'
p2765
sg7
S'g8'
p2766
sa(dp2767
g7
S'h1'
p2768
sa(dp2769
g5
S'white_pawn'
p2770
sg7
S'h2'
p2771
sa(dp2772
g7
S'h3'
p2773
sa(dp2774
g7
S'h4'
p2775
sa(dp2776
g7
S'h5'
p2777
sa(dp2778
g7
S'h6'
p2779
sa(dp2780
g5
S'black_pawn'
p2781
sg7
S'h7'
p2782
sa(dp2783
g7
S'h8'
p2784
saaVHe moves to recapture his pawn. I could have just followed the symmetry with Qa5 here. Gameknot computer suggests .....Nd5 10. Qxc4 Nxc3 11. bxc3 Be6 12. Qh4 h5 13. Bb2 Qa5 14. Nd4 Qxc5 15. Nxe6 fxe6 16. Bxc6 bxc6 17. Rad1 but....
p2785
aa(lp2786
S'8765432'
p2787
a(lp2788
(dp2789
g7
S'a1'
p2790
sa(dp2791
g5
S'white_pawn'
p2792
sg7
S'a2'
p2793
sa(dp2794
g7
S'a3'
p2795
sa(dp2796
g7
S'a4'
p2797
sa(dp2798
g7
S'a5'
p2799
sa(dp2800
g7
S'a6'
p2801
sa(dp2802
g5
S'black_pawn'
p2803
sg7
S'a7'
p2804
sa(dp2805
g5
S'black_rook'
p2806
sg7
S'a8'
p2807
sa(dp2808
g7
S'b1'
p2809
sa(dp2810
g5
S'white_bishop'
p2811
sg7
S'b2'
p2812
sa(dp2813
g7
S'b3'
p2814
sa(dp2815
g7
S'b4'
p2816
sa(dp2817
g7
S'b5'
p2818
sa(dp2819
g7
S'b6'
p2820
sa(dp2821
g7
S'b7'
p2822
sa(dp2823
g7
S'b8'
p2824
sa(dp2825
g7
S'c1'
p2826
sa(dp2827
g7
S'c2'
p2828
sa(dp2829
g5
S'white_pawn'
p2830
sg7
S'c3'
p2831
sa(dp2832
g7
S'c4'
p2833
sa(dp2834
g5
S'black_queen'
p2835
sg7
S'c5'
p2836
sa(dp2837
g5
S'black_pawn'
p2838
sg7
S'c6'
p2839
sa(dp2840
g7
S'c7'
p2841
sa(dp2842
g7
S'c8'
p2843
sa(dp2844
g5
S'white_rook'
p2845
sg7
S'd1'
p2846
sa(dp2847
g7
S'd2'
p2848
sa(dp2849
g7
S'd3'
p2850
sa(dp2851
g7
S'd4'
p2852
sa(dp2853
g7
S'd5'
p2854
sa(dp2855
g7
S'd6'
p2856
sa(dp2857
g7
S'd7'
p2858
sa(dp2859
g7
S'd8'
p2860
sa(dp2861
g7
S'e1'
p2862
sa(dp2863
g5
S'white_pawn'
p2864
sg7
S'e2'
p2865
sa(dp2866
g7
S'e3'
p2867
sa(dp2868
g7
S'e4'
p2869
sa(dp2870
g7
S'e5'
p2871
sa(dp2872
g5
S'black_pawn'
p2873
sg7
S'e6'
p2874
sa(dp2875
g5
S'black_pawn'
p2876
sg7
S'e7'
p2877
sa(dp2878
g7
S'e8'
p2879
sa(dp2880
g5
S'white_rook'
p2881
sg7
S'f1'
p2882
sa(dp2883
g5
S'white_pawn'
p2884
sg7
S'f2'
p2885
sa(dp2886
g7
S'f3'
p2887
sa(dp2888
g7
S'f4'
p2889
sa(dp2890
g7
S'f5'
p2891
sa(dp2892
g7
S'f6'
p2893
sa(dp2894
g7
S'f7'
p2895
sa(dp2896
g5
S'black_rook'
p2897
sg7
S'f8'
p2898
sa(dp2899
g5
S'white_king'
p2900
sg7
S'g1'
p2901
sa(dp2902
g7
S'g2'
p2903
sa(dp2904
g5
S'white_pawn'
p2905
sg7
S'g3'
p2906
sa(dp2907
g7
S'g4'
p2908
sa(dp2909
g7
S'g5'
p2910
sa(dp2911
g5
S'black_pawn'
p2912
sg7
S'g6'
p2913
sa(dp2914
g5
S'black_bishop'
p2915
sg7
S'g7'
p2916
sa(dp2917
g5
S'black_king'
p2918
sg7
S'g8'
p2919
sa(dp2920
g7
S'h1'
p2921
sa(dp2922
g5
S'white_pawn'
p2923
sg7
S'h2'
p2924
sa(dp2925
g7
S'h3'
p2926
sa(dp2927
g5
S'white_queen'
p2928
sg7
S'h4'
p2929
sa(dp2930
g5
S'black_pawn'
p2931
sg7
S'h5'
p2932
sa(dp2933
g7
S'h6'
p2934
sa(dp2935
g7
S'h7'
p2936
sa(dp2937
g7
S'h8'
p2938
saaV
p2939
aa(lp2940
S'8765432'
p2941
a(lp2942
(dp2943
g5
S'white_rook'
p2944
sg7
S'a1'
p2945
sa(dp2946
g5
S'white_pawn'
p2947
sg7
S'a2'
p2948
sa(dp2949
g7
S'a3'
p2950
sa(dp2951
g5
S'white_queen'
p2952
sg7
S'a4'
p2953
sa(dp2954
g7
S'a5'
p2955
sa(dp2956
g7
S'a6'
p2957
sa(dp2958
g5
S'black_pawn'
p2959
sg7
S'a7'
p2960
sa(dp2961
g5
S'black_rook'
p2962
sg7
S'a8'
p2963
sa(dp2964
g7
S'b1'
p2965
sa(dp2966
g5
S'white_pawn'
p2967
sg7
S'b2'
p2968
sa(dp2969
g7
S'b3'
p2970
sa(dp2971
g7
S'b4'
p2972
sa(dp2973
g7
S'b5'
p2974
sa(dp2975
g7
S'b6'
p2976
sa(dp2977
g5
S'black_pawn'
p2978
sg7
S'b7'
p2979
sa(dp2980
g7
S'b8'
p2981
sa(dp2982
g5
S'white_bishop'
p2983
sg7
S'c1'
p2984
sa(dp2985
g7
S'c2'
p2986
sa(dp2987
g5
S'white_knight'
p2988
sg7
S'c3'
p2989
sa(dp2990
g5
S'black_pawn'
p2991
sg7
S'c4'
p2992
sa(dp2993
g5
S'white_pawn'
p2994
sg7
S'c5'
p2995
sa(dp2996
g5
S'black_knight'
p2997
sg7
S'c6'
p2998
sa(dp2999
g7
S'c7'
p3000
sa(dp3001
g7
S'c8'
p3002
sa(dp3003
g7
S'd1'
p3004
sa(dp3005
g7
S'd2'
p3006
sa(dp3007
g7
S'd3'
p3008
sa(dp3009
g7
S'd4'
p3010
sa(dp3011
g7
S'd5'
p3012
sa(dp3013
g7
S'd6'
p3014
sa(dp3015
g7
S'd7'
p3016
sa(dp3017
g5
S'black_queen'
p3018
sg7
S'd8'
p3019
sa(dp3020
g7
S'e1'
p3021
sa(dp3022
g5
S'white_pawn'
p3023
sg7
S'e2'
p3024
sa(dp3025
g7
S'e3'
p3026
sa(dp3027
g7
S'e4'
p3028
sa(dp3029
g7
S'e5'
p3030
sa(dp3031
g5
S'black_bishop'
p3032
sg7
S'e6'
p3033
sa(dp3034
g5
S'black_pawn'
p3035
sg7
S'e7'
p3036
sa(dp3037
g7
S'e8'
p3038
sa(dp3039
g5
S'white_rook'
p3040
sg7
S'f1'
p3041
sa(dp3042
g5
S'white_pawn'
p3043
sg7
S'f2'
p3044
sa(dp3045
g5
S'white_knight'
p3046
sg7
S'f3'
p3047
sa(dp3048
g7
S'f4'
p3049
sa(dp3050
g7
S'f5'
p3051
sa(dp3052
g5
S'black_knight'
p3053
sg7
S'f6'
p3054
sa(dp3055
g5
S'black_pawn'
p3056
sg7
S'f7'
p3057
sa(dp3058
g5
S'black_rook'
p3059
sg7
S'f8'
p3060
sa(dp3061
g5
S'white_king'
p3062
sg7
S'g1'
p3063
sa(dp3064
g5
S'white_bishop'
p3065
sg7
S'g2'
p3066
sa(dp3067
g5
S'white_pawn'
p3068
sg7
S'g3'
p3069
sa(dp3070
g7
S'g4'
p3071
sa(dp3072
g7
S'g5'
p3073
sa(dp3074
g5
S'black_pawn'
p3075
sg7
S'g6'
p3076
sa(dp3077
g5
S'black_bishop'
p3078
sg7
S'g7'
p3079
sa(dp3080
g5
S'black_king'
p3081
sg7
S'g8'
p3082
sa(dp3083
g7
S'h1'
p3084
sa(dp3085
g5
S'white_pawn'
p3086
sg7
S'h2'
p3087
sa(dp3088
g7
S'h3'
p3089
sa(dp3090
g7
S'h4'
p3091
sa(dp3092
g7
S'h5'
p3093
sa(dp3094
g7
S'h6'
p3095
sa(dp3096
g5
S'black_pawn'
p3097
sg7
S'h7'
p3098
sa(dp3099
g7
S'h8'
p3100
saag2939
aa(lp3101
S'8765432'
p3102
a(lp3103
(dp3104
g5
S'white_rook'
p3105
sg7
S'a1'
p3106
sa(dp3107
g5
S'white_pawn'
p3108
sg7
S'a2'
p3109
sa(dp3110
g7
S'a3'
p3111
sa(dp3112
g5
S'white_queen'
p3113
sg7
S'a4'
p3114
sa(dp3115
g7
S'a5'
p3116
sa(dp3117
g7
S'a6'
p3118
sa(dp3119
g5
S'black_pawn'
p3120
sg7
S'a7'
p3121
sa(dp3122
g5
S'black_rook'
p3123
sg7
S'a8'
p3124
sa(dp3125
g7
S'b1'
p3126
sa(dp3127
g5
S'white_pawn'
p3128
sg7
S'b2'
p3129
sa(dp3130
g7
S'b3'
p3131
sa(dp3132
g7
S'b4'
p3133
sa(dp3134
g7
S'b5'
p3135
sa(dp3136
g7
S'b6'
p3137
sa(dp3138
g5
S'black_pawn'
p3139
sg7
S'b7'
p3140
sa(dp3141
g7
S'b8'
p3142
sa(dp3143
g5
S'white_bishop'
p3144
sg7
S'c1'
p3145
sa(dp3146
g7
S'c2'
p3147
sa(dp3148
g5
S'white_knight'
p3149
sg7
S'c3'
p3150
sa(dp3151
g5
S'black_pawn'
p3152
sg7
S'c4'
p3153
sa(dp3154
g5
S'white_pawn'
p3155
sg7
S'c5'
p3156
sa(dp3157
g5
S'black_knight'
p3158
sg7
S'c6'
p3159
sa(dp3160
g7
S'c7'
p3161
sa(dp3162
g7
S'c8'
p3163
sa(dp3164
g7
S'd1'
p3165
sa(dp3166
g7
S'd2'
p3167
sa(dp3168
g7
S'd3'
p3169
sa(dp3170
g7
S'd4'
p3171
sa(dp3172
g7
S'd5'
p3173
sa(dp3174
g7
S'd6'
p3175
sa(dp3176
g7
S'd7'
p3177
sa(dp3178
g5
S'black_queen'
p3179
sg7
S'd8'
p3180
sa(dp3181
g7
S'e1'
p3182
sa(dp3183
g5
S'white_pawn'
p3184
sg7
S'e2'
p3185
sa(dp3186
g7
S'e3'
p3187
sa(dp3188
g7
S'e4'
p3189
sa(dp3190
g7
S'e5'
p3191
sa(dp3192
g5
S'black_bishop'
p3193
sg7
S'e6'
p3194
sa(dp3195
g5
S'black_pawn'
p3196
sg7
S'e7'
p3197
sa(dp3198
g7
S'e8'
p3199
sa(dp3200
g5
S'white_rook'
p3201
sg7
S'f1'
p3202
sa(dp3203
g5
S'white_pawn'
p3204
sg7
S'f2'
p3205
sa(dp3206
g7
S'f3'
p3207
sa(dp3208
g7
S'f4'
p3209
sa(dp3210
g7
S'f5'
p3211
sa(dp3212
g5
S'black_knight'
p3213
sg7
S'f6'
p3214
sa(dp3215
g5
S'black_pawn'
p3216
sg7
S'f7'
p3217
sa(dp3218
g5
S'black_rook'
p3219
sg7
S'f8'
p3220
sa(dp3221
g5
S'white_king'
p3222
sg7
S'g1'
p3223
sa(dp3224
g5
S'white_bishop'
p3225
sg7
S'g2'
p3226
sa(dp3227
g5
S'white_pawn'
p3228
sg7
S'g3'
p3229
sa(dp3230
g7
S'g4'
p3231
sa(dp3232
g5
S'white_knight'
p3233
sg7
S'g5'
p3234
sa(dp3235
g5
S'black_pawn'
p3236
sg7
S'g6'
p3237
sa(dp3238
g5
S'black_bishop'
p3239
sg7
S'g7'
p3240
sa(dp3241
g5
S'black_king'
p3242
sg7
S'g8'
p3243
sa(dp3244
g7
S'h1'
p3245
sa(dp3246
g5
S'white_pawn'
p3247
sg7
S'h2'
p3248
sa(dp3249
g7
S'h3'
p3250
sa(dp3251
g7
S'h4'
p3252
sa(dp3253
g7
S'h5'
p3254
sa(dp3255
g7
S'h6'
p3256
sa(dp3257
g5
S'black_pawn'
p3258
sg7
S'h7'
p3259
sa(dp3260
g7
S'h8'
p3261
saag2939
aa(lp3262
S'8765432'
p3263
a(lp3264
(dp3265
g5
S'white_rook'
p3266
sg7
S'a1'
p3267
sa(dp3268
g5
S'white_pawn'
p3269
sg7
S'a2'
p3270
sa(dp3271
g7
S'a3'
p3272
sa(dp3273
g5
S'white_queen'
p3274
sg7
S'a4'
p3275
sa(dp3276
g7
S'a5'
p3277
sa(dp3278
g7
S'a6'
p3279
sa(dp3280
g5
S'black_pawn'
p3281
sg7
S'a7'
p3282
sa(dp3283
g5
S'black_rook'
p3284
sg7
S'a8'
p3285
sa(dp3286
g7
S'b1'
p3287
sa(dp3288
g5
S'white_pawn'
p3289
sg7
S'b2'
p3290
sa(dp3291
g7
S'b3'
p3292
sa(dp3293
g7
S'b4'
p3294
sa(dp3295
g7
S'b5'
p3296
sa(dp3297
g7
S'b6'
p3298
sa(dp3299
g5
S'black_pawn'
p3300
sg7
S'b7'
p3301
sa(dp3302
g7
S'b8'
p3303
sa(dp3304
g5
S'white_bishop'
p3305
sg7
S'c1'
p3306
sa(dp3307
g7
S'c2'
p3308
sa(dp3309
g5
S'white_knight'
p3310
sg7
S'c3'
p3311
sa(dp3312
g5
S'black_pawn'
p3313
sg7
S'c4'
p3314
sa(dp3315
g5
S'white_pawn'
p3316
sg7
S'c5'
p3317
sa(dp3318
g5
S'black_knight'
p3319
sg7
S'c6'
p3320
sa(dp3321
g7
S'c7'
p3322
sa(dp3323
g5
S'black_queen'
p3324
sg7
S'c8'
p3325
sa(dp3326
g7
S'd1'
p3327
sa(dp3328
g7
S'd2'
p3329
sa(dp3330
g7
S'd3'
p3331
sa(dp3332
g7
S'd4'
p3333
sa(dp3334
g7
S'd5'
p3335
sa(dp3336
g7
S'd6'
p3337
sa(dp3338
g7
S'd7'
p3339
sa(dp3340
g7
S'd8'
p3341
sa(dp3342
g7
S'e1'
p3343
sa(dp3344
g5
S'white_pawn'
p3345
sg7
S'e2'
p3346
sa(dp3347
g7
S'e3'
p3348
sa(dp3349
g7
S'e4'
p3350
sa(dp3351
g7
S'e5'
p3352
sa(dp3353
g5
S'black_bishop'
p3354
sg7
S'e6'
p3355
sa(dp3356
g5
S'black_pawn'
p3357
sg7
S'e7'
p3358
sa(dp3359
g7
S'e8'
p3360
sa(dp3361
g5
S'white_rook'
p3362
sg7
S'f1'
p3363
sa(dp3364
g5
S'white_pawn'
p3365
sg7
S'f2'
p3366
sa(dp3367
g7
S'f3'
p3368
sa(dp3369
g7
S'f4'
p3370
sa(dp3371
g7
S'f5'
p3372
sa(dp3373
g5
S'black_knight'
p3374
sg7
S'f6'
p3375
sa(dp3376
g5
S'black_pawn'
p3377
sg7
S'f7'
p3378
sa(dp3379
g5
S'black_rook'
p3380
sg7
S'f8'
p3381
sa(dp3382
g5
S'white_king'
p3383
sg7
S'g1'
p3384
sa(dp3385
g5
S'white_bishop'
p3386
sg7
S'g2'
p3387
sa(dp3388
g5
S'white_pawn'
p3389
sg7
S'g3'
p3390
sa(dp3391
g7
S'g4'
p3392
sa(dp3393
g5
S'white_knight'
p3394
sg7
S'g5'
p3395
sa(dp3396
g5
S'black_pawn'
p3397
sg7
S'g6'
p3398
sa(dp3399
g5
S'black_bishop'
p3400
sg7
S'g7'
p3401
sa(dp3402
g5
S'black_king'
p3403
sg7
S'g8'
p3404
sa(dp3405
g7
S'h1'
p3406
sa(dp3407
g5
S'white_pawn'
p3408
sg7
S'h2'
p3409
sa(dp3410
g7
S'h3'
p3411
sa(dp3412
g7
S'h4'
p3413
sa(dp3414
g7
S'h5'
p3415
sa(dp3416
g7
S'h6'
p3417
sa(dp3418
g5
S'black_pawn'
p3419
sg7
S'h7'
p3420
sa(dp3421
g7
S'h8'
p3422
saag2939
aa.