(lp0
(lp1
S'1. e4 c6'
p2
a(lp3
(dp4
S'piece'
p5
S'white_rook'
p6
sS'location'
p7
S'a1'
p8
sa(dp9
g5
S'white_pawn'
p10
sg7
S'a2'
p11
sa(dp12
g7
S'a3'
p13
sa(dp14
g7
S'a4'
p15
sa(dp16
g7
S'a5'
p17
sa(dp18
g7
S'a6'
p19
sa(dp20
g5
S'black_pawn'
p21
sg7
S'a7'
p22
sa(dp23
g5
S'black_rook'
p24
sg7
S'a8'
p25
sa(dp26
g5
S'white_knight'
p27
sg7
S'b1'
p28
sa(dp29
g5
S'white_pawn'
p30
sg7
S'b2'
p31
sa(dp32
g7
S'b3'
p33
sa(dp34
g7
S'b4'
p35
sa(dp36
g7
S'b5'
p37
sa(dp38
g7
S'b6'
p39
sa(dp40
g5
S'black_pawn'
p41
sg7
S'b7'
p42
sa(dp43
g5
S'black_knight'
p44
sg7
S'b8'
p45
sa(dp46
g5
S'white_bishop'
p47
sg7
S'c1'
p48
sa(dp49
g5
S'white_pawn'
p50
sg7
S'c2'
p51
sa(dp52
g7
S'c3'
p53
sa(dp54
g7
S'c4'
p55
sa(dp56
g7
S'c5'
p57
sa(dp58
g5
S'black_pawn'
p59
sg7
S'c6'
p60
sa(dp61
g7
S'c7'
p62
sa(dp63
g5
S'black_bishop'
p64
sg7
S'c8'
p65
sa(dp66
g5
S'white_queen'
p67
sg7
S'd1'
p68
sa(dp69
g5
S'white_pawn'
p70
sg7
S'd2'
p71
sa(dp72
g7
S'd3'
p73
sa(dp74
g7
S'd4'
p75
sa(dp76
g7
S'd5'
p77
sa(dp78
g7
S'd6'
p79
sa(dp80
g5
S'black_pawn'
p81
sg7
S'd7'
p82
sa(dp83
g5
S'black_queen'
p84
sg7
S'd8'
p85
sa(dp86
g5
S'white_king'
p87
sg7
S'e1'
p88
sa(dp89
g7
S'e2'
p90
sa(dp91
g7
S'e3'
p92
sa(dp93
g5
S'white_pawn'
p94
sg7
S'e4'
p95
sa(dp96
g7
S'e5'
p97
sa(dp98
g7
S'e6'
p99
sa(dp100
g5
S'black_pawn'
p101
sg7
S'e7'
p102
sa(dp103
g5
S'black_king'
p104
sg7
S'e8'
p105
sa(dp106
g5
S'white_bishop'
p107
sg7
S'f1'
p108
sa(dp109
g5
S'white_pawn'
p110
sg7
S'f2'
p111
sa(dp112
g7
S'f3'
p113
sa(dp114
g7
S'f4'
p115
sa(dp116
g7
S'f5'
p117
sa(dp118
g7
S'f6'
p119
sa(dp120
g5
S'black_pawn'
p121
sg7
S'f7'
p122
sa(dp123
g5
S'black_bishop'
p124
sg7
S'f8'
p125
sa(dp126
g5
S'white_knight'
p127
sg7
S'g1'
p128
sa(dp129
g5
S'white_pawn'
p130
sg7
S'g2'
p131
sa(dp132
g7
S'g3'
p133
sa(dp134
g7
S'g4'
p135
sa(dp136
g7
S'g5'
p137
sa(dp138
g7
S'g6'
p139
sa(dp140
g5
S'black_pawn'
p141
sg7
S'g7'
p142
sa(dp143
g5
S'black_knight'
p144
sg7
S'g8'
p145
sa(dp146
g5
S'white_rook'
p147
sg7
S'h1'
p148
sa(dp149
g5
S'white_pawn'
p150
sg7
S'h2'
p151
sa(dp152
g7
S'h3'
p153
sa(dp154
g7
S'h4'
p155
sa(dp156
g7
S'h5'
p157
sa(dp158
g7
S'h6'
p159
sa(dp160
g5
S'black_pawn'
p161
sg7
S'h7'
p162
sa(dp163
g5
S'black_rook'
p164
sg7
S'h8'
p165
saaVCaro Kann: unpretentious and solid.  Beware.
p166
aa(lp167
S'2. d4 d5'
p168
a(lp169
(dp170
g5
S'white_rook'
p171
sg7
S'a1'
p172
sa(dp173
g5
S'white_pawn'
p174
sg7
S'a2'
p175
sa(dp176
g7
S'a3'
p177
sa(dp178
g7
S'a4'
p179
sa(dp180
g7
S'a5'
p181
sa(dp182
g7
S'a6'
p183
sa(dp184
g5
S'black_pawn'
p185
sg7
S'a7'
p186
sa(dp187
g5
S'black_rook'
p188
sg7
S'a8'
p189
sa(dp190
g5
S'white_knight'
p191
sg7
S'b1'
p192
sa(dp193
g5
S'white_pawn'
p194
sg7
S'b2'
p195
sa(dp196
g7
S'b3'
p197
sa(dp198
g7
S'b4'
p199
sa(dp200
g7
S'b5'
p201
sa(dp202
g7
S'b6'
p203
sa(dp204
g5
S'black_pawn'
p205
sg7
S'b7'
p206
sa(dp207
g5
S'black_knight'
p208
sg7
S'b8'
p209
sa(dp210
g5
S'white_bishop'
p211
sg7
S'c1'
p212
sa(dp213
g5
S'white_pawn'
p214
sg7
S'c2'
p215
sa(dp216
g7
S'c3'
p217
sa(dp218
g7
S'c4'
p219
sa(dp220
g7
S'c5'
p221
sa(dp222
g5
S'black_pawn'
p223
sg7
S'c6'
p224
sa(dp225
g7
S'c7'
p226
sa(dp227
g5
S'black_bishop'
p228
sg7
S'c8'
p229
sa(dp230
g5
S'white_queen'
p231
sg7
S'd1'
p232
sa(dp233
g7
S'd2'
p234
sa(dp235
g7
S'd3'
p236
sa(dp237
g5
S'white_pawn'
p238
sg7
S'd4'
p239
sa(dp240
g5
S'black_pawn'
p241
sg7
S'd5'
p242
sa(dp243
g7
S'd6'
p244
sa(dp245
g7
S'd7'
p246
sa(dp247
g5
S'black_queen'
p248
sg7
S'd8'
p249
sa(dp250
g5
S'white_king'
p251
sg7
S'e1'
p252
sa(dp253
g7
S'e2'
p254
sa(dp255
g7
S'e3'
p256
sa(dp257
g5
S'white_pawn'
p258
sg7
S'e4'
p259
sa(dp260
g7
S'e5'
p261
sa(dp262
g7
S'e6'
p263
sa(dp264
g5
S'black_pawn'
p265
sg7
S'e7'
p266
sa(dp267
g5
S'black_king'
p268
sg7
S'e8'
p269
sa(dp270
g5
S'white_bishop'
p271
sg7
S'f1'
p272
sa(dp273
g5
S'white_pawn'
p274
sg7
S'f2'
p275
sa(dp276
g7
S'f3'
p277
sa(dp278
g7
S'f4'
p279
sa(dp280
g7
S'f5'
p281
sa(dp282
g7
S'f6'
p283
sa(dp284
g5
S'black_pawn'
p285
sg7
S'f7'
p286
sa(dp287
g5
S'black_bishop'
p288
sg7
S'f8'
p289
sa(dp290
g5
S'white_knight'
p291
sg7
S'g1'
p292
sa(dp293
g5
S'white_pawn'
p294
sg7
S'g2'
p295
sa(dp296
g7
S'g3'
p297
sa(dp298
g7
S'g4'
p299
sa(dp300
g7
S'g5'
p301
sa(dp302
g7
S'g6'
p303
sa(dp304
g5
S'black_pawn'
p305
sg7
S'g7'
p306
sa(dp307
g5
S'black_knight'
p308
sg7
S'g8'
p309
sa(dp310
g5
S'white_rook'
p311
sg7
S'h1'
p312
sa(dp313
g5
S'white_pawn'
p314
sg7
S'h2'
p315
sa(dp316
g7
S'h3'
p317
sa(dp318
g7
S'h4'
p319
sa(dp320
g7
S'h5'
p321
sa(dp322
g7
S'h6'
p323
sa(dp324
g5
S'black_pawn'
p325
sg7
S'h7'
p326
sa(dp327
g5
S'black_rook'
p328
sg7
S'h8'
p329
saaVChallenging the centre.  You will note that the French Defence has an analogous opening sequence: 1.e4 e6 2.d4 d5.
p330
aa(lp331
S'3. Nc3'
p332
a(lp333
(dp334
g5
S'white_rook'
p335
sg7
S'a1'
p336
sa(dp337
g5
S'white_pawn'
p338
sg7
S'a2'
p339
sa(dp340
g7
S'a3'
p341
sa(dp342
g7
S'a4'
p343
sa(dp344
g7
S'a5'
p345
sa(dp346
g7
S'a6'
p347
sa(dp348
g5
S'black_pawn'
p349
sg7
S'a7'
p350
sa(dp351
g5
S'black_rook'
p352
sg7
S'a8'
p353
sa(dp354
g7
S'b1'
p355
sa(dp356
g5
S'white_pawn'
p357
sg7
S'b2'
p358
sa(dp359
g7
S'b3'
p360
sa(dp361
g7
S'b4'
p362
sa(dp363
g7
S'b5'
p364
sa(dp365
g7
S'b6'
p366
sa(dp367
g5
S'black_pawn'
p368
sg7
S'b7'
p369
sa(dp370
g5
S'black_knight'
p371
sg7
S'b8'
p372
sa(dp373
g5
S'white_bishop'
p374
sg7
S'c1'
p375
sa(dp376
g5
S'white_pawn'
p377
sg7
S'c2'
p378
sa(dp379
g5
S'white_knight'
p380
sg7
S'c3'
p381
sa(dp382
g7
S'c4'
p383
sa(dp384
g7
S'c5'
p385
sa(dp386
g5
S'black_pawn'
p387
sg7
S'c6'
p388
sa(dp389
g7
S'c7'
p390
sa(dp391
g5
S'black_bishop'
p392
sg7
S'c8'
p393
sa(dp394
g5
S'white_queen'
p395
sg7
S'd1'
p396
sa(dp397
g7
S'd2'
p398
sa(dp399
g7
S'd3'
p400
sa(dp401
g5
S'white_pawn'
p402
sg7
S'd4'
p403
sa(dp404
g5
S'black_pawn'
p405
sg7
S'd5'
p406
sa(dp407
g7
S'd6'
p408
sa(dp409
g7
S'd7'
p410
sa(dp411
g5
S'black_queen'
p412
sg7
S'd8'
p413
sa(dp414
g5
S'white_king'
p415
sg7
S'e1'
p416
sa(dp417
g7
S'e2'
p418
sa(dp419
g7
S'e3'
p420
sa(dp421
g5
S'white_pawn'
p422
sg7
S'e4'
p423
sa(dp424
g7
S'e5'
p425
sa(dp426
g7
S'e6'
p427
sa(dp428
g5
S'black_pawn'
p429
sg7
S'e7'
p430
sa(dp431
g5
S'black_king'
p432
sg7
S'e8'
p433
sa(dp434
g5
S'white_bishop'
p435
sg7
S'f1'
p436
sa(dp437
g5
S'white_pawn'
p438
sg7
S'f2'
p439
sa(dp440
g7
S'f3'
p441
sa(dp442
g7
S'f4'
p443
sa(dp444
g7
S'f5'
p445
sa(dp446
g7
S'f6'
p447
sa(dp448
g5
S'black_pawn'
p449
sg7
S'f7'
p450
sa(dp451
g5
S'black_bishop'
p452
sg7
S'f8'
p453
sa(dp454
g5
S'white_knight'
p455
sg7
S'g1'
p456
sa(dp457
g5
S'white_pawn'
p458
sg7
S'g2'
p459
sa(dp460
g7
S'g3'
p461
sa(dp462
g7
S'g4'
p463
sa(dp464
g7
S'g5'
p465
sa(dp466
g7
S'g6'
p467
sa(dp468
g5
S'black_pawn'
p469
sg7
S'g7'
p470
sa(dp471
g5
S'black_knight'
p472
sg7
S'g8'
p473
sa(dp474
g5
S'white_rook'
p475
sg7
S'h1'
p476
sa(dp477
g5
S'white_pawn'
p478
sg7
S'h2'
p479
sa(dp480
g7
S'h3'
p481
sa(dp482
g7
S'h4'
p483
sa(dp484
g7
S'h5'
p485
sa(dp486
g7
S'h6'
p487
sa(dp488
g5
S'black_pawn'
p489
sg7
S'h7'
p490
sa(dp491
g5
S'black_rook'
p492
sg7
S'h8'
p493
saaVA popular third move (as it is in the French, as well).  Almost equally popular are 3.e5 (the Advance Variation) and 3.exd5.  The latter has been something of a favourite of mine, leading to the Panov-Botvinnik Attack (3.exd5 cxd5 4.c4) with some similarities to a QP opening.
p494
aa(lp495
S'3... dxe4'
p496
a(lp497
(dp498
g5
S'white_rook'
p499
sg7
S'a1'
p500
sa(dp501
g5
S'white_pawn'
p502
sg7
S'a2'
p503
sa(dp504
g7
S'a3'
p505
sa(dp506
g7
S'a4'
p507
sa(dp508
g7
S'a5'
p509
sa(dp510
g7
S'a6'
p511
sa(dp512
g5
S'black_pawn'
p513
sg7
S'a7'
p514
sa(dp515
g5
S'black_rook'
p516
sg7
S'a8'
p517
sa(dp518
g7
S'b1'
p519
sa(dp520
g5
S'white_pawn'
p521
sg7
S'b2'
p522
sa(dp523
g7
S'b3'
p524
sa(dp525
g7
S'b4'
p526
sa(dp527
g7
S'b5'
p528
sa(dp529
g7
S'b6'
p530
sa(dp531
g5
S'black_pawn'
p532
sg7
S'b7'
p533
sa(dp534
g5
S'black_knight'
p535
sg7
S'b8'
p536
sa(dp537
g5
S'white_bishop'
p538
sg7
S'c1'
p539
sa(dp540
g5
S'white_pawn'
p541
sg7
S'c2'
p542
sa(dp543
g5
S'white_knight'
p544
sg7
S'c3'
p545
sa(dp546
g7
S'c4'
p547
sa(dp548
g7
S'c5'
p549
sa(dp550
g5
S'black_pawn'
p551
sg7
S'c6'
p552
sa(dp553
g7
S'c7'
p554
sa(dp555
g5
S'black_bishop'
p556
sg7
S'c8'
p557
sa(dp558
g5
S'white_queen'
p559
sg7
S'd1'
p560
sa(dp561
g7
S'd2'
p562
sa(dp563
g7
S'd3'
p564
sa(dp565
g5
S'white_pawn'
p566
sg7
S'd4'
p567
sa(dp568
g7
S'd5'
p569
sa(dp570
g7
S'd6'
p571
sa(dp572
g7
S'd7'
p573
sa(dp574
g5
S'black_queen'
p575
sg7
S'd8'
p576
sa(dp577
g5
S'white_king'
p578
sg7
S'e1'
p579
sa(dp580
g7
S'e2'
p581
sa(dp582
g7
S'e3'
p583
sa(dp584
g5
S'black_pawn'
p585
sg7
S'e4'
p586
sa(dp587
g7
S'e5'
p588
sa(dp589
g7
S'e6'
p590
sa(dp591
g5
S'black_pawn'
p592
sg7
S'e7'
p593
sa(dp594
g5
S'black_king'
p595
sg7
S'e8'
p596
sa(dp597
g5
S'white_bishop'
p598
sg7
S'f1'
p599
sa(dp600
g5
S'white_pawn'
p601
sg7
S'f2'
p602
sa(dp603
g7
S'f3'
p604
sa(dp605
g7
S'f4'
p606
sa(dp607
g7
S'f5'
p608
sa(dp609
g7
S'f6'
p610
sa(dp611
g5
S'black_pawn'
p612
sg7
S'f7'
p613
sa(dp614
g5
S'black_bishop'
p615
sg7
S'f8'
p616
sa(dp617
g5
S'white_knight'
p618
sg7
S'g1'
p619
sa(dp620
g5
S'white_pawn'
p621
sg7
S'g2'
p622
sa(dp623
g7
S'g3'
p624
sa(dp625
g7
S'g4'
p626
sa(dp627
g7
S'g5'
p628
sa(dp629
g7
S'g6'
p630
sa(dp631
g5
S'black_pawn'
p632
sg7
S'g7'
p633
sa(dp634
g5
S'black_knight'
p635
sg7
S'g8'
p636
sa(dp637
g5
S'white_rook'
p638
sg7
S'h1'
p639
sa(dp640
g5
S'white_pawn'
p641
sg7
S'h2'
p642
sa(dp643
g7
S'h3'
p644
sa(dp645
g7
S'h4'
p646
sa(dp647
g7
S'h5'
p648
sa(dp649
g7
S'h6'
p650
sa(dp651
g5
S'black_pawn'
p652
sg7
S'h7'
p653
sa(dp654
g5
S'black_rook'
p655
sg7
S'h8'
p656
saaV'Surrendering the centre' the wiseacres used to sneer when they saw this move.  It does nothing of the kind, of course!
p657
aa(lp658
S'4. Nxe4 Bf5'
p659
a(lp660
(dp661
g5
S'white_rook'
p662
sg7
S'a1'
p663
sa(dp664
g5
S'white_pawn'
p665
sg7
S'a2'
p666
sa(dp667
g7
S'a3'
p668
sa(dp669
g7
S'a4'
p670
sa(dp671
g7
S'a5'
p672
sa(dp673
g7
S'a6'
p674
sa(dp675
g5
S'black_pawn'
p676
sg7
S'a7'
p677
sa(dp678
g5
S'black_rook'
p679
sg7
S'a8'
p680
sa(dp681
g7
S'b1'
p682
sa(dp683
g5
S'white_pawn'
p684
sg7
S'b2'
p685
sa(dp686
g7
S'b3'
p687
sa(dp688
g7
S'b4'
p689
sa(dp690
g7
S'b5'
p691
sa(dp692
g7
S'b6'
p693
sa(dp694
g5
S'black_pawn'
p695
sg7
S'b7'
p696
sa(dp697
g5
S'black_knight'
p698
sg7
S'b8'
p699
sa(dp700
g5
S'white_bishop'
p701
sg7
S'c1'
p702
sa(dp703
g5
S'white_pawn'
p704
sg7
S'c2'
p705
sa(dp706
g7
S'c3'
p707
sa(dp708
g7
S'c4'
p709
sa(dp710
g7
S'c5'
p711
sa(dp712
g5
S'black_pawn'
p713
sg7
S'c6'
p714
sa(dp715
g7
S'c7'
p716
sa(dp717
g7
S'c8'
p718
sa(dp719
g5
S'white_queen'
p720
sg7
S'd1'
p721
sa(dp722
g7
S'd2'
p723
sa(dp724
g7
S'd3'
p725
sa(dp726
g5
S'white_pawn'
p727
sg7
S'd4'
p728
sa(dp729
g7
S'd5'
p730
sa(dp731
g7
S'd6'
p732
sa(dp733
g7
S'd7'
p734
sa(dp735
g5
S'black_queen'
p736
sg7
S'd8'
p737
sa(dp738
g5
S'white_king'
p739
sg7
S'e1'
p740
sa(dp741
g7
S'e2'
p742
sa(dp743
g7
S'e3'
p744
sa(dp745
g5
S'white_knight'
p746
sg7
S'e4'
p747
sa(dp748
g7
S'e5'
p749
sa(dp750
g7
S'e6'
p751
sa(dp752
g5
S'black_pawn'
p753
sg7
S'e7'
p754
sa(dp755
g5
S'black_king'
p756
sg7
S'e8'
p757
sa(dp758
g5
S'white_bishop'
p759
sg7
S'f1'
p760
sa(dp761
g5
S'white_pawn'
p762
sg7
S'f2'
p763
sa(dp764
g7
S'f3'
p765
sa(dp766
g7
S'f4'
p767
sa(dp768
g5
S'black_bishop'
p769
sg7
S'f5'
p770
sa(dp771
g7
S'f6'
p772
sa(dp773
g5
S'black_pawn'
p774
sg7
S'f7'
p775
sa(dp776
g5
S'black_bishop'
p777
sg7
S'f8'
p778
sa(dp779
g5
S'white_knight'
p780
sg7
S'g1'
p781
sa(dp782
g5
S'white_pawn'
p783
sg7
S'g2'
p784
sa(dp785
g7
S'g3'
p786
sa(dp787
g7
S'g4'
p788
sa(dp789
g7
S'g5'
p790
sa(dp791
g7
S'g6'
p792
sa(dp793
g5
S'black_pawn'
p794
sg7
S'g7'
p795
sa(dp796
g5
S'black_knight'
p797
sg7
S'g8'
p798
sa(dp799
g5
S'white_rook'
p800
sg7
S'h1'
p801
sa(dp802
g5
S'white_pawn'
p803
sg7
S'h2'
p804
sa(dp805
g7
S'h3'
p806
sa(dp807
g7
S'h4'
p808
sa(dp809
g7
S'h5'
p810
sa(dp811
g7
S'h6'
p812
sa(dp813
g5
S'black_pawn'
p814
sg7
S'h7'
p815
sa(dp816
g5
S'black_rook'
p817
sg7
S'h8'
p818
saaVA very popular development, forcing White to move the knight a third time.  White COULD defend the knight by 5.Bd3 or 5.Qf3, but there is no compelling need to do so...
p819
aa(lp820
S'5. Ng3'
p821
a(lp822
(dp823
g5
S'white_rook'
p824
sg7
S'a1'
p825
sa(dp826
g5
S'white_pawn'
p827
sg7
S'a2'
p828
sa(dp829
g7
S'a3'
p830
sa(dp831
g7
S'a4'
p832
sa(dp833
g7
S'a5'
p834
sa(dp835
g7
S'a6'
p836
sa(dp837
g5
S'black_pawn'
p838
sg7
S'a7'
p839
sa(dp840
g5
S'black_rook'
p841
sg7
S'a8'
p842
sa(dp843
g7
S'b1'
p844
sa(dp845
g5
S'white_pawn'
p846
sg7
S'b2'
p847
sa(dp848
g7
S'b3'
p849
sa(dp850
g7
S'b4'
p851
sa(dp852
g7
S'b5'
p853
sa(dp854
g7
S'b6'
p855
sa(dp856
g5
S'black_pawn'
p857
sg7
S'b7'
p858
sa(dp859
g5
S'black_knight'
p860
sg7
S'b8'
p861
sa(dp862
g5
S'white_bishop'
p863
sg7
S'c1'
p864
sa(dp865
g5
S'white_pawn'
p866
sg7
S'c2'
p867
sa(dp868
g7
S'c3'
p869
sa(dp870
g7
S'c4'
p871
sa(dp872
g7
S'c5'
p873
sa(dp874
g5
S'black_pawn'
p875
sg7
S'c6'
p876
sa(dp877
g7
S'c7'
p878
sa(dp879
g7
S'c8'
p880
sa(dp881
g5
S'white_queen'
p882
sg7
S'd1'
p883
sa(dp884
g7
S'd2'
p885
sa(dp886
g7
S'd3'
p887
sa(dp888
g5
S'white_pawn'
p889
sg7
S'd4'
p890
sa(dp891
g7
S'd5'
p892
sa(dp893
g7
S'd6'
p894
sa(dp895
g7
S'd7'
p896
sa(dp897
g5
S'black_queen'
p898
sg7
S'd8'
p899
sa(dp900
g5
S'white_king'
p901
sg7
S'e1'
p902
sa(dp903
g7
S'e2'
p904
sa(dp905
g7
S'e3'
p906
sa(dp907
g7
S'e4'
p908
sa(dp909
g7
S'e5'
p910
sa(dp911
g7
S'e6'
p912
sa(dp913
g5
S'black_pawn'
p914
sg7
S'e7'
p915
sa(dp916
g5
S'black_king'
p917
sg7
S'e8'
p918
sa(dp919
g5
S'white_bishop'
p920
sg7
S'f1'
p921
sa(dp922
g5
S'white_pawn'
p923
sg7
S'f2'
p924
sa(dp925
g7
S'f3'
p926
sa(dp927
g7
S'f4'
p928
sa(dp929
g5
S'black_bishop'
p930
sg7
S'f5'
p931
sa(dp932
g7
S'f6'
p933
sa(dp934
g5
S'black_pawn'
p935
sg7
S'f7'
p936
sa(dp937
g5
S'black_bishop'
p938
sg7
S'f8'
p939
sa(dp940
g5
S'white_knight'
p941
sg7
S'g1'
p942
sa(dp943
g5
S'white_pawn'
p944
sg7
S'g2'
p945
sa(dp946
g5
S'white_knight'
p947
sg7
S'g3'
p948
sa(dp949
g7
S'g4'
p950
sa(dp951
g7
S'g5'
p952
sa(dp953
g7
S'g6'
p954
sa(dp955
g5
S'black_pawn'
p956
sg7
S'g7'
p957
sa(dp958
g5
S'black_knight'
p959
sg7
S'g8'
p960
sa(dp961
g5
S'white_rook'
p962
sg7
S'h1'
p963
sa(dp964
g5
S'white_pawn'
p965
sg7
S'h2'
p966
sa(dp967
g7
S'h3'
p968
sa(dp969
g7
S'h4'
p970
sa(dp971
g7
S'h5'
p972
sa(dp973
g7
S'h6'
p974
sa(dp975
g5
S'black_pawn'
p976
sg7
S'h7'
p977
sa(dp978
g5
S'black_rook'
p979
sg7
S'h8'
p980
saaV... as this retreat attacks the bishop in turn.  
p981
aa(lp982
S'5... Bg6'
p983
a(lp984
(dp985
g5
S'white_rook'
p986
sg7
S'a1'
p987
sa(dp988
g5
S'white_pawn'
p989
sg7
S'a2'
p990
sa(dp991
g7
S'a3'
p992
sa(dp993
g7
S'a4'
p994
sa(dp995
g7
S'a5'
p996
sa(dp997
g7
S'a6'
p998
sa(dp999
g5
S'black_pawn'
p1000
sg7
S'a7'
p1001
sa(dp1002
g5
S'black_rook'
p1003
sg7
S'a8'
p1004
sa(dp1005
g7
S'b1'
p1006
sa(dp1007
g5
S'white_pawn'
p1008
sg7
S'b2'
p1009
sa(dp1010
g7
S'b3'
p1011
sa(dp1012
g7
S'b4'
p1013
sa(dp1014
g7
S'b5'
p1015
sa(dp1016
g7
S'b6'
p1017
sa(dp1018
g5
S'black_pawn'
p1019
sg7
S'b7'
p1020
sa(dp1021
g5
S'black_knight'
p1022
sg7
S'b8'
p1023
sa(dp1024
g5
S'white_bishop'
p1025
sg7
S'c1'
p1026
sa(dp1027
g5
S'white_pawn'
p1028
sg7
S'c2'
p1029
sa(dp1030
g7
S'c3'
p1031
sa(dp1032
g7
S'c4'
p1033
sa(dp1034
g7
S'c5'
p1035
sa(dp1036
g5
S'black_pawn'
p1037
sg7
S'c6'
p1038
sa(dp1039
g7
S'c7'
p1040
sa(dp1041
g7
S'c8'
p1042
sa(dp1043
g5
S'white_queen'
p1044
sg7
S'd1'
p1045
sa(dp1046
g7
S'd2'
p1047
sa(dp1048
g7
S'd3'
p1049
sa(dp1050
g5
S'white_pawn'
p1051
sg7
S'd4'
p1052
sa(dp1053
g7
S'd5'
p1054
sa(dp1055
g7
S'd6'
p1056
sa(dp1057
g7
S'd7'
p1058
sa(dp1059
g5
S'black_queen'
p1060
sg7
S'd8'
p1061
sa(dp1062
g5
S'white_king'
p1063
sg7
S'e1'
p1064
sa(dp1065
g7
S'e2'
p1066
sa(dp1067
g7
S'e3'
p1068
sa(dp1069
g7
S'e4'
p1070
sa(dp1071
g7
S'e5'
p1072
sa(dp1073
g7
S'e6'
p1074
sa(dp1075
g5
S'black_pawn'
p1076
sg7
S'e7'
p1077
sa(dp1078
g5
S'black_king'
p1079
sg7
S'e8'
p1080
sa(dp1081
g5
S'white_bishop'
p1082
sg7
S'f1'
p1083
sa(dp1084
g5
S'white_pawn'
p1085
sg7
S'f2'
p1086
sa(dp1087
g7
S'f3'
p1088
sa(dp1089
g7
S'f4'
p1090
sa(dp1091
g7
S'f5'
p1092
sa(dp1093
g7
S'f6'
p1094
sa(dp1095
g5
S'black_pawn'
p1096
sg7
S'f7'
p1097
sa(dp1098
g5
S'black_bishop'
p1099
sg7
S'f8'
p1100
sa(dp1101
g5
S'white_knight'
p1102
sg7
S'g1'
p1103
sa(dp1104
g5
S'white_pawn'
p1105
sg7
S'g2'
p1106
sa(dp1107
g5
S'white_knight'
p1108
sg7
S'g3'
p1109
sa(dp1110
g7
S'g4'
p1111
sa(dp1112
g7
S'g5'
p1113
sa(dp1114
g5
S'black_bishop'
p1115
sg7
S'g6'
p1116
sa(dp1117
g5
S'black_pawn'
p1118
sg7
S'g7'
p1119
sa(dp1120
g5
S'black_knight'
p1121
sg7
S'g8'
p1122
sa(dp1123
g5
S'white_rook'
p1124
sg7
S'h1'
p1125
sa(dp1126
g5
S'white_pawn'
p1127
sg7
S'h2'
p1128
sa(dp1129
g7
S'h3'
p1130
sa(dp1131
g7
S'h4'
p1132
sa(dp1133
g7
S'h5'
p1134
sa(dp1135
g7
S'h6'
p1136
sa(dp1137
g5
S'black_pawn'
p1138
sg7
S'h7'
p1139
sa(dp1140
g5
S'black_rook'
p1141
sg7
S'h8'
p1142
saaVNormal, by a large margin.  The bishop standing on the h7-b1 diagonal leaves White wondering what to do with his own light-square bishop (LSB).  There is little attraction in defending the bishop where it stands.  But there is an interesting try in the strange-looking 5...Nf6?! 6.Nxf5 Qa5ch 7.c3 (or Bd2) Qxf5 - unclear but maybe White gets more out of this line than Black does.  For one thing White would still have his LSB.
p1143
aa(lp1144
S'6. h4'
p1145
a(lp1146
(dp1147
g5
S'white_rook'
p1148
sg7
S'a1'
p1149
sa(dp1150
g5
S'white_pawn'
p1151
sg7
S'a2'
p1152
sa(dp1153
g7
S'a3'
p1154
sa(dp1155
g7
S'a4'
p1156
sa(dp1157
g7
S'a5'
p1158
sa(dp1159
g7
S'a6'
p1160
sa(dp1161
g5
S'black_pawn'
p1162
sg7
S'a7'
p1163
sa(dp1164
g5
S'black_rook'
p1165
sg7
S'a8'
p1166
sa(dp1167
g7
S'b1'
p1168
sa(dp1169
g5
S'white_pawn'
p1170
sg7
S'b2'
p1171
sa(dp1172
g7
S'b3'
p1173
sa(dp1174
g7
S'b4'
p1175
sa(dp1176
g7
S'b5'
p1177
sa(dp1178
g7
S'b6'
p1179
sa(dp1180
g5
S'black_pawn'
p1181
sg7
S'b7'
p1182
sa(dp1183
g5
S'black_knight'
p1184
sg7
S'b8'
p1185
sa(dp1186
g5
S'white_bishop'
p1187
sg7
S'c1'
p1188
sa(dp1189
g5
S'white_pawn'
p1190
sg7
S'c2'
p1191
sa(dp1192
g7
S'c3'
p1193
sa(dp1194
g7
S'c4'
p1195
sa(dp1196
g7
S'c5'
p1197
sa(dp1198
g5
S'black_pawn'
p1199
sg7
S'c6'
p1200
sa(dp1201
g7
S'c7'
p1202
sa(dp1203
g7
S'c8'
p1204
sa(dp1205
g5
S'white_queen'
p1206
sg7
S'd1'
p1207
sa(dp1208
g7
S'd2'
p1209
sa(dp1210
g7
S'd3'
p1211
sa(dp1212
g5
S'white_pawn'
p1213
sg7
S'd4'
p1214
sa(dp1215
g7
S'd5'
p1216
sa(dp1217
g7
S'd6'
p1218
sa(dp1219
g7
S'd7'
p1220
sa(dp1221
g5
S'black_queen'
p1222
sg7
S'd8'
p1223
sa(dp1224
g5
S'white_king'
p1225
sg7
S'e1'
p1226
sa(dp1227
g7
S'e2'
p1228
sa(dp1229
g7
S'e3'
p1230
sa(dp1231
g7
S'e4'
p1232
sa(dp1233
g7
S'e5'
p1234
sa(dp1235
g7
S'e6'
p1236
sa(dp1237
g5
S'black_pawn'
p1238
sg7
S'e7'
p1239
sa(dp1240
g5
S'black_king'
p1241
sg7
S'e8'
p1242
sa(dp1243
g5
S'white_bishop'
p1244
sg7
S'f1'
p1245
sa(dp1246
g5
S'white_pawn'
p1247
sg7
S'f2'
p1248
sa(dp1249
g7
S'f3'
p1250
sa(dp1251
g7
S'f4'
p1252
sa(dp1253
g7
S'f5'
p1254
sa(dp1255
g7
S'f6'
p1256
sa(dp1257
g5
S'black_pawn'
p1258
sg7
S'f7'
p1259
sa(dp1260
g5
S'black_bishop'
p1261
sg7
S'f8'
p1262
sa(dp1263
g5
S'white_knight'
p1264
sg7
S'g1'
p1265
sa(dp1266
g5
S'white_pawn'
p1267
sg7
S'g2'
p1268
sa(dp1269
g5
S'white_knight'
p1270
sg7
S'g3'
p1271
sa(dp1272
g7
S'g4'
p1273
sa(dp1274
g7
S'g5'
p1275
sa(dp1276
g5
S'black_bishop'
p1277
sg7
S'g6'
p1278
sa(dp1279
g5
S'black_pawn'
p1280
sg7
S'g7'
p1281
sa(dp1282
g5
S'black_knight'
p1283
sg7
S'g8'
p1284
sa(dp1285
g5
S'white_rook'
p1286
sg7
S'h1'
p1287
sa(dp1288
g7
S'h2'
p1289
sa(dp1290
g7
S'h3'
p1291
sa(dp1292
g5
S'white_pawn'
p1293
sg7
S'h4'
p1294
sa(dp1295
g7
S'h5'
p1296
sa(dp1297
g7
S'h6'
p1298
sa(dp1299
g5
S'black_pawn'
p1300
sg7
S'h7'
p1301
sa(dp1302
g5
S'black_rook'
p1303
sg7
S'h8'
p1304
saaVMarking the g6-bishop as a target.  White hopes that this apparently crude  thrust will lead later on to better things in the way of a K-side attack.  Things don't quite go that way.
p1305
aa(lp1306
S'6... h6'
p1307
a(lp1308
(dp1309
g5
S'white_rook'
p1310
sg7
S'a1'
p1311
sa(dp1312
g5
S'white_pawn'
p1313
sg7
S'a2'
p1314
sa(dp1315
g7
S'a3'
p1316
sa(dp1317
g7
S'a4'
p1318
sa(dp1319
g7
S'a5'
p1320
sa(dp1321
g7
S'a6'
p1322
sa(dp1323
g5
S'black_pawn'
p1324
sg7
S'a7'
p1325
sa(dp1326
g5
S'black_rook'
p1327
sg7
S'a8'
p1328
sa(dp1329
g7
S'b1'
p1330
sa(dp1331
g5
S'white_pawn'
p1332
sg7
S'b2'
p1333
sa(dp1334
g7
S'b3'
p1335
sa(dp1336
g7
S'b4'
p1337
sa(dp1338
g7
S'b5'
p1339
sa(dp1340
g7
S'b6'
p1341
sa(dp1342
g5
S'black_pawn'
p1343
sg7
S'b7'
p1344
sa(dp1345
g5
S'black_knight'
p1346
sg7
S'b8'
p1347
sa(dp1348
g5
S'white_bishop'
p1349
sg7
S'c1'
p1350
sa(dp1351
g5
S'white_pawn'
p1352
sg7
S'c2'
p1353
sa(dp1354
g7
S'c3'
p1355
sa(dp1356
g7
S'c4'
p1357
sa(dp1358
g7
S'c5'
p1359
sa(dp1360
g5
S'black_pawn'
p1361
sg7
S'c6'
p1362
sa(dp1363
g7
S'c7'
p1364
sa(dp1365
g7
S'c8'
p1366
sa(dp1367
g5
S'white_queen'
p1368
sg7
S'd1'
p1369
sa(dp1370
g7
S'd2'
p1371
sa(dp1372
g7
S'd3'
p1373
sa(dp1374
g5
S'white_pawn'
p1375
sg7
S'd4'
p1376
sa(dp1377
g7
S'd5'
p1378
sa(dp1379
g7
S'd6'
p1380
sa(dp1381
g7
S'd7'
p1382
sa(dp1383
g5
S'black_queen'
p1384
sg7
S'd8'
p1385
sa(dp1386
g5
S'white_king'
p1387
sg7
S'e1'
p1388
sa(dp1389
g7
S'e2'
p1390
sa(dp1391
g7
S'e3'
p1392
sa(dp1393
g7
S'e4'
p1394
sa(dp1395
g7
S'e5'
p1396
sa(dp1397
g7
S'e6'
p1398
sa(dp1399
g5
S'black_pawn'
p1400
sg7
S'e7'
p1401
sa(dp1402
g5
S'black_king'
p1403
sg7
S'e8'
p1404
sa(dp1405
g5
S'white_bishop'
p1406
sg7
S'f1'
p1407
sa(dp1408
g5
S'white_pawn'
p1409
sg7
S'f2'
p1410
sa(dp1411
g7
S'f3'
p1412
sa(dp1413
g7
S'f4'
p1414
sa(dp1415
g7
S'f5'
p1416
sa(dp1417
g7
S'f6'
p1418
sa(dp1419
g5
S'black_pawn'
p1420
sg7
S'f7'
p1421
sa(dp1422
g5
S'black_bishop'
p1423
sg7
S'f8'
p1424
sa(dp1425
g5
S'white_knight'
p1426
sg7
S'g1'
p1427
sa(dp1428
g5
S'white_pawn'
p1429
sg7
S'g2'
p1430
sa(dp1431
g5
S'white_knight'
p1432
sg7
S'g3'
p1433
sa(dp1434
g7
S'g4'
p1435
sa(dp1436
g7
S'g5'
p1437
sa(dp1438
g5
S'black_bishop'
p1439
sg7
S'g6'
p1440
sa(dp1441
g5
S'black_pawn'
p1442
sg7
S'g7'
p1443
sa(dp1444
g5
S'black_knight'
p1445
sg7
S'g8'
p1446
sa(dp1447
g5
S'white_rook'
p1448
sg7
S'h1'
p1449
sa(dp1450
g7
S'h2'
p1451
sa(dp1452
g7
S'h3'
p1453
sa(dp1454
g5
S'white_pawn'
p1455
sg7
S'h4'
p1456
sa(dp1457
g7
S'h5'
p1458
sa(dp1459
g5
S'black_pawn'
p1460
sg7
S'h6'
p1461
sa(dp1462
g7
S'h7'
p1463
sa(dp1464
g5
S'black_rook'
p1465
sg7
S'h8'
p1466
saaVThe usual response, though ...h5 has been tried.  Black wants to keep his bishop, even though it may be forced to make a third move.
p1467
aa(lp1468
S'7. Nf3 Nd7 8. h5'
p1469
a(lp1470
(dp1471
g5
S'white_rook'
p1472
sg7
S'a1'
p1473
sa(dp1474
g5
S'white_pawn'
p1475
sg7
S'a2'
p1476
sa(dp1477
g7
S'a3'
p1478
sa(dp1479
g7
S'a4'
p1480
sa(dp1481
g7
S'a5'
p1482
sa(dp1483
g7
S'a6'
p1484
sa(dp1485
g5
S'black_pawn'
p1486
sg7
S'a7'
p1487
sa(dp1488
g5
S'black_rook'
p1489
sg7
S'a8'
p1490
sa(dp1491
g7
S'b1'
p1492
sa(dp1493
g5
S'white_pawn'
p1494
sg7
S'b2'
p1495
sa(dp1496
g7
S'b3'
p1497
sa(dp1498
g7
S'b4'
p1499
sa(dp1500
g7
S'b5'
p1501
sa(dp1502
g7
S'b6'
p1503
sa(dp1504
g5
S'black_pawn'
p1505
sg7
S'b7'
p1506
sa(dp1507
g7
S'b8'
p1508
sa(dp1509
g5
S'white_bishop'
p1510
sg7
S'c1'
p1511
sa(dp1512
g5
S'white_pawn'
p1513
sg7
S'c2'
p1514
sa(dp1515
g7
S'c3'
p1516
sa(dp1517
g7
S'c4'
p1518
sa(dp1519
g7
S'c5'
p1520
sa(dp1521
g5
S'black_pawn'
p1522
sg7
S'c6'
p1523
sa(dp1524
g7
S'c7'
p1525
sa(dp1526
g7
S'c8'
p1527
sa(dp1528
g5
S'white_queen'
p1529
sg7
S'd1'
p1530
sa(dp1531
g7
S'd2'
p1532
sa(dp1533
g7
S'd3'
p1534
sa(dp1535
g5
S'white_pawn'
p1536
sg7
S'd4'
p1537
sa(dp1538
g7
S'd5'
p1539
sa(dp1540
g7
S'd6'
p1541
sa(dp1542
g5
S'black_knight'
p1543
sg7
S'd7'
p1544
sa(dp1545
g5
S'black_queen'
p1546
sg7
S'd8'
p1547
sa(dp1548
g5
S'white_king'
p1549
sg7
S'e1'
p1550
sa(dp1551
g7
S'e2'
p1552
sa(dp1553
g7
S'e3'
p1554
sa(dp1555
g7
S'e4'
p1556
sa(dp1557
g7
S'e5'
p1558
sa(dp1559
g7
S'e6'
p1560
sa(dp1561
g5
S'black_pawn'
p1562
sg7
S'e7'
p1563
sa(dp1564
g5
S'black_king'
p1565
sg7
S'e8'
p1566
sa(dp1567
g5
S'white_bishop'
p1568
sg7
S'f1'
p1569
sa(dp1570
g5
S'white_pawn'
p1571
sg7
S'f2'
p1572
sa(dp1573
g5
S'white_knight'
p1574
sg7
S'f3'
p1575
sa(dp1576
g7
S'f4'
p1577
sa(dp1578
g7
S'f5'
p1579
sa(dp1580
g7
S'f6'
p1581
sa(dp1582
g5
S'black_pawn'
p1583
sg7
S'f7'
p1584
sa(dp1585
g5
S'black_bishop'
p1586
sg7
S'f8'
p1587
sa(dp1588
g7
S'g1'
p1589
sa(dp1590
g5
S'white_pawn'
p1591
sg7
S'g2'
p1592
sa(dp1593
g5
S'white_knight'
p1594
sg7
S'g3'
p1595
sa(dp1596
g7
S'g4'
p1597
sa(dp1598
g7
S'g5'
p1599
sa(dp1600
g5
S'black_bishop'
p1601
sg7
S'g6'
p1602
sa(dp1603
g5
S'black_pawn'
p1604
sg7
S'g7'
p1605
sa(dp1606
g5
S'black_knight'
p1607
sg7
S'g8'
p1608
sa(dp1609
g5
S'white_rook'
p1610
sg7
S'h1'
p1611
sa(dp1612
g7
S'h2'
p1613
sa(dp1614
g7
S'h3'
p1615
sa(dp1616
g7
S'h4'
p1617
sa(dp1618
g5
S'white_pawn'
p1619
sg7
S'h5'
p1620
sa(dp1621
g5
S'black_pawn'
p1622
sg7
S'h6'
p1623
sa(dp1624
g7
S'h7'
p1625
sa(dp1626
g5
S'black_rook'
p1627
sg7
S'h8'
p1628
saaV'In your face!'  Forced the bishop back to h7, but there the bishop is quite snug, its gaze firmly fixed down the h7-b1 diagonal.
p1629
aa(lp1630
S'8... Bh7'
p1631
a(lp1632
(dp1633
g5
S'white_rook'
p1634
sg7
S'a1'
p1635
sa(dp1636
g5
S'white_pawn'
p1637
sg7
S'a2'
p1638
sa(dp1639
g7
S'a3'
p1640
sa(dp1641
g7
S'a4'
p1642
sa(dp1643
g7
S'a5'
p1644
sa(dp1645
g7
S'a6'
p1646
sa(dp1647
g5
S'black_pawn'
p1648
sg7
S'a7'
p1649
sa(dp1650
g5
S'black_rook'
p1651
sg7
S'a8'
p1652
sa(dp1653
g7
S'b1'
p1654
sa(dp1655
g5
S'white_pawn'
p1656
sg7
S'b2'
p1657
sa(dp1658
g7
S'b3'
p1659
sa(dp1660
g7
S'b4'
p1661
sa(dp1662
g7
S'b5'
p1663
sa(dp1664
g7
S'b6'
p1665
sa(dp1666
g5
S'black_pawn'
p1667
sg7
S'b7'
p1668
sa(dp1669
g7
S'b8'
p1670
sa(dp1671
g5
S'white_bishop'
p1672
sg7
S'c1'
p1673
sa(dp1674
g5
S'white_pawn'
p1675
sg7
S'c2'
p1676
sa(dp1677
g7
S'c3'
p1678
sa(dp1679
g7
S'c4'
p1680
sa(dp1681
g7
S'c5'
p1682
sa(dp1683
g5
S'black_pawn'
p1684
sg7
S'c6'
p1685
sa(dp1686
g7
S'c7'
p1687
sa(dp1688
g7
S'c8'
p1689
sa(dp1690
g5
S'white_queen'
p1691
sg7
S'd1'
p1692
sa(dp1693
g7
S'd2'
p1694
sa(dp1695
g7
S'd3'
p1696
sa(dp1697
g5
S'white_pawn'
p1698
sg7
S'd4'
p1699
sa(dp1700
g7
S'd5'
p1701
sa(dp1702
g7
S'd6'
p1703
sa(dp1704
g5
S'black_knight'
p1705
sg7
S'd7'
p1706
sa(dp1707
g5
S'black_queen'
p1708
sg7
S'd8'
p1709
sa(dp1710
g5
S'white_king'
p1711
sg7
S'e1'
p1712
sa(dp1713
g7
S'e2'
p1714
sa(dp1715
g7
S'e3'
p1716
sa(dp1717
g7
S'e4'
p1718
sa(dp1719
g7
S'e5'
p1720
sa(dp1721
g7
S'e6'
p1722
sa(dp1723
g5
S'black_pawn'
p1724
sg7
S'e7'
p1725
sa(dp1726
g5
S'black_king'
p1727
sg7
S'e8'
p1728
sa(dp1729
g5
S'white_bishop'
p1730
sg7
S'f1'
p1731
sa(dp1732
g5
S'white_pawn'
p1733
sg7
S'f2'
p1734
sa(dp1735
g5
S'white_knight'
p1736
sg7
S'f3'
p1737
sa(dp1738
g7
S'f4'
p1739
sa(dp1740
g7
S'f5'
p1741
sa(dp1742
g7
S'f6'
p1743
sa(dp1744
g5
S'black_pawn'
p1745
sg7
S'f7'
p1746
sa(dp1747
g5
S'black_bishop'
p1748
sg7
S'f8'
p1749
sa(dp1750
g7
S'g1'
p1751
sa(dp1752
g5
S'white_pawn'
p1753
sg7
S'g2'
p1754
sa(dp1755
g5
S'white_knight'
p1756
sg7
S'g3'
p1757
sa(dp1758
g7
S'g4'
p1759
sa(dp1760
g7
S'g5'
p1761
sa(dp1762
g7
S'g6'
p1763
sa(dp1764
g5
S'black_pawn'
p1765
sg7
S'g7'
p1766
sa(dp1767
g5
S'black_knight'
p1768
sg7
S'g8'
p1769
sa(dp1770
g5
S'white_rook'
p1771
sg7
S'h1'
p1772
sa(dp1773
g7
S'h2'
p1774
sa(dp1775
g7
S'h3'
p1776
sa(dp1777
g7
S'h4'
p1778
sa(dp1779
g5
S'white_pawn'
p1780
sg7
S'h5'
p1781
sa(dp1782
g5
S'black_pawn'
p1783
sg7
S'h6'
p1784
sa(dp1785
g5
S'black_bishop'
p1786
sg7
S'h7'
p1787
sa(dp1788
g5
S'black_rook'
p1789
sg7
S'h8'
p1790
saaVForced, but Black won't be unhappy about that.
p1791
aa(lp1792
S'9. Bd3'
p1793
a(lp1794
(dp1795
g5
S'white_rook'
p1796
sg7
S'a1'
p1797
sa(dp1798
g5
S'white_pawn'
p1799
sg7
S'a2'
p1800
sa(dp1801
g7
S'a3'
p1802
sa(dp1803
g7
S'a4'
p1804
sa(dp1805
g7
S'a5'
p1806
sa(dp1807
g7
S'a6'
p1808
sa(dp1809
g5
S'black_pawn'
p1810
sg7
S'a7'
p1811
sa(dp1812
g5
S'black_rook'
p1813
sg7
S'a8'
p1814
sa(dp1815
g7
S'b1'
p1816
sa(dp1817
g5
S'white_pawn'
p1818
sg7
S'b2'
p1819
sa(dp1820
g7
S'b3'
p1821
sa(dp1822
g7
S'b4'
p1823
sa(dp1824
g7
S'b5'
p1825
sa(dp1826
g7
S'b6'
p1827
sa(dp1828
g5
S'black_pawn'
p1829
sg7
S'b7'
p1830
sa(dp1831
g7
S'b8'
p1832
sa(dp1833
g5
S'white_bishop'
p1834
sg7
S'c1'
p1835
sa(dp1836
g5
S'white_pawn'
p1837
sg7
S'c2'
p1838
sa(dp1839
g7
S'c3'
p1840
sa(dp1841
g7
S'c4'
p1842
sa(dp1843
g7
S'c5'
p1844
sa(dp1845
g5
S'black_pawn'
p1846
sg7
S'c6'
p1847
sa(dp1848
g7
S'c7'
p1849
sa(dp1850
g7
S'c8'
p1851
sa(dp1852
g5
S'white_queen'
p1853
sg7
S'd1'
p1854
sa(dp1855
g7
S'd2'
p1856
sa(dp1857
g5
S'white_bishop'
p1858
sg7
S'd3'
p1859
sa(dp1860
g5
S'white_pawn'
p1861
sg7
S'd4'
p1862
sa(dp1863
g7
S'd5'
p1864
sa(dp1865
g7
S'd6'
p1866
sa(dp1867
g5
S'black_knight'
p1868
sg7
S'd7'
p1869
sa(dp1870
g5
S'black_queen'
p1871
sg7
S'd8'
p1872
sa(dp1873
g5
S'white_king'
p1874
sg7
S'e1'
p1875
sa(dp1876
g7
S'e2'
p1877
sa(dp1878
g7
S'e3'
p1879
sa(dp1880
g7
S'e4'
p1881
sa(dp1882
g7
S'e5'
p1883
sa(dp1884
g7
S'e6'
p1885
sa(dp1886
g5
S'black_pawn'
p1887
sg7
S'e7'
p1888
sa(dp1889
g5
S'black_king'
p1890
sg7
S'e8'
p1891
sa(dp1892
g7
S'f1'
p1893
sa(dp1894
g5
S'white_pawn'
p1895
sg7
S'f2'
p1896
sa(dp1897
g5
S'white_knight'
p1898
sg7
S'f3'
p1899
sa(dp1900
g7
S'f4'
p1901
sa(dp1902
g7
S'f5'
p1903
sa(dp1904
g7
S'f6'
p1905
sa(dp1906
g5
S'black_pawn'
p1907
sg7
S'f7'
p1908
sa(dp1909
g5
S'black_bishop'
p1910
sg7
S'f8'
p1911
sa(dp1912
g7
S'g1'
p1913
sa(dp1914
g5
S'white_pawn'
p1915
sg7
S'g2'
p1916
sa(dp1917
g5
S'white_knight'
p1918
sg7
S'g3'
p1919
sa(dp1920
g7
S'g4'
p1921
sa(dp1922
g7
S'g5'
p1923
sa(dp1924
g7
S'g6'
p1925
sa(dp1926
g5
S'black_pawn'
p1927
sg7
S'g7'
p1928
sa(dp1929
g5
S'black_knight'
p1930
sg7
S'g8'
p1931
sa(dp1932
g5
S'white_rook'
p1933
sg7
S'h1'
p1934
sa(dp1935
g7
S'h2'
p1936
sa(dp1937
g7
S'h3'
p1938
sa(dp1939
g7
S'h4'
p1940
sa(dp1941
g5
S'white_pawn'
p1942
sg7
S'h5'
p1943
sa(dp1944
g5
S'black_pawn'
p1945
sg7
S'h6'
p1946
sa(dp1947
g5
S'black_bishop'
p1948
sg7
S'h7'
p1949
sa(dp1950
g5
S'black_rook'
p1951
sg7
S'h8'
p1952
saaVA very difficult decision, in my view.  The Black LSB having moved three times already, is being invited to make a fourth move to exchange itself off for the White one, which has just made its first move.  In effect White is offering a trade, with (four minus one equals) three tempi to sugar-coat the deal for herself.  There isn't much Black can do about it, neither, but fall in with the trade.  It turns out, though, that the absence of White's LSB subsequently tends to deprive White of a valuable attacking resource.  Black therefore has something to throw onto the bottom line to offset the 'lost' three tempi.
p1953
aa(lp1954
S'9... Bxd3'
p1955
a(lp1956
(dp1957
g5
S'white_rook'
p1958
sg7
S'a1'
p1959
sa(dp1960
g5
S'white_pawn'
p1961
sg7
S'a2'
p1962
sa(dp1963
g7
S'a3'
p1964
sa(dp1965
g7
S'a4'
p1966
sa(dp1967
g7
S'a5'
p1968
sa(dp1969
g7
S'a6'
p1970
sa(dp1971
g5
S'black_pawn'
p1972
sg7
S'a7'
p1973
sa(dp1974
g5
S'black_rook'
p1975
sg7
S'a8'
p1976
sa(dp1977
g7
S'b1'
p1978
sa(dp1979
g5
S'white_pawn'
p1980
sg7
S'b2'
p1981
sa(dp1982
g7
S'b3'
p1983
sa(dp1984
g7
S'b4'
p1985
sa(dp1986
g7
S'b5'
p1987
sa(dp1988
g7
S'b6'
p1989
sa(dp1990
g5
S'black_pawn'
p1991
sg7
S'b7'
p1992
sa(dp1993
g7
S'b8'
p1994
sa(dp1995
g5
S'white_bishop'
p1996
sg7
S'c1'
p1997
sa(dp1998
g5
S'white_pawn'
p1999
sg7
S'c2'
p2000
sa(dp2001
g7
S'c3'
p2002
sa(dp2003
g7
S'c4'
p2004
sa(dp2005
g7
S'c5'
p2006
sa(dp2007
g5
S'black_pawn'
p2008
sg7
S'c6'
p2009
sa(dp2010
g7
S'c7'
p2011
sa(dp2012
g7
S'c8'
p2013
sa(dp2014
g5
S'white_queen'
p2015
sg7
S'd1'
p2016
sa(dp2017
g7
S'd2'
p2018
sa(dp2019
g5
S'black_bishop'
p2020
sg7
S'd3'
p2021
sa(dp2022
g5
S'white_pawn'
p2023
sg7
S'd4'
p2024
sa(dp2025
g7
S'd5'
p2026
sa(dp2027
g7
S'd6'
p2028
sa(dp2029
g5
S'black_knight'
p2030
sg7
S'd7'
p2031
sa(dp2032
g5
S'black_queen'
p2033
sg7
S'd8'
p2034
sa(dp2035
g5
S'white_king'
p2036
sg7
S'e1'
p2037
sa(dp2038
g7
S'e2'
p2039
sa(dp2040
g7
S'e3'
p2041
sa(dp2042
g7
S'e4'
p2043
sa(dp2044
g7
S'e5'
p2045
sa(dp2046
g7
S'e6'
p2047
sa(dp2048
g5
S'black_pawn'
p2049
sg7
S'e7'
p2050
sa(dp2051
g5
S'black_king'
p2052
sg7
S'e8'
p2053
sa(dp2054
g7
S'f1'
p2055
sa(dp2056
g5
S'white_pawn'
p2057
sg7
S'f2'
p2058
sa(dp2059
g5
S'white_knight'
p2060
sg7
S'f3'
p2061
sa(dp2062
g7
S'f4'
p2063
sa(dp2064
g7
S'f5'
p2065
sa(dp2066
g7
S'f6'
p2067
sa(dp2068
g5
S'black_pawn'
p2069
sg7
S'f7'
p2070
sa(dp2071
g5
S'black_bishop'
p2072
sg7
S'f8'
p2073
sa(dp2074
g7
S'g1'
p2075
sa(dp2076
g5
S'white_pawn'
p2077
sg7
S'g2'
p2078
sa(dp2079
g5
S'white_knight'
p2080
sg7
S'g3'
p2081
sa(dp2082
g7
S'g4'
p2083
sa(dp2084
g7
S'g5'
p2085
sa(dp2086
g7
S'g6'
p2087
sa(dp2088
g5
S'black_pawn'
p2089
sg7
S'g7'
p2090
sa(dp2091
g5
S'black_knight'
p2092
sg7
S'g8'
p2093
sa(dp2094
g5
S'white_rook'
p2095
sg7
S'h1'
p2096
sa(dp2097
g7
S'h2'
p2098
sa(dp2099
g7
S'h3'
p2100
sa(dp2101
g7
S'h4'
p2102
sa(dp2103
g5
S'white_pawn'
p2104
sg7
S'h5'
p2105
sa(dp2106
g5
S'black_pawn'
p2107
sg7
S'h6'
p2108
sa(dp2109
g7
S'h7'
p2110
sa(dp2111
g5
S'black_rook'
p2112
sg7
S'h8'
p2113
saaVThere really is no sensible alternative, here.  The bishop is going anyway - might as well get that over and done with.  There is nothing to be gained by 9...Ngf6 10.Bxh7 Nxh7 with even more loss of time for Black.
p2114
aa(lp2115
S'10. Qxd3'
p2116
a(lp2117
(dp2118
g5
S'white_rook'
p2119
sg7
S'a1'
p2120
sa(dp2121
g5
S'white_pawn'
p2122
sg7
S'a2'
p2123
sa(dp2124
g7
S'a3'
p2125
sa(dp2126
g7
S'a4'
p2127
sa(dp2128
g7
S'a5'
p2129
sa(dp2130
g7
S'a6'
p2131
sa(dp2132
g5
S'black_pawn'
p2133
sg7
S'a7'
p2134
sa(dp2135
g5
S'black_rook'
p2136
sg7
S'a8'
p2137
sa(dp2138
g7
S'b1'
p2139
sa(dp2140
g5
S'white_pawn'
p2141
sg7
S'b2'
p2142
sa(dp2143
g7
S'b3'
p2144
sa(dp2145
g7
S'b4'
p2146
sa(dp2147
g7
S'b5'
p2148
sa(dp2149
g7
S'b6'
p2150
sa(dp2151
g5
S'black_pawn'
p2152
sg7
S'b7'
p2153
sa(dp2154
g7
S'b8'
p2155
sa(dp2156
g5
S'white_bishop'
p2157
sg7
S'c1'
p2158
sa(dp2159
g5
S'white_pawn'
p2160
sg7
S'c2'
p2161
sa(dp2162
g7
S'c3'
p2163
sa(dp2164
g7
S'c4'
p2165
sa(dp2166
g7
S'c5'
p2167
sa(dp2168
g5
S'black_pawn'
p2169
sg7
S'c6'
p2170
sa(dp2171
g7
S'c7'
p2172
sa(dp2173
g7
S'c8'
p2174
sa(dp2175
g7
S'd1'
p2176
sa(dp2177
g7
S'd2'
p2178
sa(dp2179
g5
S'white_queen'
p2180
sg7
S'd3'
p2181
sa(dp2182
g5
S'white_pawn'
p2183
sg7
S'd4'
p2184
sa(dp2185
g7
S'd5'
p2186
sa(dp2187
g7
S'd6'
p2188
sa(dp2189
g5
S'black_knight'
p2190
sg7
S'd7'
p2191
sa(dp2192
g5
S'black_queen'
p2193
sg7
S'd8'
p2194
sa(dp2195
g5
S'white_king'
p2196
sg7
S'e1'
p2197
sa(dp2198
g7
S'e2'
p2199
sa(dp2200
g7
S'e3'
p2201
sa(dp2202
g7
S'e4'
p2203
sa(dp2204
g7
S'e5'
p2205
sa(dp2206
g7
S'e6'
p2207
sa(dp2208
g5
S'black_pawn'
p2209
sg7
S'e7'
p2210
sa(dp2211
g5
S'black_king'
p2212
sg7
S'e8'
p2213
sa(dp2214
g7
S'f1'
p2215
sa(dp2216
g5
S'white_pawn'
p2217
sg7
S'f2'
p2218
sa(dp2219
g5
S'white_knight'
p2220
sg7
S'f3'
p2221
sa(dp2222
g7
S'f4'
p2223
sa(dp2224
g7
S'f5'
p2225
sa(dp2226
g7
S'f6'
p2227
sa(dp2228
g5
S'black_pawn'
p2229
sg7
S'f7'
p2230
sa(dp2231
g5
S'black_bishop'
p2232
sg7
S'f8'
p2233
sa(dp2234
g7
S'g1'
p2235
sa(dp2236
g5
S'white_pawn'
p2237
sg7
S'g2'
p2238
sa(dp2239
g5
S'white_knight'
p2240
sg7
S'g3'
p2241
sa(dp2242
g7
S'g4'
p2243
sa(dp2244
g7
S'g5'
p2245
sa(dp2246
g7
S'g6'
p2247
sa(dp2248
g5
S'black_pawn'
p2249
sg7
S'g7'
p2250
sa(dp2251
g5
S'black_knight'
p2252
sg7
S'g8'
p2253
sa(dp2254
g5
S'white_rook'
p2255
sg7
S'h1'
p2256
sa(dp2257
g7
S'h2'
p2258
sa(dp2259
g7
S'h3'
p2260
sa(dp2261
g7
S'h4'
p2262
sa(dp2263
g5
S'white_pawn'
p2264
sg7
S'h5'
p2265
sa(dp2266
g5
S'black_pawn'
p2267
sg7
S'h6'
p2268
sa(dp2269
g7
S'h7'
p2270
sa(dp2271
g5
S'black_rook'
p2272
sg7
S'h8'
p2273
saaVOf course, nothing good can come of 10.cxd3(?), with doubled and isolated pawns stuck on a file half-open for Black's rooks.
p2274
aa(lp2275
S'10... Ngf6'
p2276
a(lp2277
(dp2278
g5
S'white_rook'
p2279
sg7
S'a1'
p2280
sa(dp2281
g5
S'white_pawn'
p2282
sg7
S'a2'
p2283
sa(dp2284
g7
S'a3'
p2285
sa(dp2286
g7
S'a4'
p2287
sa(dp2288
g7
S'a5'
p2289
sa(dp2290
g7
S'a6'
p2291
sa(dp2292
g5
S'black_pawn'
p2293
sg7
S'a7'
p2294
sa(dp2295
g5
S'black_rook'
p2296
sg7
S'a8'
p2297
sa(dp2298
g7
S'b1'
p2299
sa(dp2300
g5
S'white_pawn'
p2301
sg7
S'b2'
p2302
sa(dp2303
g7
S'b3'
p2304
sa(dp2305
g7
S'b4'
p2306
sa(dp2307
g7
S'b5'
p2308
sa(dp2309
g7
S'b6'
p2310
sa(dp2311
g5
S'black_pawn'
p2312
sg7
S'b7'
p2313
sa(dp2314
g7
S'b8'
p2315
sa(dp2316
g5
S'white_bishop'
p2317
sg7
S'c1'
p2318
sa(dp2319
g5
S'white_pawn'
p2320
sg7
S'c2'
p2321
sa(dp2322
g7
S'c3'
p2323
sa(dp2324
g7
S'c4'
p2325
sa(dp2326
g7
S'c5'
p2327
sa(dp2328
g5
S'black_pawn'
p2329
sg7
S'c6'
p2330
sa(dp2331
g7
S'c7'
p2332
sa(dp2333
g7
S'c8'
p2334
sa(dp2335
g7
S'd1'
p2336
sa(dp2337
g7
S'd2'
p2338
sa(dp2339
g5
S'white_queen'
p2340
sg7
S'd3'
p2341
sa(dp2342
g5
S'white_pawn'
p2343
sg7
S'd4'
p2344
sa(dp2345
g7
S'd5'
p2346
sa(dp2347
g7
S'd6'
p2348
sa(dp2349
g5
S'black_knight'
p2350
sg7
S'd7'
p2351
sa(dp2352
g5
S'black_queen'
p2353
sg7
S'd8'
p2354
sa(dp2355
g5
S'white_king'
p2356
sg7
S'e1'
p2357
sa(dp2358
g7
S'e2'
p2359
sa(dp2360
g7
S'e3'
p2361
sa(dp2362
g7
S'e4'
p2363
sa(dp2364
g7
S'e5'
p2365
sa(dp2366
g7
S'e6'
p2367
sa(dp2368
g5
S'black_pawn'
p2369
sg7
S'e7'
p2370
sa(dp2371
g5
S'black_king'
p2372
sg7
S'e8'
p2373
sa(dp2374
g7
S'f1'
p2375
sa(dp2376
g5
S'white_pawn'
p2377
sg7
S'f2'
p2378
sa(dp2379
g5
S'white_knight'
p2380
sg7
S'f3'
p2381
sa(dp2382
g7
S'f4'
p2383
sa(dp2384
g7
S'f5'
p2385
sa(dp2386
g5
S'black_knight'
p2387
sg7
S'f6'
p2388
sa(dp2389
g5
S'black_pawn'
p2390
sg7
S'f7'
p2391
sa(dp2392
g5
S'black_bishop'
p2393
sg7
S'f8'
p2394
sa(dp2395
g7
S'g1'
p2396
sa(dp2397
g5
S'white_pawn'
p2398
sg7
S'g2'
p2399
sa(dp2400
g5
S'white_knight'
p2401
sg7
S'g3'
p2402
sa(dp2403
g7
S'g4'
p2404
sa(dp2405
g7
S'g5'
p2406
sa(dp2407
g7
S'g6'
p2408
sa(dp2409
g5
S'black_pawn'
p2410
sg7
S'g7'
p2411
sa(dp2412
g7
S'g8'
p2413
sa(dp2414
g5
S'white_rook'
p2415
sg7
S'h1'
p2416
sa(dp2417
g7
S'h2'
p2418
sa(dp2419
g7
S'h3'
p2420
sa(dp2421
g7
S'h4'
p2422
sa(dp2423
g5
S'white_pawn'
p2424
sg7
S'h5'
p2425
sa(dp2426
g5
S'black_pawn'
p2427
sg7
S'h6'
p2428
sa(dp2429
g7
S'h7'
p2430
sa(dp2431
g5
S'black_rook'
p2432
sg7
S'h8'
p2433
saaVWhite has a very slight lead in development, but no real threats so far.  Black is solidly placed - no real weaknesses - but perhaps feeling just a little constrained by White's greater control of the central regions.
p2434
aa(lp2435
S'11. Bf4'
p2436
a(lp2437
(dp2438
g5
S'white_rook'
p2439
sg7
S'a1'
p2440
sa(dp2441
g5
S'white_pawn'
p2442
sg7
S'a2'
p2443
sa(dp2444
g7
S'a3'
p2445
sa(dp2446
g7
S'a4'
p2447
sa(dp2448
g7
S'a5'
p2449
sa(dp2450
g7
S'a6'
p2451
sa(dp2452
g5
S'black_pawn'
p2453
sg7
S'a7'
p2454
sa(dp2455
g5
S'black_rook'
p2456
sg7
S'a8'
p2457
sa(dp2458
g7
S'b1'
p2459
sa(dp2460
g5
S'white_pawn'
p2461
sg7
S'b2'
p2462
sa(dp2463
g7
S'b3'
p2464
sa(dp2465
g7
S'b4'
p2466
sa(dp2467
g7
S'b5'
p2468
sa(dp2469
g7
S'b6'
p2470
sa(dp2471
g5
S'black_pawn'
p2472
sg7
S'b7'
p2473
sa(dp2474
g7
S'b8'
p2475
sa(dp2476
g7
S'c1'
p2477
sa(dp2478
g5
S'white_pawn'
p2479
sg7
S'c2'
p2480
sa(dp2481
g7
S'c3'
p2482
sa(dp2483
g7
S'c4'
p2484
sa(dp2485
g7
S'c5'
p2486
sa(dp2487
g5
S'black_pawn'
p2488
sg7
S'c6'
p2489
sa(dp2490
g7
S'c7'
p2491
sa(dp2492
g7
S'c8'
p2493
sa(dp2494
g7
S'd1'
p2495
sa(dp2496
g7
S'd2'
p2497
sa(dp2498
g5
S'white_queen'
p2499
sg7
S'd3'
p2500
sa(dp2501
g5
S'white_pawn'
p2502
sg7
S'd4'
p2503
sa(dp2504
g7
S'd5'
p2505
sa(dp2506
g7
S'd6'
p2507
sa(dp2508
g5
S'black_knight'
p2509
sg7
S'd7'
p2510
sa(dp2511
g5
S'black_queen'
p2512
sg7
S'd8'
p2513
sa(dp2514
g5
S'white_king'
p2515
sg7
S'e1'
p2516
sa(dp2517
g7
S'e2'
p2518
sa(dp2519
g7
S'e3'
p2520
sa(dp2521
g7
S'e4'
p2522
sa(dp2523
g7
S'e5'
p2524
sa(dp2525
g7
S'e6'
p2526
sa(dp2527
g5
S'black_pawn'
p2528
sg7
S'e7'
p2529
sa(dp2530
g5
S'black_king'
p2531
sg7
S'e8'
p2532
sa(dp2533
g7
S'f1'
p2534
sa(dp2535
g5
S'white_pawn'
p2536
sg7
S'f2'
p2537
sa(dp2538
g5
S'white_knight'
p2539
sg7
S'f3'
p2540
sa(dp2541
g5
S'white_bishop'
p2542
sg7
S'f4'
p2543
sa(dp2544
g7
S'f5'
p2545
sa(dp2546
g5
S'black_knight'
p2547
sg7
S'f6'
p2548
sa(dp2549
g5
S'black_pawn'
p2550
sg7
S'f7'
p2551
sa(dp2552
g5
S'black_bishop'
p2553
sg7
S'f8'
p2554
sa(dp2555
g7
S'g1'
p2556
sa(dp2557
g5
S'white_pawn'
p2558
sg7
S'g2'
p2559
sa(dp2560
g5
S'white_knight'
p2561
sg7
S'g3'
p2562
sa(dp2563
g7
S'g4'
p2564
sa(dp2565
g7
S'g5'
p2566
sa(dp2567
g7
S'g6'
p2568
sa(dp2569
g5
S'black_pawn'
p2570
sg7
S'g7'
p2571
sa(dp2572
g7
S'g8'
p2573
sa(dp2574
g5
S'white_rook'
p2575
sg7
S'h1'
p2576
sa(dp2577
g7
S'h2'
p2578
sa(dp2579
g7
S'h3'
p2580
sa(dp2581
g7
S'h4'
p2582
sa(dp2583
g5
S'white_pawn'
p2584
sg7
S'h5'
p2585
sa(dp2586
g5
S'black_pawn'
p2587
sg7
S'h6'
p2588
sa(dp2589
g7
S'h7'
p2590
sa(dp2591
g5
S'black_rook'
p2592
sg7
S'h8'
p2593
saaVA good square and diagonal (h2-b8) for the dark-square bishop (DSB).  Could this make Black think twice about castling Q-side? 
p2594
aa(lp2595
S'11... Nd5'
p2596
a(lp2597
(dp2598
g5
S'white_rook'
p2599
sg7
S'a1'
p2600
sa(dp2601
g5
S'white_pawn'
p2602
sg7
S'a2'
p2603
sa(dp2604
g7
S'a3'
p2605
sa(dp2606
g7
S'a4'
p2607
sa(dp2608
g7
S'a5'
p2609
sa(dp2610
g7
S'a6'
p2611
sa(dp2612
g5
S'black_pawn'
p2613
sg7
S'a7'
p2614
sa(dp2615
g5
S'black_rook'
p2616
sg7
S'a8'
p2617
sa(dp2618
g7
S'b1'
p2619
sa(dp2620
g5
S'white_pawn'
p2621
sg7
S'b2'
p2622
sa(dp2623
g7
S'b3'
p2624
sa(dp2625
g7
S'b4'
p2626
sa(dp2627
g7
S'b5'
p2628
sa(dp2629
g7
S'b6'
p2630
sa(dp2631
g5
S'black_pawn'
p2632
sg7
S'b7'
p2633
sa(dp2634
g7
S'b8'
p2635
sa(dp2636
g7
S'c1'
p2637
sa(dp2638
g5
S'white_pawn'
p2639
sg7
S'c2'
p2640
sa(dp2641
g7
S'c3'
p2642
sa(dp2643
g7
S'c4'
p2644
sa(dp2645
g7
S'c5'
p2646
sa(dp2647
g5
S'black_pawn'
p2648
sg7
S'c6'
p2649
sa(dp2650
g7
S'c7'
p2651
sa(dp2652
g7
S'c8'
p2653
sa(dp2654
g7
S'd1'
p2655
sa(dp2656
g7
S'd2'
p2657
sa(dp2658
g5
S'white_queen'
p2659
sg7
S'd3'
p2660
sa(dp2661
g5
S'white_pawn'
p2662
sg7
S'd4'
p2663
sa(dp2664
g5
S'black_knight'
p2665
sg7
S'd5'
p2666
sa(dp2667
g7
S'd6'
p2668
sa(dp2669
g5
S'black_knight'
p2670
sg7
S'd7'
p2671
sa(dp2672
g5
S'black_queen'
p2673
sg7
S'd8'
p2674
sa(dp2675
g5
S'white_king'
p2676
sg7
S'e1'
p2677
sa(dp2678
g7
S'e2'
p2679
sa(dp2680
g7
S'e3'
p2681
sa(dp2682
g7
S'e4'
p2683
sa(dp2684
g7
S'e5'
p2685
sa(dp2686
g7
S'e6'
p2687
sa(dp2688
g5
S'black_pawn'
p2689
sg7
S'e7'
p2690
sa(dp2691
g5
S'black_king'
p2692
sg7
S'e8'
p2693
sa(dp2694
g7
S'f1'
p2695
sa(dp2696
g5
S'white_pawn'
p2697
sg7
S'f2'
p2698
sa(dp2699
g5
S'white_knight'
p2700
sg7
S'f3'
p2701
sa(dp2702
g5
S'white_bishop'
p2703
sg7
S'f4'
p2704
sa(dp2705
g7
S'f5'
p2706
sa(dp2707
g7
S'f6'
p2708
sa(dp2709
g5
S'black_pawn'
p2710
sg7
S'f7'
p2711
sa(dp2712
g5
S'black_bishop'
p2713
sg7
S'f8'
p2714
sa(dp2715
g7
S'g1'
p2716
sa(dp2717
g5
S'white_pawn'
p2718
sg7
S'g2'
p2719
sa(dp2720
g5
S'white_knight'
p2721
sg7
S'g3'
p2722
sa(dp2723
g7
S'g4'
p2724
sa(dp2725
g7
S'g5'
p2726
sa(dp2727
g7
S'g6'
p2728
sa(dp2729
g5
S'black_pawn'
p2730
sg7
S'g7'
p2731
sa(dp2732
g7
S'g8'
p2733
sa(dp2734
g5
S'white_rook'
p2735
sg7
S'h1'
p2736
sa(dp2737
g7
S'h2'
p2738
sa(dp2739
g7
S'h3'
p2740
sa(dp2741
g7
S'h4'
p2742
sa(dp2743
g5
S'white_pawn'
p2744
sg7
S'h5'
p2745
sa(dp2746
g5
S'black_pawn'
p2747
sg7
S'h6'
p2748
sa(dp2749
g7
S'h7'
p2750
sa(dp2751
g5
S'black_rook'
p2752
sg7
S'h8'
p2753
saaVAt once drives the bishop off the sensitive diagonal.  Since the bishop was so easily thrown off f4, does that mean White was wrong to move it there?  By no means.  Black has been induced to place his knight on d5, where it will become a target for the White c-pawn.  So of course...
p2754
aa(lp2755
S'12. Bd2'
p2756
a(lp2757
(dp2758
g5
S'white_rook'
p2759
sg7
S'a1'
p2760
sa(dp2761
g5
S'white_pawn'
p2762
sg7
S'a2'
p2763
sa(dp2764
g7
S'a3'
p2765
sa(dp2766
g7
S'a4'
p2767
sa(dp2768
g7
S'a5'
p2769
sa(dp2770
g7
S'a6'
p2771
sa(dp2772
g5
S'black_pawn'
p2773
sg7
S'a7'
p2774
sa(dp2775
g5
S'black_rook'
p2776
sg7
S'a8'
p2777
sa(dp2778
g7
S'b1'
p2779
sa(dp2780
g5
S'white_pawn'
p2781
sg7
S'b2'
p2782
sa(dp2783
g7
S'b3'
p2784
sa(dp2785
g7
S'b4'
p2786
sa(dp2787
g7
S'b5'
p2788
sa(dp2789
g7
S'b6'
p2790
sa(dp2791
g5
S'black_pawn'
p2792
sg7
S'b7'
p2793
sa(dp2794
g7
S'b8'
p2795
sa(dp2796
g7
S'c1'
p2797
sa(dp2798
g5
S'white_pawn'
p2799
sg7
S'c2'
p2800
sa(dp2801
g7
S'c3'
p2802
sa(dp2803
g7
S'c4'
p2804
sa(dp2805
g7
S'c5'
p2806
sa(dp2807
g5
S'black_pawn'
p2808
sg7
S'c6'
p2809
sa(dp2810
g7
S'c7'
p2811
sa(dp2812
g7
S'c8'
p2813
sa(dp2814
g7
S'd1'
p2815
sa(dp2816
g5
S'white_bishop'
p2817
sg7
S'd2'
p2818
sa(dp2819
g5
S'white_queen'
p2820
sg7
S'd3'
p2821
sa(dp2822
g5
S'white_pawn'
p2823
sg7
S'd4'
p2824
sa(dp2825
g5
S'black_knight'
p2826
sg7
S'd5'
p2827
sa(dp2828
g7
S'd6'
p2829
sa(dp2830
g5
S'black_knight'
p2831
sg7
S'd7'
p2832
sa(dp2833
g5
S'black_queen'
p2834
sg7
S'd8'
p2835
sa(dp2836
g5
S'white_king'
p2837
sg7
S'e1'
p2838
sa(dp2839
g7
S'e2'
p2840
sa(dp2841
g7
S'e3'
p2842
sa(dp2843
g7
S'e4'
p2844
sa(dp2845
g7
S'e5'
p2846
sa(dp2847
g7
S'e6'
p2848
sa(dp2849
g5
S'black_pawn'
p2850
sg7
S'e7'
p2851
sa(dp2852
g5
S'black_king'
p2853
sg7
S'e8'
p2854
sa(dp2855
g7
S'f1'
p2856
sa(dp2857
g5
S'white_pawn'
p2858
sg7
S'f2'
p2859
sa(dp2860
g5
S'white_knight'
p2861
sg7
S'f3'
p2862
sa(dp2863
g7
S'f4'
p2864
sa(dp2865
g7
S'f5'
p2866
sa(dp2867
g7
S'f6'
p2868
sa(dp2869
g5
S'black_pawn'
p2870
sg7
S'f7'
p2871
sa(dp2872
g5
S'black_bishop'
p2873
sg7
S'f8'
p2874
sa(dp2875
g7
S'g1'
p2876
sa(dp2877
g5
S'white_pawn'
p2878
sg7
S'g2'
p2879
sa(dp2880
g5
S'white_knight'
p2881
sg7
S'g3'
p2882
sa(dp2883
g7
S'g4'
p2884
sa(dp2885
g7
S'g5'
p2886
sa(dp2887
g7
S'g6'
p2888
sa(dp2889
g5
S'black_pawn'
p2890
sg7
S'g7'
p2891
sa(dp2892
g7
S'g8'
p2893
sa(dp2894
g5
S'white_rook'
p2895
sg7
S'h1'
p2896
sa(dp2897
g7
S'h2'
p2898
sa(dp2899
g7
S'h3'
p2900
sa(dp2901
g7
S'h4'
p2902
sa(dp2903
g5
S'white_pawn'
p2904
sg7
S'h5'
p2905
sa(dp2906
g5
S'black_pawn'
p2907
sg7
S'h6'
p2908
sa(dp2909
g7
S'h7'
p2910
sa(dp2911
g5
S'black_rook'
p2912
sg7
S'h8'
p2913
saaV...White keeps the bishop on the board.  The insignificant loss of time will be recovered.... eventually.
p2914
aa(lp2915
S'12... Nd7f6'
p2916
a(lp2917
(dp2918
g5
S'white_rook'
p2919
sg7
S'a1'
p2920
sa(dp2921
g5
S'white_pawn'
p2922
sg7
S'a2'
p2923
sa(dp2924
g7
S'a3'
p2925
sa(dp2926
g7
S'a4'
p2927
sa(dp2928
g7
S'a5'
p2929
sa(dp2930
g7
S'a6'
p2931
sa(dp2932
g5
S'black_pawn'
p2933
sg7
S'a7'
p2934
sa(dp2935
g5
S'black_rook'
p2936
sg7
S'a8'
p2937
sa(dp2938
g7
S'b1'
p2939
sa(dp2940
g5
S'white_pawn'
p2941
sg7
S'b2'
p2942
sa(dp2943
g7
S'b3'
p2944
sa(dp2945
g7
S'b4'
p2946
sa(dp2947
g7
S'b5'
p2948
sa(dp2949
g7
S'b6'
p2950
sa(dp2951
g5
S'black_pawn'
p2952
sg7
S'b7'
p2953
sa(dp2954
g7
S'b8'
p2955
sa(dp2956
g7
S'c1'
p2957
sa(dp2958
g5
S'white_pawn'
p2959
sg7
S'c2'
p2960
sa(dp2961
g7
S'c3'
p2962
sa(dp2963
g7
S'c4'
p2964
sa(dp2965
g7
S'c5'
p2966
sa(dp2967
g5
S'black_pawn'
p2968
sg7
S'c6'
p2969
sa(dp2970
g7
S'c7'
p2971
sa(dp2972
g7
S'c8'
p2973
sa(dp2974
g7
S'd1'
p2975
sa(dp2976
g5
S'white_bishop'
p2977
sg7
S'd2'
p2978
sa(dp2979
g5
S'white_queen'
p2980
sg7
S'd3'
p2981
sa(dp2982
g5
S'white_pawn'
p2983
sg7
S'd4'
p2984
sa(dp2985
g5
S'black_knight'
p2986
sg7
S'd5'
p2987
sa(dp2988
g7
S'd6'
p2989
sa(dp2990
g7
S'd7'
p2991
sa(dp2992
g5
S'black_queen'
p2993
sg7
S'd8'
p2994
sa(dp2995
g5
S'white_king'
p2996
sg7
S'e1'
p2997
sa(dp2998
g7
S'e2'
p2999
sa(dp3000
g7
S'e3'
p3001
sa(dp3002
g7
S'e4'
p3003
sa(dp3004
g7
S'e5'
p3005
sa(dp3006
g7
S'e6'
p3007
sa(dp3008
g5
S'black_pawn'
p3009
sg7
S'e7'
p3010
sa(dp3011
g5
S'black_king'
p3012
sg7
S'e8'
p3013
sa(dp3014
g7
S'f1'
p3015
sa(dp3016
g5
S'white_pawn'
p3017
sg7
S'f2'
p3018
sa(dp3019
g5
S'white_knight'
p3020
sg7
S'f3'
p3021
sa(dp3022
g7
S'f4'
p3023
sa(dp3024
g7
S'f5'
p3025
sa(dp3026
g5
S'black_knight'
p3027
sg7
S'f6'
p3028
sa(dp3029
g5
S'black_pawn'
p3030
sg7
S'f7'
p3031
sa(dp3032
g5
S'black_bishop'
p3033
sg7
S'f8'
p3034
sa(dp3035
g7
S'g1'
p3036
sa(dp3037
g5
S'white_pawn'
p3038
sg7
S'g2'
p3039
sa(dp3040
g5
S'white_knight'
p3041
sg7
S'g3'
p3042
sa(dp3043
g7
S'g4'
p3044
sa(dp3045
g7
S'g5'
p3046
sa(dp3047
g7
S'g6'
p3048
sa(dp3049
g5
S'black_pawn'
p3050
sg7
S'g7'
p3051
sa(dp3052
g7
S'g8'
p3053
sa(dp3054
g5
S'white_rook'
p3055
sg7
S'h1'
p3056
sa(dp3057
g7
S'h2'
p3058
sa(dp3059
g7
S'h3'
p3060
sa(dp3061
g7
S'h4'
p3062
sa(dp3063
g5
S'white_pawn'
p3064
sg7
S'h5'
p3065
sa(dp3066
g5
S'black_pawn'
p3067
sg7
S'h6'
p3068
sa(dp3069
g7
S'h7'
p3070
sa(dp3071
g5
S'black_rook'
p3072
sg7
S'h8'
p3073
saaVPossibly a risky development in the light of the exposure of the other knight to attack.  More circumspect seems 12...e6.
p3074
aa(lp3075
S'13. O-O-O'
p3076
a(lp3077
(dp3078
g7
S'a1'
p3079
sa(dp3080
g5
S'white_pawn'
p3081
sg7
S'a2'
p3082
sa(dp3083
g7
S'a3'
p3084
sa(dp3085
g7
S'a4'
p3086
sa(dp3087
g7
S'a5'
p3088
sa(dp3089
g7
S'a6'
p3090
sa(dp3091
g5
S'black_pawn'
p3092
sg7
S'a7'
p3093
sa(dp3094
g5
S'black_rook'
p3095
sg7
S'a8'
p3096
sa(dp3097
g7
S'b1'
p3098
sa(dp3099
g5
S'white_pawn'
p3100
sg7
S'b2'
p3101
sa(dp3102
g7
S'b3'
p3103
sa(dp3104
g7
S'b4'
p3105
sa(dp3106
g7
S'b5'
p3107
sa(dp3108
g7
S'b6'
p3109
sa(dp3110
g5
S'black_pawn'
p3111
sg7
S'b7'
p3112
sa(dp3113
g7
S'b8'
p3114
sa(dp3115
g5
S'white_king'
p3116
sg7
S'c1'
p3117
sa(dp3118
g5
S'white_pawn'
p3119
sg7
S'c2'
p3120
sa(dp3121
g7
S'c3'
p3122
sa(dp3123
g7
S'c4'
p3124
sa(dp3125
g7
S'c5'
p3126
sa(dp3127
g5
S'black_pawn'
p3128
sg7
S'c6'
p3129
sa(dp3130
g7
S'c7'
p3131
sa(dp3132
g7
S'c8'
p3133
sa(dp3134
g5
S'white_rook'
p3135
sg7
S'd1'
p3136
sa(dp3137
g5
S'white_bishop'
p3138
sg7
S'd2'
p3139
sa(dp3140
g5
S'white_queen'
p3141
sg7
S'd3'
p3142
sa(dp3143
g5
S'white_pawn'
p3144
sg7
S'd4'
p3145
sa(dp3146
g5
S'black_knight'
p3147
sg7
S'd5'
p3148
sa(dp3149
g7
S'd6'
p3150
sa(dp3151
g7
S'd7'
p3152
sa(dp3153
g5
S'black_queen'
p3154
sg7
S'd8'
p3155
sa(dp3156
g7
S'e1'
p3157
sa(dp3158
g7
S'e2'
p3159
sa(dp3160
g7
S'e3'
p3161
sa(dp3162
g7
S'e4'
p3163
sa(dp3164
g7
S'e5'
p3165
sa(dp3166
g7
S'e6'
p3167
sa(dp3168
g5
S'black_pawn'
p3169
sg7
S'e7'
p3170
sa(dp3171
g5
S'black_king'
p3172
sg7
S'e8'
p3173
sa(dp3174
g7
S'f1'
p3175
sa(dp3176
g5
S'white_pawn'
p3177
sg7
S'f2'
p3178
sa(dp3179
g5
S'white_knight'
p3180
sg7
S'f3'
p3181
sa(dp3182
g7
S'f4'
p3183
sa(dp3184
g7
S'f5'
p3185
sa(dp3186
g5
S'black_knight'
p3187
sg7
S'f6'
p3188
sa(dp3189
g5
S'black_pawn'
p3190
sg7
S'f7'
p3191
sa(dp3192
g5
S'black_bishop'
p3193
sg7
S'f8'
p3194
sa(dp3195
g7
S'g1'
p3196
sa(dp3197
g5
S'white_pawn'
p3198
sg7
S'g2'
p3199
sa(dp3200
g5
S'white_knight'
p3201
sg7
S'g3'
p3202
sa(dp3203
g7
S'g4'
p3204
sa(dp3205
g7
S'g5'
p3206
sa(dp3207
g7
S'g6'
p3208
sa(dp3209
g5
S'black_pawn'
p3210
sg7
S'g7'
p3211
sa(dp3212
g7
S'g8'
p3213
sa(dp3214
g5
S'white_rook'
p3215
sg7
S'h1'
p3216
sa(dp3217
g7
S'h2'
p3218
sa(dp3219
g7
S'h3'
p3220
sa(dp3221
g7
S'h4'
p3222
sa(dp3223
g5
S'white_pawn'
p3224
sg7
S'h5'
p3225
sa(dp3226
g5
S'black_pawn'
p3227
sg7
S'h6'
p3228
sa(dp3229
g7
S'h7'
p3230
sa(dp3231
g5
S'black_rook'
p3232
sg7
S'h8'
p3233
saaVThis seems logical enough: place the king onto safety, and bring a rook onto a central file, leaving the other - the e-file - for the other rook.  But I feel sure I would have played 13.c4, here, and after 13...Nb6, castled long with the prospect of opening up the d-file for the activated rook.  The move order can not be reversed...
p3234
aa.