(lp0
(lp1
S'14... Rd8'
p2
a(lp3
(dp4
S'location'
p5
S'a1'
p6
sa(dp7
g5
S'a2'
p8
sa(dp9
S'piece'
p10
S'white_pawn'
p11
sg5
S'a3'
p12
sa(dp13
g5
S'a4'
p14
sa(dp15
g5
S'a5'
p16
sa(dp17
g5
S'a6'
p18
sa(dp19
g10
S'black_pawn'
p20
sg5
S'a7'
p21
sa(dp22
g10
S'black_rook'
p23
sg5
S'a8'
p24
sa(dp25
g10
S'white_rook'
p26
sg5
S'b1'
p27
sa(dp28
g5
S'b2'
p29
sa(dp30
g5
S'b3'
p31
sa(dp32
g10
S'white_pawn'
p33
sg5
S'b4'
p34
sa(dp35
g5
S'b5'
p36
sa(dp37
g5
S'b6'
p38
sa(dp39
g10
S'black_pawn'
p40
sg5
S'b7'
p41
sa(dp42
g5
S'b8'
p43
sa(dp44
g5
S'c1'
p45
sa(dp46
g10
S'white_queen'
p47
sg5
S'c2'
p48
sa(dp49
g5
S'c3'
p50
sa(dp51
g5
S'c4'
p52
sa(dp53
g10
S'white_pawn'
p54
sg5
S'c5'
p55
sa(dp56
g10
S'black_knight'
p57
sg5
S'c6'
p58
sa(dp59
g10
S'black_pawn'
p60
sg5
S'c7'
p61
sa(dp62
g10
S'black_bishop'
p63
sg5
S'c8'
p64
sa(dp65
g5
S'd1'
p66
sa(dp67
g10
S'white_knight'
p68
sg5
S'd2'
p69
sa(dp70
g10
S'white_bishop'
p71
sg5
S'd3'
p72
sa(dp73
g10
S'white_pawn'
p74
sg5
S'd4'
p75
sa(dp76
g10
S'black_pawn'
p77
sg5
S'd5'
p78
sa(dp79
g5
S'd6'
p80
sa(dp81
g10
S'black_knight'
p82
sg5
S'd7'
p83
sa(dp84
g10
S'black_rook'
p85
sg5
S'd8'
p86
sa(dp87
g10
S'white_king'
p88
sg5
S'e1'
p89
sa(dp90
g5
S'e2'
p91
sa(dp92
g5
S'e3'
p93
sa(dp94
g5
S'e4'
p95
sa(dp96
g10
S'white_pawn'
p97
sg5
S'e5'
p98
sa(dp99
g10
S'black_pawn'
p100
sg5
S'e6'
p101
sa(dp102
g10
S'black_queen'
p103
sg5
S'e7'
p104
sa(dp105
g5
S'e8'
p106
sa(dp107
g5
S'f1'
p108
sa(dp109
g10
S'white_pawn'
p110
sg5
S'f2'
p111
sa(dp112
g10
S'white_knight'
p113
sg5
S'f3'
p114
sa(dp115
g5
S'f4'
p116
sa(dp117
g5
S'f5'
p118
sa(dp119
g5
S'f6'
p120
sa(dp121
g10
S'black_pawn'
p122
sg5
S'f7'
p123
sa(dp124
g5
S'f8'
p125
sa(dp126
g5
S'g1'
p127
sa(dp128
g10
S'white_pawn'
p129
sg5
S'g2'
p130
sa(dp131
g5
S'g3'
p132
sa(dp133
g5
S'g4'
p134
sa(dp135
g5
S'g5'
p136
sa(dp137
g10
S'black_pawn'
p138
sg5
S'g6'
p139
sa(dp140
g5
S'g7'
p141
sa(dp142
g5
S'g8'
p143
sa(dp144
g10
S'white_rook'
p145
sg5
S'h1'
p146
sa(dp147
g5
S'h2'
p148
sa(dp149
g5
S'h3'
p150
sa(dp151
g10
S'white_pawn'
p152
sg5
S'h4'
p153
sa(dp154
g5
S'h5'
p155
sa(dp156
g5
S'h6'
p157
sa(dp158
g10
S'black_pawn'
p159
sg5
S'h7'
p160
sa(dp161
g10
S'black_king'
p162
sg5
S'h8'
p163
saaVagain, a move that probably only a chess machine would understand: most likely preparing Nf8, but prohibiting Nd8; this was the last call for a6, a4, a5, b5, Nb4, to prevent more trouble...
p164
aa(lp165
S'15. a4'
p166
a(lp167
(dp168
g5
S'a1'
p169
sa(dp170
g5
S'a2'
p171
sa(dp172
g5
S'a3'
p173
sa(dp174
g10
S'white_pawn'
p175
sg5
S'a4'
p176
sa(dp177
g5
S'a5'
p178
sa(dp179
g5
S'a6'
p180
sa(dp181
g10
S'black_pawn'
p182
sg5
S'a7'
p183
sa(dp184
g10
S'black_rook'
p185
sg5
S'a8'
p186
sa(dp187
g10
S'white_rook'
p188
sg5
S'b1'
p189
sa(dp190
g5
S'b2'
p191
sa(dp192
g5
S'b3'
p193
sa(dp194
g10
S'white_pawn'
p195
sg5
S'b4'
p196
sa(dp197
g5
S'b5'
p198
sa(dp199
g5
S'b6'
p200
sa(dp201
g10
S'black_pawn'
p202
sg5
S'b7'
p203
sa(dp204
g5
S'b8'
p205
sa(dp206
g5
S'c1'
p207
sa(dp208
g10
S'white_queen'
p209
sg5
S'c2'
p210
sa(dp211
g5
S'c3'
p212
sa(dp213
g5
S'c4'
p214
sa(dp215
g10
S'white_pawn'
p216
sg5
S'c5'
p217
sa(dp218
g10
S'black_knight'
p219
sg5
S'c6'
p220
sa(dp221
g10
S'black_pawn'
p222
sg5
S'c7'
p223
sa(dp224
g10
S'black_bishop'
p225
sg5
S'c8'
p226
sa(dp227
g5
S'd1'
p228
sa(dp229
g10
S'white_knight'
p230
sg5
S'd2'
p231
sa(dp232
g10
S'white_bishop'
p233
sg5
S'd3'
p234
sa(dp235
g10
S'white_pawn'
p236
sg5
S'd4'
p237
sa(dp238
g10
S'black_pawn'
p239
sg5
S'd5'
p240
sa(dp241
g5
S'd6'
p242
sa(dp243
g10
S'black_knight'
p244
sg5
S'd7'
p245
sa(dp246
g10
S'black_rook'
p247
sg5
S'd8'
p248
sa(dp249
g10
S'white_king'
p250
sg5
S'e1'
p251
sa(dp252
g5
S'e2'
p253
sa(dp254
g5
S'e3'
p255
sa(dp256
g5
S'e4'
p257
sa(dp258
g10
S'white_pawn'
p259
sg5
S'e5'
p260
sa(dp261
g10
S'black_pawn'
p262
sg5
S'e6'
p263
sa(dp264
g10
S'black_queen'
p265
sg5
S'e7'
p266
sa(dp267
g5
S'e8'
p268
sa(dp269
g5
S'f1'
p270
sa(dp271
g10
S'white_pawn'
p272
sg5
S'f2'
p273
sa(dp274
g10
S'white_knight'
p275
sg5
S'f3'
p276
sa(dp277
g5
S'f4'
p278
sa(dp279
g5
S'f5'
p280
sa(dp281
g5
S'f6'
p282
sa(dp283
g10
S'black_pawn'
p284
sg5
S'f7'
p285
sa(dp286
g5
S'f8'
p287
sa(dp288
g5
S'g1'
p289
sa(dp290
g10
S'white_pawn'
p291
sg5
S'g2'
p292
sa(dp293
g5
S'g3'
p294
sa(dp295
g5
S'g4'
p296
sa(dp297
g5
S'g5'
p298
sa(dp299
g10
S'black_pawn'
p300
sg5
S'g6'
p301
sa(dp302
g5
S'g7'
p303
sa(dp304
g5
S'g8'
p305
sa(dp306
g10
S'white_rook'
p307
sg5
S'h1'
p308
sa(dp309
g5
S'h2'
p310
sa(dp311
g5
S'h3'
p312
sa(dp313
g10
S'white_pawn'
p314
sg5
S'h4'
p315
sa(dp316
g5
S'h5'
p317
sa(dp318
g5
S'h6'
p319
sa(dp320
g10
S'black_pawn'
p321
sg5
S'h7'
p322
sa(dp323
g10
S'black_king'
p324
sg5
S'h8'
p325
saaVmade possible by the seemingly insignificant Rb1, a while ago: also here, h5 was very strong; but we wait for the right moment...
p326
aa(lp327
S'15... f5'
p328
a(lp329
(dp330
g5
S'a1'
p331
sa(dp332
g5
S'a2'
p333
sa(dp334
g5
S'a3'
p335
sa(dp336
g10
S'white_pawn'
p337
sg5
S'a4'
p338
sa(dp339
g5
S'a5'
p340
sa(dp341
g5
S'a6'
p342
sa(dp343
g10
S'black_pawn'
p344
sg5
S'a7'
p345
sa(dp346
g10
S'black_rook'
p347
sg5
S'a8'
p348
sa(dp349
g10
S'white_rook'
p350
sg5
S'b1'
p351
sa(dp352
g5
S'b2'
p353
sa(dp354
g5
S'b3'
p355
sa(dp356
g10
S'white_pawn'
p357
sg5
S'b4'
p358
sa(dp359
g5
S'b5'
p360
sa(dp361
g5
S'b6'
p362
sa(dp363
g10
S'black_pawn'
p364
sg5
S'b7'
p365
sa(dp366
g5
S'b8'
p367
sa(dp368
g5
S'c1'
p369
sa(dp370
g10
S'white_queen'
p371
sg5
S'c2'
p372
sa(dp373
g5
S'c3'
p374
sa(dp375
g5
S'c4'
p376
sa(dp377
g10
S'white_pawn'
p378
sg5
S'c5'
p379
sa(dp380
g10
S'black_knight'
p381
sg5
S'c6'
p382
sa(dp383
g10
S'black_pawn'
p384
sg5
S'c7'
p385
sa(dp386
g10
S'black_bishop'
p387
sg5
S'c8'
p388
sa(dp389
g5
S'd1'
p390
sa(dp391
g10
S'white_knight'
p392
sg5
S'd2'
p393
sa(dp394
g10
S'white_bishop'
p395
sg5
S'd3'
p396
sa(dp397
g10
S'white_pawn'
p398
sg5
S'd4'
p399
sa(dp400
g10
S'black_pawn'
p401
sg5
S'd5'
p402
sa(dp403
g5
S'd6'
p404
sa(dp405
g10
S'black_knight'
p406
sg5
S'd7'
p407
sa(dp408
g10
S'black_rook'
p409
sg5
S'd8'
p410
sa(dp411
g10
S'white_king'
p412
sg5
S'e1'
p413
sa(dp414
g5
S'e2'
p415
sa(dp416
g5
S'e3'
p417
sa(dp418
g5
S'e4'
p419
sa(dp420
g10
S'white_pawn'
p421
sg5
S'e5'
p422
sa(dp423
g10
S'black_pawn'
p424
sg5
S'e6'
p425
sa(dp426
g10
S'black_queen'
p427
sg5
S'e7'
p428
sa(dp429
g5
S'e8'
p430
sa(dp431
g5
S'f1'
p432
sa(dp433
g10
S'white_pawn'
p434
sg5
S'f2'
p435
sa(dp436
g10
S'white_knight'
p437
sg5
S'f3'
p438
sa(dp439
g5
S'f4'
p440
sa(dp441
g10
S'black_pawn'
p442
sg5
S'f5'
p443
sa(dp444
g5
S'f6'
p445
sa(dp446
g5
S'f7'
p447
sa(dp448
g5
S'f8'
p449
sa(dp450
g5
S'g1'
p451
sa(dp452
g10
S'white_pawn'
p453
sg5
S'g2'
p454
sa(dp455
g5
S'g3'
p456
sa(dp457
g5
S'g4'
p458
sa(dp459
g5
S'g5'
p460
sa(dp461
g10
S'black_pawn'
p462
sg5
S'g6'
p463
sa(dp464
g5
S'g7'
p465
sa(dp466
g5
S'g8'
p467
sa(dp468
g10
S'white_rook'
p469
sg5
S'h1'
p470
sa(dp471
g5
S'h2'
p472
sa(dp473
g5
S'h3'
p474
sa(dp475
g10
S'white_pawn'
p476
sg5
S'h4'
p477
sa(dp478
g5
S'h5'
p479
sa(dp480
g5
S'h6'
p481
sa(dp482
g10
S'black_pawn'
p483
sg5
S'h7'
p484
sa(dp485
g10
S'black_king'
p486
sg5
S'h8'
p487
saaVhere is the moment: f5 comes too late; after a5, b5, Nb4, Qc3, f6!, h5, g5, Black would have at least had some control; now, White is unleashed...
p488
aa(lp489
S'16. b5 Ncb8'
p490
a(lp491
(dp492
g5
S'a1'
p493
sa(dp494
g5
S'a2'
p495
sa(dp496
g5
S'a3'
p497
sa(dp498
g10
S'white_pawn'
p499
sg5
S'a4'
p500
sa(dp501
g5
S'a5'
p502
sa(dp503
g5
S'a6'
p504
sa(dp505
g10
S'black_pawn'
p506
sg5
S'a7'
p507
sa(dp508
g10
S'black_rook'
p509
sg5
S'a8'
p510
sa(dp511
g10
S'white_rook'
p512
sg5
S'b1'
p513
sa(dp514
g5
S'b2'
p515
sa(dp516
g5
S'b3'
p517
sa(dp518
g5
S'b4'
p519
sa(dp520
g10
S'white_pawn'
p521
sg5
S'b5'
p522
sa(dp523
g5
S'b6'
p524
sa(dp525
g10
S'black_pawn'
p526
sg5
S'b7'
p527
sa(dp528
g10
S'black_knight'
p529
sg5
S'b8'
p530
sa(dp531
g5
S'c1'
p532
sa(dp533
g10
S'white_queen'
p534
sg5
S'c2'
p535
sa(dp536
g5
S'c3'
p537
sa(dp538
g5
S'c4'
p539
sa(dp540
g10
S'white_pawn'
p541
sg5
S'c5'
p542
sa(dp543
g5
S'c6'
p544
sa(dp545
g10
S'black_pawn'
p546
sg5
S'c7'
p547
sa(dp548
g10
S'black_bishop'
p549
sg5
S'c8'
p550
sa(dp551
g5
S'd1'
p552
sa(dp553
g10
S'white_knight'
p554
sg5
S'd2'
p555
sa(dp556
g10
S'white_bishop'
p557
sg5
S'd3'
p558
sa(dp559
g10
S'white_pawn'
p560
sg5
S'd4'
p561
sa(dp562
g10
S'black_pawn'
p563
sg5
S'd5'
p564
sa(dp565
g5
S'd6'
p566
sa(dp567
g10
S'black_knight'
p568
sg5
S'd7'
p569
sa(dp570
g10
S'black_rook'
p571
sg5
S'd8'
p572
sa(dp573
g10
S'white_king'
p574
sg5
S'e1'
p575
sa(dp576
g5
S'e2'
p577
sa(dp578
g5
S'e3'
p579
sa(dp580
g5
S'e4'
p581
sa(dp582
g10
S'white_pawn'
p583
sg5
S'e5'
p584
sa(dp585
g10
S'black_pawn'
p586
sg5
S'e6'
p587
sa(dp588
g10
S'black_queen'
p589
sg5
S'e7'
p590
sa(dp591
g5
S'e8'
p592
sa(dp593
g5
S'f1'
p594
sa(dp595
g10
S'white_pawn'
p596
sg5
S'f2'
p597
sa(dp598
g10
S'white_knight'
p599
sg5
S'f3'
p600
sa(dp601
g5
S'f4'
p602
sa(dp603
g10
S'black_pawn'
p604
sg5
S'f5'
p605
sa(dp606
g5
S'f6'
p607
sa(dp608
g5
S'f7'
p609
sa(dp610
g5
S'f8'
p611
sa(dp612
g5
S'g1'
p613
sa(dp614
g10
S'white_pawn'
p615
sg5
S'g2'
p616
sa(dp617
g5
S'g3'
p618
sa(dp619
g5
S'g4'
p620
sa(dp621
g5
S'g5'
p622
sa(dp623
g10
S'black_pawn'
p624
sg5
S'g6'
p625
sa(dp626
g5
S'g7'
p627
sa(dp628
g5
S'g8'
p629
sa(dp630
g10
S'white_rook'
p631
sg5
S'h1'
p632
sa(dp633
g5
S'h2'
p634
sa(dp635
g5
S'h3'
p636
sa(dp637
g10
S'white_pawn'
p638
sg5
S'h4'
p639
sa(dp640
g5
S'h5'
p641
sa(dp642
g5
S'h6'
p643
sa(dp644
g10
S'black_pawn'
p645
sg5
S'h7'
p646
sa(dp647
g10
S'black_king'
p648
sg5
S'h8'
p649
saaVafter Na5, h5...
p650
aa(lp651
S'17. Rg1'
p652
a(lp653
(dp654
g5
S'a1'
p655
sa(dp656
g5
S'a2'
p657
sa(dp658
g5
S'a3'
p659
sa(dp660
g10
S'white_pawn'
p661
sg5
S'a4'
p662
sa(dp663
g5
S'a5'
p664
sa(dp665
g5
S'a6'
p666
sa(dp667
g10
S'black_pawn'
p668
sg5
S'a7'
p669
sa(dp670
g10
S'black_rook'
p671
sg5
S'a8'
p672
sa(dp673
g10
S'white_rook'
p674
sg5
S'b1'
p675
sa(dp676
g5
S'b2'
p677
sa(dp678
g5
S'b3'
p679
sa(dp680
g5
S'b4'
p681
sa(dp682
g10
S'white_pawn'
p683
sg5
S'b5'
p684
sa(dp685
g5
S'b6'
p686
sa(dp687
g10
S'black_pawn'
p688
sg5
S'b7'
p689
sa(dp690
g10
S'black_knight'
p691
sg5
S'b8'
p692
sa(dp693
g5
S'c1'
p694
sa(dp695
g10
S'white_queen'
p696
sg5
S'c2'
p697
sa(dp698
g5
S'c3'
p699
sa(dp700
g5
S'c4'
p701
sa(dp702
g10
S'white_pawn'
p703
sg5
S'c5'
p704
sa(dp705
g5
S'c6'
p706
sa(dp707
g10
S'black_pawn'
p708
sg5
S'c7'
p709
sa(dp710
g10
S'black_bishop'
p711
sg5
S'c8'
p712
sa(dp713
g5
S'd1'
p714
sa(dp715
g10
S'white_knight'
p716
sg5
S'd2'
p717
sa(dp718
g10
S'white_bishop'
p719
sg5
S'd3'
p720
sa(dp721
g10
S'white_pawn'
p722
sg5
S'd4'
p723
sa(dp724
g10
S'black_pawn'
p725
sg5
S'd5'
p726
sa(dp727
g5
S'd6'
p728
sa(dp729
g10
S'black_knight'
p730
sg5
S'd7'
p731
sa(dp732
g10
S'black_rook'
p733
sg5
S'd8'
p734
sa(dp735
g10
S'white_king'
p736
sg5
S'e1'
p737
sa(dp738
g5
S'e2'
p739
sa(dp740
g5
S'e3'
p741
sa(dp742
g5
S'e4'
p743
sa(dp744
g10
S'white_pawn'
p745
sg5
S'e5'
p746
sa(dp747
g10
S'black_pawn'
p748
sg5
S'e6'
p749
sa(dp750
g10
S'black_queen'
p751
sg5
S'e7'
p752
sa(dp753
g5
S'e8'
p754
sa(dp755
g5
S'f1'
p756
sa(dp757
g10
S'white_pawn'
p758
sg5
S'f2'
p759
sa(dp760
g10
S'white_knight'
p761
sg5
S'f3'
p762
sa(dp763
g5
S'f4'
p764
sa(dp765
g10
S'black_pawn'
p766
sg5
S'f5'
p767
sa(dp768
g5
S'f6'
p769
sa(dp770
g5
S'f7'
p771
sa(dp772
g5
S'f8'
p773
sa(dp774
g10
S'white_rook'
p775
sg5
S'g1'
p776
sa(dp777
g10
S'white_pawn'
p778
sg5
S'g2'
p779
sa(dp780
g5
S'g3'
p781
sa(dp782
g5
S'g4'
p783
sa(dp784
g5
S'g5'
p785
sa(dp786
g10
S'black_pawn'
p787
sg5
S'g6'
p788
sa(dp789
g5
S'g7'
p790
sa(dp791
g5
S'g8'
p792
sa(dp793
g5
S'h1'
p794
sa(dp795
g5
S'h2'
p796
sa(dp797
g5
S'h3'
p798
sa(dp799
g10
S'white_pawn'
p800
sg5
S'h4'
p801
sa(dp802
g5
S'h5'
p803
sa(dp804
g5
S'h6'
p805
sa(dp806
g10
S'black_pawn'
p807
sg5
S'h7'
p808
sa(dp809
g10
S'black_king'
p810
sg5
S'h8'
p811
saaVmaybe not the best - which is of course h5 -  but since Black is in an awkward position already - with virtually no pieces developed - we can easily prepare g4 to crack open all defenses...
p812
aa(lp813
S'17... f4'
p814
a(lp815
(dp816
g5
S'a1'
p817
sa(dp818
g5
S'a2'
p819
sa(dp820
g5
S'a3'
p821
sa(dp822
g10
S'white_pawn'
p823
sg5
S'a4'
p824
sa(dp825
g5
S'a5'
p826
sa(dp827
g5
S'a6'
p828
sa(dp829
g10
S'black_pawn'
p830
sg5
S'a7'
p831
sa(dp832
g10
S'black_rook'
p833
sg5
S'a8'
p834
sa(dp835
g10
S'white_rook'
p836
sg5
S'b1'
p837
sa(dp838
g5
S'b2'
p839
sa(dp840
g5
S'b3'
p841
sa(dp842
g5
S'b4'
p843
sa(dp844
g10
S'white_pawn'
p845
sg5
S'b5'
p846
sa(dp847
g5
S'b6'
p848
sa(dp849
g10
S'black_pawn'
p850
sg5
S'b7'
p851
sa(dp852
g10
S'black_knight'
p853
sg5
S'b8'
p854
sa(dp855
g5
S'c1'
p856
sa(dp857
g10
S'white_queen'
p858
sg5
S'c2'
p859
sa(dp860
g5
S'c3'
p861
sa(dp862
g5
S'c4'
p863
sa(dp864
g10
S'white_pawn'
p865
sg5
S'c5'
p866
sa(dp867
g5
S'c6'
p868
sa(dp869
g10
S'black_pawn'
p870
sg5
S'c7'
p871
sa(dp872
g10
S'black_bishop'
p873
sg5
S'c8'
p874
sa(dp875
g5
S'd1'
p876
sa(dp877
g10
S'white_knight'
p878
sg5
S'd2'
p879
sa(dp880
g10
S'white_bishop'
p881
sg5
S'd3'
p882
sa(dp883
g10
S'white_pawn'
p884
sg5
S'd4'
p885
sa(dp886
g10
S'black_pawn'
p887
sg5
S'd5'
p888
sa(dp889
g5
S'd6'
p890
sa(dp891
g10
S'black_knight'
p892
sg5
S'd7'
p893
sa(dp894
g10
S'black_rook'
p895
sg5
S'd8'
p896
sa(dp897
g10
S'white_king'
p898
sg5
S'e1'
p899
sa(dp900
g5
S'e2'
p901
sa(dp902
g5
S'e3'
p903
sa(dp904
g5
S'e4'
p905
sa(dp906
g10
S'white_pawn'
p907
sg5
S'e5'
p908
sa(dp909
g10
S'black_pawn'
p910
sg5
S'e6'
p911
sa(dp912
g10
S'black_queen'
p913
sg5
S'e7'
p914
sa(dp915
g5
S'e8'
p916
sa(dp917
g5
S'f1'
p918
sa(dp919
g10
S'white_pawn'
p920
sg5
S'f2'
p921
sa(dp922
g10
S'white_knight'
p923
sg5
S'f3'
p924
sa(dp925
g10
S'black_pawn'
p926
sg5
S'f4'
p927
sa(dp928
g5
S'f5'
p929
sa(dp930
g5
S'f6'
p931
sa(dp932
g5
S'f7'
p933
sa(dp934
g5
S'f8'
p935
sa(dp936
g10
S'white_rook'
p937
sg5
S'g1'
p938
sa(dp939
g10
S'white_pawn'
p940
sg5
S'g2'
p941
sa(dp942
g5
S'g3'
p943
sa(dp944
g5
S'g4'
p945
sa(dp946
g5
S'g5'
p947
sa(dp948
g10
S'black_pawn'
p949
sg5
S'g6'
p950
sa(dp951
g5
S'g7'
p952
sa(dp953
g5
S'g8'
p954
sa(dp955
g5
S'h1'
p956
sa(dp957
g5
S'h2'
p958
sa(dp959
g5
S'h3'
p960
sa(dp961
g10
S'white_pawn'
p962
sg5
S'h4'
p963
sa(dp964
g5
S'h5'
p965
sa(dp966
g5
S'h6'
p967
sa(dp968
g10
S'black_pawn'
p969
sg5
S'h7'
p970
sa(dp971
g10
S'black_king'
p972
sg5
S'h8'
p973
saaVnot the best way to prevent g4; best here was probably a6, Kf1 (the White King has to leave the bottom row at some point, after g4, fxg3, Rxg3, and Kg2), Rg8...
p974
aa(lp975
S'18. g4 a5'
p976
a(lp977
(dp978
g5
S'a1'
p979
sa(dp980
g5
S'a2'
p981
sa(dp982
g5
S'a3'
p983
sa(dp984
g10
S'white_pawn'
p985
sg5
S'a4'
p986
sa(dp987
g10
S'black_pawn'
p988
sg5
S'a5'
p989
sa(dp990
g5
S'a6'
p991
sa(dp992
g5
S'a7'
p993
sa(dp994
g10
S'black_rook'
p995
sg5
S'a8'
p996
sa(dp997
g10
S'white_rook'
p998
sg5
S'b1'
p999
sa(dp1000
g5
S'b2'
p1001
sa(dp1002
g5
S'b3'
p1003
sa(dp1004
g5
S'b4'
p1005
sa(dp1006
g10
S'white_pawn'
p1007
sg5
S'b5'
p1008
sa(dp1009
g5
S'b6'
p1010
sa(dp1011
g10
S'black_pawn'
p1012
sg5
S'b7'
p1013
sa(dp1014
g10
S'black_knight'
p1015
sg5
S'b8'
p1016
sa(dp1017
g5
S'c1'
p1018
sa(dp1019
g10
S'white_queen'
p1020
sg5
S'c2'
p1021
sa(dp1022
g5
S'c3'
p1023
sa(dp1024
g5
S'c4'
p1025
sa(dp1026
g10
S'white_pawn'
p1027
sg5
S'c5'
p1028
sa(dp1029
g5
S'c6'
p1030
sa(dp1031
g10
S'black_pawn'
p1032
sg5
S'c7'
p1033
sa(dp1034
g10
S'black_bishop'
p1035
sg5
S'c8'
p1036
sa(dp1037
g5
S'd1'
p1038
sa(dp1039
g10
S'white_knight'
p1040
sg5
S'd2'
p1041
sa(dp1042
g10
S'white_bishop'
p1043
sg5
S'd3'
p1044
sa(dp1045
g10
S'white_pawn'
p1046
sg5
S'd4'
p1047
sa(dp1048
g10
S'black_pawn'
p1049
sg5
S'd5'
p1050
sa(dp1051
g5
S'd6'
p1052
sa(dp1053
g10
S'black_knight'
p1054
sg5
S'd7'
p1055
sa(dp1056
g10
S'black_rook'
p1057
sg5
S'd8'
p1058
sa(dp1059
g10
S'white_king'
p1060
sg5
S'e1'
p1061
sa(dp1062
g5
S'e2'
p1063
sa(dp1064
g5
S'e3'
p1065
sa(dp1066
g5
S'e4'
p1067
sa(dp1068
g10
S'white_pawn'
p1069
sg5
S'e5'
p1070
sa(dp1071
g10
S'black_pawn'
p1072
sg5
S'e6'
p1073
sa(dp1074
g10
S'black_queen'
p1075
sg5
S'e7'
p1076
sa(dp1077
g5
S'e8'
p1078
sa(dp1079
g5
S'f1'
p1080
sa(dp1081
g10
S'white_pawn'
p1082
sg5
S'f2'
p1083
sa(dp1084
g10
S'white_knight'
p1085
sg5
S'f3'
p1086
sa(dp1087
g10
S'black_pawn'
p1088
sg5
S'f4'
p1089
sa(dp1090
g5
S'f5'
p1091
sa(dp1092
g5
S'f6'
p1093
sa(dp1094
g5
S'f7'
p1095
sa(dp1096
g5
S'f8'
p1097
sa(dp1098
g10
S'white_rook'
p1099
sg5
S'g1'
p1100
sa(dp1101
g5
S'g2'
p1102
sa(dp1103
g5
S'g3'
p1104
sa(dp1105
g10
S'white_pawn'
p1106
sg5
S'g4'
p1107
sa(dp1108
g5
S'g5'
p1109
sa(dp1110
g10
S'black_pawn'
p1111
sg5
S'g6'
p1112
sa(dp1113
g5
S'g7'
p1114
sa(dp1115
g5
S'g8'
p1116
sa(dp1117
g5
S'h1'
p1118
sa(dp1119
g5
S'h2'
p1120
sa(dp1121
g5
S'h3'
p1122
sa(dp1123
g10
S'white_pawn'
p1124
sg5
S'h4'
p1125
sa(dp1126
g5
S'h5'
p1127
sa(dp1128
g5
S'h6'
p1129
sa(dp1130
g10
S'black_pawn'
p1131
sg5
S'h7'
p1132
sa(dp1133
g10
S'black_king'
p1134
sg5
S'h8'
p1135
saaVafter fxg3, Rxg3, Rg8, Ng5, the plot thickens...
p1136
aa(lp1137
S'19. Ng5'
p1138
a(lp1139
(dp1140
g5
S'a1'
p1141
sa(dp1142
g5
S'a2'
p1143
sa(dp1144
g5
S'a3'
p1145
sa(dp1146
g10
S'white_pawn'
p1147
sg5
S'a4'
p1148
sa(dp1149
g10
S'black_pawn'
p1150
sg5
S'a5'
p1151
sa(dp1152
g5
S'a6'
p1153
sa(dp1154
g5
S'a7'
p1155
sa(dp1156
g10
S'black_rook'
p1157
sg5
S'a8'
p1158
sa(dp1159
g10
S'white_rook'
p1160
sg5
S'b1'
p1161
sa(dp1162
g5
S'b2'
p1163
sa(dp1164
g5
S'b3'
p1165
sa(dp1166
g5
S'b4'
p1167
sa(dp1168
g10
S'white_pawn'
p1169
sg5
S'b5'
p1170
sa(dp1171
g5
S'b6'
p1172
sa(dp1173
g10
S'black_pawn'
p1174
sg5
S'b7'
p1175
sa(dp1176
g10
S'black_knight'
p1177
sg5
S'b8'
p1178
sa(dp1179
g5
S'c1'
p1180
sa(dp1181
g10
S'white_queen'
p1182
sg5
S'c2'
p1183
sa(dp1184
g5
S'c3'
p1185
sa(dp1186
g5
S'c4'
p1187
sa(dp1188
g10
S'white_pawn'
p1189
sg5
S'c5'
p1190
sa(dp1191
g5
S'c6'
p1192
sa(dp1193
g10
S'black_pawn'
p1194
sg5
S'c7'
p1195
sa(dp1196
g10
S'black_bishop'
p1197
sg5
S'c8'
p1198
sa(dp1199
g5
S'd1'
p1200
sa(dp1201
g10
S'white_knight'
p1202
sg5
S'd2'
p1203
sa(dp1204
g10
S'white_bishop'
p1205
sg5
S'd3'
p1206
sa(dp1207
g10
S'white_pawn'
p1208
sg5
S'd4'
p1209
sa(dp1210
g10
S'black_pawn'
p1211
sg5
S'd5'
p1212
sa(dp1213
g5
S'd6'
p1214
sa(dp1215
g10
S'black_knight'
p1216
sg5
S'd7'
p1217
sa(dp1218
g10
S'black_rook'
p1219
sg5
S'd8'
p1220
sa(dp1221
g10
S'white_king'
p1222
sg5
S'e1'
p1223
sa(dp1224
g5
S'e2'
p1225
sa(dp1226
g5
S'e3'
p1227
sa(dp1228
g5
S'e4'
p1229
sa(dp1230
g10
S'white_pawn'
p1231
sg5
S'e5'
p1232
sa(dp1233
g10
S'black_pawn'
p1234
sg5
S'e6'
p1235
sa(dp1236
g10
S'black_queen'
p1237
sg5
S'e7'
p1238
sa(dp1239
g5
S'e8'
p1240
sa(dp1241
g5
S'f1'
p1242
sa(dp1243
g10
S'white_pawn'
p1244
sg5
S'f2'
p1245
sa(dp1246
g5
S'f3'
p1247
sa(dp1248
g10
S'black_pawn'
p1249
sg5
S'f4'
p1250
sa(dp1251
g5
S'f5'
p1252
sa(dp1253
g5
S'f6'
p1254
sa(dp1255
g5
S'f7'
p1256
sa(dp1257
g5
S'f8'
p1258
sa(dp1259
g10
S'white_rook'
p1260
sg5
S'g1'
p1261
sa(dp1262
g5
S'g2'
p1263
sa(dp1264
g5
S'g3'
p1265
sa(dp1266
g10
S'white_pawn'
p1267
sg5
S'g4'
p1268
sa(dp1269
g10
S'white_knight'
p1270
sg5
S'g5'
p1271
sa(dp1272
g10
S'black_pawn'
p1273
sg5
S'g6'
p1274
sa(dp1275
g5
S'g7'
p1276
sa(dp1277
g5
S'g8'
p1278
sa(dp1279
g5
S'h1'
p1280
sa(dp1281
g5
S'h2'
p1282
sa(dp1283
g5
S'h3'
p1284
sa(dp1285
g10
S'white_pawn'
p1286
sg5
S'h4'
p1287
sa(dp1288
g5
S'h5'
p1289
sa(dp1290
g5
S'h6'
p1291
sa(dp1292
g10
S'black_pawn'
p1293
sg5
S'h7'
p1294
sa(dp1295
g10
S'black_king'
p1296
sg5
S'h8'
p1297
saaValso here, a direct h5 spells a lot of trouble for Black; but we have time on our side, and Ndf3 looks pretty lethal...
p1298
aa(lp1299
S'19... b6'
p1300
a(lp1301
(dp1302
g5
S'a1'
p1303
sa(dp1304
g5
S'a2'
p1305
sa(dp1306
g5
S'a3'
p1307
sa(dp1308
g10
S'white_pawn'
p1309
sg5
S'a4'
p1310
sa(dp1311
g10
S'black_pawn'
p1312
sg5
S'a5'
p1313
sa(dp1314
g5
S'a6'
p1315
sa(dp1316
g5
S'a7'
p1317
sa(dp1318
g10
S'black_rook'
p1319
sg5
S'a8'
p1320
sa(dp1321
g10
S'white_rook'
p1322
sg5
S'b1'
p1323
sa(dp1324
g5
S'b2'
p1325
sa(dp1326
g5
S'b3'
p1327
sa(dp1328
g5
S'b4'
p1329
sa(dp1330
g10
S'white_pawn'
p1331
sg5
S'b5'
p1332
sa(dp1333
g10
S'black_pawn'
p1334
sg5
S'b6'
p1335
sa(dp1336
g5
S'b7'
p1337
sa(dp1338
g10
S'black_knight'
p1339
sg5
S'b8'
p1340
sa(dp1341
g5
S'c1'
p1342
sa(dp1343
g10
S'white_queen'
p1344
sg5
S'c2'
p1345
sa(dp1346
g5
S'c3'
p1347
sa(dp1348
g5
S'c4'
p1349
sa(dp1350
g10
S'white_pawn'
p1351
sg5
S'c5'
p1352
sa(dp1353
g5
S'c6'
p1354
sa(dp1355
g10
S'black_pawn'
p1356
sg5
S'c7'
p1357
sa(dp1358
g10
S'black_bishop'
p1359
sg5
S'c8'
p1360
sa(dp1361
g5
S'd1'
p1362
sa(dp1363
g10
S'white_knight'
p1364
sg5
S'd2'
p1365
sa(dp1366
g10
S'white_bishop'
p1367
sg5
S'd3'
p1368
sa(dp1369
g10
S'white_pawn'
p1370
sg5
S'd4'
p1371
sa(dp1372
g10
S'black_pawn'
p1373
sg5
S'd5'
p1374
sa(dp1375
g5
S'd6'
p1376
sa(dp1377
g10
S'black_knight'
p1378
sg5
S'd7'
p1379
sa(dp1380
g10
S'black_rook'
p1381
sg5
S'd8'
p1382
sa(dp1383
g10
S'white_king'
p1384
sg5
S'e1'
p1385
sa(dp1386
g5
S'e2'
p1387
sa(dp1388
g5
S'e3'
p1389
sa(dp1390
g5
S'e4'
p1391
sa(dp1392
g10
S'white_pawn'
p1393
sg5
S'e5'
p1394
sa(dp1395
g10
S'black_pawn'
p1396
sg5
S'e6'
p1397
sa(dp1398
g10
S'black_queen'
p1399
sg5
S'e7'
p1400
sa(dp1401
g5
S'e8'
p1402
sa(dp1403
g5
S'f1'
p1404
sa(dp1405
g10
S'white_pawn'
p1406
sg5
S'f2'
p1407
sa(dp1408
g5
S'f3'
p1409
sa(dp1410
g10
S'black_pawn'
p1411
sg5
S'f4'
p1412
sa(dp1413
g5
S'f5'
p1414
sa(dp1415
g5
S'f6'
p1416
sa(dp1417
g5
S'f7'
p1418
sa(dp1419
g5
S'f8'
p1420
sa(dp1421
g10
S'white_rook'
p1422
sg5
S'g1'
p1423
sa(dp1424
g5
S'g2'
p1425
sa(dp1426
g5
S'g3'
p1427
sa(dp1428
g10
S'white_pawn'
p1429
sg5
S'g4'
p1430
sa(dp1431
g10
S'white_knight'
p1432
sg5
S'g5'
p1433
sa(dp1434
g10
S'black_pawn'
p1435
sg5
S'g6'
p1436
sa(dp1437
g5
S'g7'
p1438
sa(dp1439
g5
S'g8'
p1440
sa(dp1441
g5
S'h1'
p1442
sa(dp1443
g5
S'h2'
p1444
sa(dp1445
g5
S'h3'
p1446
sa(dp1447
g10
S'white_pawn'
p1448
sg5
S'h4'
p1449
sa(dp1450
g5
S'h5'
p1451
sa(dp1452
g5
S'h6'
p1453
sa(dp1454
g10
S'black_pawn'
p1455
sg5
S'h7'
p1456
sa(dp1457
g10
S'black_king'
p1458
sg5
S'h8'
p1459
saaVKg7, Ndf3, h6, Nh3...
p1460
aa(lp1461
S'20. Ndf3'
p1462
a(lp1463
(dp1464
g5
S'a1'
p1465
sa(dp1466
g5
S'a2'
p1467
sa(dp1468
g5
S'a3'
p1469
sa(dp1470
g10
S'white_pawn'
p1471
sg5
S'a4'
p1472
sa(dp1473
g10
S'black_pawn'
p1474
sg5
S'a5'
p1475
sa(dp1476
g5
S'a6'
p1477
sa(dp1478
g5
S'a7'
p1479
sa(dp1480
g10
S'black_rook'
p1481
sg5
S'a8'
p1482
sa(dp1483
g10
S'white_rook'
p1484
sg5
S'b1'
p1485
sa(dp1486
g5
S'b2'
p1487
sa(dp1488
g5
S'b3'
p1489
sa(dp1490
g5
S'b4'
p1491
sa(dp1492
g10
S'white_pawn'
p1493
sg5
S'b5'
p1494
sa(dp1495
g10
S'black_pawn'
p1496
sg5
S'b6'
p1497
sa(dp1498
g5
S'b7'
p1499
sa(dp1500
g10
S'black_knight'
p1501
sg5
S'b8'
p1502
sa(dp1503
g5
S'c1'
p1504
sa(dp1505
g10
S'white_queen'
p1506
sg5
S'c2'
p1507
sa(dp1508
g5
S'c3'
p1509
sa(dp1510
g5
S'c4'
p1511
sa(dp1512
g10
S'white_pawn'
p1513
sg5
S'c5'
p1514
sa(dp1515
g5
S'c6'
p1516
sa(dp1517
g10
S'black_pawn'
p1518
sg5
S'c7'
p1519
sa(dp1520
g10
S'black_bishop'
p1521
sg5
S'c8'
p1522
sa(dp1523
g5
S'd1'
p1524
sa(dp1525
g5
S'd2'
p1526
sa(dp1527
g10
S'white_bishop'
p1528
sg5
S'd3'
p1529
sa(dp1530
g10
S'white_pawn'
p1531
sg5
S'd4'
p1532
sa(dp1533
g10
S'black_pawn'
p1534
sg5
S'd5'
p1535
sa(dp1536
g5
S'd6'
p1537
sa(dp1538
g10
S'black_knight'
p1539
sg5
S'd7'
p1540
sa(dp1541
g10
S'black_rook'
p1542
sg5
S'd8'
p1543
sa(dp1544
g10
S'white_king'
p1545
sg5
S'e1'
p1546
sa(dp1547
g5
S'e2'
p1548
sa(dp1549
g5
S'e3'
p1550
sa(dp1551
g5
S'e4'
p1552
sa(dp1553
g10
S'white_pawn'
p1554
sg5
S'e5'
p1555
sa(dp1556
g10
S'black_pawn'
p1557
sg5
S'e6'
p1558
sa(dp1559
g10
S'black_queen'
p1560
sg5
S'e7'
p1561
sa(dp1562
g5
S'e8'
p1563
sa(dp1564
g5
S'f1'
p1565
sa(dp1566
g10
S'white_pawn'
p1567
sg5
S'f2'
p1568
sa(dp1569
g10
S'white_knight'
p1570
sg5
S'f3'
p1571
sa(dp1572
g10
S'black_pawn'
p1573
sg5
S'f4'
p1574
sa(dp1575
g5
S'f5'
p1576
sa(dp1577
g5
S'f6'
p1578
sa(dp1579
g5
S'f7'
p1580
sa(dp1581
g5
S'f8'
p1582
sa(dp1583
g10
S'white_rook'
p1584
sg5
S'g1'
p1585
sa(dp1586
g5
S'g2'
p1587
sa(dp1588
g5
S'g3'
p1589
sa(dp1590
g10
S'white_pawn'
p1591
sg5
S'g4'
p1592
sa(dp1593
g10
S'white_knight'
p1594
sg5
S'g5'
p1595
sa(dp1596
g10
S'black_pawn'
p1597
sg5
S'g6'
p1598
sa(dp1599
g5
S'g7'
p1600
sa(dp1601
g5
S'g8'
p1602
sa(dp1603
g5
S'h1'
p1604
sa(dp1605
g5
S'h2'
p1606
sa(dp1607
g5
S'h3'
p1608
sa(dp1609
g10
S'white_pawn'
p1610
sg5
S'h4'
p1611
sa(dp1612
g5
S'h5'
p1613
sa(dp1614
g5
S'h6'
p1615
sa(dp1616
g10
S'black_pawn'
p1617
sg5
S'h7'
p1618
sa(dp1619
g10
S'black_king'
p1620
sg5
S'h8'
p1621
saaVdirectly winning is Bxg6, Rg8 (hxg6, Qxg6 ends all), Nxh7, bxc5, h5!... but I was kept busy by just understanding this machine...
p1622
aa(lp1623
S'20... bxc5 21. h5 cxd4'
p1624
a(lp1625
(dp1626
g5
S'a1'
p1627
sa(dp1628
g5
S'a2'
p1629
sa(dp1630
g5
S'a3'
p1631
sa(dp1632
g10
S'white_pawn'
p1633
sg5
S'a4'
p1634
sa(dp1635
g10
S'black_pawn'
p1636
sg5
S'a5'
p1637
sa(dp1638
g5
S'a6'
p1639
sa(dp1640
g5
S'a7'
p1641
sa(dp1642
g10
S'black_rook'
p1643
sg5
S'a8'
p1644
sa(dp1645
g10
S'white_rook'
p1646
sg5
S'b1'
p1647
sa(dp1648
g5
S'b2'
p1649
sa(dp1650
g5
S'b3'
p1651
sa(dp1652
g5
S'b4'
p1653
sa(dp1654
g10
S'white_pawn'
p1655
sg5
S'b5'
p1656
sa(dp1657
g5
S'b6'
p1658
sa(dp1659
g5
S'b7'
p1660
sa(dp1661
g10
S'black_knight'
p1662
sg5
S'b8'
p1663
sa(dp1664
g5
S'c1'
p1665
sa(dp1666
g10
S'white_queen'
p1667
sg5
S'c2'
p1668
sa(dp1669
g5
S'c3'
p1670
sa(dp1671
g5
S'c4'
p1672
sa(dp1673
g5
S'c5'
p1674
sa(dp1675
g5
S'c6'
p1676
sa(dp1677
g10
S'black_pawn'
p1678
sg5
S'c7'
p1679
sa(dp1680
g10
S'black_bishop'
p1681
sg5
S'c8'
p1682
sa(dp1683
g5
S'd1'
p1684
sa(dp1685
g5
S'd2'
p1686
sa(dp1687
g10
S'white_bishop'
p1688
sg5
S'd3'
p1689
sa(dp1690
g10
S'black_pawn'
p1691
sg5
S'd4'
p1692
sa(dp1693
g10
S'black_pawn'
p1694
sg5
S'd5'
p1695
sa(dp1696
g5
S'd6'
p1697
sa(dp1698
g10
S'black_knight'
p1699
sg5
S'd7'
p1700
sa(dp1701
g10
S'black_rook'
p1702
sg5
S'd8'
p1703
sa(dp1704
g10
S'white_king'
p1705
sg5
S'e1'
p1706
sa(dp1707
g5
S'e2'
p1708
sa(dp1709
g5
S'e3'
p1710
sa(dp1711
g5
S'e4'
p1712
sa(dp1713
g10
S'white_pawn'
p1714
sg5
S'e5'
p1715
sa(dp1716
g10
S'black_pawn'
p1717
sg5
S'e6'
p1718
sa(dp1719
g10
S'black_queen'
p1720
sg5
S'e7'
p1721
sa(dp1722
g5
S'e8'
p1723
sa(dp1724
g5
S'f1'
p1725
sa(dp1726
g10
S'white_pawn'
p1727
sg5
S'f2'
p1728
sa(dp1729
g10
S'white_knight'
p1730
sg5
S'f3'
p1731
sa(dp1732
g10
S'black_pawn'
p1733
sg5
S'f4'
p1734
sa(dp1735
g5
S'f5'
p1736
sa(dp1737
g5
S'f6'
p1738
sa(dp1739
g5
S'f7'
p1740
sa(dp1741
g5
S'f8'
p1742
sa(dp1743
g10
S'white_rook'
p1744
sg5
S'g1'
p1745
sa(dp1746
g5
S'g2'
p1747
sa(dp1748
g5
S'g3'
p1749
sa(dp1750
g10
S'white_pawn'
p1751
sg5
S'g4'
p1752
sa(dp1753
g10
S'white_knight'
p1754
sg5
S'g5'
p1755
sa(dp1756
g10
S'black_pawn'
p1757
sg5
S'g6'
p1758
sa(dp1759
g5
S'g7'
p1760
sa(dp1761
g5
S'g8'
p1762
sa(dp1763
g5
S'h1'
p1764
sa(dp1765
g5
S'h2'
p1766
sa(dp1767
g5
S'h3'
p1768
sa(dp1769
g5
S'h4'
p1770
sa(dp1771
g10
S'white_pawn'
p1772
sg5
S'h5'
p1773
sa(dp1774
g5
S'h6'
p1775
sa(dp1776
g10
S'black_pawn'
p1777
sg5
S'h7'
p1778
sa(dp1779
g10
S'black_king'
p1780
sg5
S'h8'
p1781
saaVthe losing move: after c4, Bxg6, hxg6, Qxg6, Rf8 (to prevent Nf7+), Black might still have something to play for; this ends it rapidly...
p1782
aa(lp1783
S'22. hxg6 hxg6'
p1784
a(lp1785
(dp1786
g5
S'a1'
p1787
sa(dp1788
g5
S'a2'
p1789
sa(dp1790
g5
S'a3'
p1791
sa(dp1792
g10
S'white_pawn'
p1793
sg5
S'a4'
p1794
sa(dp1795
g10
S'black_pawn'
p1796
sg5
S'a5'
p1797
sa(dp1798
g5
S'a6'
p1799
sa(dp1800
g5
S'a7'
p1801
sa(dp1802
g10
S'black_rook'
p1803
sg5
S'a8'
p1804
sa(dp1805
g10
S'white_rook'
p1806
sg5
S'b1'
p1807
sa(dp1808
g5
S'b2'
p1809
sa(dp1810
g5
S'b3'
p1811
sa(dp1812
g5
S'b4'
p1813
sa(dp1814
g10
S'white_pawn'
p1815
sg5
S'b5'
p1816
sa(dp1817
g5
S'b6'
p1818
sa(dp1819
g5
S'b7'
p1820
sa(dp1821
g10
S'black_knight'
p1822
sg5
S'b8'
p1823
sa(dp1824
g5
S'c1'
p1825
sa(dp1826
g10
S'white_queen'
p1827
sg5
S'c2'
p1828
sa(dp1829
g5
S'c3'
p1830
sa(dp1831
g5
S'c4'
p1832
sa(dp1833
g5
S'c5'
p1834
sa(dp1835
g5
S'c6'
p1836
sa(dp1837
g10
S'black_pawn'
p1838
sg5
S'c7'
p1839
sa(dp1840
g10
S'black_bishop'
p1841
sg5
S'c8'
p1842
sa(dp1843
g5
S'd1'
p1844
sa(dp1845
g5
S'd2'
p1846
sa(dp1847
g10
S'white_bishop'
p1848
sg5
S'd3'
p1849
sa(dp1850
g10
S'black_pawn'
p1851
sg5
S'd4'
p1852
sa(dp1853
g10
S'black_pawn'
p1854
sg5
S'd5'
p1855
sa(dp1856
g5
S'd6'
p1857
sa(dp1858
g10
S'black_knight'
p1859
sg5
S'd7'
p1860
sa(dp1861
g10
S'black_rook'
p1862
sg5
S'd8'
p1863
sa(dp1864
g10
S'white_king'
p1865
sg5
S'e1'
p1866
sa(dp1867
g5
S'e2'
p1868
sa(dp1869
g5
S'e3'
p1870
sa(dp1871
g5
S'e4'
p1872
sa(dp1873
g10
S'white_pawn'
p1874
sg5
S'e5'
p1875
sa(dp1876
g10
S'black_pawn'
p1877
sg5
S'e6'
p1878
sa(dp1879
g10
S'black_queen'
p1880
sg5
S'e7'
p1881
sa(dp1882
g5
S'e8'
p1883
sa(dp1884
g5
S'f1'
p1885
sa(dp1886
g10
S'white_pawn'
p1887
sg5
S'f2'
p1888
sa(dp1889
g10
S'white_knight'
p1890
sg5
S'f3'
p1891
sa(dp1892
g10
S'black_pawn'
p1893
sg5
S'f4'
p1894
sa(dp1895
g5
S'f5'
p1896
sa(dp1897
g5
S'f6'
p1898
sa(dp1899
g5
S'f7'
p1900
sa(dp1901
g5
S'f8'
p1902
sa(dp1903
g10
S'white_rook'
p1904
sg5
S'g1'
p1905
sa(dp1906
g5
S'g2'
p1907
sa(dp1908
g5
S'g3'
p1909
sa(dp1910
g10
S'white_pawn'
p1911
sg5
S'g4'
p1912
sa(dp1913
g10
S'white_knight'
p1914
sg5
S'g5'
p1915
sa(dp1916
g10
S'black_pawn'
p1917
sg5
S'g6'
p1918
sa(dp1919
g5
S'g7'
p1920
sa(dp1921
g5
S'g8'
p1922
sa(dp1923
g5
S'h1'
p1924
sa(dp1925
g5
S'h2'
p1926
sa(dp1927
g5
S'h3'
p1928
sa(dp1929
g5
S'h4'
p1930
sa(dp1931
g5
S'h5'
p1932
sa(dp1933
g5
S'h6'
p1934
sa(dp1935
g5
S'h7'
p1936
sa(dp1937
g10
S'black_king'
p1938
sg5
S'h8'
p1939
saaVafter Kg7, Qxc7, threatening Qxd8+!, Qxd8, Nxe6+, recapturing the Queen...
p1940
aa(lp1941
S'23. Rh1+ Kg8'
p1942
a(lp1943
(dp1944
g5
S'a1'
p1945
sa(dp1946
g5
S'a2'
p1947
sa(dp1948
g5
S'a3'
p1949
sa(dp1950
g10
S'white_pawn'
p1951
sg5
S'a4'
p1952
sa(dp1953
g10
S'black_pawn'
p1954
sg5
S'a5'
p1955
sa(dp1956
g5
S'a6'
p1957
sa(dp1958
g5
S'a7'
p1959
sa(dp1960
g10
S'black_rook'
p1961
sg5
S'a8'
p1962
sa(dp1963
g10
S'white_rook'
p1964
sg5
S'b1'
p1965
sa(dp1966
g5
S'b2'
p1967
sa(dp1968
g5
S'b3'
p1969
sa(dp1970
g5
S'b4'
p1971
sa(dp1972
g10
S'white_pawn'
p1973
sg5
S'b5'
p1974
sa(dp1975
g5
S'b6'
p1976
sa(dp1977
g5
S'b7'
p1978
sa(dp1979
g10
S'black_knight'
p1980
sg5
S'b8'
p1981
sa(dp1982
g5
S'c1'
p1983
sa(dp1984
g10
S'white_queen'
p1985
sg5
S'c2'
p1986
sa(dp1987
g5
S'c3'
p1988
sa(dp1989
g5
S'c4'
p1990
sa(dp1991
g5
S'c5'
p1992
sa(dp1993
g5
S'c6'
p1994
sa(dp1995
g10
S'black_pawn'
p1996
sg5
S'c7'
p1997
sa(dp1998
g10
S'black_bishop'
p1999
sg5
S'c8'
p2000
sa(dp2001
g5
S'd1'
p2002
sa(dp2003
g5
S'd2'
p2004
sa(dp2005
g10
S'white_bishop'
p2006
sg5
S'd3'
p2007
sa(dp2008
g10
S'black_pawn'
p2009
sg5
S'd4'
p2010
sa(dp2011
g10
S'black_pawn'
p2012
sg5
S'd5'
p2013
sa(dp2014
g5
S'd6'
p2015
sa(dp2016
g10
S'black_knight'
p2017
sg5
S'd7'
p2018
sa(dp2019
g10
S'black_rook'
p2020
sg5
S'd8'
p2021
sa(dp2022
g10
S'white_king'
p2023
sg5
S'e1'
p2024
sa(dp2025
g5
S'e2'
p2026
sa(dp2027
g5
S'e3'
p2028
sa(dp2029
g5
S'e4'
p2030
sa(dp2031
g10
S'white_pawn'
p2032
sg5
S'e5'
p2033
sa(dp2034
g10
S'black_pawn'
p2035
sg5
S'e6'
p2036
sa(dp2037
g10
S'black_queen'
p2038
sg5
S'e7'
p2039
sa(dp2040
g5
S'e8'
p2041
sa(dp2042
g5
S'f1'
p2043
sa(dp2044
g10
S'white_pawn'
p2045
sg5
S'f2'
p2046
sa(dp2047
g10
S'white_knight'
p2048
sg5
S'f3'
p2049
sa(dp2050
g10
S'black_pawn'
p2051
sg5
S'f4'
p2052
sa(dp2053
g5
S'f5'
p2054
sa(dp2055
g5
S'f6'
p2056
sa(dp2057
g5
S'f7'
p2058
sa(dp2059
g5
S'f8'
p2060
sa(dp2061
g5
S'g1'
p2062
sa(dp2063
g5
S'g2'
p2064
sa(dp2065
g5
S'g3'
p2066
sa(dp2067
g10
S'white_pawn'
p2068
sg5
S'g4'
p2069
sa(dp2070
g10
S'white_knight'
p2071
sg5
S'g5'
p2072
sa(dp2073
g10
S'black_pawn'
p2074
sg5
S'g6'
p2075
sa(dp2076
g5
S'g7'
p2077
sa(dp2078
g10
S'black_king'
p2079
sg5
S'g8'
p2080
sa(dp2081
g10
S'white_rook'
p2082
sg5
S'h1'
p2083
sa(dp2084
g5
S'h2'
p2085
sa(dp2086
g5
S'h3'
p2087
sa(dp2088
g5
S'h4'
p2089
sa(dp2090
g5
S'h5'
p2091
sa(dp2092
g5
S'h6'
p2093
sa(dp2094
g5
S'h7'
p2095
sa(dp2096
g5
S'h8'
p2097
saaVKg7, Rh7+, loses the Queen...
p2098
aa(lp2099
S'24. Rh7'
p2100
a(lp2101
(dp2102
g5
S'a1'
p2103
sa(dp2104
g5
S'a2'
p2105
sa(dp2106
g5
S'a3'
p2107
sa(dp2108
g10
S'white_pawn'
p2109
sg5
S'a4'
p2110
sa(dp2111
g10
S'black_pawn'
p2112
sg5
S'a5'
p2113
sa(dp2114
g5
S'a6'
p2115
sa(dp2116
g5
S'a7'
p2117
sa(dp2118
g10
S'black_rook'
p2119
sg5
S'a8'
p2120
sa(dp2121
g10
S'white_rook'
p2122
sg5
S'b1'
p2123
sa(dp2124
g5
S'b2'
p2125
sa(dp2126
g5
S'b3'
p2127
sa(dp2128
g5
S'b4'
p2129
sa(dp2130
g10
S'white_pawn'
p2131
sg5
S'b5'
p2132
sa(dp2133
g5
S'b6'
p2134
sa(dp2135
g5
S'b7'
p2136
sa(dp2137
g10
S'black_knight'
p2138
sg5
S'b8'
p2139
sa(dp2140
g5
S'c1'
p2141
sa(dp2142
g10
S'white_queen'
p2143
sg5
S'c2'
p2144
sa(dp2145
g5
S'c3'
p2146
sa(dp2147
g5
S'c4'
p2148
sa(dp2149
g5
S'c5'
p2150
sa(dp2151
g5
S'c6'
p2152
sa(dp2153
g10
S'black_pawn'
p2154
sg5
S'c7'
p2155
sa(dp2156
g10
S'black_bishop'
p2157
sg5
S'c8'
p2158
sa(dp2159
g5
S'd1'
p2160
sa(dp2161
g5
S'd2'
p2162
sa(dp2163
g10
S'white_bishop'
p2164
sg5
S'd3'
p2165
sa(dp2166
g10
S'black_pawn'
p2167
sg5
S'd4'
p2168
sa(dp2169
g10
S'black_pawn'
p2170
sg5
S'd5'
p2171
sa(dp2172
g5
S'd6'
p2173
sa(dp2174
g10
S'black_knight'
p2175
sg5
S'd7'
p2176
sa(dp2177
g10
S'black_rook'
p2178
sg5
S'd8'
p2179
sa(dp2180
g10
S'white_king'
p2181
sg5
S'e1'
p2182
sa(dp2183
g5
S'e2'
p2184
sa(dp2185
g5
S'e3'
p2186
sa(dp2187
g5
S'e4'
p2188
sa(dp2189
g10
S'white_pawn'
p2190
sg5
S'e5'
p2191
sa(dp2192
g10
S'black_pawn'
p2193
sg5
S'e6'
p2194
sa(dp2195
g10
S'black_queen'
p2196
sg5
S'e7'
p2197
sa(dp2198
g5
S'e8'
p2199
sa(dp2200
g5
S'f1'
p2201
sa(dp2202
g10
S'white_pawn'
p2203
sg5
S'f2'
p2204
sa(dp2205
g10
S'white_knight'
p2206
sg5
S'f3'
p2207
sa(dp2208
g10
S'black_pawn'
p2209
sg5
S'f4'
p2210
sa(dp2211
g5
S'f5'
p2212
sa(dp2213
g5
S'f6'
p2214
sa(dp2215
g5
S'f7'
p2216
sa(dp2217
g5
S'f8'
p2218
sa(dp2219
g5
S'g1'
p2220
sa(dp2221
g5
S'g2'
p2222
sa(dp2223
g5
S'g3'
p2224
sa(dp2225
g10
S'white_pawn'
p2226
sg5
S'g4'
p2227
sa(dp2228
g10
S'white_knight'
p2229
sg5
S'g5'
p2230
sa(dp2231
g10
S'black_pawn'
p2232
sg5
S'g6'
p2233
sa(dp2234
g5
S'g7'
p2235
sa(dp2236
g10
S'black_king'
p2237
sg5
S'g8'
p2238
sa(dp2239
g5
S'h1'
p2240
sa(dp2241
g5
S'h2'
p2242
sa(dp2243
g5
S'h3'
p2244
sa(dp2245
g5
S'h4'
p2246
sa(dp2247
g5
S'h5'
p2248
sa(dp2249
g5
S'h6'
p2250
sa(dp2251
g10
S'white_rook'
p2252
sg5
S'h7'
p2253
sa(dp2254
g5
S'h8'
p2255
saaValso Bxg6, d3, Qxc7, wins easily...
p2256
aa(lp2257
S'24... Qa3'
p2258
a(lp2259
(dp2260
g5
S'a1'
p2261
sa(dp2262
g5
S'a2'
p2263
sa(dp2264
g10
S'black_queen'
p2265
sg5
S'a3'
p2266
sa(dp2267
g10
S'white_pawn'
p2268
sg5
S'a4'
p2269
sa(dp2270
g10
S'black_pawn'
p2271
sg5
S'a5'
p2272
sa(dp2273
g5
S'a6'
p2274
sa(dp2275
g5
S'a7'
p2276
sa(dp2277
g10
S'black_rook'
p2278
sg5
S'a8'
p2279
sa(dp2280
g10
S'white_rook'
p2281
sg5
S'b1'
p2282
sa(dp2283
g5
S'b2'
p2284
sa(dp2285
g5
S'b3'
p2286
sa(dp2287
g5
S'b4'
p2288
sa(dp2289
g10
S'white_pawn'
p2290
sg5
S'b5'
p2291
sa(dp2292
g5
S'b6'
p2293
sa(dp2294
g5
S'b7'
p2295
sa(dp2296
g10
S'black_knight'
p2297
sg5
S'b8'
p2298
sa(dp2299
g5
S'c1'
p2300
sa(dp2301
g10
S'white_queen'
p2302
sg5
S'c2'
p2303
sa(dp2304
g5
S'c3'
p2305
sa(dp2306
g5
S'c4'
p2307
sa(dp2308
g5
S'c5'
p2309
sa(dp2310
g5
S'c6'
p2311
sa(dp2312
g10
S'black_pawn'
p2313
sg5
S'c7'
p2314
sa(dp2315
g10
S'black_bishop'
p2316
sg5
S'c8'
p2317
sa(dp2318
g5
S'd1'
p2319
sa(dp2320
g5
S'd2'
p2321
sa(dp2322
g10
S'white_bishop'
p2323
sg5
S'd3'
p2324
sa(dp2325
g10
S'black_pawn'
p2326
sg5
S'd4'
p2327
sa(dp2328
g10
S'black_pawn'
p2329
sg5
S'd5'
p2330
sa(dp2331
g5
S'd6'
p2332
sa(dp2333
g10
S'black_knight'
p2334
sg5
S'd7'
p2335
sa(dp2336
g10
S'black_rook'
p2337
sg5
S'd8'
p2338
sa(dp2339
g10
S'white_king'
p2340
sg5
S'e1'
p2341
sa(dp2342
g5
S'e2'
p2343
sa(dp2344
g5
S'e3'
p2345
sa(dp2346
g5
S'e4'
p2347
sa(dp2348
g10
S'white_pawn'
p2349
sg5
S'e5'
p2350
sa(dp2351
g10
S'black_pawn'
p2352
sg5
S'e6'
p2353
sa(dp2354
g5
S'e7'
p2355
sa(dp2356
g5
S'e8'
p2357
sa(dp2358
g5
S'f1'
p2359
sa(dp2360
g10
S'white_pawn'
p2361
sg5
S'f2'
p2362
sa(dp2363
g10
S'white_knight'
p2364
sg5
S'f3'
p2365
sa(dp2366
g10
S'black_pawn'
p2367
sg5
S'f4'
p2368
sa(dp2369
g5
S'f5'
p2370
sa(dp2371
g5
S'f6'
p2372
sa(dp2373
g5
S'f7'
p2374
sa(dp2375
g5
S'f8'
p2376
sa(dp2377
g5
S'g1'
p2378
sa(dp2379
g5
S'g2'
p2380
sa(dp2381
g5
S'g3'
p2382
sa(dp2383
g10
S'white_pawn'
p2384
sg5
S'g4'
p2385
sa(dp2386
g10
S'white_knight'
p2387
sg5
S'g5'
p2388
sa(dp2389
g10
S'black_pawn'
p2390
sg5
S'g6'
p2391
sa(dp2392
g5
S'g7'
p2393
sa(dp2394
g10
S'black_king'
p2395
sg5
S'g8'
p2396
sa(dp2397
g5
S'h1'
p2398
sa(dp2399
g5
S'h2'
p2400
sa(dp2401
g5
S'h3'
p2402
sa(dp2403
g5
S'h4'
p2404
sa(dp2405
g5
S'h5'
p2406
sa(dp2407
g5
S'h6'
p2408
sa(dp2409
g10
S'white_rook'
p2410
sg5
S'h7'
p2411
sa(dp2412
g5
S'h8'
p2413
saaVnot the way, to get out of this; the only realistic try was Qxh7, Nxh7, Kxh7, Ng5+, Kh8, and hope for complications...
p2414
aa(lp2415
S'25. Ke2'
p2416
a(lp2417
(dp2418
g5
S'a1'
p2419
sa(dp2420
g5
S'a2'
p2421
sa(dp2422
g10
S'black_queen'
p2423
sg5
S'a3'
p2424
sa(dp2425
g10
S'white_pawn'
p2426
sg5
S'a4'
p2427
sa(dp2428
g10
S'black_pawn'
p2429
sg5
S'a5'
p2430
sa(dp2431
g5
S'a6'
p2432
sa(dp2433
g5
S'a7'
p2434
sa(dp2435
g10
S'black_rook'
p2436
sg5
S'a8'
p2437
sa(dp2438
g10
S'white_rook'
p2439
sg5
S'b1'
p2440
sa(dp2441
g5
S'b2'
p2442
sa(dp2443
g5
S'b3'
p2444
sa(dp2445
g5
S'b4'
p2446
sa(dp2447
g10
S'white_pawn'
p2448
sg5
S'b5'
p2449
sa(dp2450
g5
S'b6'
p2451
sa(dp2452
g5
S'b7'
p2453
sa(dp2454
g10
S'black_knight'
p2455
sg5
S'b8'
p2456
sa(dp2457
g5
S'c1'
p2458
sa(dp2459
g10
S'white_queen'
p2460
sg5
S'c2'
p2461
sa(dp2462
g5
S'c3'
p2463
sa(dp2464
g5
S'c4'
p2465
sa(dp2466
g5
S'c5'
p2467
sa(dp2468
g5
S'c6'
p2469
sa(dp2470
g10
S'black_pawn'
p2471
sg5
S'c7'
p2472
sa(dp2473
g10
S'black_bishop'
p2474
sg5
S'c8'
p2475
sa(dp2476
g5
S'd1'
p2477
sa(dp2478
g5
S'd2'
p2479
sa(dp2480
g10
S'white_bishop'
p2481
sg5
S'd3'
p2482
sa(dp2483
g10
S'black_pawn'
p2484
sg5
S'd4'
p2485
sa(dp2486
g10
S'black_pawn'
p2487
sg5
S'd5'
p2488
sa(dp2489
g5
S'd6'
p2490
sa(dp2491
g10
S'black_knight'
p2492
sg5
S'd7'
p2493
sa(dp2494
g10
S'black_rook'
p2495
sg5
S'd8'
p2496
sa(dp2497
g5
S'e1'
p2498
sa(dp2499
g10
S'white_king'
p2500
sg5
S'e2'
p2501
sa(dp2502
g5
S'e3'
p2503
sa(dp2504
g5
S'e4'
p2505
sa(dp2506
g10
S'white_pawn'
p2507
sg5
S'e5'
p2508
sa(dp2509
g10
S'black_pawn'
p2510
sg5
S'e6'
p2511
sa(dp2512
g5
S'e7'
p2513
sa(dp2514
g5
S'e8'
p2515
sa(dp2516
g5
S'f1'
p2517
sa(dp2518
g10
S'white_pawn'
p2519
sg5
S'f2'
p2520
sa(dp2521
g10
S'white_knight'
p2522
sg5
S'f3'
p2523
sa(dp2524
g10
S'black_pawn'
p2525
sg5
S'f4'
p2526
sa(dp2527
g5
S'f5'
p2528
sa(dp2529
g5
S'f6'
p2530
sa(dp2531
g5
S'f7'
p2532
sa(dp2533
g5
S'f8'
p2534
sa(dp2535
g5
S'g1'
p2536
sa(dp2537
g5
S'g2'
p2538
sa(dp2539
g5
S'g3'
p2540
sa(dp2541
g10
S'white_pawn'
p2542
sg5
S'g4'
p2543
sa(dp2544
g10
S'white_knight'
p2545
sg5
S'g5'
p2546
sa(dp2547
g10
S'black_pawn'
p2548
sg5
S'g6'
p2549
sa(dp2550
g5
S'g7'
p2551
sa(dp2552
g10
S'black_king'
p2553
sg5
S'g8'
p2554
sa(dp2555
g5
S'h1'
p2556
sa(dp2557
g5
S'h2'
p2558
sa(dp2559
g5
S'h3'
p2560
sa(dp2561
g5
S'h4'
p2562
sa(dp2563
g5
S'h5'
p2564
sa(dp2565
g5
S'h6'
p2566
sa(dp2567
g10
S'white_rook'
p2568
sg5
S'h7'
p2569
sa(dp2570
g5
S'h8'
p2571
saaVafter Bxg6, to be followed by Nxe6, I feared Qxf3; of course totally unjust, because of Ng5 covering for Nf3 (at the moment)... but the pieces are sometimes hard to recognize on this board; all this apart from the mesmerizing graphics I was experiencing at that moment: truly distracting...
p2572
aa(lp2573
S'25... Bb7'
p2574
a(lp2575
(dp2576
g5
S'a1'
p2577
sa(dp2578
g5
S'a2'
p2579
sa(dp2580
g10
S'black_queen'
p2581
sg5
S'a3'
p2582
sa(dp2583
g10
S'white_pawn'
p2584
sg5
S'a4'
p2585
sa(dp2586
g10
S'black_pawn'
p2587
sg5
S'a5'
p2588
sa(dp2589
g5
S'a6'
p2590
sa(dp2591
g5
S'a7'
p2592
sa(dp2593
g10
S'black_rook'
p2594
sg5
S'a8'
p2595
sa(dp2596
g10
S'white_rook'
p2597
sg5
S'b1'
p2598
sa(dp2599
g5
S'b2'
p2600
sa(dp2601
g5
S'b3'
p2602
sa(dp2603
g5
S'b4'
p2604
sa(dp2605
g10
S'white_pawn'
p2606
sg5
S'b5'
p2607
sa(dp2608
g5
S'b6'
p2609
sa(dp2610
g10
S'black_bishop'
p2611
sg5
S'b7'
p2612
sa(dp2613
g10
S'black_knight'
p2614
sg5
S'b8'
p2615
sa(dp2616
g5
S'c1'
p2617
sa(dp2618
g10
S'white_queen'
p2619
sg5
S'c2'
p2620
sa(dp2621
g5
S'c3'
p2622
sa(dp2623
g5
S'c4'
p2624
sa(dp2625
g5
S'c5'
p2626
sa(dp2627
g5
S'c6'
p2628
sa(dp2629
g10
S'black_pawn'
p2630
sg5
S'c7'
p2631
sa(dp2632
g5
S'c8'
p2633
sa(dp2634
g5
S'd1'
p2635
sa(dp2636
g5
S'd2'
p2637
sa(dp2638
g10
S'white_bishop'
p2639
sg5
S'd3'
p2640
sa(dp2641
g10
S'black_pawn'
p2642
sg5
S'd4'
p2643
sa(dp2644
g10
S'black_pawn'
p2645
sg5
S'd5'
p2646
sa(dp2647
g5
S'd6'
p2648
sa(dp2649
g10
S'black_knight'
p2650
sg5
S'd7'
p2651
sa(dp2652
g10
S'black_rook'
p2653
sg5
S'd8'
p2654
sa(dp2655
g5
S'e1'
p2656
sa(dp2657
g10
S'white_king'
p2658
sg5
S'e2'
p2659
sa(dp2660
g5
S'e3'
p2661
sa(dp2662
g5
S'e4'
p2663
sa(dp2664
g10
S'white_pawn'
p2665
sg5
S'e5'
p2666
sa(dp2667
g10
S'black_pawn'
p2668
sg5
S'e6'
p2669
sa(dp2670
g5
S'e7'
p2671
sa(dp2672
g5
S'e8'
p2673
sa(dp2674
g5
S'f1'
p2675
sa(dp2676
g10
S'white_pawn'
p2677
sg5
S'f2'
p2678
sa(dp2679
g10
S'white_knight'
p2680
sg5
S'f3'
p2681
sa(dp2682
g10
S'black_pawn'
p2683
sg5
S'f4'
p2684
sa(dp2685
g5
S'f5'
p2686
sa(dp2687
g5
S'f6'
p2688
sa(dp2689
g5
S'f7'
p2690
sa(dp2691
g5
S'f8'
p2692
sa(dp2693
g5
S'g1'
p2694
sa(dp2695
g5
S'g2'
p2696
sa(dp2697
g5
S'g3'
p2698
sa(dp2699
g10
S'white_pawn'
p2700
sg5
S'g4'
p2701
sa(dp2702
g10
S'white_knight'
p2703
sg5
S'g5'
p2704
sa(dp2705
g10
S'black_pawn'
p2706
sg5
S'g6'
p2707
sa(dp2708
g5
S'g7'
p2709
sa(dp2710
g10
S'black_king'
p2711
sg5
S'g8'
p2712
sa(dp2713
g5
S'h1'
p2714
sa(dp2715
g5
S'h2'
p2716
sa(dp2717
g5
S'h3'
p2718
sa(dp2719
g5
S'h4'
p2720
sa(dp2721
g5
S'h5'
p2722
sa(dp2723
g5
S'h6'
p2724
sa(dp2725
g10
S'white_rook'
p2726
sg5
S'h7'
p2727
sa(dp2728
g5
S'h8'
p2729
saaVthe lost Bishop finally emerges, but way too late: after Nf8, Qxc7, Rd7, Qxc8, Rxh7, Nxh7, Kxh7, Qb7+, Nbd7, Qxa8, Black can safely give up...
p2730
aa(lp2731
S'26. Rbh1'
p2732
a(lp2733
(dp2734
g5
S'a1'
p2735
sa(dp2736
g5
S'a2'
p2737
sa(dp2738
g10
S'black_queen'
p2739
sg5
S'a3'
p2740
sa(dp2741
g10
S'white_pawn'
p2742
sg5
S'a4'
p2743
sa(dp2744
g10
S'black_pawn'
p2745
sg5
S'a5'
p2746
sa(dp2747
g5
S'a6'
p2748
sa(dp2749
g5
S'a7'
p2750
sa(dp2751
g10
S'black_rook'
p2752
sg5
S'a8'
p2753
sa(dp2754
g5
S'b1'
p2755
sa(dp2756
g5
S'b2'
p2757
sa(dp2758
g5
S'b3'
p2759
sa(dp2760
g5
S'b4'
p2761
sa(dp2762
g10
S'white_pawn'
p2763
sg5
S'b5'
p2764
sa(dp2765
g5
S'b6'
p2766
sa(dp2767
g10
S'black_bishop'
p2768
sg5
S'b7'
p2769
sa(dp2770
g10
S'black_knight'
p2771
sg5
S'b8'
p2772
sa(dp2773
g5
S'c1'
p2774
sa(dp2775
g10
S'white_queen'
p2776
sg5
S'c2'
p2777
sa(dp2778
g5
S'c3'
p2779
sa(dp2780
g5
S'c4'
p2781
sa(dp2782
g5
S'c5'
p2783
sa(dp2784
g5
S'c6'
p2785
sa(dp2786
g10
S'black_pawn'
p2787
sg5
S'c7'
p2788
sa(dp2789
g5
S'c8'
p2790
sa(dp2791
g5
S'd1'
p2792
sa(dp2793
g5
S'd2'
p2794
sa(dp2795
g10
S'white_bishop'
p2796
sg5
S'd3'
p2797
sa(dp2798
g10
S'black_pawn'
p2799
sg5
S'd4'
p2800
sa(dp2801
g10
S'black_pawn'
p2802
sg5
S'd5'
p2803
sa(dp2804
g5
S'd6'
p2805
sa(dp2806
g10
S'black_knight'
p2807
sg5
S'd7'
p2808
sa(dp2809
g10
S'black_rook'
p2810
sg5
S'd8'
p2811
sa(dp2812
g5
S'e1'
p2813
sa(dp2814
g10
S'white_king'
p2815
sg5
S'e2'
p2816
sa(dp2817
g5
S'e3'
p2818
sa(dp2819
g5
S'e4'
p2820
sa(dp2821
g10
S'white_pawn'
p2822
sg5
S'e5'
p2823
sa(dp2824
g10
S'black_pawn'
p2825
sg5
S'e6'
p2826
sa(dp2827
g5
S'e7'
p2828
sa(dp2829
g5
S'e8'
p2830
sa(dp2831
g5
S'f1'
p2832
sa(dp2833
g10
S'white_pawn'
p2834
sg5
S'f2'
p2835
sa(dp2836
g10
S'white_knight'
p2837
sg5
S'f3'
p2838
sa(dp2839
g10
S'black_pawn'
p2840
sg5
S'f4'
p2841
sa(dp2842
g5
S'f5'
p2843
sa(dp2844
g5
S'f6'
p2845
sa(dp2846
g5
S'f7'
p2847
sa(dp2848
g5
S'f8'
p2849
sa(dp2850
g5
S'g1'
p2851
sa(dp2852
g5
S'g2'
p2853
sa(dp2854
g5
S'g3'
p2855
sa(dp2856
g10
S'white_pawn'
p2857
sg5
S'g4'
p2858
sa(dp2859
g10
S'white_knight'
p2860
sg5
S'g5'
p2861
sa(dp2862
g10
S'black_pawn'
p2863
sg5
S'g6'
p2864
sa(dp2865
g5
S'g7'
p2866
sa(dp2867
g10
S'black_king'
p2868
sg5
S'g8'
p2869
sa(dp2870
g10
S'white_rook'
p2871
sg5
S'h1'
p2872
sa(dp2873
g5
S'h2'
p2874
sa(dp2875
g5
S'h3'
p2876
sa(dp2877
g5
S'h4'
p2878
sa(dp2879
g5
S'h5'
p2880
sa(dp2881
g5
S'h6'
p2882
sa(dp2883
g10
S'white_rook'
p2884
sg5
S'h7'
p2885
sa(dp2886
g5
S'h8'
p2887
saaVpostponing the stronger Nxe6, with mate in all variations; but this works also... after this, the Thinking Machine went in full Guru mode, to be never heard of again; obviously resigning was not built into this algorithm... unfortunately, this great piece of software has one serious flaw: it castles under check; otherwise a true piece of art... go check it out, because it plays a mean game of chess also... 
p2888
aa.