(lp0
(lp1
S'1. e4 e5 2. Nf3 Nc6 3. Bc4'
p2
a(lp3
(dp4
S'piece'
p5
S'white_rook'
p6
sS'location'
p7
S'a1'
p8
sa(dp9
g5
S'white_pawn'
p10
sg7
S'a2'
p11
sa(dp12
g7
S'a3'
p13
sa(dp14
g7
S'a4'
p15
sa(dp16
g7
S'a5'
p17
sa(dp18
g7
S'a6'
p19
sa(dp20
g5
S'black_pawn'
p21
sg7
S'a7'
p22
sa(dp23
g5
S'black_rook'
p24
sg7
S'a8'
p25
sa(dp26
g5
S'white_knight'
p27
sg7
S'b1'
p28
sa(dp29
g5
S'white_pawn'
p30
sg7
S'b2'
p31
sa(dp32
g7
S'b3'
p33
sa(dp34
g7
S'b4'
p35
sa(dp36
g7
S'b5'
p37
sa(dp38
g7
S'b6'
p39
sa(dp40
g5
S'black_pawn'
p41
sg7
S'b7'
p42
sa(dp43
g7
S'b8'
p44
sa(dp45
g5
S'white_bishop'
p46
sg7
S'c1'
p47
sa(dp48
g5
S'white_pawn'
p49
sg7
S'c2'
p50
sa(dp51
g7
S'c3'
p52
sa(dp53
g5
S'white_bishop'
p54
sg7
S'c4'
p55
sa(dp56
g7
S'c5'
p57
sa(dp58
g5
S'black_knight'
p59
sg7
S'c6'
p60
sa(dp61
g5
S'black_pawn'
p62
sg7
S'c7'
p63
sa(dp64
g5
S'black_bishop'
p65
sg7
S'c8'
p66
sa(dp67
g5
S'white_queen'
p68
sg7
S'd1'
p69
sa(dp70
g5
S'white_pawn'
p71
sg7
S'd2'
p72
sa(dp73
g7
S'd3'
p74
sa(dp75
g7
S'd4'
p76
sa(dp77
g7
S'd5'
p78
sa(dp79
g7
S'd6'
p80
sa(dp81
g5
S'black_pawn'
p82
sg7
S'd7'
p83
sa(dp84
g5
S'black_queen'
p85
sg7
S'd8'
p86
sa(dp87
g5
S'white_king'
p88
sg7
S'e1'
p89
sa(dp90
g7
S'e2'
p91
sa(dp92
g7
S'e3'
p93
sa(dp94
g5
S'white_pawn'
p95
sg7
S'e4'
p96
sa(dp97
g5
S'black_pawn'
p98
sg7
S'e5'
p99
sa(dp100
g7
S'e6'
p101
sa(dp102
g7
S'e7'
p103
sa(dp104
g5
S'black_king'
p105
sg7
S'e8'
p106
sa(dp107
g7
S'f1'
p108
sa(dp109
g5
S'white_pawn'
p110
sg7
S'f2'
p111
sa(dp112
g5
S'white_knight'
p113
sg7
S'f3'
p114
sa(dp115
g7
S'f4'
p116
sa(dp117
g7
S'f5'
p118
sa(dp119
g7
S'f6'
p120
sa(dp121
g5
S'black_pawn'
p122
sg7
S'f7'
p123
sa(dp124
g5
S'black_bishop'
p125
sg7
S'f8'
p126
sa(dp127
g7
S'g1'
p128
sa(dp129
g5
S'white_pawn'
p130
sg7
S'g2'
p131
sa(dp132
g7
S'g3'
p133
sa(dp134
g7
S'g4'
p135
sa(dp136
g7
S'g5'
p137
sa(dp138
g7
S'g6'
p139
sa(dp140
g5
S'black_pawn'
p141
sg7
S'g7'
p142
sa(dp143
g5
S'black_knight'
p144
sg7
S'g8'
p145
sa(dp146
g5
S'white_rook'
p147
sg7
S'h1'
p148
sa(dp149
g5
S'white_pawn'
p150
sg7
S'h2'
p151
sa(dp152
g7
S'h3'
p153
sa(dp154
g7
S'h4'
p155
sa(dp156
g7
S'h5'
p157
sa(dp158
g7
S'h6'
p159
sa(dp160
g5
S'black_pawn'
p161
sg7
S'h7'
p162
sa(dp163
g5
S'black_rook'
p164
sg7
S'h8'
p165
saaVintroducing the Italian Party, with an early attack on f7... usually follows Bc5, c3 (preparing d4), Nf6; after Ng5, 0-0, so White usually continues with d4...
p166
aa(lp167
S'3... Nf6'
p168
a(lp169
(dp170
g5
S'white_rook'
p171
sg7
S'a1'
p172
sa(dp173
g5
S'white_pawn'
p174
sg7
S'a2'
p175
sa(dp176
g7
S'a3'
p177
sa(dp178
g7
S'a4'
p179
sa(dp180
g7
S'a5'
p181
sa(dp182
g7
S'a6'
p183
sa(dp184
g5
S'black_pawn'
p185
sg7
S'a7'
p186
sa(dp187
g5
S'black_rook'
p188
sg7
S'a8'
p189
sa(dp190
g5
S'white_knight'
p191
sg7
S'b1'
p192
sa(dp193
g5
S'white_pawn'
p194
sg7
S'b2'
p195
sa(dp196
g7
S'b3'
p197
sa(dp198
g7
S'b4'
p199
sa(dp200
g7
S'b5'
p201
sa(dp202
g7
S'b6'
p203
sa(dp204
g5
S'black_pawn'
p205
sg7
S'b7'
p206
sa(dp207
g7
S'b8'
p208
sa(dp209
g5
S'white_bishop'
p210
sg7
S'c1'
p211
sa(dp212
g5
S'white_pawn'
p213
sg7
S'c2'
p214
sa(dp215
g7
S'c3'
p216
sa(dp217
g5
S'white_bishop'
p218
sg7
S'c4'
p219
sa(dp220
g7
S'c5'
p221
sa(dp222
g5
S'black_knight'
p223
sg7
S'c6'
p224
sa(dp225
g5
S'black_pawn'
p226
sg7
S'c7'
p227
sa(dp228
g5
S'black_bishop'
p229
sg7
S'c8'
p230
sa(dp231
g5
S'white_queen'
p232
sg7
S'd1'
p233
sa(dp234
g5
S'white_pawn'
p235
sg7
S'd2'
p236
sa(dp237
g7
S'd3'
p238
sa(dp239
g7
S'd4'
p240
sa(dp241
g7
S'd5'
p242
sa(dp243
g7
S'd6'
p244
sa(dp245
g5
S'black_pawn'
p246
sg7
S'd7'
p247
sa(dp248
g5
S'black_queen'
p249
sg7
S'd8'
p250
sa(dp251
g5
S'white_king'
p252
sg7
S'e1'
p253
sa(dp254
g7
S'e2'
p255
sa(dp256
g7
S'e3'
p257
sa(dp258
g5
S'white_pawn'
p259
sg7
S'e4'
p260
sa(dp261
g5
S'black_pawn'
p262
sg7
S'e5'
p263
sa(dp264
g7
S'e6'
p265
sa(dp266
g7
S'e7'
p267
sa(dp268
g5
S'black_king'
p269
sg7
S'e8'
p270
sa(dp271
g7
S'f1'
p272
sa(dp273
g5
S'white_pawn'
p274
sg7
S'f2'
p275
sa(dp276
g5
S'white_knight'
p277
sg7
S'f3'
p278
sa(dp279
g7
S'f4'
p280
sa(dp281
g7
S'f5'
p282
sa(dp283
g5
S'black_knight'
p284
sg7
S'f6'
p285
sa(dp286
g5
S'black_pawn'
p287
sg7
S'f7'
p288
sa(dp289
g5
S'black_bishop'
p290
sg7
S'f8'
p291
sa(dp292
g7
S'g1'
p293
sa(dp294
g5
S'white_pawn'
p295
sg7
S'g2'
p296
sa(dp297
g7
S'g3'
p298
sa(dp299
g7
S'g4'
p300
sa(dp301
g7
S'g5'
p302
sa(dp303
g7
S'g6'
p304
sa(dp305
g5
S'black_pawn'
p306
sg7
S'g7'
p307
sa(dp308
g7
S'g8'
p309
sa(dp310
g5
S'white_rook'
p311
sg7
S'h1'
p312
sa(dp313
g5
S'white_pawn'
p314
sg7
S'h2'
p315
sa(dp316
g7
S'h3'
p317
sa(dp318
g7
S'h4'
p319
sa(dp320
g7
S'h5'
p321
sa(dp322
g7
S'h6'
p323
sa(dp324
g5
S'black_pawn'
p325
sg7
S'h7'
p326
sa(dp327
g5
S'black_rook'
p328
sg7
S'h8'
p329
saaVthe Two Knights' Defense...
p330
aa(lp331
S'4. Ng5'
p332
a(lp333
(dp334
g5
S'white_rook'
p335
sg7
S'a1'
p336
sa(dp337
g5
S'white_pawn'
p338
sg7
S'a2'
p339
sa(dp340
g7
S'a3'
p341
sa(dp342
g7
S'a4'
p343
sa(dp344
g7
S'a5'
p345
sa(dp346
g7
S'a6'
p347
sa(dp348
g5
S'black_pawn'
p349
sg7
S'a7'
p350
sa(dp351
g5
S'black_rook'
p352
sg7
S'a8'
p353
sa(dp354
g5
S'white_knight'
p355
sg7
S'b1'
p356
sa(dp357
g5
S'white_pawn'
p358
sg7
S'b2'
p359
sa(dp360
g7
S'b3'
p361
sa(dp362
g7
S'b4'
p363
sa(dp364
g7
S'b5'
p365
sa(dp366
g7
S'b6'
p367
sa(dp368
g5
S'black_pawn'
p369
sg7
S'b7'
p370
sa(dp371
g7
S'b8'
p372
sa(dp373
g5
S'white_bishop'
p374
sg7
S'c1'
p375
sa(dp376
g5
S'white_pawn'
p377
sg7
S'c2'
p378
sa(dp379
g7
S'c3'
p380
sa(dp381
g5
S'white_bishop'
p382
sg7
S'c4'
p383
sa(dp384
g7
S'c5'
p385
sa(dp386
g5
S'black_knight'
p387
sg7
S'c6'
p388
sa(dp389
g5
S'black_pawn'
p390
sg7
S'c7'
p391
sa(dp392
g5
S'black_bishop'
p393
sg7
S'c8'
p394
sa(dp395
g5
S'white_queen'
p396
sg7
S'd1'
p397
sa(dp398
g5
S'white_pawn'
p399
sg7
S'd2'
p400
sa(dp401
g7
S'd3'
p402
sa(dp403
g7
S'd4'
p404
sa(dp405
g7
S'd5'
p406
sa(dp407
g7
S'd6'
p408
sa(dp409
g5
S'black_pawn'
p410
sg7
S'd7'
p411
sa(dp412
g5
S'black_queen'
p413
sg7
S'd8'
p414
sa(dp415
g5
S'white_king'
p416
sg7
S'e1'
p417
sa(dp418
g7
S'e2'
p419
sa(dp420
g7
S'e3'
p421
sa(dp422
g5
S'white_pawn'
p423
sg7
S'e4'
p424
sa(dp425
g5
S'black_pawn'
p426
sg7
S'e5'
p427
sa(dp428
g7
S'e6'
p429
sa(dp430
g7
S'e7'
p431
sa(dp432
g5
S'black_king'
p433
sg7
S'e8'
p434
sa(dp435
g7
S'f1'
p436
sa(dp437
g5
S'white_pawn'
p438
sg7
S'f2'
p439
sa(dp440
g7
S'f3'
p441
sa(dp442
g7
S'f4'
p443
sa(dp444
g7
S'f5'
p445
sa(dp446
g5
S'black_knight'
p447
sg7
S'f6'
p448
sa(dp449
g5
S'black_pawn'
p450
sg7
S'f7'
p451
sa(dp452
g5
S'black_bishop'
p453
sg7
S'f8'
p454
sa(dp455
g7
S'g1'
p456
sa(dp457
g5
S'white_pawn'
p458
sg7
S'g2'
p459
sa(dp460
g7
S'g3'
p461
sa(dp462
g7
S'g4'
p463
sa(dp464
g5
S'white_knight'
p465
sg7
S'g5'
p466
sa(dp467
g7
S'g6'
p468
sa(dp469
g5
S'black_pawn'
p470
sg7
S'g7'
p471
sa(dp472
g7
S'g8'
p473
sa(dp474
g5
S'white_rook'
p475
sg7
S'h1'
p476
sa(dp477
g5
S'white_pawn'
p478
sg7
S'h2'
p479
sa(dp480
g7
S'h3'
p481
sa(dp482
g7
S'h4'
p483
sa(dp484
g7
S'h5'
p485
sa(dp486
g7
S'h6'
p487
sa(dp488
g5
S'black_pawn'
p489
sg7
S'h7'
p490
sa(dp491
g5
S'black_rook'
p492
sg7
S'h8'
p493
saaVthe sharpest reply...
p494
aa(lp495
S'4... d5 5. exd5 Na5'
p496
a(lp497
(dp498
g5
S'white_rook'
p499
sg7
S'a1'
p500
sa(dp501
g5
S'white_pawn'
p502
sg7
S'a2'
p503
sa(dp504
g7
S'a3'
p505
sa(dp506
g7
S'a4'
p507
sa(dp508
g5
S'black_knight'
p509
sg7
S'a5'
p510
sa(dp511
g7
S'a6'
p512
sa(dp513
g5
S'black_pawn'
p514
sg7
S'a7'
p515
sa(dp516
g5
S'black_rook'
p517
sg7
S'a8'
p518
sa(dp519
g5
S'white_knight'
p520
sg7
S'b1'
p521
sa(dp522
g5
S'white_pawn'
p523
sg7
S'b2'
p524
sa(dp525
g7
S'b3'
p526
sa(dp527
g7
S'b4'
p528
sa(dp529
g7
S'b5'
p530
sa(dp531
g7
S'b6'
p532
sa(dp533
g5
S'black_pawn'
p534
sg7
S'b7'
p535
sa(dp536
g7
S'b8'
p537
sa(dp538
g5
S'white_bishop'
p539
sg7
S'c1'
p540
sa(dp541
g5
S'white_pawn'
p542
sg7
S'c2'
p543
sa(dp544
g7
S'c3'
p545
sa(dp546
g5
S'white_bishop'
p547
sg7
S'c4'
p548
sa(dp549
g7
S'c5'
p550
sa(dp551
g7
S'c6'
p552
sa(dp553
g5
S'black_pawn'
p554
sg7
S'c7'
p555
sa(dp556
g5
S'black_bishop'
p557
sg7
S'c8'
p558
sa(dp559
g5
S'white_queen'
p560
sg7
S'd1'
p561
sa(dp562
g5
S'white_pawn'
p563
sg7
S'd2'
p564
sa(dp565
g7
S'd3'
p566
sa(dp567
g7
S'd4'
p568
sa(dp569
g5
S'white_pawn'
p570
sg7
S'd5'
p571
sa(dp572
g7
S'd6'
p573
sa(dp574
g7
S'd7'
p575
sa(dp576
g5
S'black_queen'
p577
sg7
S'd8'
p578
sa(dp579
g5
S'white_king'
p580
sg7
S'e1'
p581
sa(dp582
g7
S'e2'
p583
sa(dp584
g7
S'e3'
p585
sa(dp586
g7
S'e4'
p587
sa(dp588
g5
S'black_pawn'
p589
sg7
S'e5'
p590
sa(dp591
g7
S'e6'
p592
sa(dp593
g7
S'e7'
p594
sa(dp595
g5
S'black_king'
p596
sg7
S'e8'
p597
sa(dp598
g7
S'f1'
p599
sa(dp600
g5
S'white_pawn'
p601
sg7
S'f2'
p602
sa(dp603
g7
S'f3'
p604
sa(dp605
g7
S'f4'
p606
sa(dp607
g7
S'f5'
p608
sa(dp609
g5
S'black_knight'
p610
sg7
S'f6'
p611
sa(dp612
g5
S'black_pawn'
p613
sg7
S'f7'
p614
sa(dp615
g5
S'black_bishop'
p616
sg7
S'f8'
p617
sa(dp618
g7
S'g1'
p619
sa(dp620
g5
S'white_pawn'
p621
sg7
S'g2'
p622
sa(dp623
g7
S'g3'
p624
sa(dp625
g7
S'g4'
p626
sa(dp627
g5
S'white_knight'
p628
sg7
S'g5'
p629
sa(dp630
g7
S'g6'
p631
sa(dp632
g5
S'black_pawn'
p633
sg7
S'g7'
p634
sa(dp635
g7
S'g8'
p636
sa(dp637
g5
S'white_rook'
p638
sg7
S'h1'
p639
sa(dp640
g5
S'white_pawn'
p641
sg7
S'h2'
p642
sa(dp643
g7
S'h3'
p644
sa(dp645
g7
S'h4'
p646
sa(dp647
g7
S'h5'
p648
sa(dp649
g7
S'h6'
p650
sa(dp651
g5
S'black_pawn'
p652
sg7
S'h7'
p653
sa(dp654
g5
S'black_rook'
p655
sg7
S'h8'
p656
saaVanother option is Nxd5, Nxf7!? (although d4! is much stronger), Kxf7, Qf3+, usually leading to very sharp play from both sides...
p657
aa(lp658
S'6. Bb5+ c6 7. dxc6 bxc6 8. Qf3'
p659
a(lp660
(dp661
g5
S'white_rook'
p662
sg7
S'a1'
p663
sa(dp664
g5
S'white_pawn'
p665
sg7
S'a2'
p666
sa(dp667
g7
S'a3'
p668
sa(dp669
g7
S'a4'
p670
sa(dp671
g5
S'black_knight'
p672
sg7
S'a5'
p673
sa(dp674
g7
S'a6'
p675
sa(dp676
g5
S'black_pawn'
p677
sg7
S'a7'
p678
sa(dp679
g5
S'black_rook'
p680
sg7
S'a8'
p681
sa(dp682
g5
S'white_knight'
p683
sg7
S'b1'
p684
sa(dp685
g5
S'white_pawn'
p686
sg7
S'b2'
p687
sa(dp688
g7
S'b3'
p689
sa(dp690
g7
S'b4'
p691
sa(dp692
g5
S'white_bishop'
p693
sg7
S'b5'
p694
sa(dp695
g7
S'b6'
p696
sa(dp697
g7
S'b7'
p698
sa(dp699
g7
S'b8'
p700
sa(dp701
g5
S'white_bishop'
p702
sg7
S'c1'
p703
sa(dp704
g5
S'white_pawn'
p705
sg7
S'c2'
p706
sa(dp707
g7
S'c3'
p708
sa(dp709
g7
S'c4'
p710
sa(dp711
g7
S'c5'
p712
sa(dp713
g5
S'black_pawn'
p714
sg7
S'c6'
p715
sa(dp716
g7
S'c7'
p717
sa(dp718
g5
S'black_bishop'
p719
sg7
S'c8'
p720
sa(dp721
g7
S'd1'
p722
sa(dp723
g5
S'white_pawn'
p724
sg7
S'd2'
p725
sa(dp726
g7
S'd3'
p727
sa(dp728
g7
S'd4'
p729
sa(dp730
g7
S'd5'
p731
sa(dp732
g7
S'd6'
p733
sa(dp734
g7
S'd7'
p735
sa(dp736
g5
S'black_queen'
p737
sg7
S'd8'
p738
sa(dp739
g5
S'white_king'
p740
sg7
S'e1'
p741
sa(dp742
g7
S'e2'
p743
sa(dp744
g7
S'e3'
p745
sa(dp746
g7
S'e4'
p747
sa(dp748
g5
S'black_pawn'
p749
sg7
S'e5'
p750
sa(dp751
g7
S'e6'
p752
sa(dp753
g7
S'e7'
p754
sa(dp755
g5
S'black_king'
p756
sg7
S'e8'
p757
sa(dp758
g7
S'f1'
p759
sa(dp760
g5
S'white_pawn'
p761
sg7
S'f2'
p762
sa(dp763
g5
S'white_queen'
p764
sg7
S'f3'
p765
sa(dp766
g7
S'f4'
p767
sa(dp768
g7
S'f5'
p769
sa(dp770
g5
S'black_knight'
p771
sg7
S'f6'
p772
sa(dp773
g5
S'black_pawn'
p774
sg7
S'f7'
p775
sa(dp776
g5
S'black_bishop'
p777
sg7
S'f8'
p778
sa(dp779
g7
S'g1'
p780
sa(dp781
g5
S'white_pawn'
p782
sg7
S'g2'
p783
sa(dp784
g7
S'g3'
p785
sa(dp786
g7
S'g4'
p787
sa(dp788
g5
S'white_knight'
p789
sg7
S'g5'
p790
sa(dp791
g7
S'g6'
p792
sa(dp793
g5
S'black_pawn'
p794
sg7
S'g7'
p795
sa(dp796
g7
S'g8'
p797
sa(dp798
g5
S'white_rook'
p799
sg7
S'h1'
p800
sa(dp801
g5
S'white_pawn'
p802
sg7
S'h2'
p803
sa(dp804
g7
S'h3'
p805
sa(dp806
g7
S'h4'
p807
sa(dp808
g7
S'h5'
p809
sa(dp810
g7
S'h6'
p811
sa(dp812
g5
S'black_pawn'
p813
sg7
S'h7'
p814
sa(dp815
g5
S'black_rook'
p816
sg7
S'h8'
p817
saaVthe Blackburne Variation: the simple clue here is cxb6?, Qxa8... best reply here is probably Rb8, forcing Bd3 or even Be2; this last move - originally from Steinitz, followed by Nh3!? - was brought into tournament practice again by Kasparov... Black can also play directly Qd5, Be2 (Bd3, Qxf3, gxf3, Nd5!), e4, Qg3, h6, Nh3, g5...
p818
aa(lp819
S'8... Be7'
p820
a(lp821
(dp822
g5
S'white_rook'
p823
sg7
S'a1'
p824
sa(dp825
g5
S'white_pawn'
p826
sg7
S'a2'
p827
sa(dp828
g7
S'a3'
p829
sa(dp830
g7
S'a4'
p831
sa(dp832
g5
S'black_knight'
p833
sg7
S'a5'
p834
sa(dp835
g7
S'a6'
p836
sa(dp837
g5
S'black_pawn'
p838
sg7
S'a7'
p839
sa(dp840
g5
S'black_rook'
p841
sg7
S'a8'
p842
sa(dp843
g5
S'white_knight'
p844
sg7
S'b1'
p845
sa(dp846
g5
S'white_pawn'
p847
sg7
S'b2'
p848
sa(dp849
g7
S'b3'
p850
sa(dp851
g7
S'b4'
p852
sa(dp853
g5
S'white_bishop'
p854
sg7
S'b5'
p855
sa(dp856
g7
S'b6'
p857
sa(dp858
g7
S'b7'
p859
sa(dp860
g7
S'b8'
p861
sa(dp862
g5
S'white_bishop'
p863
sg7
S'c1'
p864
sa(dp865
g5
S'white_pawn'
p866
sg7
S'c2'
p867
sa(dp868
g7
S'c3'
p869
sa(dp870
g7
S'c4'
p871
sa(dp872
g7
S'c5'
p873
sa(dp874
g5
S'black_pawn'
p875
sg7
S'c6'
p876
sa(dp877
g7
S'c7'
p878
sa(dp879
g5
S'black_bishop'
p880
sg7
S'c8'
p881
sa(dp882
g7
S'd1'
p883
sa(dp884
g5
S'white_pawn'
p885
sg7
S'd2'
p886
sa(dp887
g7
S'd3'
p888
sa(dp889
g7
S'd4'
p890
sa(dp891
g7
S'd5'
p892
sa(dp893
g7
S'd6'
p894
sa(dp895
g7
S'd7'
p896
sa(dp897
g5
S'black_queen'
p898
sg7
S'd8'
p899
sa(dp900
g5
S'white_king'
p901
sg7
S'e1'
p902
sa(dp903
g7
S'e2'
p904
sa(dp905
g7
S'e3'
p906
sa(dp907
g7
S'e4'
p908
sa(dp909
g5
S'black_pawn'
p910
sg7
S'e5'
p911
sa(dp912
g7
S'e6'
p913
sa(dp914
g5
S'black_bishop'
p915
sg7
S'e7'
p916
sa(dp917
g5
S'black_king'
p918
sg7
S'e8'
p919
sa(dp920
g7
S'f1'
p921
sa(dp922
g5
S'white_pawn'
p923
sg7
S'f2'
p924
sa(dp925
g5
S'white_queen'
p926
sg7
S'f3'
p927
sa(dp928
g7
S'f4'
p929
sa(dp930
g7
S'f5'
p931
sa(dp932
g5
S'black_knight'
p933
sg7
S'f6'
p934
sa(dp935
g5
S'black_pawn'
p936
sg7
S'f7'
p937
sa(dp938
g7
S'f8'
p939
sa(dp940
g7
S'g1'
p941
sa(dp942
g5
S'white_pawn'
p943
sg7
S'g2'
p944
sa(dp945
g7
S'g3'
p946
sa(dp947
g7
S'g4'
p948
sa(dp949
g5
S'white_knight'
p950
sg7
S'g5'
p951
sa(dp952
g7
S'g6'
p953
sa(dp954
g5
S'black_pawn'
p955
sg7
S'g7'
p956
sa(dp957
g7
S'g8'
p958
sa(dp959
g5
S'white_rook'
p960
sg7
S'h1'
p961
sa(dp962
g5
S'white_pawn'
p963
sg7
S'h2'
p964
sa(dp965
g7
S'h3'
p966
sa(dp967
g7
S'h4'
p968
sa(dp969
g7
S'h5'
p970
sa(dp971
g7
S'h6'
p972
sa(dp973
g5
S'black_pawn'
p974
sg7
S'h7'
p975
sa(dp976
g5
S'black_rook'
p977
sg7
S'h8'
p978
saaVnot too accurate: this will at least cost a pawn; against this opponent, I considered this no small feat...
p979
aa(lp980
S'9. Bxc6+ Nxc6 10. Qxc6+ Bd7 11. Qc4'
p981
a(lp982
(dp983
g5
S'white_rook'
p984
sg7
S'a1'
p985
sa(dp986
g5
S'white_pawn'
p987
sg7
S'a2'
p988
sa(dp989
g7
S'a3'
p990
sa(dp991
g7
S'a4'
p992
sa(dp993
g7
S'a5'
p994
sa(dp995
g7
S'a6'
p996
sa(dp997
g5
S'black_pawn'
p998
sg7
S'a7'
p999
sa(dp1000
g5
S'black_rook'
p1001
sg7
S'a8'
p1002
sa(dp1003
g5
S'white_knight'
p1004
sg7
S'b1'
p1005
sa(dp1006
g5
S'white_pawn'
p1007
sg7
S'b2'
p1008
sa(dp1009
g7
S'b3'
p1010
sa(dp1011
g7
S'b4'
p1012
sa(dp1013
g7
S'b5'
p1014
sa(dp1015
g7
S'b6'
p1016
sa(dp1017
g7
S'b7'
p1018
sa(dp1019
g7
S'b8'
p1020
sa(dp1021
g5
S'white_bishop'
p1022
sg7
S'c1'
p1023
sa(dp1024
g5
S'white_pawn'
p1025
sg7
S'c2'
p1026
sa(dp1027
g7
S'c3'
p1028
sa(dp1029
g5
S'white_queen'
p1030
sg7
S'c4'
p1031
sa(dp1032
g7
S'c5'
p1033
sa(dp1034
g7
S'c6'
p1035
sa(dp1036
g7
S'c7'
p1037
sa(dp1038
g7
S'c8'
p1039
sa(dp1040
g7
S'd1'
p1041
sa(dp1042
g5
S'white_pawn'
p1043
sg7
S'd2'
p1044
sa(dp1045
g7
S'd3'
p1046
sa(dp1047
g7
S'd4'
p1048
sa(dp1049
g7
S'd5'
p1050
sa(dp1051
g7
S'd6'
p1052
sa(dp1053
g5
S'black_bishop'
p1054
sg7
S'd7'
p1055
sa(dp1056
g5
S'black_queen'
p1057
sg7
S'd8'
p1058
sa(dp1059
g5
S'white_king'
p1060
sg7
S'e1'
p1061
sa(dp1062
g7
S'e2'
p1063
sa(dp1064
g7
S'e3'
p1065
sa(dp1066
g7
S'e4'
p1067
sa(dp1068
g5
S'black_pawn'
p1069
sg7
S'e5'
p1070
sa(dp1071
g7
S'e6'
p1072
sa(dp1073
g5
S'black_bishop'
p1074
sg7
S'e7'
p1075
sa(dp1076
g5
S'black_king'
p1077
sg7
S'e8'
p1078
sa(dp1079
g7
S'f1'
p1080
sa(dp1081
g5
S'white_pawn'
p1082
sg7
S'f2'
p1083
sa(dp1084
g7
S'f3'
p1085
sa(dp1086
g7
S'f4'
p1087
sa(dp1088
g7
S'f5'
p1089
sa(dp1090
g5
S'black_knight'
p1091
sg7
S'f6'
p1092
sa(dp1093
g5
S'black_pawn'
p1094
sg7
S'f7'
p1095
sa(dp1096
g7
S'f8'
p1097
sa(dp1098
g7
S'g1'
p1099
sa(dp1100
g5
S'white_pawn'
p1101
sg7
S'g2'
p1102
sa(dp1103
g7
S'g3'
p1104
sa(dp1105
g7
S'g4'
p1106
sa(dp1107
g5
S'white_knight'
p1108
sg7
S'g5'
p1109
sa(dp1110
g7
S'g6'
p1111
sa(dp1112
g5
S'black_pawn'
p1113
sg7
S'g7'
p1114
sa(dp1115
g7
S'g8'
p1116
sa(dp1117
g5
S'white_rook'
p1118
sg7
S'h1'
p1119
sa(dp1120
g5
S'white_pawn'
p1121
sg7
S'h2'
p1122
sa(dp1123
g7
S'h3'
p1124
sa(dp1125
g7
S'h4'
p1126
sa(dp1127
g7
S'h5'
p1128
sa(dp1129
g7
S'h6'
p1130
sa(dp1131
g5
S'black_pawn'
p1132
sg7
S'h7'
p1133
sa(dp1134
g5
S'black_rook'
p1135
sg7
S'h8'
p1136
saaVthe other option was Qf3, Rc8, Nc3, Bc6, Qg3, Nh5, Qxe5, f6, Qe2... not very cosy for the Queen...
p1137
aa(lp1138
S'11... O-O 12. Nc3 Rc8 13. Qe2 h6 14. Nge4'
p1139
a(lp1140
(dp1141
g5
S'white_rook'
p1142
sg7
S'a1'
p1143
sa(dp1144
g5
S'white_pawn'
p1145
sg7
S'a2'
p1146
sa(dp1147
g7
S'a3'
p1148
sa(dp1149
g7
S'a4'
p1150
sa(dp1151
g7
S'a5'
p1152
sa(dp1153
g7
S'a6'
p1154
sa(dp1155
g5
S'black_pawn'
p1156
sg7
S'a7'
p1157
sa(dp1158
g7
S'a8'
p1159
sa(dp1160
g7
S'b1'
p1161
sa(dp1162
g5
S'white_pawn'
p1163
sg7
S'b2'
p1164
sa(dp1165
g7
S'b3'
p1166
sa(dp1167
g7
S'b4'
p1168
sa(dp1169
g7
S'b5'
p1170
sa(dp1171
g7
S'b6'
p1172
sa(dp1173
g7
S'b7'
p1174
sa(dp1175
g7
S'b8'
p1176
sa(dp1177
g5
S'white_bishop'
p1178
sg7
S'c1'
p1179
sa(dp1180
g5
S'white_pawn'
p1181
sg7
S'c2'
p1182
sa(dp1183
g5
S'white_knight'
p1184
sg7
S'c3'
p1185
sa(dp1186
g7
S'c4'
p1187
sa(dp1188
g7
S'c5'
p1189
sa(dp1190
g7
S'c6'
p1191
sa(dp1192
g7
S'c7'
p1193
sa(dp1194
g5
S'black_rook'
p1195
sg7
S'c8'
p1196
sa(dp1197
g7
S'd1'
p1198
sa(dp1199
g5
S'white_pawn'
p1200
sg7
S'd2'
p1201
sa(dp1202
g7
S'd3'
p1203
sa(dp1204
g7
S'd4'
p1205
sa(dp1206
g7
S'd5'
p1207
sa(dp1208
g7
S'd6'
p1209
sa(dp1210
g5
S'black_bishop'
p1211
sg7
S'd7'
p1212
sa(dp1213
g5
S'black_queen'
p1214
sg7
S'd8'
p1215
sa(dp1216
g5
S'white_king'
p1217
sg7
S'e1'
p1218
sa(dp1219
g5
S'white_queen'
p1220
sg7
S'e2'
p1221
sa(dp1222
g7
S'e3'
p1223
sa(dp1224
g5
S'white_knight'
p1225
sg7
S'e4'
p1226
sa(dp1227
g5
S'black_pawn'
p1228
sg7
S'e5'
p1229
sa(dp1230
g7
S'e6'
p1231
sa(dp1232
g5
S'black_bishop'
p1233
sg7
S'e7'
p1234
sa(dp1235
g7
S'e8'
p1236
sa(dp1237
g7
S'f1'
p1238
sa(dp1239
g5
S'white_pawn'
p1240
sg7
S'f2'
p1241
sa(dp1242
g7
S'f3'
p1243
sa(dp1244
g7
S'f4'
p1245
sa(dp1246
g7
S'f5'
p1247
sa(dp1248
g5
S'black_knight'
p1249
sg7
S'f6'
p1250
sa(dp1251
g5
S'black_pawn'
p1252
sg7
S'f7'
p1253
sa(dp1254
g5
S'black_rook'
p1255
sg7
S'f8'
p1256
sa(dp1257
g7
S'g1'
p1258
sa(dp1259
g5
S'white_pawn'
p1260
sg7
S'g2'
p1261
sa(dp1262
g7
S'g3'
p1263
sa(dp1264
g7
S'g4'
p1265
sa(dp1266
g7
S'g5'
p1267
sa(dp1268
g7
S'g6'
p1269
sa(dp1270
g5
S'black_pawn'
p1271
sg7
S'g7'
p1272
sa(dp1273
g5
S'black_king'
p1274
sg7
S'g8'
p1275
sa(dp1276
g5
S'white_rook'
p1277
sg7
S'h1'
p1278
sa(dp1279
g5
S'white_pawn'
p1280
sg7
S'h2'
p1281
sa(dp1282
g7
S'h3'
p1283
sa(dp1284
g7
S'h4'
p1285
sa(dp1286
g7
S'h5'
p1287
sa(dp1288
g5
S'black_pawn'
p1289
sg7
S'h6'
p1290
sa(dp1291
g7
S'h7'
p1292
sa(dp1293
g7
S'h8'
p1294
saaVbetter than Nf3, e4, Nxe4, Nxe4, Qxe4, Bb5...
p1295
aa(lp1296
S'14... Nxe4 15. Qxe4 Bc6 16. Qe2'
p1297
a(lp1298
(dp1299
g5
S'white_rook'
p1300
sg7
S'a1'
p1301
sa(dp1302
g5
S'white_pawn'
p1303
sg7
S'a2'
p1304
sa(dp1305
g7
S'a3'
p1306
sa(dp1307
g7
S'a4'
p1308
sa(dp1309
g7
S'a5'
p1310
sa(dp1311
g7
S'a6'
p1312
sa(dp1313
g5
S'black_pawn'
p1314
sg7
S'a7'
p1315
sa(dp1316
g7
S'a8'
p1317
sa(dp1318
g7
S'b1'
p1319
sa(dp1320
g5
S'white_pawn'
p1321
sg7
S'b2'
p1322
sa(dp1323
g7
S'b3'
p1324
sa(dp1325
g7
S'b4'
p1326
sa(dp1327
g7
S'b5'
p1328
sa(dp1329
g7
S'b6'
p1330
sa(dp1331
g7
S'b7'
p1332
sa(dp1333
g7
S'b8'
p1334
sa(dp1335
g5
S'white_bishop'
p1336
sg7
S'c1'
p1337
sa(dp1338
g5
S'white_pawn'
p1339
sg7
S'c2'
p1340
sa(dp1341
g5
S'white_knight'
p1342
sg7
S'c3'
p1343
sa(dp1344
g7
S'c4'
p1345
sa(dp1346
g7
S'c5'
p1347
sa(dp1348
g5
S'black_bishop'
p1349
sg7
S'c6'
p1350
sa(dp1351
g7
S'c7'
p1352
sa(dp1353
g5
S'black_rook'
p1354
sg7
S'c8'
p1355
sa(dp1356
g7
S'd1'
p1357
sa(dp1358
g5
S'white_pawn'
p1359
sg7
S'd2'
p1360
sa(dp1361
g7
S'd3'
p1362
sa(dp1363
g7
S'd4'
p1364
sa(dp1365
g7
S'd5'
p1366
sa(dp1367
g7
S'd6'
p1368
sa(dp1369
g7
S'd7'
p1370
sa(dp1371
g5
S'black_queen'
p1372
sg7
S'd8'
p1373
sa(dp1374
g5
S'white_king'
p1375
sg7
S'e1'
p1376
sa(dp1377
g5
S'white_queen'
p1378
sg7
S'e2'
p1379
sa(dp1380
g7
S'e3'
p1381
sa(dp1382
g7
S'e4'
p1383
sa(dp1384
g5
S'black_pawn'
p1385
sg7
S'e5'
p1386
sa(dp1387
g7
S'e6'
p1388
sa(dp1389
g5
S'black_bishop'
p1390
sg7
S'e7'
p1391
sa(dp1392
g7
S'e8'
p1393
sa(dp1394
g7
S'f1'
p1395
sa(dp1396
g5
S'white_pawn'
p1397
sg7
S'f2'
p1398
sa(dp1399
g7
S'f3'
p1400
sa(dp1401
g7
S'f4'
p1402
sa(dp1403
g7
S'f5'
p1404
sa(dp1405
g7
S'f6'
p1406
sa(dp1407
g5
S'black_pawn'
p1408
sg7
S'f7'
p1409
sa(dp1410
g5
S'black_rook'
p1411
sg7
S'f8'
p1412
sa(dp1413
g7
S'g1'
p1414
sa(dp1415
g5
S'white_pawn'
p1416
sg7
S'g2'
p1417
sa(dp1418
g7
S'g3'
p1419
sa(dp1420
g7
S'g4'
p1421
sa(dp1422
g7
S'g5'
p1423
sa(dp1424
g7
S'g6'
p1425
sa(dp1426
g5
S'black_pawn'
p1427
sg7
S'g7'
p1428
sa(dp1429
g5
S'black_king'
p1430
sg7
S'g8'
p1431
sa(dp1432
g5
S'white_rook'
p1433
sg7
S'h1'
p1434
sa(dp1435
g5
S'white_pawn'
p1436
sg7
S'h2'
p1437
sa(dp1438
g7
S'h3'
p1439
sa(dp1440
g7
S'h4'
p1441
sa(dp1442
g7
S'h5'
p1443
sa(dp1444
g5
S'black_pawn'
p1445
sg7
S'h6'
p1446
sa(dp1447
g7
S'h7'
p1448
sa(dp1449
g7
S'h8'
p1450
saaVplayed in error: I was considering Qf5, Bxg2, Rg1, but could find nothing after Bb7... best here is Qe3, Bc5/Bg5, Qh3...
p1451
aa(lp1452
S'16... Bxg2 17. Rg1 Bb7 18. d3 Qb6 19. Bd2'
p1453
a(lp1454
(dp1455
g5
S'white_rook'
p1456
sg7
S'a1'
p1457
sa(dp1458
g5
S'white_pawn'
p1459
sg7
S'a2'
p1460
sa(dp1461
g7
S'a3'
p1462
sa(dp1463
g7
S'a4'
p1464
sa(dp1465
g7
S'a5'
p1466
sa(dp1467
g7
S'a6'
p1468
sa(dp1469
g5
S'black_pawn'
p1470
sg7
S'a7'
p1471
sa(dp1472
g7
S'a8'
p1473
sa(dp1474
g7
S'b1'
p1475
sa(dp1476
g5
S'white_pawn'
p1477
sg7
S'b2'
p1478
sa(dp1479
g7
S'b3'
p1480
sa(dp1481
g7
S'b4'
p1482
sa(dp1483
g7
S'b5'
p1484
sa(dp1485
g5
S'black_queen'
p1486
sg7
S'b6'
p1487
sa(dp1488
g5
S'black_bishop'
p1489
sg7
S'b7'
p1490
sa(dp1491
g7
S'b8'
p1492
sa(dp1493
g7
S'c1'
p1494
sa(dp1495
g5
S'white_pawn'
p1496
sg7
S'c2'
p1497
sa(dp1498
g5
S'white_knight'
p1499
sg7
S'c3'
p1500
sa(dp1501
g7
S'c4'
p1502
sa(dp1503
g7
S'c5'
p1504
sa(dp1505
g7
S'c6'
p1506
sa(dp1507
g7
S'c7'
p1508
sa(dp1509
g5
S'black_rook'
p1510
sg7
S'c8'
p1511
sa(dp1512
g7
S'd1'
p1513
sa(dp1514
g5
S'white_bishop'
p1515
sg7
S'd2'
p1516
sa(dp1517
g5
S'white_pawn'
p1518
sg7
S'd3'
p1519
sa(dp1520
g7
S'd4'
p1521
sa(dp1522
g7
S'd5'
p1523
sa(dp1524
g7
S'd6'
p1525
sa(dp1526
g7
S'd7'
p1527
sa(dp1528
g7
S'd8'
p1529
sa(dp1530
g5
S'white_king'
p1531
sg7
S'e1'
p1532
sa(dp1533
g5
S'white_queen'
p1534
sg7
S'e2'
p1535
sa(dp1536
g7
S'e3'
p1537
sa(dp1538
g7
S'e4'
p1539
sa(dp1540
g5
S'black_pawn'
p1541
sg7
S'e5'
p1542
sa(dp1543
g7
S'e6'
p1544
sa(dp1545
g5
S'black_bishop'
p1546
sg7
S'e7'
p1547
sa(dp1548
g7
S'e8'
p1549
sa(dp1550
g7
S'f1'
p1551
sa(dp1552
g5
S'white_pawn'
p1553
sg7
S'f2'
p1554
sa(dp1555
g7
S'f3'
p1556
sa(dp1557
g7
S'f4'
p1558
sa(dp1559
g7
S'f5'
p1560
sa(dp1561
g7
S'f6'
p1562
sa(dp1563
g5
S'black_pawn'
p1564
sg7
S'f7'
p1565
sa(dp1566
g5
S'black_rook'
p1567
sg7
S'f8'
p1568
sa(dp1569
g5
S'white_rook'
p1570
sg7
S'g1'
p1571
sa(dp1572
g7
S'g2'
p1573
sa(dp1574
g7
S'g3'
p1575
sa(dp1576
g7
S'g4'
p1577
sa(dp1578
g7
S'g5'
p1579
sa(dp1580
g7
S'g6'
p1581
sa(dp1582
g5
S'black_pawn'
p1583
sg7
S'g7'
p1584
sa(dp1585
g5
S'black_king'
p1586
sg7
S'g8'
p1587
sa(dp1588
g7
S'h1'
p1589
sa(dp1590
g5
S'white_pawn'
p1591
sg7
S'h2'
p1592
sa(dp1593
g7
S'h3'
p1594
sa(dp1595
g7
S'h4'
p1596
sa(dp1597
g7
S'h5'
p1598
sa(dp1599
g5
S'black_pawn'
p1600
sg7
S'h6'
p1601
sa(dp1602
g7
S'h7'
p1603
sa(dp1604
g7
S'h8'
p1605
saaValthough still a pawn ahead, White is getting in trouble...
p1606
aa(lp1607
S'19... Bh4'
p1608
a(lp1609
(dp1610
g5
S'white_rook'
p1611
sg7
S'a1'
p1612
sa(dp1613
g5
S'white_pawn'
p1614
sg7
S'a2'
p1615
sa(dp1616
g7
S'a3'
p1617
sa(dp1618
g7
S'a4'
p1619
sa(dp1620
g7
S'a5'
p1621
sa(dp1622
g7
S'a6'
p1623
sa(dp1624
g5
S'black_pawn'
p1625
sg7
S'a7'
p1626
sa(dp1627
g7
S'a8'
p1628
sa(dp1629
g7
S'b1'
p1630
sa(dp1631
g5
S'white_pawn'
p1632
sg7
S'b2'
p1633
sa(dp1634
g7
S'b3'
p1635
sa(dp1636
g7
S'b4'
p1637
sa(dp1638
g7
S'b5'
p1639
sa(dp1640
g5
S'black_queen'
p1641
sg7
S'b6'
p1642
sa(dp1643
g5
S'black_bishop'
p1644
sg7
S'b7'
p1645
sa(dp1646
g7
S'b8'
p1647
sa(dp1648
g7
S'c1'
p1649
sa(dp1650
g5
S'white_pawn'
p1651
sg7
S'c2'
p1652
sa(dp1653
g5
S'white_knight'
p1654
sg7
S'c3'
p1655
sa(dp1656
g7
S'c4'
p1657
sa(dp1658
g7
S'c5'
p1659
sa(dp1660
g7
S'c6'
p1661
sa(dp1662
g7
S'c7'
p1663
sa(dp1664
g5
S'black_rook'
p1665
sg7
S'c8'
p1666
sa(dp1667
g7
S'd1'
p1668
sa(dp1669
g5
S'white_bishop'
p1670
sg7
S'd2'
p1671
sa(dp1672
g5
S'white_pawn'
p1673
sg7
S'd3'
p1674
sa(dp1675
g7
S'd4'
p1676
sa(dp1677
g7
S'd5'
p1678
sa(dp1679
g7
S'd6'
p1680
sa(dp1681
g7
S'd7'
p1682
sa(dp1683
g7
S'd8'
p1684
sa(dp1685
g5
S'white_king'
p1686
sg7
S'e1'
p1687
sa(dp1688
g5
S'white_queen'
p1689
sg7
S'e2'
p1690
sa(dp1691
g7
S'e3'
p1692
sa(dp1693
g7
S'e4'
p1694
sa(dp1695
g5
S'black_pawn'
p1696
sg7
S'e5'
p1697
sa(dp1698
g7
S'e6'
p1699
sa(dp1700
g7
S'e7'
p1701
sa(dp1702
g7
S'e8'
p1703
sa(dp1704
g7
S'f1'
p1705
sa(dp1706
g5
S'white_pawn'
p1707
sg7
S'f2'
p1708
sa(dp1709
g7
S'f3'
p1710
sa(dp1711
g7
S'f4'
p1712
sa(dp1713
g7
S'f5'
p1714
sa(dp1715
g7
S'f6'
p1716
sa(dp1717
g5
S'black_pawn'
p1718
sg7
S'f7'
p1719
sa(dp1720
g5
S'black_rook'
p1721
sg7
S'f8'
p1722
sa(dp1723
g5
S'white_rook'
p1724
sg7
S'g1'
p1725
sa(dp1726
g7
S'g2'
p1727
sa(dp1728
g7
S'g3'
p1729
sa(dp1730
g7
S'g4'
p1731
sa(dp1732
g7
S'g5'
p1733
sa(dp1734
g7
S'g6'
p1735
sa(dp1736
g5
S'black_pawn'
p1737
sg7
S'g7'
p1738
sa(dp1739
g5
S'black_king'
p1740
sg7
S'g8'
p1741
sa(dp1742
g7
S'h1'
p1743
sa(dp1744
g5
S'white_pawn'
p1745
sg7
S'h2'
p1746
sa(dp1747
g7
S'h3'
p1748
sa(dp1749
g5
S'black_bishop'
p1750
sg7
S'h4'
p1751
sa(dp1752
g7
S'h5'
p1753
sa(dp1754
g5
S'black_pawn'
p1755
sg7
S'h6'
p1756
sa(dp1757
g7
S'h7'
p1758
sa(dp1759
g7
S'h8'
p1760
saaVI was calculating on Qf6, Qh5, Kh8, Rg3, Bc5, 0-0-0, Bd4... this move was stronger, than I suspected...
p1761
aa(lp1762
S'20. Qe3 Qf6'
p1763
a(lp1764
(dp1765
g5
S'white_rook'
p1766
sg7
S'a1'
p1767
sa(dp1768
g5
S'white_pawn'
p1769
sg7
S'a2'
p1770
sa(dp1771
g7
S'a3'
p1772
sa(dp1773
g7
S'a4'
p1774
sa(dp1775
g7
S'a5'
p1776
sa(dp1777
g7
S'a6'
p1778
sa(dp1779
g5
S'black_pawn'
p1780
sg7
S'a7'
p1781
sa(dp1782
g7
S'a8'
p1783
sa(dp1784
g7
S'b1'
p1785
sa(dp1786
g5
S'white_pawn'
p1787
sg7
S'b2'
p1788
sa(dp1789
g7
S'b3'
p1790
sa(dp1791
g7
S'b4'
p1792
sa(dp1793
g7
S'b5'
p1794
sa(dp1795
g7
S'b6'
p1796
sa(dp1797
g5
S'black_bishop'
p1798
sg7
S'b7'
p1799
sa(dp1800
g7
S'b8'
p1801
sa(dp1802
g7
S'c1'
p1803
sa(dp1804
g5
S'white_pawn'
p1805
sg7
S'c2'
p1806
sa(dp1807
g5
S'white_knight'
p1808
sg7
S'c3'
p1809
sa(dp1810
g7
S'c4'
p1811
sa(dp1812
g7
S'c5'
p1813
sa(dp1814
g7
S'c6'
p1815
sa(dp1816
g7
S'c7'
p1817
sa(dp1818
g5
S'black_rook'
p1819
sg7
S'c8'
p1820
sa(dp1821
g7
S'd1'
p1822
sa(dp1823
g5
S'white_bishop'
p1824
sg7
S'd2'
p1825
sa(dp1826
g5
S'white_pawn'
p1827
sg7
S'd3'
p1828
sa(dp1829
g7
S'd4'
p1830
sa(dp1831
g7
S'd5'
p1832
sa(dp1833
g7
S'd6'
p1834
sa(dp1835
g7
S'd7'
p1836
sa(dp1837
g7
S'd8'
p1838
sa(dp1839
g5
S'white_king'
p1840
sg7
S'e1'
p1841
sa(dp1842
g7
S'e2'
p1843
sa(dp1844
g5
S'white_queen'
p1845
sg7
S'e3'
p1846
sa(dp1847
g7
S'e4'
p1848
sa(dp1849
g5
S'black_pawn'
p1850
sg7
S'e5'
p1851
sa(dp1852
g7
S'e6'
p1853
sa(dp1854
g7
S'e7'
p1855
sa(dp1856
g7
S'e8'
p1857
sa(dp1858
g7
S'f1'
p1859
sa(dp1860
g5
S'white_pawn'
p1861
sg7
S'f2'
p1862
sa(dp1863
g7
S'f3'
p1864
sa(dp1865
g7
S'f4'
p1866
sa(dp1867
g7
S'f5'
p1868
sa(dp1869
g5
S'black_queen'
p1870
sg7
S'f6'
p1871
sa(dp1872
g5
S'black_pawn'
p1873
sg7
S'f7'
p1874
sa(dp1875
g5
S'black_rook'
p1876
sg7
S'f8'
p1877
sa(dp1878
g5
S'white_rook'
p1879
sg7
S'g1'
p1880
sa(dp1881
g7
S'g2'
p1882
sa(dp1883
g7
S'g3'
p1884
sa(dp1885
g7
S'g4'
p1886
sa(dp1887
g7
S'g5'
p1888
sa(dp1889
g7
S'g6'
p1890
sa(dp1891
g5
S'black_pawn'
p1892
sg7
S'g7'
p1893
sa(dp1894
g5
S'black_king'
p1895
sg7
S'g8'
p1896
sa(dp1897
g7
S'h1'
p1898
sa(dp1899
g5
S'white_pawn'
p1900
sg7
S'h2'
p1901
sa(dp1902
g7
S'h3'
p1903
sa(dp1904
g5
S'black_bishop'
p1905
sg7
S'h4'
p1906
sa(dp1907
g7
S'h5'
p1908
sa(dp1909
g5
S'black_pawn'
p1910
sg7
S'h6'
p1911
sa(dp1912
g7
S'h7'
p1913
sa(dp1914
g7
S'h8'
p1915
saaVdonating another pawn; I was in no position to argue...
p1916
aa(lp1917
S'21. Qxa7 Bf3'
p1918
a(lp1919
(dp1920
g5
S'white_rook'
p1921
sg7
S'a1'
p1922
sa(dp1923
g5
S'white_pawn'
p1924
sg7
S'a2'
p1925
sa(dp1926
g7
S'a3'
p1927
sa(dp1928
g7
S'a4'
p1929
sa(dp1930
g7
S'a5'
p1931
sa(dp1932
g7
S'a6'
p1933
sa(dp1934
g5
S'white_queen'
p1935
sg7
S'a7'
p1936
sa(dp1937
g7
S'a8'
p1938
sa(dp1939
g7
S'b1'
p1940
sa(dp1941
g5
S'white_pawn'
p1942
sg7
S'b2'
p1943
sa(dp1944
g7
S'b3'
p1945
sa(dp1946
g7
S'b4'
p1947
sa(dp1948
g7
S'b5'
p1949
sa(dp1950
g7
S'b6'
p1951
sa(dp1952
g7
S'b7'
p1953
sa(dp1954
g7
S'b8'
p1955
sa(dp1956
g7
S'c1'
p1957
sa(dp1958
g5
S'white_pawn'
p1959
sg7
S'c2'
p1960
sa(dp1961
g5
S'white_knight'
p1962
sg7
S'c3'
p1963
sa(dp1964
g7
S'c4'
p1965
sa(dp1966
g7
S'c5'
p1967
sa(dp1968
g7
S'c6'
p1969
sa(dp1970
g7
S'c7'
p1971
sa(dp1972
g5
S'black_rook'
p1973
sg7
S'c8'
p1974
sa(dp1975
g7
S'd1'
p1976
sa(dp1977
g5
S'white_bishop'
p1978
sg7
S'd2'
p1979
sa(dp1980
g5
S'white_pawn'
p1981
sg7
S'd3'
p1982
sa(dp1983
g7
S'd4'
p1984
sa(dp1985
g7
S'd5'
p1986
sa(dp1987
g7
S'd6'
p1988
sa(dp1989
g7
S'd7'
p1990
sa(dp1991
g7
S'd8'
p1992
sa(dp1993
g5
S'white_king'
p1994
sg7
S'e1'
p1995
sa(dp1996
g7
S'e2'
p1997
sa(dp1998
g7
S'e3'
p1999
sa(dp2000
g7
S'e4'
p2001
sa(dp2002
g5
S'black_pawn'
p2003
sg7
S'e5'
p2004
sa(dp2005
g7
S'e6'
p2006
sa(dp2007
g7
S'e7'
p2008
sa(dp2009
g7
S'e8'
p2010
sa(dp2011
g7
S'f1'
p2012
sa(dp2013
g5
S'white_pawn'
p2014
sg7
S'f2'
p2015
sa(dp2016
g5
S'black_bishop'
p2017
sg7
S'f3'
p2018
sa(dp2019
g7
S'f4'
p2020
sa(dp2021
g7
S'f5'
p2022
sa(dp2023
g5
S'black_queen'
p2024
sg7
S'f6'
p2025
sa(dp2026
g5
S'black_pawn'
p2027
sg7
S'f7'
p2028
sa(dp2029
g5
S'black_rook'
p2030
sg7
S'f8'
p2031
sa(dp2032
g5
S'white_rook'
p2033
sg7
S'g1'
p2034
sa(dp2035
g7
S'g2'
p2036
sa(dp2037
g7
S'g3'
p2038
sa(dp2039
g7
S'g4'
p2040
sa(dp2041
g7
S'g5'
p2042
sa(dp2043
g7
S'g6'
p2044
sa(dp2045
g5
S'black_pawn'
p2046
sg7
S'g7'
p2047
sa(dp2048
g5
S'black_king'
p2049
sg7
S'g8'
p2050
sa(dp2051
g7
S'h1'
p2052
sa(dp2053
g5
S'white_pawn'
p2054
sg7
S'h2'
p2055
sa(dp2056
g7
S'h3'
p2057
sa(dp2058
g5
S'black_bishop'
p2059
sg7
S'h4'
p2060
sa(dp2061
g7
S'h5'
p2062
sa(dp2063
g5
S'black_pawn'
p2064
sg7
S'h6'
p2065
sa(dp2066
g7
S'h7'
p2067
sa(dp2068
g7
S'h8'
p2069
saaVafter Rfe8, Qe3; this prohibits long castling...
p2070
aa(lp2071
S'22. Qe3 Kh8'
p2072
a(lp2073
(dp2074
g5
S'white_rook'
p2075
sg7
S'a1'
p2076
sa(dp2077
g5
S'white_pawn'
p2078
sg7
S'a2'
p2079
sa(dp2080
g7
S'a3'
p2081
sa(dp2082
g7
S'a4'
p2083
sa(dp2084
g7
S'a5'
p2085
sa(dp2086
g7
S'a6'
p2087
sa(dp2088
g7
S'a7'
p2089
sa(dp2090
g7
S'a8'
p2091
sa(dp2092
g7
S'b1'
p2093
sa(dp2094
g5
S'white_pawn'
p2095
sg7
S'b2'
p2096
sa(dp2097
g7
S'b3'
p2098
sa(dp2099
g7
S'b4'
p2100
sa(dp2101
g7
S'b5'
p2102
sa(dp2103
g7
S'b6'
p2104
sa(dp2105
g7
S'b7'
p2106
sa(dp2107
g7
S'b8'
p2108
sa(dp2109
g7
S'c1'
p2110
sa(dp2111
g5
S'white_pawn'
p2112
sg7
S'c2'
p2113
sa(dp2114
g5
S'white_knight'
p2115
sg7
S'c3'
p2116
sa(dp2117
g7
S'c4'
p2118
sa(dp2119
g7
S'c5'
p2120
sa(dp2121
g7
S'c6'
p2122
sa(dp2123
g7
S'c7'
p2124
sa(dp2125
g5
S'black_rook'
p2126
sg7
S'c8'
p2127
sa(dp2128
g7
S'd1'
p2129
sa(dp2130
g5
S'white_bishop'
p2131
sg7
S'd2'
p2132
sa(dp2133
g5
S'white_pawn'
p2134
sg7
S'd3'
p2135
sa(dp2136
g7
S'd4'
p2137
sa(dp2138
g7
S'd5'
p2139
sa(dp2140
g7
S'd6'
p2141
sa(dp2142
g7
S'd7'
p2143
sa(dp2144
g7
S'd8'
p2145
sa(dp2146
g5
S'white_king'
p2147
sg7
S'e1'
p2148
sa(dp2149
g7
S'e2'
p2150
sa(dp2151
g5
S'white_queen'
p2152
sg7
S'e3'
p2153
sa(dp2154
g7
S'e4'
p2155
sa(dp2156
g5
S'black_pawn'
p2157
sg7
S'e5'
p2158
sa(dp2159
g7
S'e6'
p2160
sa(dp2161
g7
S'e7'
p2162
sa(dp2163
g7
S'e8'
p2164
sa(dp2165
g7
S'f1'
p2166
sa(dp2167
g5
S'white_pawn'
p2168
sg7
S'f2'
p2169
sa(dp2170
g5
S'black_bishop'
p2171
sg7
S'f3'
p2172
sa(dp2173
g7
S'f4'
p2174
sa(dp2175
g7
S'f5'
p2176
sa(dp2177
g5
S'black_queen'
p2178
sg7
S'f6'
p2179
sa(dp2180
g5
S'black_pawn'
p2181
sg7
S'f7'
p2182
sa(dp2183
g5
S'black_rook'
p2184
sg7
S'f8'
p2185
sa(dp2186
g5
S'white_rook'
p2187
sg7
S'g1'
p2188
sa(dp2189
g7
S'g2'
p2190
sa(dp2191
g7
S'g3'
p2192
sa(dp2193
g7
S'g4'
p2194
sa(dp2195
g7
S'g5'
p2196
sa(dp2197
g7
S'g6'
p2198
sa(dp2199
g5
S'black_pawn'
p2200
sg7
S'g7'
p2201
sa(dp2202
g7
S'g8'
p2203
sa(dp2204
g7
S'h1'
p2205
sa(dp2206
g5
S'white_pawn'
p2207
sg7
S'h2'
p2208
sa(dp2209
g7
S'h3'
p2210
sa(dp2211
g5
S'black_bishop'
p2212
sg7
S'h4'
p2213
sa(dp2214
g7
S'h5'
p2215
sa(dp2216
g5
S'black_pawn'
p2217
sg7
S'h6'
p2218
sa(dp2219
g7
S'h7'
p2220
sa(dp2221
g5
S'black_king'
p2222
sg7
S'h8'
p2223
saaVno use is Bg5, Rxg5, hxg5, Qxg5, Qb6, Qf5, e4, Nd5...
p2224
aa(lp2225
S'23. a4'
p2226
a(lp2227
(dp2228
g5
S'white_rook'
p2229
sg7
S'a1'
p2230
sa(dp2231
g7
S'a2'
p2232
sa(dp2233
g7
S'a3'
p2234
sa(dp2235
g5
S'white_pawn'
p2236
sg7
S'a4'
p2237
sa(dp2238
g7
S'a5'
p2239
sa(dp2240
g7
S'a6'
p2241
sa(dp2242
g7
S'a7'
p2243
sa(dp2244
g7
S'a8'
p2245
sa(dp2246
g7
S'b1'
p2247
sa(dp2248
g5
S'white_pawn'
p2249
sg7
S'b2'
p2250
sa(dp2251
g7
S'b3'
p2252
sa(dp2253
g7
S'b4'
p2254
sa(dp2255
g7
S'b5'
p2256
sa(dp2257
g7
S'b6'
p2258
sa(dp2259
g7
S'b7'
p2260
sa(dp2261
g7
S'b8'
p2262
sa(dp2263
g7
S'c1'
p2264
sa(dp2265
g5
S'white_pawn'
p2266
sg7
S'c2'
p2267
sa(dp2268
g5
S'white_knight'
p2269
sg7
S'c3'
p2270
sa(dp2271
g7
S'c4'
p2272
sa(dp2273
g7
S'c5'
p2274
sa(dp2275
g7
S'c6'
p2276
sa(dp2277
g7
S'c7'
p2278
sa(dp2279
g5
S'black_rook'
p2280
sg7
S'c8'
p2281
sa(dp2282
g7
S'd1'
p2283
sa(dp2284
g5
S'white_bishop'
p2285
sg7
S'd2'
p2286
sa(dp2287
g5
S'white_pawn'
p2288
sg7
S'd3'
p2289
sa(dp2290
g7
S'd4'
p2291
sa(dp2292
g7
S'd5'
p2293
sa(dp2294
g7
S'd6'
p2295
sa(dp2296
g7
S'd7'
p2297
sa(dp2298
g7
S'd8'
p2299
sa(dp2300
g5
S'white_king'
p2301
sg7
S'e1'
p2302
sa(dp2303
g7
S'e2'
p2304
sa(dp2305
g5
S'white_queen'
p2306
sg7
S'e3'
p2307
sa(dp2308
g7
S'e4'
p2309
sa(dp2310
g5
S'black_pawn'
p2311
sg7
S'e5'
p2312
sa(dp2313
g7
S'e6'
p2314
sa(dp2315
g7
S'e7'
p2316
sa(dp2317
g7
S'e8'
p2318
sa(dp2319
g7
S'f1'
p2320
sa(dp2321
g5
S'white_pawn'
p2322
sg7
S'f2'
p2323
sa(dp2324
g5
S'black_bishop'
p2325
sg7
S'f3'
p2326
sa(dp2327
g7
S'f4'
p2328
sa(dp2329
g7
S'f5'
p2330
sa(dp2331
g5
S'black_queen'
p2332
sg7
S'f6'
p2333
sa(dp2334
g5
S'black_pawn'
p2335
sg7
S'f7'
p2336
sa(dp2337
g5
S'black_rook'
p2338
sg7
S'f8'
p2339
sa(dp2340
g5
S'white_rook'
p2341
sg7
S'g1'
p2342
sa(dp2343
g7
S'g2'
p2344
sa(dp2345
g7
S'g3'
p2346
sa(dp2347
g7
S'g4'
p2348
sa(dp2349
g7
S'g5'
p2350
sa(dp2351
g7
S'g6'
p2352
sa(dp2353
g5
S'black_pawn'
p2354
sg7
S'g7'
p2355
sa(dp2356
g7
S'g8'
p2357
sa(dp2358
g7
S'h1'
p2359
sa(dp2360
g5
S'white_pawn'
p2361
sg7
S'h2'
p2362
sa(dp2363
g7
S'h3'
p2364
sa(dp2365
g5
S'black_bishop'
p2366
sg7
S'h4'
p2367
sa(dp2368
g7
S'h5'
p2369
sa(dp2370
g5
S'black_pawn'
p2371
sg7
S'h6'
p2372
sa(dp2373
g7
S'h7'
p2374
sa(dp2375
g5
S'black_king'
p2376
sg7
S'h8'
p2377
saaVbringing another pawn in the mixture...
p2378
aa(lp2379
S'23... Rc6'
p2380
a(lp2381
(dp2382
g5
S'white_rook'
p2383
sg7
S'a1'
p2384
sa(dp2385
g7
S'a2'
p2386
sa(dp2387
g7
S'a3'
p2388
sa(dp2389
g5
S'white_pawn'
p2390
sg7
S'a4'
p2391
sa(dp2392
g7
S'a5'
p2393
sa(dp2394
g7
S'a6'
p2395
sa(dp2396
g7
S'a7'
p2397
sa(dp2398
g7
S'a8'
p2399
sa(dp2400
g7
S'b1'
p2401
sa(dp2402
g5
S'white_pawn'
p2403
sg7
S'b2'
p2404
sa(dp2405
g7
S'b3'
p2406
sa(dp2407
g7
S'b4'
p2408
sa(dp2409
g7
S'b5'
p2410
sa(dp2411
g7
S'b6'
p2412
sa(dp2413
g7
S'b7'
p2414
sa(dp2415
g7
S'b8'
p2416
sa(dp2417
g7
S'c1'
p2418
sa(dp2419
g5
S'white_pawn'
p2420
sg7
S'c2'
p2421
sa(dp2422
g5
S'white_knight'
p2423
sg7
S'c3'
p2424
sa(dp2425
g7
S'c4'
p2426
sa(dp2427
g7
S'c5'
p2428
sa(dp2429
g5
S'black_rook'
p2430
sg7
S'c6'
p2431
sa(dp2432
g7
S'c7'
p2433
sa(dp2434
g7
S'c8'
p2435
sa(dp2436
g7
S'd1'
p2437
sa(dp2438
g5
S'white_bishop'
p2439
sg7
S'd2'
p2440
sa(dp2441
g5
S'white_pawn'
p2442
sg7
S'd3'
p2443
sa(dp2444
g7
S'd4'
p2445
sa(dp2446
g7
S'd5'
p2447
sa(dp2448
g7
S'd6'
p2449
sa(dp2450
g7
S'd7'
p2451
sa(dp2452
g7
S'd8'
p2453
sa(dp2454
g5
S'white_king'
p2455
sg7
S'e1'
p2456
sa(dp2457
g7
S'e2'
p2458
sa(dp2459
g5
S'white_queen'
p2460
sg7
S'e3'
p2461
sa(dp2462
g7
S'e4'
p2463
sa(dp2464
g5
S'black_pawn'
p2465
sg7
S'e5'
p2466
sa(dp2467
g7
S'e6'
p2468
sa(dp2469
g7
S'e7'
p2470
sa(dp2471
g7
S'e8'
p2472
sa(dp2473
g7
S'f1'
p2474
sa(dp2475
g5
S'white_pawn'
p2476
sg7
S'f2'
p2477
sa(dp2478
g5
S'black_bishop'
p2479
sg7
S'f3'
p2480
sa(dp2481
g7
S'f4'
p2482
sa(dp2483
g7
S'f5'
p2484
sa(dp2485
g5
S'black_queen'
p2486
sg7
S'f6'
p2487
sa(dp2488
g5
S'black_pawn'
p2489
sg7
S'f7'
p2490
sa(dp2491
g5
S'black_rook'
p2492
sg7
S'f8'
p2493
sa(dp2494
g5
S'white_rook'
p2495
sg7
S'g1'
p2496
sa(dp2497
g7
S'g2'
p2498
sa(dp2499
g7
S'g3'
p2500
sa(dp2501
g7
S'g4'
p2502
sa(dp2503
g7
S'g5'
p2504
sa(dp2505
g7
S'g6'
p2506
sa(dp2507
g5
S'black_pawn'
p2508
sg7
S'g7'
p2509
sa(dp2510
g7
S'g8'
p2511
sa(dp2512
g7
S'h1'
p2513
sa(dp2514
g5
S'white_pawn'
p2515
sg7
S'h2'
p2516
sa(dp2517
g7
S'h3'
p2518
sa(dp2519
g5
S'black_bishop'
p2520
sg7
S'h4'
p2521
sa(dp2522
g7
S'h5'
p2523
sa(dp2524
g5
S'black_pawn'
p2525
sg7
S'h6'
p2526
sa(dp2527
g7
S'h7'
p2528
sa(dp2529
g5
S'black_king'
p2530
sg7
S'h8'
p2531
saaVaccording to GK analysis, this is a mistake; I am not so sure... this pawn will not make the difference...
p2532
aa(lp2533
S'24. a5 Rb8 25. a6 Rxb2 26. a7 Rc8'
p2534
a(lp2535
(dp2536
g5
S'white_rook'
p2537
sg7
S'a1'
p2538
sa(dp2539
g7
S'a2'
p2540
sa(dp2541
g7
S'a3'
p2542
sa(dp2543
g7
S'a4'
p2544
sa(dp2545
g7
S'a5'
p2546
sa(dp2547
g7
S'a6'
p2548
sa(dp2549
g5
S'white_pawn'
p2550
sg7
S'a7'
p2551
sa(dp2552
g7
S'a8'
p2553
sa(dp2554
g7
S'b1'
p2555
sa(dp2556
g5
S'black_rook'
p2557
sg7
S'b2'
p2558
sa(dp2559
g7
S'b3'
p2560
sa(dp2561
g7
S'b4'
p2562
sa(dp2563
g7
S'b5'
p2564
sa(dp2565
g7
S'b6'
p2566
sa(dp2567
g7
S'b7'
p2568
sa(dp2569
g7
S'b8'
p2570
sa(dp2571
g7
S'c1'
p2572
sa(dp2573
g5
S'white_pawn'
p2574
sg7
S'c2'
p2575
sa(dp2576
g5
S'white_knight'
p2577
sg7
S'c3'
p2578
sa(dp2579
g7
S'c4'
p2580
sa(dp2581
g7
S'c5'
p2582
sa(dp2583
g7
S'c6'
p2584
sa(dp2585
g7
S'c7'
p2586
sa(dp2587
g5
S'black_rook'
p2588
sg7
S'c8'
p2589
sa(dp2590
g7
S'd1'
p2591
sa(dp2592
g5
S'white_bishop'
p2593
sg7
S'd2'
p2594
sa(dp2595
g5
S'white_pawn'
p2596
sg7
S'd3'
p2597
sa(dp2598
g7
S'd4'
p2599
sa(dp2600
g7
S'd5'
p2601
sa(dp2602
g7
S'd6'
p2603
sa(dp2604
g7
S'd7'
p2605
sa(dp2606
g7
S'd8'
p2607
sa(dp2608
g5
S'white_king'
p2609
sg7
S'e1'
p2610
sa(dp2611
g7
S'e2'
p2612
sa(dp2613
g5
S'white_queen'
p2614
sg7
S'e3'
p2615
sa(dp2616
g7
S'e4'
p2617
sa(dp2618
g5
S'black_pawn'
p2619
sg7
S'e5'
p2620
sa(dp2621
g7
S'e6'
p2622
sa(dp2623
g7
S'e7'
p2624
sa(dp2625
g7
S'e8'
p2626
sa(dp2627
g7
S'f1'
p2628
sa(dp2629
g5
S'white_pawn'
p2630
sg7
S'f2'
p2631
sa(dp2632
g5
S'black_bishop'
p2633
sg7
S'f3'
p2634
sa(dp2635
g7
S'f4'
p2636
sa(dp2637
g7
S'f5'
p2638
sa(dp2639
g5
S'black_queen'
p2640
sg7
S'f6'
p2641
sa(dp2642
g5
S'black_pawn'
p2643
sg7
S'f7'
p2644
sa(dp2645
g7
S'f8'
p2646
sa(dp2647
g5
S'white_rook'
p2648
sg7
S'g1'
p2649
sa(dp2650
g7
S'g2'
p2651
sa(dp2652
g7
S'g3'
p2653
sa(dp2654
g7
S'g4'
p2655
sa(dp2656
g7
S'g5'
p2657
sa(dp2658
g7
S'g6'
p2659
sa(dp2660
g5
S'black_pawn'
p2661
sg7
S'g7'
p2662
sa(dp2663
g7
S'g8'
p2664
sa(dp2665
g7
S'h1'
p2666
sa(dp2667
g5
S'white_pawn'
p2668
sg7
S'h2'
p2669
sa(dp2670
g7
S'h3'
p2671
sa(dp2672
g5
S'black_bishop'
p2673
sg7
S'h4'
p2674
sa(dp2675
g7
S'h5'
p2676
sa(dp2677
g5
S'black_pawn'
p2678
sg7
S'h6'
p2679
sa(dp2680
g7
S'h7'
p2681
sa(dp2682
g5
S'black_king'
p2683
sg7
S'h8'
p2684
saaVthe only one...
p2685
aa(lp2686
S'27. Ne4'
p2687
a(lp2688
(dp2689
g5
S'white_rook'
p2690
sg7
S'a1'
p2691
sa(dp2692
g7
S'a2'
p2693
sa(dp2694
g7
S'a3'
p2695
sa(dp2696
g7
S'a4'
p2697
sa(dp2698
g7
S'a5'
p2699
sa(dp2700
g7
S'a6'
p2701
sa(dp2702
g5
S'white_pawn'
p2703
sg7
S'a7'
p2704
sa(dp2705
g7
S'a8'
p2706
sa(dp2707
g7
S'b1'
p2708
sa(dp2709
g5
S'black_rook'
p2710
sg7
S'b2'
p2711
sa(dp2712
g7
S'b3'
p2713
sa(dp2714
g7
S'b4'
p2715
sa(dp2716
g7
S'b5'
p2717
sa(dp2718
g7
S'b6'
p2719
sa(dp2720
g7
S'b7'
p2721
sa(dp2722
g7
S'b8'
p2723
sa(dp2724
g7
S'c1'
p2725
sa(dp2726
g5
S'white_pawn'
p2727
sg7
S'c2'
p2728
sa(dp2729
g7
S'c3'
p2730
sa(dp2731
g7
S'c4'
p2732
sa(dp2733
g7
S'c5'
p2734
sa(dp2735
g7
S'c6'
p2736
sa(dp2737
g7
S'c7'
p2738
sa(dp2739
g5
S'black_rook'
p2740
sg7
S'c8'
p2741
sa(dp2742
g7
S'd1'
p2743
sa(dp2744
g5
S'white_bishop'
p2745
sg7
S'd2'
p2746
sa(dp2747
g5
S'white_pawn'
p2748
sg7
S'd3'
p2749
sa(dp2750
g7
S'd4'
p2751
sa(dp2752
g7
S'd5'
p2753
sa(dp2754
g7
S'd6'
p2755
sa(dp2756
g7
S'd7'
p2757
sa(dp2758
g7
S'd8'
p2759
sa(dp2760
g5
S'white_king'
p2761
sg7
S'e1'
p2762
sa(dp2763
g7
S'e2'
p2764
sa(dp2765
g5
S'white_queen'
p2766
sg7
S'e3'
p2767
sa(dp2768
g5
S'white_knight'
p2769
sg7
S'e4'
p2770
sa(dp2771
g5
S'black_pawn'
p2772
sg7
S'e5'
p2773
sa(dp2774
g7
S'e6'
p2775
sa(dp2776
g7
S'e7'
p2777
sa(dp2778
g7
S'e8'
p2779
sa(dp2780
g7
S'f1'
p2781
sa(dp2782
g5
S'white_pawn'
p2783
sg7
S'f2'
p2784
sa(dp2785
g5
S'black_bishop'
p2786
sg7
S'f3'
p2787
sa(dp2788
g7
S'f4'
p2789
sa(dp2790
g7
S'f5'
p2791
sa(dp2792
g5
S'black_queen'
p2793
sg7
S'f6'
p2794
sa(dp2795
g5
S'black_pawn'
p2796
sg7
S'f7'
p2797
sa(dp2798
g7
S'f8'
p2799
sa(dp2800
g5
S'white_rook'
p2801
sg7
S'g1'
p2802
sa(dp2803
g7
S'g2'
p2804
sa(dp2805
g7
S'g3'
p2806
sa(dp2807
g7
S'g4'
p2808
sa(dp2809
g7
S'g5'
p2810
sa(dp2811
g7
S'g6'
p2812
sa(dp2813
g5
S'black_pawn'
p2814
sg7
S'g7'
p2815
sa(dp2816
g7
S'g8'
p2817
sa(dp2818
g7
S'h1'
p2819
sa(dp2820
g5
S'white_pawn'
p2821
sg7
S'h2'
p2822
sa(dp2823
g7
S'h3'
p2824
sa(dp2825
g5
S'black_bishop'
p2826
sg7
S'h4'
p2827
sa(dp2828
g7
S'h5'
p2829
sa(dp2830
g5
S'black_pawn'
p2831
sg7
S'h6'
p2832
sa(dp2833
g7
S'h7'
p2834
sa(dp2835
g5
S'black_king'
p2836
sg7
S'h8'
p2837
saaVthe only way to disarm Bf3, in order to reach a8...
p2838
aa(lp2839
S'27... Bxe4 28. dxe4 Qc6'
p2840
a(lp2841
(dp2842
g5
S'white_rook'
p2843
sg7
S'a1'
p2844
sa(dp2845
g7
S'a2'
p2846
sa(dp2847
g7
S'a3'
p2848
sa(dp2849
g7
S'a4'
p2850
sa(dp2851
g7
S'a5'
p2852
sa(dp2853
g7
S'a6'
p2854
sa(dp2855
g5
S'white_pawn'
p2856
sg7
S'a7'
p2857
sa(dp2858
g7
S'a8'
p2859
sa(dp2860
g7
S'b1'
p2861
sa(dp2862
g5
S'black_rook'
p2863
sg7
S'b2'
p2864
sa(dp2865
g7
S'b3'
p2866
sa(dp2867
g7
S'b4'
p2868
sa(dp2869
g7
S'b5'
p2870
sa(dp2871
g7
S'b6'
p2872
sa(dp2873
g7
S'b7'
p2874
sa(dp2875
g7
S'b8'
p2876
sa(dp2877
g7
S'c1'
p2878
sa(dp2879
g5
S'white_pawn'
p2880
sg7
S'c2'
p2881
sa(dp2882
g7
S'c3'
p2883
sa(dp2884
g7
S'c4'
p2885
sa(dp2886
g7
S'c5'
p2887
sa(dp2888
g5
S'black_queen'
p2889
sg7
S'c6'
p2890
sa(dp2891
g7
S'c7'
p2892
sa(dp2893
g5
S'black_rook'
p2894
sg7
S'c8'
p2895
sa(dp2896
g7
S'd1'
p2897
sa(dp2898
g5
S'white_bishop'
p2899
sg7
S'd2'
p2900
sa(dp2901
g7
S'd3'
p2902
sa(dp2903
g7
S'd4'
p2904
sa(dp2905
g7
S'd5'
p2906
sa(dp2907
g7
S'd6'
p2908
sa(dp2909
g7
S'd7'
p2910
sa(dp2911
g7
S'd8'
p2912
sa(dp2913
g5
S'white_king'
p2914
sg7
S'e1'
p2915
sa(dp2916
g7
S'e2'
p2917
sa(dp2918
g5
S'white_queen'
p2919
sg7
S'e3'
p2920
sa(dp2921
g5
S'white_pawn'
p2922
sg7
S'e4'
p2923
sa(dp2924
g5
S'black_pawn'
p2925
sg7
S'e5'
p2926
sa(dp2927
g7
S'e6'
p2928
sa(dp2929
g7
S'e7'
p2930
sa(dp2931
g7
S'e8'
p2932
sa(dp2933
g7
S'f1'
p2934
sa(dp2935
g5
S'white_pawn'
p2936
sg7
S'f2'
p2937
sa(dp2938
g7
S'f3'
p2939
sa(dp2940
g7
S'f4'
p2941
sa(dp2942
g7
S'f5'
p2943
sa(dp2944
g7
S'f6'
p2945
sa(dp2946
g5
S'black_pawn'
p2947
sg7
S'f7'
p2948
sa(dp2949
g7
S'f8'
p2950
sa(dp2951
g5
S'white_rook'
p2952
sg7
S'g1'
p2953
sa(dp2954
g7
S'g2'
p2955
sa(dp2956
g7
S'g3'
p2957
sa(dp2958
g7
S'g4'
p2959
sa(dp2960
g7
S'g5'
p2961
sa(dp2962
g7
S'g6'
p2963
sa(dp2964
g5
S'black_pawn'
p2965
sg7
S'g7'
p2966
sa(dp2967
g7
S'g8'
p2968
sa(dp2969
g7
S'h1'
p2970
sa(dp2971
g5
S'white_pawn'
p2972
sg7
S'h2'
p2973
sa(dp2974
g7
S'h3'
p2975
sa(dp2976
g5
S'black_bishop'
p2977
sg7
S'h4'
p2978
sa(dp2979
g7
S'h5'
p2980
sa(dp2981
g5
S'black_pawn'
p2982
sg7
S'h6'
p2983
sa(dp2984
g7
S'h7'
p2985
sa(dp2986
g5
S'black_king'
p2987
sg7
S'h8'
p2988
saaVmost certainly not the best move; that would be Ra8... but White has to react; it is too soon for Rg4...
p2989
aa(lp2990
S'29. Qd3'
p2991
a(lp2992
(dp2993
g5
S'white_rook'
p2994
sg7
S'a1'
p2995
sa(dp2996
g7
S'a2'
p2997
sa(dp2998
g7
S'a3'
p2999
sa(dp3000
g7
S'a4'
p3001
sa(dp3002
g7
S'a5'
p3003
sa(dp3004
g7
S'a6'
p3005
sa(dp3006
g5
S'white_pawn'
p3007
sg7
S'a7'
p3008
sa(dp3009
g7
S'a8'
p3010
sa(dp3011
g7
S'b1'
p3012
sa(dp3013
g5
S'black_rook'
p3014
sg7
S'b2'
p3015
sa(dp3016
g7
S'b3'
p3017
sa(dp3018
g7
S'b4'
p3019
sa(dp3020
g7
S'b5'
p3021
sa(dp3022
g7
S'b6'
p3023
sa(dp3024
g7
S'b7'
p3025
sa(dp3026
g7
S'b8'
p3027
sa(dp3028
g7
S'c1'
p3029
sa(dp3030
g5
S'white_pawn'
p3031
sg7
S'c2'
p3032
sa(dp3033
g7
S'c3'
p3034
sa(dp3035
g7
S'c4'
p3036
sa(dp3037
g7
S'c5'
p3038
sa(dp3039
g5
S'black_queen'
p3040
sg7
S'c6'
p3041
sa(dp3042
g7
S'c7'
p3043
sa(dp3044
g5
S'black_rook'
p3045
sg7
S'c8'
p3046
sa(dp3047
g7
S'd1'
p3048
sa(dp3049
g5
S'white_bishop'
p3050
sg7
S'd2'
p3051
sa(dp3052
g5
S'white_queen'
p3053
sg7
S'd3'
p3054
sa(dp3055
g7
S'd4'
p3056
sa(dp3057
g7
S'd5'
p3058
sa(dp3059
g7
S'd6'
p3060
sa(dp3061
g7
S'd7'
p3062
sa(dp3063
g7
S'd8'
p3064
sa(dp3065
g5
S'white_king'
p3066
sg7
S'e1'
p3067
sa(dp3068
g7
S'e2'
p3069
sa(dp3070
g7
S'e3'
p3071
sa(dp3072
g5
S'white_pawn'
p3073
sg7
S'e4'
p3074
sa(dp3075
g5
S'black_pawn'
p3076
sg7
S'e5'
p3077
sa(dp3078
g7
S'e6'
p3079
sa(dp3080
g7
S'e7'
p3081
sa(dp3082
g7
S'e8'
p3083
sa(dp3084
g7
S'f1'
p3085
sa(dp3086
g5
S'white_pawn'
p3087
sg7
S'f2'
p3088
sa(dp3089
g7
S'f3'
p3090
sa(dp3091
g7
S'f4'
p3092
sa(dp3093
g7
S'f5'
p3094
sa(dp3095
g7
S'f6'
p3096
sa(dp3097
g5
S'black_pawn'
p3098
sg7
S'f7'
p3099
sa(dp3100
g7
S'f8'
p3101
sa(dp3102
g5
S'white_rook'
p3103
sg7
S'g1'
p3104
sa(dp3105
g7
S'g2'
p3106
sa(dp3107
g7
S'g3'
p3108
sa(dp3109
g7
S'g4'
p3110
sa(dp3111
g7
S'g5'
p3112
sa(dp3113
g7
S'g6'
p3114
sa(dp3115
g5
S'black_pawn'
p3116
sg7
S'g7'
p3117
sa(dp3118
g7
S'g8'
p3119
sa(dp3120
g7
S'h1'
p3121
sa(dp3122
g5
S'white_pawn'
p3123
sg7
S'h2'
p3124
sa(dp3125
g7
S'h3'
p3126
sa(dp3127
g5
S'black_bishop'
p3128
sg7
S'h4'
p3129
sa(dp3130
g7
S'h5'
p3131
sa(dp3132
g5
S'black_pawn'
p3133
sg7
S'h6'
p3134
sa(dp3135
g7
S'h7'
p3136
sa(dp3137
g5
S'black_king'
p3138
sg7
S'h8'
p3139
saaVafter Rg4, Bf6...
p3140
aa.