(lp0
(lp1
S'15... Na6'
p2
a(lp3
(dp4
S'location'
p5
S'a1'
p6
sa(dp7
S'piece'
p8
S'white_pawn'
p9
sg5
S'a2'
p10
sa(dp11
g8
S'black_pawn'
p12
sg5
S'a3'
p13
sa(dp14
g5
S'a4'
p15
sa(dp16
g5
S'a5'
p17
sa(dp18
g8
S'black_knight'
p19
sg5
S'a6'
p20
sa(dp21
g5
S'a7'
p22
sa(dp23
g8
S'black_rook'
p24
sg5
S'a8'
p25
sa(dp26
g8
S'white_king'
p27
sg5
S'b1'
p28
sa(dp29
g5
S'b2'
p30
sa(dp31
g8
S'white_pawn'
p32
sg5
S'b3'
p33
sa(dp34
g5
S'b4'
p35
sa(dp36
g5
S'b5'
p37
sa(dp38
g8
S'black_pawn'
p39
sg5
S'b6'
p40
sa(dp41
g5
S'b7'
p42
sa(dp43
g5
S'b8'
p44
sa(dp45
g5
S'c1'
p46
sa(dp47
g8
S'white_pawn'
p48
sg5
S'c2'
p49
sa(dp50
g8
S'white_knight'
p51
sg5
S'c3'
p52
sa(dp53
g5
S'c4'
p54
sa(dp55
g5
S'c5'
p56
sa(dp57
g8
S'black_pawn'
p58
sg5
S'c6'
p59
sa(dp60
g5
S'c7'
p61
sa(dp62
g5
S'c8'
p63
sa(dp64
g8
S'white_rook'
p65
sg5
S'd1'
p66
sa(dp67
g8
S'white_bishop'
p68
sg5
S'd2'
p69
sa(dp70
g5
S'd3'
p71
sa(dp72
g8
S'white_pawn'
p73
sg5
S'd4'
p74
sa(dp75
g8
S'black_pawn'
p76
sg5
S'd5'
p77
sa(dp78
g5
S'd6'
p79
sa(dp80
g5
S'd7'
p81
sa(dp82
g5
S'd8'
p83
sa(dp84
g5
S'e1'
p85
sa(dp86
g5
S'e2'
p87
sa(dp88
g5
S'e3'
p89
sa(dp90
g5
S'e4'
p91
sa(dp92
g5
S'e5'
p93
sa(dp94
g5
S'e6'
p95
sa(dp96
g8
S'black_queen'
p97
sg5
S'e7'
p98
sa(dp99
g5
S'e8'
p100
sa(dp101
g8
S'white_bishop'
p102
sg5
S'f1'
p103
sa(dp104
g8
S'white_pawn'
p105
sg5
S'f2'
p106
sa(dp107
g5
S'f3'
p108
sa(dp109
g5
S'f4'
p110
sa(dp111
g5
S'f5'
p112
sa(dp113
g8
S'black_pawn'
p114
sg5
S'f6'
p115
sa(dp116
g8
S'black_bishop'
p117
sg5
S'f7'
p118
sa(dp119
g8
S'black_bishop'
p120
sg5
S'f8'
p121
sa(dp122
g5
S'g1'
p123
sa(dp124
g8
S'white_pawn'
p125
sg5
S'g2'
p126
sa(dp127
g8
S'white_knight'
p128
sg5
S'g3'
p129
sa(dp130
g5
S'g4'
p131
sa(dp132
g5
S'g5'
p133
sa(dp134
g5
S'g6'
p135
sa(dp136
g8
S'black_pawn'
p137
sg5
S'g7'
p138
sa(dp139
g8
S'black_king'
p140
sg5
S'g8'
p141
sa(dp142
g8
S'white_rook'
p143
sg5
S'h1'
p144
sa(dp145
g5
S'h2'
p146
sa(dp147
g5
S'h3'
p148
sa(dp149
g5
S'h4'
p150
sa(dp151
g8
S'white_pawn'
p152
sg5
S'h5'
p153
sa(dp154
g5
S'h6'
p155
sa(dp156
g8
S'black_pawn'
p157
sg5
S'h7'
p158
sa(dp159
g8
S'black_rook'
p160
sg5
S'h8'
p161
saaVThis does continue with Dan's development.  However, just like a GM game that fiercequeen annotated, the N is, indeed, in the wrong place.  Thus, I would not have hesitated to play 15...Nd7.  What's worse is that even though, there is a little mobility with the R, whereas, we didn't see it before, it's still limited.  On the other hand, had Dan developed that N to d7, the R would be free to move about.  And, the reason I draw that conclusion is because of just how important mobility is.  In this context, I think it's even more important because of how compromised the other wing is.  In other words, the K side is blocked up, completely, so my thinking is why compromise the Q side, at all?  Methinks that this ensures white a win.  Although I did favor Joe's position, with this move played, I think that white now has a win.
p162
aa(lp163
S'16. Re1'
p164
a(lp165
(dp166
g5
S'a1'
p167
sa(dp168
g8
S'white_pawn'
p169
sg5
S'a2'
p170
sa(dp171
g8
S'black_pawn'
p172
sg5
S'a3'
p173
sa(dp174
g5
S'a4'
p175
sa(dp176
g5
S'a5'
p177
sa(dp178
g8
S'black_knight'
p179
sg5
S'a6'
p180
sa(dp181
g5
S'a7'
p182
sa(dp183
g8
S'black_rook'
p184
sg5
S'a8'
p185
sa(dp186
g8
S'white_king'
p187
sg5
S'b1'
p188
sa(dp189
g5
S'b2'
p190
sa(dp191
g8
S'white_pawn'
p192
sg5
S'b3'
p193
sa(dp194
g5
S'b4'
p195
sa(dp196
g5
S'b5'
p197
sa(dp198
g8
S'black_pawn'
p199
sg5
S'b6'
p200
sa(dp201
g5
S'b7'
p202
sa(dp203
g5
S'b8'
p204
sa(dp205
g5
S'c1'
p206
sa(dp207
g8
S'white_pawn'
p208
sg5
S'c2'
p209
sa(dp210
g8
S'white_knight'
p211
sg5
S'c3'
p212
sa(dp213
g5
S'c4'
p214
sa(dp215
g5
S'c5'
p216
sa(dp217
g8
S'black_pawn'
p218
sg5
S'c6'
p219
sa(dp220
g5
S'c7'
p221
sa(dp222
g5
S'c8'
p223
sa(dp224
g5
S'd1'
p225
sa(dp226
g8
S'white_bishop'
p227
sg5
S'd2'
p228
sa(dp229
g5
S'd3'
p230
sa(dp231
g8
S'white_pawn'
p232
sg5
S'd4'
p233
sa(dp234
g8
S'black_pawn'
p235
sg5
S'd5'
p236
sa(dp237
g5
S'd6'
p238
sa(dp239
g5
S'd7'
p240
sa(dp241
g5
S'd8'
p242
sa(dp243
g8
S'white_rook'
p244
sg5
S'e1'
p245
sa(dp246
g5
S'e2'
p247
sa(dp248
g5
S'e3'
p249
sa(dp250
g5
S'e4'
p251
sa(dp252
g5
S'e5'
p253
sa(dp254
g5
S'e6'
p255
sa(dp256
g8
S'black_queen'
p257
sg5
S'e7'
p258
sa(dp259
g5
S'e8'
p260
sa(dp261
g8
S'white_bishop'
p262
sg5
S'f1'
p263
sa(dp264
g8
S'white_pawn'
p265
sg5
S'f2'
p266
sa(dp267
g5
S'f3'
p268
sa(dp269
g5
S'f4'
p270
sa(dp271
g5
S'f5'
p272
sa(dp273
g8
S'black_pawn'
p274
sg5
S'f6'
p275
sa(dp276
g8
S'black_bishop'
p277
sg5
S'f7'
p278
sa(dp279
g8
S'black_bishop'
p280
sg5
S'f8'
p281
sa(dp282
g5
S'g1'
p283
sa(dp284
g8
S'white_pawn'
p285
sg5
S'g2'
p286
sa(dp287
g8
S'white_knight'
p288
sg5
S'g3'
p289
sa(dp290
g5
S'g4'
p291
sa(dp292
g5
S'g5'
p293
sa(dp294
g5
S'g6'
p295
sa(dp296
g8
S'black_pawn'
p297
sg5
S'g7'
p298
sa(dp299
g8
S'black_king'
p300
sg5
S'g8'
p301
sa(dp302
g8
S'white_rook'
p303
sg5
S'h1'
p304
sa(dp305
g5
S'h2'
p306
sa(dp307
g5
S'h3'
p308
sa(dp309
g5
S'h4'
p310
sa(dp311
g8
S'white_pawn'
p312
sg5
S'h5'
p313
sa(dp314
g5
S'h6'
p315
sa(dp316
g8
S'black_pawn'
p317
sg5
S'h7'
p318
sa(dp319
g8
S'black_rook'
p320
sg5
S'h8'
p321
saaVAs now, Joe uses that time to harrass black's Q, for starters.
p322
aa(lp323
S'16... Qd6 17. Be2'
p324
a(lp325
(dp326
g5
S'a1'
p327
sa(dp328
g8
S'white_pawn'
p329
sg5
S'a2'
p330
sa(dp331
g8
S'black_pawn'
p332
sg5
S'a3'
p333
sa(dp334
g5
S'a4'
p335
sa(dp336
g5
S'a5'
p337
sa(dp338
g8
S'black_knight'
p339
sg5
S'a6'
p340
sa(dp341
g5
S'a7'
p342
sa(dp343
g8
S'black_rook'
p344
sg5
S'a8'
p345
sa(dp346
g8
S'white_king'
p347
sg5
S'b1'
p348
sa(dp349
g5
S'b2'
p350
sa(dp351
g8
S'white_pawn'
p352
sg5
S'b3'
p353
sa(dp354
g5
S'b4'
p355
sa(dp356
g5
S'b5'
p357
sa(dp358
g8
S'black_pawn'
p359
sg5
S'b6'
p360
sa(dp361
g5
S'b7'
p362
sa(dp363
g5
S'b8'
p364
sa(dp365
g5
S'c1'
p366
sa(dp367
g8
S'white_pawn'
p368
sg5
S'c2'
p369
sa(dp370
g8
S'white_knight'
p371
sg5
S'c3'
p372
sa(dp373
g5
S'c4'
p374
sa(dp375
g5
S'c5'
p376
sa(dp377
g8
S'black_pawn'
p378
sg5
S'c6'
p379
sa(dp380
g5
S'c7'
p381
sa(dp382
g5
S'c8'
p383
sa(dp384
g5
S'd1'
p385
sa(dp386
g8
S'white_bishop'
p387
sg5
S'd2'
p388
sa(dp389
g5
S'd3'
p390
sa(dp391
g8
S'white_pawn'
p392
sg5
S'd4'
p393
sa(dp394
g8
S'black_pawn'
p395
sg5
S'd5'
p396
sa(dp397
g8
S'black_queen'
p398
sg5
S'd6'
p399
sa(dp400
g5
S'd7'
p401
sa(dp402
g5
S'd8'
p403
sa(dp404
g8
S'white_rook'
p405
sg5
S'e1'
p406
sa(dp407
g8
S'white_bishop'
p408
sg5
S'e2'
p409
sa(dp410
g5
S'e3'
p411
sa(dp412
g5
S'e4'
p413
sa(dp414
g5
S'e5'
p415
sa(dp416
g5
S'e6'
p417
sa(dp418
g5
S'e7'
p419
sa(dp420
g5
S'e8'
p421
sa(dp422
g5
S'f1'
p423
sa(dp424
g8
S'white_pawn'
p425
sg5
S'f2'
p426
sa(dp427
g5
S'f3'
p428
sa(dp429
g5
S'f4'
p430
sa(dp431
g5
S'f5'
p432
sa(dp433
g8
S'black_pawn'
p434
sg5
S'f6'
p435
sa(dp436
g8
S'black_bishop'
p437
sg5
S'f7'
p438
sa(dp439
g8
S'black_bishop'
p440
sg5
S'f8'
p441
sa(dp442
g5
S'g1'
p443
sa(dp444
g8
S'white_pawn'
p445
sg5
S'g2'
p446
sa(dp447
g8
S'white_knight'
p448
sg5
S'g3'
p449
sa(dp450
g5
S'g4'
p451
sa(dp452
g5
S'g5'
p453
sa(dp454
g5
S'g6'
p455
sa(dp456
g8
S'black_pawn'
p457
sg5
S'g7'
p458
sa(dp459
g8
S'black_king'
p460
sg5
S'g8'
p461
sa(dp462
g8
S'white_rook'
p463
sg5
S'h1'
p464
sa(dp465
g5
S'h2'
p466
sa(dp467
g5
S'h3'
p468
sa(dp469
g5
S'h4'
p470
sa(dp471
g8
S'white_pawn'
p472
sg5
S'h5'
p473
sa(dp474
g5
S'h6'
p475
sa(dp476
g8
S'black_pawn'
p477
sg5
S'h7'
p478
sa(dp479
g8
S'black_rook'
p480
sg5
S'h8'
p481
saaVThen, Joe completes his development.  And, it's worth noting that of his minor pieces are well places, whereas, one of black's pieces is gone.  Additionally, two of the others are not in a good spot.  So, that, immediately boils down to space advantage.  Now, fiercequeen said that it's not really about material advantage, but rather, it often comes down to space.  Well, I'd say that this is the case here. 
p482
aa(lp483
S'17... c5'
p484
a(lp485
(dp486
g5
S'a1'
p487
sa(dp488
g8
S'white_pawn'
p489
sg5
S'a2'
p490
sa(dp491
g8
S'black_pawn'
p492
sg5
S'a3'
p493
sa(dp494
g5
S'a4'
p495
sa(dp496
g5
S'a5'
p497
sa(dp498
g8
S'black_knight'
p499
sg5
S'a6'
p500
sa(dp501
g5
S'a7'
p502
sa(dp503
g8
S'black_rook'
p504
sg5
S'a8'
p505
sa(dp506
g8
S'white_king'
p507
sg5
S'b1'
p508
sa(dp509
g5
S'b2'
p510
sa(dp511
g8
S'white_pawn'
p512
sg5
S'b3'
p513
sa(dp514
g5
S'b4'
p515
sa(dp516
g5
S'b5'
p517
sa(dp518
g8
S'black_pawn'
p519
sg5
S'b6'
p520
sa(dp521
g5
S'b7'
p522
sa(dp523
g5
S'b8'
p524
sa(dp525
g5
S'c1'
p526
sa(dp527
g8
S'white_pawn'
p528
sg5
S'c2'
p529
sa(dp530
g8
S'white_knight'
p531
sg5
S'c3'
p532
sa(dp533
g5
S'c4'
p534
sa(dp535
g8
S'black_pawn'
p536
sg5
S'c5'
p537
sa(dp538
g5
S'c6'
p539
sa(dp540
g5
S'c7'
p541
sa(dp542
g5
S'c8'
p543
sa(dp544
g5
S'd1'
p545
sa(dp546
g8
S'white_bishop'
p547
sg5
S'd2'
p548
sa(dp549
g5
S'd3'
p550
sa(dp551
g8
S'white_pawn'
p552
sg5
S'd4'
p553
sa(dp554
g8
S'black_pawn'
p555
sg5
S'd5'
p556
sa(dp557
g8
S'black_queen'
p558
sg5
S'd6'
p559
sa(dp560
g5
S'd7'
p561
sa(dp562
g5
S'd8'
p563
sa(dp564
g8
S'white_rook'
p565
sg5
S'e1'
p566
sa(dp567
g8
S'white_bishop'
p568
sg5
S'e2'
p569
sa(dp570
g5
S'e3'
p571
sa(dp572
g5
S'e4'
p573
sa(dp574
g5
S'e5'
p575
sa(dp576
g5
S'e6'
p577
sa(dp578
g5
S'e7'
p579
sa(dp580
g5
S'e8'
p581
sa(dp582
g5
S'f1'
p583
sa(dp584
g8
S'white_pawn'
p585
sg5
S'f2'
p586
sa(dp587
g5
S'f3'
p588
sa(dp589
g5
S'f4'
p590
sa(dp591
g5
S'f5'
p592
sa(dp593
g8
S'black_pawn'
p594
sg5
S'f6'
p595
sa(dp596
g8
S'black_bishop'
p597
sg5
S'f7'
p598
sa(dp599
g8
S'black_bishop'
p600
sg5
S'f8'
p601
sa(dp602
g5
S'g1'
p603
sa(dp604
g8
S'white_pawn'
p605
sg5
S'g2'
p606
sa(dp607
g8
S'white_knight'
p608
sg5
S'g3'
p609
sa(dp610
g5
S'g4'
p611
sa(dp612
g5
S'g5'
p613
sa(dp614
g5
S'g6'
p615
sa(dp616
g8
S'black_pawn'
p617
sg5
S'g7'
p618
sa(dp619
g8
S'black_king'
p620
sg5
S'g8'
p621
sa(dp622
g8
S'white_rook'
p623
sg5
S'h1'
p624
sa(dp625
g5
S'h2'
p626
sa(dp627
g5
S'h3'
p628
sa(dp629
g5
S'h4'
p630
sa(dp631
g8
S'white_pawn'
p632
sg5
S'h5'
p633
sa(dp634
g5
S'h6'
p635
sa(dp636
g8
S'black_pawn'
p637
sg5
S'h7'
p638
sa(dp639
g8
S'black_rook'
p640
sg5
S'h8'
p641
saaVGoing after white's pawn.
p642
aa(lp643
S'18. Nf5'
p644
a(lp645
(dp646
g5
S'a1'
p647
sa(dp648
g8
S'white_pawn'
p649
sg5
S'a2'
p650
sa(dp651
g8
S'black_pawn'
p652
sg5
S'a3'
p653
sa(dp654
g5
S'a4'
p655
sa(dp656
g5
S'a5'
p657
sa(dp658
g8
S'black_knight'
p659
sg5
S'a6'
p660
sa(dp661
g5
S'a7'
p662
sa(dp663
g8
S'black_rook'
p664
sg5
S'a8'
p665
sa(dp666
g8
S'white_king'
p667
sg5
S'b1'
p668
sa(dp669
g5
S'b2'
p670
sa(dp671
g8
S'white_pawn'
p672
sg5
S'b3'
p673
sa(dp674
g5
S'b4'
p675
sa(dp676
g5
S'b5'
p677
sa(dp678
g8
S'black_pawn'
p679
sg5
S'b6'
p680
sa(dp681
g5
S'b7'
p682
sa(dp683
g5
S'b8'
p684
sa(dp685
g5
S'c1'
p686
sa(dp687
g8
S'white_pawn'
p688
sg5
S'c2'
p689
sa(dp690
g8
S'white_knight'
p691
sg5
S'c3'
p692
sa(dp693
g5
S'c4'
p694
sa(dp695
g8
S'black_pawn'
p696
sg5
S'c5'
p697
sa(dp698
g5
S'c6'
p699
sa(dp700
g5
S'c7'
p701
sa(dp702
g5
S'c8'
p703
sa(dp704
g5
S'd1'
p705
sa(dp706
g8
S'white_bishop'
p707
sg5
S'd2'
p708
sa(dp709
g5
S'd3'
p710
sa(dp711
g8
S'white_pawn'
p712
sg5
S'd4'
p713
sa(dp714
g8
S'black_pawn'
p715
sg5
S'd5'
p716
sa(dp717
g8
S'black_queen'
p718
sg5
S'd6'
p719
sa(dp720
g5
S'd7'
p721
sa(dp722
g5
S'd8'
p723
sa(dp724
g8
S'white_rook'
p725
sg5
S'e1'
p726
sa(dp727
g8
S'white_bishop'
p728
sg5
S'e2'
p729
sa(dp730
g5
S'e3'
p731
sa(dp732
g5
S'e4'
p733
sa(dp734
g5
S'e5'
p735
sa(dp736
g5
S'e6'
p737
sa(dp738
g5
S'e7'
p739
sa(dp740
g5
S'e8'
p741
sa(dp742
g5
S'f1'
p743
sa(dp744
g8
S'white_pawn'
p745
sg5
S'f2'
p746
sa(dp747
g5
S'f3'
p748
sa(dp749
g5
S'f4'
p750
sa(dp751
g8
S'white_knight'
p752
sg5
S'f5'
p753
sa(dp754
g8
S'black_pawn'
p755
sg5
S'f6'
p756
sa(dp757
g8
S'black_bishop'
p758
sg5
S'f7'
p759
sa(dp760
g8
S'black_bishop'
p761
sg5
S'f8'
p762
sa(dp763
g5
S'g1'
p764
sa(dp765
g8
S'white_pawn'
p766
sg5
S'g2'
p767
sa(dp768
g5
S'g3'
p769
sa(dp770
g5
S'g4'
p771
sa(dp772
g5
S'g5'
p773
sa(dp774
g5
S'g6'
p775
sa(dp776
g8
S'black_pawn'
p777
sg5
S'g7'
p778
sa(dp779
g8
S'black_king'
p780
sg5
S'g8'
p781
sa(dp782
g8
S'white_rook'
p783
sg5
S'h1'
p784
sa(dp785
g5
S'h2'
p786
sa(dp787
g5
S'h3'
p788
sa(dp789
g5
S'h4'
p790
sa(dp791
g8
S'white_pawn'
p792
sg5
S'h5'
p793
sa(dp794
g5
S'h6'
p795
sa(dp796
g8
S'black_pawn'
p797
sg5
S'h7'
p798
sa(dp799
g8
S'black_rook'
p800
sg5
S'h8'
p801
saaVSo, Joe protects it by going right after Dan's Queen.  But, there is a lot more to this then meets the eye.   I don't just think so anymore, but this is where I just begin to realize that white definitely has a won game here.  It's not official yet, though.  As it's not, ok white only has this and that to do to win.  But, with the best, which happens with Joe, white has a won game.  The reason being is that this N is now one of the main pieces that's indirectly attacking black's K, as we will see towards the end.
p802
aa(lp803
S'18... Qc6 19. dxc5'
p804
a(lp805
(dp806
g5
S'a1'
p807
sa(dp808
g8
S'white_pawn'
p809
sg5
S'a2'
p810
sa(dp811
g8
S'black_pawn'
p812
sg5
S'a3'
p813
sa(dp814
g5
S'a4'
p815
sa(dp816
g5
S'a5'
p817
sa(dp818
g8
S'black_knight'
p819
sg5
S'a6'
p820
sa(dp821
g5
S'a7'
p822
sa(dp823
g8
S'black_rook'
p824
sg5
S'a8'
p825
sa(dp826
g8
S'white_king'
p827
sg5
S'b1'
p828
sa(dp829
g5
S'b2'
p830
sa(dp831
g8
S'white_pawn'
p832
sg5
S'b3'
p833
sa(dp834
g5
S'b4'
p835
sa(dp836
g5
S'b5'
p837
sa(dp838
g8
S'black_pawn'
p839
sg5
S'b6'
p840
sa(dp841
g5
S'b7'
p842
sa(dp843
g5
S'b8'
p844
sa(dp845
g5
S'c1'
p846
sa(dp847
g8
S'white_pawn'
p848
sg5
S'c2'
p849
sa(dp850
g8
S'white_knight'
p851
sg5
S'c3'
p852
sa(dp853
g5
S'c4'
p854
sa(dp855
g8
S'white_pawn'
p856
sg5
S'c5'
p857
sa(dp858
g8
S'black_queen'
p859
sg5
S'c6'
p860
sa(dp861
g5
S'c7'
p862
sa(dp863
g5
S'c8'
p864
sa(dp865
g5
S'd1'
p866
sa(dp867
g8
S'white_bishop'
p868
sg5
S'd2'
p869
sa(dp870
g5
S'd3'
p871
sa(dp872
g5
S'd4'
p873
sa(dp874
g8
S'black_pawn'
p875
sg5
S'd5'
p876
sa(dp877
g5
S'd6'
p878
sa(dp879
g5
S'd7'
p880
sa(dp881
g5
S'd8'
p882
sa(dp883
g8
S'white_rook'
p884
sg5
S'e1'
p885
sa(dp886
g8
S'white_bishop'
p887
sg5
S'e2'
p888
sa(dp889
g5
S'e3'
p890
sa(dp891
g5
S'e4'
p892
sa(dp893
g5
S'e5'
p894
sa(dp895
g5
S'e6'
p896
sa(dp897
g5
S'e7'
p898
sa(dp899
g5
S'e8'
p900
sa(dp901
g5
S'f1'
p902
sa(dp903
g8
S'white_pawn'
p904
sg5
S'f2'
p905
sa(dp906
g5
S'f3'
p907
sa(dp908
g5
S'f4'
p909
sa(dp910
g8
S'white_knight'
p911
sg5
S'f5'
p912
sa(dp913
g8
S'black_pawn'
p914
sg5
S'f6'
p915
sa(dp916
g8
S'black_bishop'
p917
sg5
S'f7'
p918
sa(dp919
g8
S'black_bishop'
p920
sg5
S'f8'
p921
sa(dp922
g5
S'g1'
p923
sa(dp924
g8
S'white_pawn'
p925
sg5
S'g2'
p926
sa(dp927
g5
S'g3'
p928
sa(dp929
g5
S'g4'
p930
sa(dp931
g5
S'g5'
p932
sa(dp933
g5
S'g6'
p934
sa(dp935
g8
S'black_pawn'
p936
sg5
S'g7'
p937
sa(dp938
g8
S'black_king'
p939
sg5
S'g8'
p940
sa(dp941
g8
S'white_rook'
p942
sg5
S'h1'
p943
sa(dp944
g5
S'h2'
p945
sa(dp946
g5
S'h3'
p947
sa(dp948
g5
S'h4'
p949
sa(dp950
g8
S'white_pawn'
p951
sg5
S'h5'
p952
sa(dp953
g5
S'h6'
p954
sa(dp955
g8
S'black_pawn'
p956
sg5
S'h7'
p957
sa(dp958
g8
S'black_rook'
p959
sg5
S'h8'
p960
saaVAs this was one of the plans behind attacking the Q.  The immediate effect, of course, is that Dan recaptures to avoid giving away a pawn, after having had handed back a minor piece.  However...
p961
aa(lp962
S'19... bxc5 20. Rh3'
p963
a(lp964
(dp965
g5
S'a1'
p966
sa(dp967
g8
S'white_pawn'
p968
sg5
S'a2'
p969
sa(dp970
g8
S'black_pawn'
p971
sg5
S'a3'
p972
sa(dp973
g5
S'a4'
p974
sa(dp975
g5
S'a5'
p976
sa(dp977
g8
S'black_knight'
p978
sg5
S'a6'
p979
sa(dp980
g5
S'a7'
p981
sa(dp982
g8
S'black_rook'
p983
sg5
S'a8'
p984
sa(dp985
g8
S'white_king'
p986
sg5
S'b1'
p987
sa(dp988
g5
S'b2'
p989
sa(dp990
g8
S'white_pawn'
p991
sg5
S'b3'
p992
sa(dp993
g5
S'b4'
p994
sa(dp995
g5
S'b5'
p996
sa(dp997
g5
S'b6'
p998
sa(dp999
g5
S'b7'
p1000
sa(dp1001
g5
S'b8'
p1002
sa(dp1003
g5
S'c1'
p1004
sa(dp1005
g8
S'white_pawn'
p1006
sg5
S'c2'
p1007
sa(dp1008
g8
S'white_knight'
p1009
sg5
S'c3'
p1010
sa(dp1011
g5
S'c4'
p1012
sa(dp1013
g8
S'black_pawn'
p1014
sg5
S'c5'
p1015
sa(dp1016
g8
S'black_queen'
p1017
sg5
S'c6'
p1018
sa(dp1019
g5
S'c7'
p1020
sa(dp1021
g5
S'c8'
p1022
sa(dp1023
g5
S'd1'
p1024
sa(dp1025
g8
S'white_bishop'
p1026
sg5
S'd2'
p1027
sa(dp1028
g5
S'd3'
p1029
sa(dp1030
g5
S'd4'
p1031
sa(dp1032
g8
S'black_pawn'
p1033
sg5
S'd5'
p1034
sa(dp1035
g5
S'd6'
p1036
sa(dp1037
g5
S'd7'
p1038
sa(dp1039
g5
S'd8'
p1040
sa(dp1041
g8
S'white_rook'
p1042
sg5
S'e1'
p1043
sa(dp1044
g8
S'white_bishop'
p1045
sg5
S'e2'
p1046
sa(dp1047
g5
S'e3'
p1048
sa(dp1049
g5
S'e4'
p1050
sa(dp1051
g5
S'e5'
p1052
sa(dp1053
g5
S'e6'
p1054
sa(dp1055
g5
S'e7'
p1056
sa(dp1057
g5
S'e8'
p1058
sa(dp1059
g5
S'f1'
p1060
sa(dp1061
g8
S'white_pawn'
p1062
sg5
S'f2'
p1063
sa(dp1064
g5
S'f3'
p1065
sa(dp1066
g5
S'f4'
p1067
sa(dp1068
g8
S'white_knight'
p1069
sg5
S'f5'
p1070
sa(dp1071
g8
S'black_pawn'
p1072
sg5
S'f6'
p1073
sa(dp1074
g8
S'black_bishop'
p1075
sg5
S'f7'
p1076
sa(dp1077
g8
S'black_bishop'
p1078
sg5
S'f8'
p1079
sa(dp1080
g5
S'g1'
p1081
sa(dp1082
g8
S'white_pawn'
p1083
sg5
S'g2'
p1084
sa(dp1085
g5
S'g3'
p1086
sa(dp1087
g5
S'g4'
p1088
sa(dp1089
g5
S'g5'
p1090
sa(dp1091
g5
S'g6'
p1092
sa(dp1093
g8
S'black_pawn'
p1094
sg5
S'g7'
p1095
sa(dp1096
g8
S'black_king'
p1097
sg5
S'g8'
p1098
sa(dp1099
g5
S'h1'
p1100
sa(dp1101
g5
S'h2'
p1102
sa(dp1103
g8
S'white_rook'
p1104
sg5
S'h3'
p1105
sa(dp1106
g5
S'h4'
p1107
sa(dp1108
g8
S'white_pawn'
p1109
sg5
S'h5'
p1110
sa(dp1111
g5
S'h6'
p1112
sa(dp1113
g8
S'black_pawn'
p1114
sg5
S'h7'
p1115
sa(dp1116
g8
S'black_rook'
p1117
sg5
S'h8'
p1118
saaV!! By my books, this is a killer move right here.  Might not be worth two exclamation points, but I give it that because Joe adds another attacker to Dan's K.  So, things are unleashing here.  As now, this R will become very dangerous, as we're about to see.  It's still not quite easy, yet, but a win from white is closer.  In other words, it's a little bit quicker then what I thought earlier.  However, with best play from black, it still might take a while.  I was thinking before was that it might take over 20 moves, but I'm pretty confident that white can win, in about 10 moves.
p1119
aa(lp1120
S'20... c4'
p1121
a(lp1122
(dp1123
g5
S'a1'
p1124
sa(dp1125
g8
S'white_pawn'
p1126
sg5
S'a2'
p1127
sa(dp1128
g8
S'black_pawn'
p1129
sg5
S'a3'
p1130
sa(dp1131
g5
S'a4'
p1132
sa(dp1133
g5
S'a5'
p1134
sa(dp1135
g8
S'black_knight'
p1136
sg5
S'a6'
p1137
sa(dp1138
g5
S'a7'
p1139
sa(dp1140
g8
S'black_rook'
p1141
sg5
S'a8'
p1142
sa(dp1143
g8
S'white_king'
p1144
sg5
S'b1'
p1145
sa(dp1146
g5
S'b2'
p1147
sa(dp1148
g8
S'white_pawn'
p1149
sg5
S'b3'
p1150
sa(dp1151
g5
S'b4'
p1152
sa(dp1153
g5
S'b5'
p1154
sa(dp1155
g5
S'b6'
p1156
sa(dp1157
g5
S'b7'
p1158
sa(dp1159
g5
S'b8'
p1160
sa(dp1161
g5
S'c1'
p1162
sa(dp1163
g8
S'white_pawn'
p1164
sg5
S'c2'
p1165
sa(dp1166
g8
S'white_knight'
p1167
sg5
S'c3'
p1168
sa(dp1169
g8
S'black_pawn'
p1170
sg5
S'c4'
p1171
sa(dp1172
g5
S'c5'
p1173
sa(dp1174
g8
S'black_queen'
p1175
sg5
S'c6'
p1176
sa(dp1177
g5
S'c7'
p1178
sa(dp1179
g5
S'c8'
p1180
sa(dp1181
g5
S'd1'
p1182
sa(dp1183
g8
S'white_bishop'
p1184
sg5
S'd2'
p1185
sa(dp1186
g5
S'd3'
p1187
sa(dp1188
g5
S'd4'
p1189
sa(dp1190
g8
S'black_pawn'
p1191
sg5
S'd5'
p1192
sa(dp1193
g5
S'd6'
p1194
sa(dp1195
g5
S'd7'
p1196
sa(dp1197
g5
S'd8'
p1198
sa(dp1199
g8
S'white_rook'
p1200
sg5
S'e1'
p1201
sa(dp1202
g8
S'white_bishop'
p1203
sg5
S'e2'
p1204
sa(dp1205
g5
S'e3'
p1206
sa(dp1207
g5
S'e4'
p1208
sa(dp1209
g5
S'e5'
p1210
sa(dp1211
g5
S'e6'
p1212
sa(dp1213
g5
S'e7'
p1214
sa(dp1215
g5
S'e8'
p1216
sa(dp1217
g5
S'f1'
p1218
sa(dp1219
g8
S'white_pawn'
p1220
sg5
S'f2'
p1221
sa(dp1222
g5
S'f3'
p1223
sa(dp1224
g5
S'f4'
p1225
sa(dp1226
g8
S'white_knight'
p1227
sg5
S'f5'
p1228
sa(dp1229
g8
S'black_pawn'
p1230
sg5
S'f6'
p1231
sa(dp1232
g8
S'black_bishop'
p1233
sg5
S'f7'
p1234
sa(dp1235
g8
S'black_bishop'
p1236
sg5
S'f8'
p1237
sa(dp1238
g5
S'g1'
p1239
sa(dp1240
g8
S'white_pawn'
p1241
sg5
S'g2'
p1242
sa(dp1243
g5
S'g3'
p1244
sa(dp1245
g5
S'g4'
p1246
sa(dp1247
g5
S'g5'
p1248
sa(dp1249
g5
S'g6'
p1250
sa(dp1251
g8
S'black_pawn'
p1252
sg5
S'g7'
p1253
sa(dp1254
g8
S'black_king'
p1255
sg5
S'g8'
p1256
sa(dp1257
g5
S'h1'
p1258
sa(dp1259
g5
S'h2'
p1260
sa(dp1261
g8
S'white_rook'
p1262
sg5
S'h3'
p1263
sa(dp1264
g5
S'h4'
p1265
sa(dp1266
g8
S'white_pawn'
p1267
sg5
S'h5'
p1268
sa(dp1269
g5
S'h6'
p1270
sa(dp1271
g8
S'black_pawn'
p1272
sg5
S'h7'
p1273
sa(dp1274
g8
S'black_rook'
p1275
sg5
S'h8'
p1276
saaV?? Trying to get a pawn, and maybe, thinking of a different mating attack similar to what I mentioned earlier, Dan played this.  Of course, even though I was beginning to realize that white has a won game, it wasn't official.  In other words, that would taken, at least, 10 moves.  But, with this move, however, a win is near.  Much better would've been 20...g6 to force the N back. 
p1277
aa(lp1278
S'21. Rg3'
p1279
a(lp1280
(dp1281
g5
S'a1'
p1282
sa(dp1283
g8
S'white_pawn'
p1284
sg5
S'a2'
p1285
sa(dp1286
g8
S'black_pawn'
p1287
sg5
S'a3'
p1288
sa(dp1289
g5
S'a4'
p1290
sa(dp1291
g5
S'a5'
p1292
sa(dp1293
g8
S'black_knight'
p1294
sg5
S'a6'
p1295
sa(dp1296
g5
S'a7'
p1297
sa(dp1298
g8
S'black_rook'
p1299
sg5
S'a8'
p1300
sa(dp1301
g8
S'white_king'
p1302
sg5
S'b1'
p1303
sa(dp1304
g5
S'b2'
p1305
sa(dp1306
g8
S'white_pawn'
p1307
sg5
S'b3'
p1308
sa(dp1309
g5
S'b4'
p1310
sa(dp1311
g5
S'b5'
p1312
sa(dp1313
g5
S'b6'
p1314
sa(dp1315
g5
S'b7'
p1316
sa(dp1317
g5
S'b8'
p1318
sa(dp1319
g5
S'c1'
p1320
sa(dp1321
g8
S'white_pawn'
p1322
sg5
S'c2'
p1323
sa(dp1324
g8
S'white_knight'
p1325
sg5
S'c3'
p1326
sa(dp1327
g8
S'black_pawn'
p1328
sg5
S'c4'
p1329
sa(dp1330
g5
S'c5'
p1331
sa(dp1332
g8
S'black_queen'
p1333
sg5
S'c6'
p1334
sa(dp1335
g5
S'c7'
p1336
sa(dp1337
g5
S'c8'
p1338
sa(dp1339
g5
S'd1'
p1340
sa(dp1341
g8
S'white_bishop'
p1342
sg5
S'd2'
p1343
sa(dp1344
g5
S'd3'
p1345
sa(dp1346
g5
S'd4'
p1347
sa(dp1348
g8
S'black_pawn'
p1349
sg5
S'd5'
p1350
sa(dp1351
g5
S'd6'
p1352
sa(dp1353
g5
S'd7'
p1354
sa(dp1355
g5
S'd8'
p1356
sa(dp1357
g8
S'white_rook'
p1358
sg5
S'e1'
p1359
sa(dp1360
g8
S'white_bishop'
p1361
sg5
S'e2'
p1362
sa(dp1363
g5
S'e3'
p1364
sa(dp1365
g5
S'e4'
p1366
sa(dp1367
g5
S'e5'
p1368
sa(dp1369
g5
S'e6'
p1370
sa(dp1371
g5
S'e7'
p1372
sa(dp1373
g5
S'e8'
p1374
sa(dp1375
g5
S'f1'
p1376
sa(dp1377
g8
S'white_pawn'
p1378
sg5
S'f2'
p1379
sa(dp1380
g5
S'f3'
p1381
sa(dp1382
g5
S'f4'
p1383
sa(dp1384
g8
S'white_knight'
p1385
sg5
S'f5'
p1386
sa(dp1387
g8
S'black_pawn'
p1388
sg5
S'f6'
p1389
sa(dp1390
g8
S'black_bishop'
p1391
sg5
S'f7'
p1392
sa(dp1393
g8
S'black_bishop'
p1394
sg5
S'f8'
p1395
sa(dp1396
g5
S'g1'
p1397
sa(dp1398
g8
S'white_pawn'
p1399
sg5
S'g2'
p1400
sa(dp1401
g8
S'white_rook'
p1402
sg5
S'g3'
p1403
sa(dp1404
g5
S'g4'
p1405
sa(dp1406
g5
S'g5'
p1407
sa(dp1408
g5
S'g6'
p1409
sa(dp1410
g8
S'black_pawn'
p1411
sg5
S'g7'
p1412
sa(dp1413
g8
S'black_king'
p1414
sg5
S'g8'
p1415
sa(dp1416
g5
S'h1'
p1417
sa(dp1418
g5
S'h2'
p1419
sa(dp1420
g5
S'h3'
p1421
sa(dp1422
g5
S'h4'
p1423
sa(dp1424
g8
S'white_pawn'
p1425
sg5
S'h5'
p1426
sa(dp1427
g5
S'h6'
p1428
sa(dp1429
g8
S'black_pawn'
p1430
sg5
S'h7'
p1431
sa(dp1432
g8
S'black_rook'
p1433
sg5
S'h8'
p1434
saaVAnd, that's because of this move which is why I gave 20.Rh3 two exclamation points.  Black can hold the game a little longer with 21...g6, but after something like 22.Bh6 Bxh6 23.Nh6+, Dan is in a lot of trouble.  Or even something like 22.hxg6 Bxg6 23.Bh6, as now, black must do something to prevent a later Nh6+ where mate would not be far off.  So, after something like 23...Bd6 white can immediately play 24.Bg7+ which immediately wins back a R for B.  Or 24.Ng6+ which is a quicker and might be mate.  If not right away, it would be mate shortly after.  But, either way, black's position is hopeless.
p1435
aa(lp1436
S'21... cxb3'
p1437
a(lp1438
(dp1439
g5
S'a1'
p1440
sa(dp1441
g8
S'white_pawn'
p1442
sg5
S'a2'
p1443
sa(dp1444
g8
S'black_pawn'
p1445
sg5
S'a3'
p1446
sa(dp1447
g5
S'a4'
p1448
sa(dp1449
g5
S'a5'
p1450
sa(dp1451
g8
S'black_knight'
p1452
sg5
S'a6'
p1453
sa(dp1454
g5
S'a7'
p1455
sa(dp1456
g8
S'black_rook'
p1457
sg5
S'a8'
p1458
sa(dp1459
g8
S'white_king'
p1460
sg5
S'b1'
p1461
sa(dp1462
g5
S'b2'
p1463
sa(dp1464
g8
S'black_pawn'
p1465
sg5
S'b3'
p1466
sa(dp1467
g5
S'b4'
p1468
sa(dp1469
g5
S'b5'
p1470
sa(dp1471
g5
S'b6'
p1472
sa(dp1473
g5
S'b7'
p1474
sa(dp1475
g5
S'b8'
p1476
sa(dp1477
g5
S'c1'
p1478
sa(dp1479
g8
S'white_pawn'
p1480
sg5
S'c2'
p1481
sa(dp1482
g8
S'white_knight'
p1483
sg5
S'c3'
p1484
sa(dp1485
g5
S'c4'
p1486
sa(dp1487
g5
S'c5'
p1488
sa(dp1489
g8
S'black_queen'
p1490
sg5
S'c6'
p1491
sa(dp1492
g5
S'c7'
p1493
sa(dp1494
g5
S'c8'
p1495
sa(dp1496
g5
S'd1'
p1497
sa(dp1498
g8
S'white_bishop'
p1499
sg5
S'd2'
p1500
sa(dp1501
g5
S'd3'
p1502
sa(dp1503
g5
S'd4'
p1504
sa(dp1505
g8
S'black_pawn'
p1506
sg5
S'd5'
p1507
sa(dp1508
g5
S'd6'
p1509
sa(dp1510
g5
S'd7'
p1511
sa(dp1512
g5
S'd8'
p1513
sa(dp1514
g8
S'white_rook'
p1515
sg5
S'e1'
p1516
sa(dp1517
g8
S'white_bishop'
p1518
sg5
S'e2'
p1519
sa(dp1520
g5
S'e3'
p1521
sa(dp1522
g5
S'e4'
p1523
sa(dp1524
g5
S'e5'
p1525
sa(dp1526
g5
S'e6'
p1527
sa(dp1528
g5
S'e7'
p1529
sa(dp1530
g5
S'e8'
p1531
sa(dp1532
g5
S'f1'
p1533
sa(dp1534
g8
S'white_pawn'
p1535
sg5
S'f2'
p1536
sa(dp1537
g5
S'f3'
p1538
sa(dp1539
g5
S'f4'
p1540
sa(dp1541
g8
S'white_knight'
p1542
sg5
S'f5'
p1543
sa(dp1544
g8
S'black_pawn'
p1545
sg5
S'f6'
p1546
sa(dp1547
g8
S'black_bishop'
p1548
sg5
S'f7'
p1549
sa(dp1550
g8
S'black_bishop'
p1551
sg5
S'f8'
p1552
sa(dp1553
g5
S'g1'
p1554
sa(dp1555
g8
S'white_pawn'
p1556
sg5
S'g2'
p1557
sa(dp1558
g8
S'white_rook'
p1559
sg5
S'g3'
p1560
sa(dp1561
g5
S'g4'
p1562
sa(dp1563
g5
S'g5'
p1564
sa(dp1565
g5
S'g6'
p1566
sa(dp1567
g8
S'black_pawn'
p1568
sg5
S'g7'
p1569
sa(dp1570
g8
S'black_king'
p1571
sg5
S'g8'
p1572
sa(dp1573
g5
S'h1'
p1574
sa(dp1575
g5
S'h2'
p1576
sa(dp1577
g5
S'h3'
p1578
sa(dp1579
g5
S'h4'
p1580
sa(dp1581
g8
S'white_pawn'
p1582
sg5
S'h5'
p1583
sa(dp1584
g5
S'h6'
p1585
sa(dp1586
g8
S'black_pawn'
p1587
sg5
S'h7'
p1588
sa(dp1589
g8
S'black_rook'
p1590
sg5
S'h8'
p1591
saaV?? But, this game guarantees an instant checkmate.
p1592
aa(lp1593
S'22. Nh6#'
p1594
a(lp1595
(dp1596
g5
S'a1'
p1597
sa(dp1598
g8
S'white_pawn'
p1599
sg5
S'a2'
p1600
sa(dp1601
g8
S'black_pawn'
p1602
sg5
S'a3'
p1603
sa(dp1604
g5
S'a4'
p1605
sa(dp1606
g5
S'a5'
p1607
sa(dp1608
g8
S'black_knight'
p1609
sg5
S'a6'
p1610
sa(dp1611
g5
S'a7'
p1612
sa(dp1613
g8
S'black_rook'
p1614
sg5
S'a8'
p1615
sa(dp1616
g8
S'white_king'
p1617
sg5
S'b1'
p1618
sa(dp1619
g5
S'b2'
p1620
sa(dp1621
g8
S'black_pawn'
p1622
sg5
S'b3'
p1623
sa(dp1624
g5
S'b4'
p1625
sa(dp1626
g5
S'b5'
p1627
sa(dp1628
g5
S'b6'
p1629
sa(dp1630
g5
S'b7'
p1631
sa(dp1632
g5
S'b8'
p1633
sa(dp1634
g5
S'c1'
p1635
sa(dp1636
g8
S'white_pawn'
p1637
sg5
S'c2'
p1638
sa(dp1639
g8
S'white_knight'
p1640
sg5
S'c3'
p1641
sa(dp1642
g5
S'c4'
p1643
sa(dp1644
g5
S'c5'
p1645
sa(dp1646
g8
S'black_queen'
p1647
sg5
S'c6'
p1648
sa(dp1649
g5
S'c7'
p1650
sa(dp1651
g5
S'c8'
p1652
sa(dp1653
g5
S'd1'
p1654
sa(dp1655
g8
S'white_bishop'
p1656
sg5
S'd2'
p1657
sa(dp1658
g5
S'd3'
p1659
sa(dp1660
g5
S'd4'
p1661
sa(dp1662
g8
S'black_pawn'
p1663
sg5
S'd5'
p1664
sa(dp1665
g5
S'd6'
p1666
sa(dp1667
g5
S'd7'
p1668
sa(dp1669
g5
S'd8'
p1670
sa(dp1671
g8
S'white_rook'
p1672
sg5
S'e1'
p1673
sa(dp1674
g8
S'white_bishop'
p1675
sg5
S'e2'
p1676
sa(dp1677
g5
S'e3'
p1678
sa(dp1679
g5
S'e4'
p1680
sa(dp1681
g5
S'e5'
p1682
sa(dp1683
g5
S'e6'
p1684
sa(dp1685
g5
S'e7'
p1686
sa(dp1687
g5
S'e8'
p1688
sa(dp1689
g5
S'f1'
p1690
sa(dp1691
g8
S'white_pawn'
p1692
sg5
S'f2'
p1693
sa(dp1694
g5
S'f3'
p1695
sa(dp1696
g5
S'f4'
p1697
sa(dp1698
g5
S'f5'
p1699
sa(dp1700
g8
S'black_pawn'
p1701
sg5
S'f6'
p1702
sa(dp1703
g8
S'black_bishop'
p1704
sg5
S'f7'
p1705
sa(dp1706
g8
S'black_bishop'
p1707
sg5
S'f8'
p1708
sa(dp1709
g5
S'g1'
p1710
sa(dp1711
g8
S'white_pawn'
p1712
sg5
S'g2'
p1713
sa(dp1714
g8
S'white_rook'
p1715
sg5
S'g3'
p1716
sa(dp1717
g5
S'g4'
p1718
sa(dp1719
g5
S'g5'
p1720
sa(dp1721
g5
S'g6'
p1722
sa(dp1723
g8
S'black_pawn'
p1724
sg5
S'g7'
p1725
sa(dp1726
g8
S'black_king'
p1727
sg5
S'g8'
p1728
sa(dp1729
g5
S'h1'
p1730
sa(dp1731
g5
S'h2'
p1732
sa(dp1733
g5
S'h3'
p1734
sa(dp1735
g5
S'h4'
p1736
sa(dp1737
g8
S'white_pawn'
p1738
sg5
S'h5'
p1739
sa(dp1740
g8
S'white_knight'
p1741
sg5
S'h6'
p1742
sa(dp1743
g8
S'black_pawn'
p1744
sg5
S'h7'
p1745
sa(dp1746
g8
S'black_rook'
p1747
sg5
S'h8'
p1748
saaVWhat Joe told me is the moral of this game.  In it, he said, "adrenaline simply blocked his K in with Bishops and made the mistake of never developing either of his Rooks,especially the h8 Rook which played a part in his demise"  It's also worth noting that what got Dan's DSB blocked in was his failure to develop that.  It comes to show that even being a Q up, against stronger opposition, especially a senior, getting your minor pieces developed quickly is essential.  
p1749
aa.