(lp0
(lp1
S'1. d4'
p2
a(lp3
(dp4
S'piece'
p5
S'white_rook'
p6
sS'location'
p7
S'a1'
p8
sa(dp9
g5
S'white_pawn'
p10
sg7
S'a2'
p11
sa(dp12
g7
S'a3'
p13
sa(dp14
g7
S'a4'
p15
sa(dp16
g7
S'a5'
p17
sa(dp18
g7
S'a6'
p19
sa(dp20
g5
S'black_pawn'
p21
sg7
S'a7'
p22
sa(dp23
g5
S'black_rook'
p24
sg7
S'a8'
p25
sa(dp26
g5
S'white_knight'
p27
sg7
S'b1'
p28
sa(dp29
g5
S'white_pawn'
p30
sg7
S'b2'
p31
sa(dp32
g7
S'b3'
p33
sa(dp34
g7
S'b4'
p35
sa(dp36
g7
S'b5'
p37
sa(dp38
g7
S'b6'
p39
sa(dp40
g5
S'black_pawn'
p41
sg7
S'b7'
p42
sa(dp43
g5
S'black_knight'
p44
sg7
S'b8'
p45
sa(dp46
g5
S'white_bishop'
p47
sg7
S'c1'
p48
sa(dp49
g5
S'white_pawn'
p50
sg7
S'c2'
p51
sa(dp52
g7
S'c3'
p53
sa(dp54
g7
S'c4'
p55
sa(dp56
g7
S'c5'
p57
sa(dp58
g7
S'c6'
p59
sa(dp60
g5
S'black_pawn'
p61
sg7
S'c7'
p62
sa(dp63
g5
S'black_bishop'
p64
sg7
S'c8'
p65
sa(dp66
g5
S'white_queen'
p67
sg7
S'd1'
p68
sa(dp69
g7
S'd2'
p70
sa(dp71
g7
S'd3'
p72
sa(dp73
g5
S'white_pawn'
p74
sg7
S'd4'
p75
sa(dp76
g7
S'd5'
p77
sa(dp78
g7
S'd6'
p79
sa(dp80
g5
S'black_pawn'
p81
sg7
S'd7'
p82
sa(dp83
g5
S'black_queen'
p84
sg7
S'd8'
p85
sa(dp86
g5
S'white_king'
p87
sg7
S'e1'
p88
sa(dp89
g5
S'white_pawn'
p90
sg7
S'e2'
p91
sa(dp92
g7
S'e3'
p93
sa(dp94
g7
S'e4'
p95
sa(dp96
g7
S'e5'
p97
sa(dp98
g7
S'e6'
p99
sa(dp100
g5
S'black_pawn'
p101
sg7
S'e7'
p102
sa(dp103
g5
S'black_king'
p104
sg7
S'e8'
p105
sa(dp106
g5
S'white_bishop'
p107
sg7
S'f1'
p108
sa(dp109
g5
S'white_pawn'
p110
sg7
S'f2'
p111
sa(dp112
g7
S'f3'
p113
sa(dp114
g7
S'f4'
p115
sa(dp116
g7
S'f5'
p117
sa(dp118
g7
S'f6'
p119
sa(dp120
g5
S'black_pawn'
p121
sg7
S'f7'
p122
sa(dp123
g5
S'black_bishop'
p124
sg7
S'f8'
p125
sa(dp126
g5
S'white_knight'
p127
sg7
S'g1'
p128
sa(dp129
g5
S'white_pawn'
p130
sg7
S'g2'
p131
sa(dp132
g7
S'g3'
p133
sa(dp134
g7
S'g4'
p135
sa(dp136
g7
S'g5'
p137
sa(dp138
g7
S'g6'
p139
sa(dp140
g5
S'black_pawn'
p141
sg7
S'g7'
p142
sa(dp143
g5
S'black_knight'
p144
sg7
S'g8'
p145
sa(dp146
g5
S'white_rook'
p147
sg7
S'h1'
p148
sa(dp149
g5
S'white_pawn'
p150
sg7
S'h2'
p151
sa(dp152
g7
S'h3'
p153
sa(dp154
g7
S'h4'
p155
sa(dp156
g7
S'h5'
p157
sa(dp158
g7
S'h6'
p159
sa(dp160
g5
S'black_pawn'
p161
sg7
S'h7'
p162
sa(dp163
g5
S'black_rook'
p164
sg7
S'h8'
p165
saaVJust a reminder about the time control. It was 40 moves in 90 minutes, after that an extra 30 minutes is added if your time runs out. There is also an increment of 30 seconds per move.
p166
aa(lp167
S'1... d6'
p168
a(lp169
(dp170
g5
S'white_rook'
p171
sg7
S'a1'
p172
sa(dp173
g5
S'white_pawn'
p174
sg7
S'a2'
p175
sa(dp176
g7
S'a3'
p177
sa(dp178
g7
S'a4'
p179
sa(dp180
g7
S'a5'
p181
sa(dp182
g7
S'a6'
p183
sa(dp184
g5
S'black_pawn'
p185
sg7
S'a7'
p186
sa(dp187
g5
S'black_rook'
p188
sg7
S'a8'
p189
sa(dp190
g5
S'white_knight'
p191
sg7
S'b1'
p192
sa(dp193
g5
S'white_pawn'
p194
sg7
S'b2'
p195
sa(dp196
g7
S'b3'
p197
sa(dp198
g7
S'b4'
p199
sa(dp200
g7
S'b5'
p201
sa(dp202
g7
S'b6'
p203
sa(dp204
g5
S'black_pawn'
p205
sg7
S'b7'
p206
sa(dp207
g5
S'black_knight'
p208
sg7
S'b8'
p209
sa(dp210
g5
S'white_bishop'
p211
sg7
S'c1'
p212
sa(dp213
g5
S'white_pawn'
p214
sg7
S'c2'
p215
sa(dp216
g7
S'c3'
p217
sa(dp218
g7
S'c4'
p219
sa(dp220
g7
S'c5'
p221
sa(dp222
g7
S'c6'
p223
sa(dp224
g5
S'black_pawn'
p225
sg7
S'c7'
p226
sa(dp227
g5
S'black_bishop'
p228
sg7
S'c8'
p229
sa(dp230
g5
S'white_queen'
p231
sg7
S'd1'
p232
sa(dp233
g7
S'd2'
p234
sa(dp235
g7
S'd3'
p236
sa(dp237
g5
S'white_pawn'
p238
sg7
S'd4'
p239
sa(dp240
g7
S'd5'
p241
sa(dp242
g5
S'black_pawn'
p243
sg7
S'd6'
p244
sa(dp245
g7
S'd7'
p246
sa(dp247
g5
S'black_queen'
p248
sg7
S'd8'
p249
sa(dp250
g5
S'white_king'
p251
sg7
S'e1'
p252
sa(dp253
g5
S'white_pawn'
p254
sg7
S'e2'
p255
sa(dp256
g7
S'e3'
p257
sa(dp258
g7
S'e4'
p259
sa(dp260
g7
S'e5'
p261
sa(dp262
g7
S'e6'
p263
sa(dp264
g5
S'black_pawn'
p265
sg7
S'e7'
p266
sa(dp267
g5
S'black_king'
p268
sg7
S'e8'
p269
sa(dp270
g5
S'white_bishop'
p271
sg7
S'f1'
p272
sa(dp273
g5
S'white_pawn'
p274
sg7
S'f2'
p275
sa(dp276
g7
S'f3'
p277
sa(dp278
g7
S'f4'
p279
sa(dp280
g7
S'f5'
p281
sa(dp282
g7
S'f6'
p283
sa(dp284
g5
S'black_pawn'
p285
sg7
S'f7'
p286
sa(dp287
g5
S'black_bishop'
p288
sg7
S'f8'
p289
sa(dp290
g5
S'white_knight'
p291
sg7
S'g1'
p292
sa(dp293
g5
S'white_pawn'
p294
sg7
S'g2'
p295
sa(dp296
g7
S'g3'
p297
sa(dp298
g7
S'g4'
p299
sa(dp300
g7
S'g5'
p301
sa(dp302
g7
S'g6'
p303
sa(dp304
g5
S'black_pawn'
p305
sg7
S'g7'
p306
sa(dp307
g5
S'black_knight'
p308
sg7
S'g8'
p309
sa(dp310
g5
S'white_rook'
p311
sg7
S'h1'
p312
sa(dp313
g5
S'white_pawn'
p314
sg7
S'h2'
p315
sa(dp316
g7
S'h3'
p317
sa(dp318
g7
S'h4'
p319
sa(dp320
g7
S'h5'
p321
sa(dp322
g7
S'h6'
p323
sa(dp324
g5
S'black_pawn'
p325
sg7
S'h7'
p326
sa(dp327
g5
S'black_rook'
p328
sg7
S'h8'
p329
saaVThis was a surprise. My opponent - the number 5 seed in the tournament, and a FIDE Master - the first I have ever played to my knowledge - has played the Benko Gambit.
p330
aa(lp331
S'2. e4'
p332
a(lp333
(dp334
g5
S'white_rook'
p335
sg7
S'a1'
p336
sa(dp337
g5
S'white_pawn'
p338
sg7
S'a2'
p339
sa(dp340
g7
S'a3'
p341
sa(dp342
g7
S'a4'
p343
sa(dp344
g7
S'a5'
p345
sa(dp346
g7
S'a6'
p347
sa(dp348
g5
S'black_pawn'
p349
sg7
S'a7'
p350
sa(dp351
g5
S'black_rook'
p352
sg7
S'a8'
p353
sa(dp354
g5
S'white_knight'
p355
sg7
S'b1'
p356
sa(dp357
g5
S'white_pawn'
p358
sg7
S'b2'
p359
sa(dp360
g7
S'b3'
p361
sa(dp362
g7
S'b4'
p363
sa(dp364
g7
S'b5'
p365
sa(dp366
g7
S'b6'
p367
sa(dp368
g5
S'black_pawn'
p369
sg7
S'b7'
p370
sa(dp371
g5
S'black_knight'
p372
sg7
S'b8'
p373
sa(dp374
g5
S'white_bishop'
p375
sg7
S'c1'
p376
sa(dp377
g5
S'white_pawn'
p378
sg7
S'c2'
p379
sa(dp380
g7
S'c3'
p381
sa(dp382
g7
S'c4'
p383
sa(dp384
g7
S'c5'
p385
sa(dp386
g7
S'c6'
p387
sa(dp388
g5
S'black_pawn'
p389
sg7
S'c7'
p390
sa(dp391
g5
S'black_bishop'
p392
sg7
S'c8'
p393
sa(dp394
g5
S'white_queen'
p395
sg7
S'd1'
p396
sa(dp397
g7
S'd2'
p398
sa(dp399
g7
S'd3'
p400
sa(dp401
g5
S'white_pawn'
p402
sg7
S'd4'
p403
sa(dp404
g7
S'd5'
p405
sa(dp406
g5
S'black_pawn'
p407
sg7
S'd6'
p408
sa(dp409
g7
S'd7'
p410
sa(dp411
g5
S'black_queen'
p412
sg7
S'd8'
p413
sa(dp414
g5
S'white_king'
p415
sg7
S'e1'
p416
sa(dp417
g7
S'e2'
p418
sa(dp419
g7
S'e3'
p420
sa(dp421
g5
S'white_pawn'
p422
sg7
S'e4'
p423
sa(dp424
g7
S'e5'
p425
sa(dp426
g7
S'e6'
p427
sa(dp428
g5
S'black_pawn'
p429
sg7
S'e7'
p430
sa(dp431
g5
S'black_king'
p432
sg7
S'e8'
p433
sa(dp434
g5
S'white_bishop'
p435
sg7
S'f1'
p436
sa(dp437
g5
S'white_pawn'
p438
sg7
S'f2'
p439
sa(dp440
g7
S'f3'
p441
sa(dp442
g7
S'f4'
p443
sa(dp444
g7
S'f5'
p445
sa(dp446
g7
S'f6'
p447
sa(dp448
g5
S'black_pawn'
p449
sg7
S'f7'
p450
sa(dp451
g5
S'black_bishop'
p452
sg7
S'f8'
p453
sa(dp454
g5
S'white_knight'
p455
sg7
S'g1'
p456
sa(dp457
g5
S'white_pawn'
p458
sg7
S'g2'
p459
sa(dp460
g7
S'g3'
p461
sa(dp462
g7
S'g4'
p463
sa(dp464
g7
S'g5'
p465
sa(dp466
g7
S'g6'
p467
sa(dp468
g5
S'black_pawn'
p469
sg7
S'g7'
p470
sa(dp471
g5
S'black_knight'
p472
sg7
S'g8'
p473
sa(dp474
g5
S'white_rook'
p475
sg7
S'h1'
p476
sa(dp477
g5
S'white_pawn'
p478
sg7
S'h2'
p479
sa(dp480
g7
S'h3'
p481
sa(dp482
g7
S'h4'
p483
sa(dp484
g7
S'h5'
p485
sa(dp486
g7
S'h6'
p487
sa(dp488
g5
S'black_pawn'
p489
sg7
S'h7'
p490
sa(dp491
g5
S'black_rook'
p492
sg7
S'h8'
p493
saaVAnd this surprised him, as d4 player he was not expecting me to allow a transposition to a e4 opening.
p494
aa(lp495
S'2... Nf6'
p496
a(lp497
(dp498
g5
S'white_rook'
p499
sg7
S'a1'
p500
sa(dp501
g5
S'white_pawn'
p502
sg7
S'a2'
p503
sa(dp504
g7
S'a3'
p505
sa(dp506
g7
S'a4'
p507
sa(dp508
g7
S'a5'
p509
sa(dp510
g7
S'a6'
p511
sa(dp512
g5
S'black_pawn'
p513
sg7
S'a7'
p514
sa(dp515
g5
S'black_rook'
p516
sg7
S'a8'
p517
sa(dp518
g5
S'white_knight'
p519
sg7
S'b1'
p520
sa(dp521
g5
S'white_pawn'
p522
sg7
S'b2'
p523
sa(dp524
g7
S'b3'
p525
sa(dp526
g7
S'b4'
p527
sa(dp528
g7
S'b5'
p529
sa(dp530
g7
S'b6'
p531
sa(dp532
g5
S'black_pawn'
p533
sg7
S'b7'
p534
sa(dp535
g5
S'black_knight'
p536
sg7
S'b8'
p537
sa(dp538
g5
S'white_bishop'
p539
sg7
S'c1'
p540
sa(dp541
g5
S'white_pawn'
p542
sg7
S'c2'
p543
sa(dp544
g7
S'c3'
p545
sa(dp546
g7
S'c4'
p547
sa(dp548
g7
S'c5'
p549
sa(dp550
g7
S'c6'
p551
sa(dp552
g5
S'black_pawn'
p553
sg7
S'c7'
p554
sa(dp555
g5
S'black_bishop'
p556
sg7
S'c8'
p557
sa(dp558
g5
S'white_queen'
p559
sg7
S'd1'
p560
sa(dp561
g7
S'd2'
p562
sa(dp563
g7
S'd3'
p564
sa(dp565
g5
S'white_pawn'
p566
sg7
S'd4'
p567
sa(dp568
g7
S'd5'
p569
sa(dp570
g5
S'black_pawn'
p571
sg7
S'd6'
p572
sa(dp573
g7
S'd7'
p574
sa(dp575
g5
S'black_queen'
p576
sg7
S'd8'
p577
sa(dp578
g5
S'white_king'
p579
sg7
S'e1'
p580
sa(dp581
g7
S'e2'
p582
sa(dp583
g7
S'e3'
p584
sa(dp585
g5
S'white_pawn'
p586
sg7
S'e4'
p587
sa(dp588
g7
S'e5'
p589
sa(dp590
g7
S'e6'
p591
sa(dp592
g5
S'black_pawn'
p593
sg7
S'e7'
p594
sa(dp595
g5
S'black_king'
p596
sg7
S'e8'
p597
sa(dp598
g5
S'white_bishop'
p599
sg7
S'f1'
p600
sa(dp601
g5
S'white_pawn'
p602
sg7
S'f2'
p603
sa(dp604
g7
S'f3'
p605
sa(dp606
g7
S'f4'
p607
sa(dp608
g7
S'f5'
p609
sa(dp610
g5
S'black_knight'
p611
sg7
S'f6'
p612
sa(dp613
g5
S'black_pawn'
p614
sg7
S'f7'
p615
sa(dp616
g5
S'black_bishop'
p617
sg7
S'f8'
p618
sa(dp619
g5
S'white_knight'
p620
sg7
S'g1'
p621
sa(dp622
g5
S'white_pawn'
p623
sg7
S'g2'
p624
sa(dp625
g7
S'g3'
p626
sa(dp627
g7
S'g4'
p628
sa(dp629
g7
S'g5'
p630
sa(dp631
g7
S'g6'
p632
sa(dp633
g5
S'black_pawn'
p634
sg7
S'g7'
p635
sa(dp636
g7
S'g8'
p637
sa(dp638
g5
S'white_rook'
p639
sg7
S'h1'
p640
sa(dp641
g5
S'white_pawn'
p642
sg7
S'h2'
p643
sa(dp644
g7
S'h3'
p645
sa(dp646
g7
S'h4'
p647
sa(dp648
g7
S'h5'
p649
sa(dp650
g7
S'h6'
p651
sa(dp652
g5
S'black_pawn'
p653
sg7
S'h7'
p654
sa(dp655
g5
S'black_rook'
p656
sg7
S'h8'
p657
saaVThe Pirc Defence (correctly pronounced "peerts", but often mispronounced "perk"), sometimes known as the Ufimtsev Defence or Yugoslav Defence, is a chess opening characterised by Black responding to 1.e4 with 1...d6 and 2...Nf6, followed by ...g6 and ...Bg7, while allowing White to establish an impressive-looking centre with pawns on d4 and e4. It is named after the Slovenian Grandmaster Vasja Pirc.
p658
aa(lp659
S'3. Nc3'
p660
a(lp661
(dp662
g5
S'white_rook'
p663
sg7
S'a1'
p664
sa(dp665
g5
S'white_pawn'
p666
sg7
S'a2'
p667
sa(dp668
g7
S'a3'
p669
sa(dp670
g7
S'a4'
p671
sa(dp672
g7
S'a5'
p673
sa(dp674
g7
S'a6'
p675
sa(dp676
g5
S'black_pawn'
p677
sg7
S'a7'
p678
sa(dp679
g5
S'black_rook'
p680
sg7
S'a8'
p681
sa(dp682
g7
S'b1'
p683
sa(dp684
g5
S'white_pawn'
p685
sg7
S'b2'
p686
sa(dp687
g7
S'b3'
p688
sa(dp689
g7
S'b4'
p690
sa(dp691
g7
S'b5'
p692
sa(dp693
g7
S'b6'
p694
sa(dp695
g5
S'black_pawn'
p696
sg7
S'b7'
p697
sa(dp698
g5
S'black_knight'
p699
sg7
S'b8'
p700
sa(dp701
g5
S'white_bishop'
p702
sg7
S'c1'
p703
sa(dp704
g5
S'white_pawn'
p705
sg7
S'c2'
p706
sa(dp707
g5
S'white_knight'
p708
sg7
S'c3'
p709
sa(dp710
g7
S'c4'
p711
sa(dp712
g7
S'c5'
p713
sa(dp714
g7
S'c6'
p715
sa(dp716
g5
S'black_pawn'
p717
sg7
S'c7'
p718
sa(dp719
g5
S'black_bishop'
p720
sg7
S'c8'
p721
sa(dp722
g5
S'white_queen'
p723
sg7
S'd1'
p724
sa(dp725
g7
S'd2'
p726
sa(dp727
g7
S'd3'
p728
sa(dp729
g5
S'white_pawn'
p730
sg7
S'd4'
p731
sa(dp732
g7
S'd5'
p733
sa(dp734
g5
S'black_pawn'
p735
sg7
S'd6'
p736
sa(dp737
g7
S'd7'
p738
sa(dp739
g5
S'black_queen'
p740
sg7
S'd8'
p741
sa(dp742
g5
S'white_king'
p743
sg7
S'e1'
p744
sa(dp745
g7
S'e2'
p746
sa(dp747
g7
S'e3'
p748
sa(dp749
g5
S'white_pawn'
p750
sg7
S'e4'
p751
sa(dp752
g7
S'e5'
p753
sa(dp754
g7
S'e6'
p755
sa(dp756
g5
S'black_pawn'
p757
sg7
S'e7'
p758
sa(dp759
g5
S'black_king'
p760
sg7
S'e8'
p761
sa(dp762
g5
S'white_bishop'
p763
sg7
S'f1'
p764
sa(dp765
g5
S'white_pawn'
p766
sg7
S'f2'
p767
sa(dp768
g7
S'f3'
p769
sa(dp770
g7
S'f4'
p771
sa(dp772
g7
S'f5'
p773
sa(dp774
g5
S'black_knight'
p775
sg7
S'f6'
p776
sa(dp777
g5
S'black_pawn'
p778
sg7
S'f7'
p779
sa(dp780
g5
S'black_bishop'
p781
sg7
S'f8'
p782
sa(dp783
g5
S'white_knight'
p784
sg7
S'g1'
p785
sa(dp786
g5
S'white_pawn'
p787
sg7
S'g2'
p788
sa(dp789
g7
S'g3'
p790
sa(dp791
g7
S'g4'
p792
sa(dp793
g7
S'g5'
p794
sa(dp795
g7
S'g6'
p796
sa(dp797
g5
S'black_pawn'
p798
sg7
S'g7'
p799
sa(dp800
g7
S'g8'
p801
sa(dp802
g5
S'white_rook'
p803
sg7
S'h1'
p804
sa(dp805
g5
S'white_pawn'
p806
sg7
S'h2'
p807
sa(dp808
g7
S'h3'
p809
sa(dp810
g7
S'h4'
p811
sa(dp812
g7
S'h5'
p813
sa(dp814
g7
S'h6'
p815
sa(dp816
g5
S'black_pawn'
p817
sg7
S'h7'
p818
sa(dp819
g5
S'black_rook'
p820
sg7
S'h8'
p821
saaVThe usual reply.
p822
aa(lp823
S'3... c6'
p824
a(lp825
(dp826
g5
S'white_rook'
p827
sg7
S'a1'
p828
sa(dp829
g5
S'white_pawn'
p830
sg7
S'a2'
p831
sa(dp832
g7
S'a3'
p833
sa(dp834
g7
S'a4'
p835
sa(dp836
g7
S'a5'
p837
sa(dp838
g7
S'a6'
p839
sa(dp840
g5
S'black_pawn'
p841
sg7
S'a7'
p842
sa(dp843
g5
S'black_rook'
p844
sg7
S'a8'
p845
sa(dp846
g7
S'b1'
p847
sa(dp848
g5
S'white_pawn'
p849
sg7
S'b2'
p850
sa(dp851
g7
S'b3'
p852
sa(dp853
g7
S'b4'
p854
sa(dp855
g7
S'b5'
p856
sa(dp857
g7
S'b6'
p858
sa(dp859
g5
S'black_pawn'
p860
sg7
S'b7'
p861
sa(dp862
g5
S'black_knight'
p863
sg7
S'b8'
p864
sa(dp865
g5
S'white_bishop'
p866
sg7
S'c1'
p867
sa(dp868
g5
S'white_pawn'
p869
sg7
S'c2'
p870
sa(dp871
g5
S'white_knight'
p872
sg7
S'c3'
p873
sa(dp874
g7
S'c4'
p875
sa(dp876
g7
S'c5'
p877
sa(dp878
g5
S'black_pawn'
p879
sg7
S'c6'
p880
sa(dp881
g7
S'c7'
p882
sa(dp883
g5
S'black_bishop'
p884
sg7
S'c8'
p885
sa(dp886
g5
S'white_queen'
p887
sg7
S'd1'
p888
sa(dp889
g7
S'd2'
p890
sa(dp891
g7
S'd3'
p892
sa(dp893
g5
S'white_pawn'
p894
sg7
S'd4'
p895
sa(dp896
g7
S'd5'
p897
sa(dp898
g5
S'black_pawn'
p899
sg7
S'd6'
p900
sa(dp901
g7
S'd7'
p902
sa(dp903
g5
S'black_queen'
p904
sg7
S'd8'
p905
sa(dp906
g5
S'white_king'
p907
sg7
S'e1'
p908
sa(dp909
g7
S'e2'
p910
sa(dp911
g7
S'e3'
p912
sa(dp913
g5
S'white_pawn'
p914
sg7
S'e4'
p915
sa(dp916
g7
S'e5'
p917
sa(dp918
g7
S'e6'
p919
sa(dp920
g5
S'black_pawn'
p921
sg7
S'e7'
p922
sa(dp923
g5
S'black_king'
p924
sg7
S'e8'
p925
sa(dp926
g5
S'white_bishop'
p927
sg7
S'f1'
p928
sa(dp929
g5
S'white_pawn'
p930
sg7
S'f2'
p931
sa(dp932
g7
S'f3'
p933
sa(dp934
g7
S'f4'
p935
sa(dp936
g7
S'f5'
p937
sa(dp938
g5
S'black_knight'
p939
sg7
S'f6'
p940
sa(dp941
g5
S'black_pawn'
p942
sg7
S'f7'
p943
sa(dp944
g5
S'black_bishop'
p945
sg7
S'f8'
p946
sa(dp947
g5
S'white_knight'
p948
sg7
S'g1'
p949
sa(dp950
g5
S'white_pawn'
p951
sg7
S'g2'
p952
sa(dp953
g7
S'g3'
p954
sa(dp955
g7
S'g4'
p956
sa(dp957
g7
S'g5'
p958
sa(dp959
g7
S'g6'
p960
sa(dp961
g5
S'black_pawn'
p962
sg7
S'g7'
p963
sa(dp964
g7
S'g8'
p965
sa(dp966
g5
S'white_rook'
p967
sg7
S'h1'
p968
sa(dp969
g5
S'white_pawn'
p970
sg7
S'h2'
p971
sa(dp972
g7
S'h3'
p973
sa(dp974
g7
S'h4'
p975
sa(dp976
g7
S'h5'
p977
sa(dp978
g7
S'h6'
p979
sa(dp980
g5
S'black_pawn'
p981
sg7
S'h7'
p982
sa(dp983
g5
S'black_rook'
p984
sg7
S'h8'
p985
saaVSlightly unusual - black normally plays g6 here.
p986
aa(lp987
S'4. Bd3'
p988
a(lp989
(dp990
g5
S'white_rook'
p991
sg7
S'a1'
p992
sa(dp993
g5
S'white_pawn'
p994
sg7
S'a2'
p995
sa(dp996
g7
S'a3'
p997
sa(dp998
g7
S'a4'
p999
sa(dp1000
g7
S'a5'
p1001
sa(dp1002
g7
S'a6'
p1003
sa(dp1004
g5
S'black_pawn'
p1005
sg7
S'a7'
p1006
sa(dp1007
g5
S'black_rook'
p1008
sg7
S'a8'
p1009
sa(dp1010
g7
S'b1'
p1011
sa(dp1012
g5
S'white_pawn'
p1013
sg7
S'b2'
p1014
sa(dp1015
g7
S'b3'
p1016
sa(dp1017
g7
S'b4'
p1018
sa(dp1019
g7
S'b5'
p1020
sa(dp1021
g7
S'b6'
p1022
sa(dp1023
g5
S'black_pawn'
p1024
sg7
S'b7'
p1025
sa(dp1026
g5
S'black_knight'
p1027
sg7
S'b8'
p1028
sa(dp1029
g5
S'white_bishop'
p1030
sg7
S'c1'
p1031
sa(dp1032
g5
S'white_pawn'
p1033
sg7
S'c2'
p1034
sa(dp1035
g5
S'white_knight'
p1036
sg7
S'c3'
p1037
sa(dp1038
g7
S'c4'
p1039
sa(dp1040
g7
S'c5'
p1041
sa(dp1042
g5
S'black_pawn'
p1043
sg7
S'c6'
p1044
sa(dp1045
g7
S'c7'
p1046
sa(dp1047
g5
S'black_bishop'
p1048
sg7
S'c8'
p1049
sa(dp1050
g5
S'white_queen'
p1051
sg7
S'd1'
p1052
sa(dp1053
g7
S'd2'
p1054
sa(dp1055
g5
S'white_bishop'
p1056
sg7
S'd3'
p1057
sa(dp1058
g5
S'white_pawn'
p1059
sg7
S'd4'
p1060
sa(dp1061
g7
S'd5'
p1062
sa(dp1063
g5
S'black_pawn'
p1064
sg7
S'd6'
p1065
sa(dp1066
g7
S'd7'
p1067
sa(dp1068
g5
S'black_queen'
p1069
sg7
S'd8'
p1070
sa(dp1071
g5
S'white_king'
p1072
sg7
S'e1'
p1073
sa(dp1074
g7
S'e2'
p1075
sa(dp1076
g7
S'e3'
p1077
sa(dp1078
g5
S'white_pawn'
p1079
sg7
S'e4'
p1080
sa(dp1081
g7
S'e5'
p1082
sa(dp1083
g7
S'e6'
p1084
sa(dp1085
g5
S'black_pawn'
p1086
sg7
S'e7'
p1087
sa(dp1088
g5
S'black_king'
p1089
sg7
S'e8'
p1090
sa(dp1091
g7
S'f1'
p1092
sa(dp1093
g5
S'white_pawn'
p1094
sg7
S'f2'
p1095
sa(dp1096
g7
S'f3'
p1097
sa(dp1098
g7
S'f4'
p1099
sa(dp1100
g7
S'f5'
p1101
sa(dp1102
g5
S'black_knight'
p1103
sg7
S'f6'
p1104
sa(dp1105
g5
S'black_pawn'
p1106
sg7
S'f7'
p1107
sa(dp1108
g5
S'black_bishop'
p1109
sg7
S'f8'
p1110
sa(dp1111
g5
S'white_knight'
p1112
sg7
S'g1'
p1113
sa(dp1114
g5
S'white_pawn'
p1115
sg7
S'g2'
p1116
sa(dp1117
g7
S'g3'
p1118
sa(dp1119
g7
S'g4'
p1120
sa(dp1121
g7
S'g5'
p1122
sa(dp1123
g7
S'g6'
p1124
sa(dp1125
g5
S'black_pawn'
p1126
sg7
S'g7'
p1127
sa(dp1128
g7
S'g8'
p1129
sa(dp1130
g5
S'white_rook'
p1131
sg7
S'h1'
p1132
sa(dp1133
g5
S'white_pawn'
p1134
sg7
S'h2'
p1135
sa(dp1136
g7
S'h3'
p1137
sa(dp1138
g7
S'h4'
p1139
sa(dp1140
g7
S'h5'
p1141
sa(dp1142
g7
S'h6'
p1143
sa(dp1144
g5
S'black_pawn'
p1145
sg7
S'h7'
p1146
sa(dp1147
g5
S'black_rook'
p1148
sg7
S'h8'
p1149
saaVNo point in going to c4 where it can be hit with b7-b5
p1150
aa(lp1151
S'4... e5'
p1152
a(lp1153
(dp1154
g5
S'white_rook'
p1155
sg7
S'a1'
p1156
sa(dp1157
g5
S'white_pawn'
p1158
sg7
S'a2'
p1159
sa(dp1160
g7
S'a3'
p1161
sa(dp1162
g7
S'a4'
p1163
sa(dp1164
g7
S'a5'
p1165
sa(dp1166
g7
S'a6'
p1167
sa(dp1168
g5
S'black_pawn'
p1169
sg7
S'a7'
p1170
sa(dp1171
g5
S'black_rook'
p1172
sg7
S'a8'
p1173
sa(dp1174
g7
S'b1'
p1175
sa(dp1176
g5
S'white_pawn'
p1177
sg7
S'b2'
p1178
sa(dp1179
g7
S'b3'
p1180
sa(dp1181
g7
S'b4'
p1182
sa(dp1183
g7
S'b5'
p1184
sa(dp1185
g7
S'b6'
p1186
sa(dp1187
g5
S'black_pawn'
p1188
sg7
S'b7'
p1189
sa(dp1190
g5
S'black_knight'
p1191
sg7
S'b8'
p1192
sa(dp1193
g5
S'white_bishop'
p1194
sg7
S'c1'
p1195
sa(dp1196
g5
S'white_pawn'
p1197
sg7
S'c2'
p1198
sa(dp1199
g5
S'white_knight'
p1200
sg7
S'c3'
p1201
sa(dp1202
g7
S'c4'
p1203
sa(dp1204
g7
S'c5'
p1205
sa(dp1206
g5
S'black_pawn'
p1207
sg7
S'c6'
p1208
sa(dp1209
g7
S'c7'
p1210
sa(dp1211
g5
S'black_bishop'
p1212
sg7
S'c8'
p1213
sa(dp1214
g5
S'white_queen'
p1215
sg7
S'd1'
p1216
sa(dp1217
g7
S'd2'
p1218
sa(dp1219
g5
S'white_bishop'
p1220
sg7
S'd3'
p1221
sa(dp1222
g5
S'white_pawn'
p1223
sg7
S'd4'
p1224
sa(dp1225
g7
S'd5'
p1226
sa(dp1227
g5
S'black_pawn'
p1228
sg7
S'd6'
p1229
sa(dp1230
g7
S'd7'
p1231
sa(dp1232
g5
S'black_queen'
p1233
sg7
S'd8'
p1234
sa(dp1235
g5
S'white_king'
p1236
sg7
S'e1'
p1237
sa(dp1238
g7
S'e2'
p1239
sa(dp1240
g7
S'e3'
p1241
sa(dp1242
g5
S'white_pawn'
p1243
sg7
S'e4'
p1244
sa(dp1245
g5
S'black_pawn'
p1246
sg7
S'e5'
p1247
sa(dp1248
g7
S'e6'
p1249
sa(dp1250
g7
S'e7'
p1251
sa(dp1252
g5
S'black_king'
p1253
sg7
S'e8'
p1254
sa(dp1255
g7
S'f1'
p1256
sa(dp1257
g5
S'white_pawn'
p1258
sg7
S'f2'
p1259
sa(dp1260
g7
S'f3'
p1261
sa(dp1262
g7
S'f4'
p1263
sa(dp1264
g7
S'f5'
p1265
sa(dp1266
g5
S'black_knight'
p1267
sg7
S'f6'
p1268
sa(dp1269
g5
S'black_pawn'
p1270
sg7
S'f7'
p1271
sa(dp1272
g5
S'black_bishop'
p1273
sg7
S'f8'
p1274
sa(dp1275
g5
S'white_knight'
p1276
sg7
S'g1'
p1277
sa(dp1278
g5
S'white_pawn'
p1279
sg7
S'g2'
p1280
sa(dp1281
g7
S'g3'
p1282
sa(dp1283
g7
S'g4'
p1284
sa(dp1285
g7
S'g5'
p1286
sa(dp1287
g7
S'g6'
p1288
sa(dp1289
g5
S'black_pawn'
p1290
sg7
S'g7'
p1291
sa(dp1292
g7
S'g8'
p1293
sa(dp1294
g5
S'white_rook'
p1295
sg7
S'h1'
p1296
sa(dp1297
g5
S'white_pawn'
p1298
sg7
S'h2'
p1299
sa(dp1300
g7
S'h3'
p1301
sa(dp1302
g7
S'h4'
p1303
sa(dp1304
g7
S'h5'
p1305
sa(dp1306
g7
S'h6'
p1307
sa(dp1308
g5
S'black_pawn'
p1309
sg7
S'h7'
p1310
sa(dp1311
g5
S'black_rook'
p1312
sg7
S'h8'
p1313
saaVBlack stakes a claim in the centre.
p1314
aa(lp1315
S'5. Nge2'
p1316
a(lp1317
(dp1318
g5
S'white_rook'
p1319
sg7
S'a1'
p1320
sa(dp1321
g5
S'white_pawn'
p1322
sg7
S'a2'
p1323
sa(dp1324
g7
S'a3'
p1325
sa(dp1326
g7
S'a4'
p1327
sa(dp1328
g7
S'a5'
p1329
sa(dp1330
g7
S'a6'
p1331
sa(dp1332
g5
S'black_pawn'
p1333
sg7
S'a7'
p1334
sa(dp1335
g5
S'black_rook'
p1336
sg7
S'a8'
p1337
sa(dp1338
g7
S'b1'
p1339
sa(dp1340
g5
S'white_pawn'
p1341
sg7
S'b2'
p1342
sa(dp1343
g7
S'b3'
p1344
sa(dp1345
g7
S'b4'
p1346
sa(dp1347
g7
S'b5'
p1348
sa(dp1349
g7
S'b6'
p1350
sa(dp1351
g5
S'black_pawn'
p1352
sg7
S'b7'
p1353
sa(dp1354
g5
S'black_knight'
p1355
sg7
S'b8'
p1356
sa(dp1357
g5
S'white_bishop'
p1358
sg7
S'c1'
p1359
sa(dp1360
g5
S'white_pawn'
p1361
sg7
S'c2'
p1362
sa(dp1363
g5
S'white_knight'
p1364
sg7
S'c3'
p1365
sa(dp1366
g7
S'c4'
p1367
sa(dp1368
g7
S'c5'
p1369
sa(dp1370
g5
S'black_pawn'
p1371
sg7
S'c6'
p1372
sa(dp1373
g7
S'c7'
p1374
sa(dp1375
g5
S'black_bishop'
p1376
sg7
S'c8'
p1377
sa(dp1378
g5
S'white_queen'
p1379
sg7
S'd1'
p1380
sa(dp1381
g7
S'd2'
p1382
sa(dp1383
g5
S'white_bishop'
p1384
sg7
S'd3'
p1385
sa(dp1386
g5
S'white_pawn'
p1387
sg7
S'd4'
p1388
sa(dp1389
g7
S'd5'
p1390
sa(dp1391
g5
S'black_pawn'
p1392
sg7
S'd6'
p1393
sa(dp1394
g7
S'd7'
p1395
sa(dp1396
g5
S'black_queen'
p1397
sg7
S'd8'
p1398
sa(dp1399
g5
S'white_king'
p1400
sg7
S'e1'
p1401
sa(dp1402
g5
S'white_knight'
p1403
sg7
S'e2'
p1404
sa(dp1405
g7
S'e3'
p1406
sa(dp1407
g5
S'white_pawn'
p1408
sg7
S'e4'
p1409
sa(dp1410
g5
S'black_pawn'
p1411
sg7
S'e5'
p1412
sa(dp1413
g7
S'e6'
p1414
sa(dp1415
g7
S'e7'
p1416
sa(dp1417
g5
S'black_king'
p1418
sg7
S'e8'
p1419
sa(dp1420
g7
S'f1'
p1421
sa(dp1422
g5
S'white_pawn'
p1423
sg7
S'f2'
p1424
sa(dp1425
g7
S'f3'
p1426
sa(dp1427
g7
S'f4'
p1428
sa(dp1429
g7
S'f5'
p1430
sa(dp1431
g5
S'black_knight'
p1432
sg7
S'f6'
p1433
sa(dp1434
g5
S'black_pawn'
p1435
sg7
S'f7'
p1436
sa(dp1437
g5
S'black_bishop'
p1438
sg7
S'f8'
p1439
sa(dp1440
g7
S'g1'
p1441
sa(dp1442
g5
S'white_pawn'
p1443
sg7
S'g2'
p1444
sa(dp1445
g7
S'g3'
p1446
sa(dp1447
g7
S'g4'
p1448
sa(dp1449
g7
S'g5'
p1450
sa(dp1451
g7
S'g6'
p1452
sa(dp1453
g5
S'black_pawn'
p1454
sg7
S'g7'
p1455
sa(dp1456
g7
S'g8'
p1457
sa(dp1458
g5
S'white_rook'
p1459
sg7
S'h1'
p1460
sa(dp1461
g5
S'white_pawn'
p1462
sg7
S'h2'
p1463
sa(dp1464
g7
S'h3'
p1465
sa(dp1466
g7
S'h4'
p1467
sa(dp1468
g7
S'h5'
p1469
sa(dp1470
g7
S'h6'
p1471
sa(dp1472
g5
S'black_pawn'
p1473
sg7
S'h7'
p1474
sa(dp1475
g5
S'black_rook'
p1476
sg7
S'h8'
p1477
saaVAnd this is the usual reply
p1478
aa(lp1479
S'5... b5'
p1480
a(lp1481
(dp1482
g5
S'white_rook'
p1483
sg7
S'a1'
p1484
sa(dp1485
g5
S'white_pawn'
p1486
sg7
S'a2'
p1487
sa(dp1488
g7
S'a3'
p1489
sa(dp1490
g7
S'a4'
p1491
sa(dp1492
g7
S'a5'
p1493
sa(dp1494
g7
S'a6'
p1495
sa(dp1496
g5
S'black_pawn'
p1497
sg7
S'a7'
p1498
sa(dp1499
g5
S'black_rook'
p1500
sg7
S'a8'
p1501
sa(dp1502
g7
S'b1'
p1503
sa(dp1504
g5
S'white_pawn'
p1505
sg7
S'b2'
p1506
sa(dp1507
g7
S'b3'
p1508
sa(dp1509
g7
S'b4'
p1510
sa(dp1511
g5
S'black_pawn'
p1512
sg7
S'b5'
p1513
sa(dp1514
g7
S'b6'
p1515
sa(dp1516
g7
S'b7'
p1517
sa(dp1518
g5
S'black_knight'
p1519
sg7
S'b8'
p1520
sa(dp1521
g5
S'white_bishop'
p1522
sg7
S'c1'
p1523
sa(dp1524
g5
S'white_pawn'
p1525
sg7
S'c2'
p1526
sa(dp1527
g5
S'white_knight'
p1528
sg7
S'c3'
p1529
sa(dp1530
g7
S'c4'
p1531
sa(dp1532
g7
S'c5'
p1533
sa(dp1534
g5
S'black_pawn'
p1535
sg7
S'c6'
p1536
sa(dp1537
g7
S'c7'
p1538
sa(dp1539
g5
S'black_bishop'
p1540
sg7
S'c8'
p1541
sa(dp1542
g5
S'white_queen'
p1543
sg7
S'd1'
p1544
sa(dp1545
g7
S'd2'
p1546
sa(dp1547
g5
S'white_bishop'
p1548
sg7
S'd3'
p1549
sa(dp1550
g5
S'white_pawn'
p1551
sg7
S'd4'
p1552
sa(dp1553
g7
S'd5'
p1554
sa(dp1555
g5
S'black_pawn'
p1556
sg7
S'd6'
p1557
sa(dp1558
g7
S'd7'
p1559
sa(dp1560
g5
S'black_queen'
p1561
sg7
S'd8'
p1562
sa(dp1563
g5
S'white_king'
p1564
sg7
S'e1'
p1565
sa(dp1566
g5
S'white_knight'
p1567
sg7
S'e2'
p1568
sa(dp1569
g7
S'e3'
p1570
sa(dp1571
g5
S'white_pawn'
p1572
sg7
S'e4'
p1573
sa(dp1574
g5
S'black_pawn'
p1575
sg7
S'e5'
p1576
sa(dp1577
g7
S'e6'
p1578
sa(dp1579
g7
S'e7'
p1580
sa(dp1581
g5
S'black_king'
p1582
sg7
S'e8'
p1583
sa(dp1584
g7
S'f1'
p1585
sa(dp1586
g5
S'white_pawn'
p1587
sg7
S'f2'
p1588
sa(dp1589
g7
S'f3'
p1590
sa(dp1591
g7
S'f4'
p1592
sa(dp1593
g7
S'f5'
p1594
sa(dp1595
g5
S'black_knight'
p1596
sg7
S'f6'
p1597
sa(dp1598
g5
S'black_pawn'
p1599
sg7
S'f7'
p1600
sa(dp1601
g5
S'black_bishop'
p1602
sg7
S'f8'
p1603
sa(dp1604
g7
S'g1'
p1605
sa(dp1606
g5
S'white_pawn'
p1607
sg7
S'g2'
p1608
sa(dp1609
g7
S'g3'
p1610
sa(dp1611
g7
S'g4'
p1612
sa(dp1613
g7
S'g5'
p1614
sa(dp1615
g7
S'g6'
p1616
sa(dp1617
g5
S'black_pawn'
p1618
sg7
S'g7'
p1619
sa(dp1620
g7
S'g8'
p1621
sa(dp1622
g5
S'white_rook'
p1623
sg7
S'h1'
p1624
sa(dp1625
g5
S'white_pawn'
p1626
sg7
S'h2'
p1627
sa(dp1628
g7
S'h3'
p1629
sa(dp1630
g7
S'h4'
p1631
sa(dp1632
g7
S'h5'
p1633
sa(dp1634
g7
S'h6'
p1635
sa(dp1636
g5
S'black_pawn'
p1637
sg7
S'h7'
p1638
sa(dp1639
g5
S'black_rook'
p1640
sg7
S'h8'
p1641
saaVI can't see this move on any of my databases, and I don't think it is very good! Too many pawn moves! Nb-d7, Be7, g6, exd4, Qc7 and Qb6 have all been played here.
p1642
aa(lp1643
S'6. f3'
p1644
a(lp1645
(dp1646
g5
S'white_rook'
p1647
sg7
S'a1'
p1648
sa(dp1649
g5
S'white_pawn'
p1650
sg7
S'a2'
p1651
sa(dp1652
g7
S'a3'
p1653
sa(dp1654
g7
S'a4'
p1655
sa(dp1656
g7
S'a5'
p1657
sa(dp1658
g7
S'a6'
p1659
sa(dp1660
g5
S'black_pawn'
p1661
sg7
S'a7'
p1662
sa(dp1663
g5
S'black_rook'
p1664
sg7
S'a8'
p1665
sa(dp1666
g7
S'b1'
p1667
sa(dp1668
g5
S'white_pawn'
p1669
sg7
S'b2'
p1670
sa(dp1671
g7
S'b3'
p1672
sa(dp1673
g7
S'b4'
p1674
sa(dp1675
g5
S'black_pawn'
p1676
sg7
S'b5'
p1677
sa(dp1678
g7
S'b6'
p1679
sa(dp1680
g7
S'b7'
p1681
sa(dp1682
g5
S'black_knight'
p1683
sg7
S'b8'
p1684
sa(dp1685
g5
S'white_bishop'
p1686
sg7
S'c1'
p1687
sa(dp1688
g5
S'white_pawn'
p1689
sg7
S'c2'
p1690
sa(dp1691
g5
S'white_knight'
p1692
sg7
S'c3'
p1693
sa(dp1694
g7
S'c4'
p1695
sa(dp1696
g7
S'c5'
p1697
sa(dp1698
g5
S'black_pawn'
p1699
sg7
S'c6'
p1700
sa(dp1701
g7
S'c7'
p1702
sa(dp1703
g5
S'black_bishop'
p1704
sg7
S'c8'
p1705
sa(dp1706
g5
S'white_queen'
p1707
sg7
S'd1'
p1708
sa(dp1709
g7
S'd2'
p1710
sa(dp1711
g5
S'white_bishop'
p1712
sg7
S'd3'
p1713
sa(dp1714
g5
S'white_pawn'
p1715
sg7
S'd4'
p1716
sa(dp1717
g7
S'd5'
p1718
sa(dp1719
g5
S'black_pawn'
p1720
sg7
S'd6'
p1721
sa(dp1722
g7
S'd7'
p1723
sa(dp1724
g5
S'black_queen'
p1725
sg7
S'd8'
p1726
sa(dp1727
g5
S'white_king'
p1728
sg7
S'e1'
p1729
sa(dp1730
g5
S'white_knight'
p1731
sg7
S'e2'
p1732
sa(dp1733
g7
S'e3'
p1734
sa(dp1735
g5
S'white_pawn'
p1736
sg7
S'e4'
p1737
sa(dp1738
g5
S'black_pawn'
p1739
sg7
S'e5'
p1740
sa(dp1741
g7
S'e6'
p1742
sa(dp1743
g7
S'e7'
p1744
sa(dp1745
g5
S'black_king'
p1746
sg7
S'e8'
p1747
sa(dp1748
g7
S'f1'
p1749
sa(dp1750
g7
S'f2'
p1751
sa(dp1752
g5
S'white_pawn'
p1753
sg7
S'f3'
p1754
sa(dp1755
g7
S'f4'
p1756
sa(dp1757
g7
S'f5'
p1758
sa(dp1759
g5
S'black_knight'
p1760
sg7
S'f6'
p1761
sa(dp1762
g5
S'black_pawn'
p1763
sg7
S'f7'
p1764
sa(dp1765
g5
S'black_bishop'
p1766
sg7
S'f8'
p1767
sa(dp1768
g7
S'g1'
p1769
sa(dp1770
g5
S'white_pawn'
p1771
sg7
S'g2'
p1772
sa(dp1773
g7
S'g3'
p1774
sa(dp1775
g7
S'g4'
p1776
sa(dp1777
g7
S'g5'
p1778
sa(dp1779
g7
S'g6'
p1780
sa(dp1781
g5
S'black_pawn'
p1782
sg7
S'g7'
p1783
sa(dp1784
g7
S'g8'
p1785
sa(dp1786
g5
S'white_rook'
p1787
sg7
S'h1'
p1788
sa(dp1789
g5
S'white_pawn'
p1790
sg7
S'h2'
p1791
sa(dp1792
g7
S'h3'
p1793
sa(dp1794
g7
S'h4'
p1795
sa(dp1796
g7
S'h5'
p1797
sa(dp1798
g7
S'h6'
p1799
sa(dp1800
g5
S'black_pawn'
p1801
sg7
S'h7'
p1802
sa(dp1803
g5
S'black_rook'
p1804
sg7
S'h8'
p1805
saaVThe setup f2?f3, Be3 and Qd2 is commonly used against the King's Indian Defence and Dragon Sicilian, and can also be used against the Pirc; indeed, this system is as old as the Pirc itself.
p1806
aa(lp1807
S'6... h5'
p1808
a(lp1809
(dp1810
g5
S'white_rook'
p1811
sg7
S'a1'
p1812
sa(dp1813
g5
S'white_pawn'
p1814
sg7
S'a2'
p1815
sa(dp1816
g7
S'a3'
p1817
sa(dp1818
g7
S'a4'
p1819
sa(dp1820
g7
S'a5'
p1821
sa(dp1822
g7
S'a6'
p1823
sa(dp1824
g5
S'black_pawn'
p1825
sg7
S'a7'
p1826
sa(dp1827
g5
S'black_rook'
p1828
sg7
S'a8'
p1829
sa(dp1830
g7
S'b1'
p1831
sa(dp1832
g5
S'white_pawn'
p1833
sg7
S'b2'
p1834
sa(dp1835
g7
S'b3'
p1836
sa(dp1837
g7
S'b4'
p1838
sa(dp1839
g5
S'black_pawn'
p1840
sg7
S'b5'
p1841
sa(dp1842
g7
S'b6'
p1843
sa(dp1844
g7
S'b7'
p1845
sa(dp1846
g5
S'black_knight'
p1847
sg7
S'b8'
p1848
sa(dp1849
g5
S'white_bishop'
p1850
sg7
S'c1'
p1851
sa(dp1852
g5
S'white_pawn'
p1853
sg7
S'c2'
p1854
sa(dp1855
g5
S'white_knight'
p1856
sg7
S'c3'
p1857
sa(dp1858
g7
S'c4'
p1859
sa(dp1860
g7
S'c5'
p1861
sa(dp1862
g5
S'black_pawn'
p1863
sg7
S'c6'
p1864
sa(dp1865
g7
S'c7'
p1866
sa(dp1867
g5
S'black_bishop'
p1868
sg7
S'c8'
p1869
sa(dp1870
g5
S'white_queen'
p1871
sg7
S'd1'
p1872
sa(dp1873
g7
S'd2'
p1874
sa(dp1875
g5
S'white_bishop'
p1876
sg7
S'd3'
p1877
sa(dp1878
g5
S'white_pawn'
p1879
sg7
S'd4'
p1880
sa(dp1881
g7
S'd5'
p1882
sa(dp1883
g5
S'black_pawn'
p1884
sg7
S'd6'
p1885
sa(dp1886
g7
S'd7'
p1887
sa(dp1888
g5
S'black_queen'
p1889
sg7
S'd8'
p1890
sa(dp1891
g5
S'white_king'
p1892
sg7
S'e1'
p1893
sa(dp1894
g5
S'white_knight'
p1895
sg7
S'e2'
p1896
sa(dp1897
g7
S'e3'
p1898
sa(dp1899
g5
S'white_pawn'
p1900
sg7
S'e4'
p1901
sa(dp1902
g5
S'black_pawn'
p1903
sg7
S'e5'
p1904
sa(dp1905
g7
S'e6'
p1906
sa(dp1907
g7
S'e7'
p1908
sa(dp1909
g5
S'black_king'
p1910
sg7
S'e8'
p1911
sa(dp1912
g7
S'f1'
p1913
sa(dp1914
g7
S'f2'
p1915
sa(dp1916
g5
S'white_pawn'
p1917
sg7
S'f3'
p1918
sa(dp1919
g7
S'f4'
p1920
sa(dp1921
g7
S'f5'
p1922
sa(dp1923
g5
S'black_knight'
p1924
sg7
S'f6'
p1925
sa(dp1926
g5
S'black_pawn'
p1927
sg7
S'f7'
p1928
sa(dp1929
g5
S'black_bishop'
p1930
sg7
S'f8'
p1931
sa(dp1932
g7
S'g1'
p1933
sa(dp1934
g5
S'white_pawn'
p1935
sg7
S'g2'
p1936
sa(dp1937
g7
S'g3'
p1938
sa(dp1939
g7
S'g4'
p1940
sa(dp1941
g7
S'g5'
p1942
sa(dp1943
g7
S'g6'
p1944
sa(dp1945
g5
S'black_pawn'
p1946
sg7
S'g7'
p1947
sa(dp1948
g7
S'g8'
p1949
sa(dp1950
g5
S'white_rook'
p1951
sg7
S'h1'
p1952
sa(dp1953
g5
S'white_pawn'
p1954
sg7
S'h2'
p1955
sa(dp1956
g7
S'h3'
p1957
sa(dp1958
g7
S'h4'
p1959
sa(dp1960
g5
S'black_pawn'
p1961
sg7
S'h5'
p1962
sa(dp1963
g7
S'h6'
p1964
sa(dp1965
g7
S'h7'
p1966
sa(dp1967
g5
S'black_rook'
p1968
sg7
S'h8'
p1969
saaVAnother strange pawn move. Again, I think Nb-d7, Be7, g6, exd4, Qc7 and Qb6 are all better.
p1970
aa(lp1971
S'7. Bg5'
p1972
a(lp1973
(dp1974
g5
S'white_rook'
p1975
sg7
S'a1'
p1976
sa(dp1977
g5
S'white_pawn'
p1978
sg7
S'a2'
p1979
sa(dp1980
g7
S'a3'
p1981
sa(dp1982
g7
S'a4'
p1983
sa(dp1984
g7
S'a5'
p1985
sa(dp1986
g7
S'a6'
p1987
sa(dp1988
g5
S'black_pawn'
p1989
sg7
S'a7'
p1990
sa(dp1991
g5
S'black_rook'
p1992
sg7
S'a8'
p1993
sa(dp1994
g7
S'b1'
p1995
sa(dp1996
g5
S'white_pawn'
p1997
sg7
S'b2'
p1998
sa(dp1999
g7
S'b3'
p2000
sa(dp2001
g7
S'b4'
p2002
sa(dp2003
g5
S'black_pawn'
p2004
sg7
S'b5'
p2005
sa(dp2006
g7
S'b6'
p2007
sa(dp2008
g7
S'b7'
p2009
sa(dp2010
g5
S'black_knight'
p2011
sg7
S'b8'
p2012
sa(dp2013
g7
S'c1'
p2014
sa(dp2015
g5
S'white_pawn'
p2016
sg7
S'c2'
p2017
sa(dp2018
g5
S'white_knight'
p2019
sg7
S'c3'
p2020
sa(dp2021
g7
S'c4'
p2022
sa(dp2023
g7
S'c5'
p2024
sa(dp2025
g5
S'black_pawn'
p2026
sg7
S'c6'
p2027
sa(dp2028
g7
S'c7'
p2029
sa(dp2030
g5
S'black_bishop'
p2031
sg7
S'c8'
p2032
sa(dp2033
g5
S'white_queen'
p2034
sg7
S'd1'
p2035
sa(dp2036
g7
S'd2'
p2037
sa(dp2038
g5
S'white_bishop'
p2039
sg7
S'd3'
p2040
sa(dp2041
g5
S'white_pawn'
p2042
sg7
S'd4'
p2043
sa(dp2044
g7
S'd5'
p2045
sa(dp2046
g5
S'black_pawn'
p2047
sg7
S'd6'
p2048
sa(dp2049
g7
S'd7'
p2050
sa(dp2051
g5
S'black_queen'
p2052
sg7
S'd8'
p2053
sa(dp2054
g5
S'white_king'
p2055
sg7
S'e1'
p2056
sa(dp2057
g5
S'white_knight'
p2058
sg7
S'e2'
p2059
sa(dp2060
g7
S'e3'
p2061
sa(dp2062
g5
S'white_pawn'
p2063
sg7
S'e4'
p2064
sa(dp2065
g5
S'black_pawn'
p2066
sg7
S'e5'
p2067
sa(dp2068
g7
S'e6'
p2069
sa(dp2070
g7
S'e7'
p2071
sa(dp2072
g5
S'black_king'
p2073
sg7
S'e8'
p2074
sa(dp2075
g7
S'f1'
p2076
sa(dp2077
g7
S'f2'
p2078
sa(dp2079
g5
S'white_pawn'
p2080
sg7
S'f3'
p2081
sa(dp2082
g7
S'f4'
p2083
sa(dp2084
g7
S'f5'
p2085
sa(dp2086
g5
S'black_knight'
p2087
sg7
S'f6'
p2088
sa(dp2089
g5
S'black_pawn'
p2090
sg7
S'f7'
p2091
sa(dp2092
g5
S'black_bishop'
p2093
sg7
S'f8'
p2094
sa(dp2095
g7
S'g1'
p2096
sa(dp2097
g5
S'white_pawn'
p2098
sg7
S'g2'
p2099
sa(dp2100
g7
S'g3'
p2101
sa(dp2102
g7
S'g4'
p2103
sa(dp2104
g5
S'white_bishop'
p2105
sg7
S'g5'
p2106
sa(dp2107
g7
S'g6'
p2108
sa(dp2109
g5
S'black_pawn'
p2110
sg7
S'g7'
p2111
sa(dp2112
g7
S'g8'
p2113
sa(dp2114
g5
S'white_rook'
p2115
sg7
S'h1'
p2116
sa(dp2117
g5
S'white_pawn'
p2118
sg7
S'h2'
p2119
sa(dp2120
g7
S'h3'
p2121
sa(dp2122
g7
S'h4'
p2123
sa(dp2124
g5
S'black_pawn'
p2125
sg7
S'h5'
p2126
sa(dp2127
g7
S'h6'
p2128
sa(dp2129
g7
S'h7'
p2130
sa(dp2131
g5
S'black_rook'
p2132
sg7
S'h8'
p2133
saaVMaybe I should have continued with my plan of Be3, but I almost felt duty bound to try and exploit his weakening of the g5 square and the fact he couldn't play h7-h6 any more.
p2134
aa(lp2135
S'7... Be7'
p2136
a(lp2137
(dp2138
g5
S'white_rook'
p2139
sg7
S'a1'
p2140
sa(dp2141
g5
S'white_pawn'
p2142
sg7
S'a2'
p2143
sa(dp2144
g7
S'a3'
p2145
sa(dp2146
g7
S'a4'
p2147
sa(dp2148
g7
S'a5'
p2149
sa(dp2150
g7
S'a6'
p2151
sa(dp2152
g5
S'black_pawn'
p2153
sg7
S'a7'
p2154
sa(dp2155
g5
S'black_rook'
p2156
sg7
S'a8'
p2157
sa(dp2158
g7
S'b1'
p2159
sa(dp2160
g5
S'white_pawn'
p2161
sg7
S'b2'
p2162
sa(dp2163
g7
S'b3'
p2164
sa(dp2165
g7
S'b4'
p2166
sa(dp2167
g5
S'black_pawn'
p2168
sg7
S'b5'
p2169
sa(dp2170
g7
S'b6'
p2171
sa(dp2172
g7
S'b7'
p2173
sa(dp2174
g5
S'black_knight'
p2175
sg7
S'b8'
p2176
sa(dp2177
g7
S'c1'
p2178
sa(dp2179
g5
S'white_pawn'
p2180
sg7
S'c2'
p2181
sa(dp2182
g5
S'white_knight'
p2183
sg7
S'c3'
p2184
sa(dp2185
g7
S'c4'
p2186
sa(dp2187
g7
S'c5'
p2188
sa(dp2189
g5
S'black_pawn'
p2190
sg7
S'c6'
p2191
sa(dp2192
g7
S'c7'
p2193
sa(dp2194
g5
S'black_bishop'
p2195
sg7
S'c8'
p2196
sa(dp2197
g5
S'white_queen'
p2198
sg7
S'd1'
p2199
sa(dp2200
g7
S'd2'
p2201
sa(dp2202
g5
S'white_bishop'
p2203
sg7
S'd3'
p2204
sa(dp2205
g5
S'white_pawn'
p2206
sg7
S'd4'
p2207
sa(dp2208
g7
S'd5'
p2209
sa(dp2210
g5
S'black_pawn'
p2211
sg7
S'd6'
p2212
sa(dp2213
g7
S'd7'
p2214
sa(dp2215
g5
S'black_queen'
p2216
sg7
S'd8'
p2217
sa(dp2218
g5
S'white_king'
p2219
sg7
S'e1'
p2220
sa(dp2221
g5
S'white_knight'
p2222
sg7
S'e2'
p2223
sa(dp2224
g7
S'e3'
p2225
sa(dp2226
g5
S'white_pawn'
p2227
sg7
S'e4'
p2228
sa(dp2229
g5
S'black_pawn'
p2230
sg7
S'e5'
p2231
sa(dp2232
g7
S'e6'
p2233
sa(dp2234
g5
S'black_bishop'
p2235
sg7
S'e7'
p2236
sa(dp2237
g5
S'black_king'
p2238
sg7
S'e8'
p2239
sa(dp2240
g7
S'f1'
p2241
sa(dp2242
g7
S'f2'
p2243
sa(dp2244
g5
S'white_pawn'
p2245
sg7
S'f3'
p2246
sa(dp2247
g7
S'f4'
p2248
sa(dp2249
g7
S'f5'
p2250
sa(dp2251
g5
S'black_knight'
p2252
sg7
S'f6'
p2253
sa(dp2254
g5
S'black_pawn'
p2255
sg7
S'f7'
p2256
sa(dp2257
g7
S'f8'
p2258
sa(dp2259
g7
S'g1'
p2260
sa(dp2261
g5
S'white_pawn'
p2262
sg7
S'g2'
p2263
sa(dp2264
g7
S'g3'
p2265
sa(dp2266
g7
S'g4'
p2267
sa(dp2268
g5
S'white_bishop'
p2269
sg7
S'g5'
p2270
sa(dp2271
g7
S'g6'
p2272
sa(dp2273
g5
S'black_pawn'
p2274
sg7
S'g7'
p2275
sa(dp2276
g7
S'g8'
p2277
sa(dp2278
g5
S'white_rook'
p2279
sg7
S'h1'
p2280
sa(dp2281
g5
S'white_pawn'
p2282
sg7
S'h2'
p2283
sa(dp2284
g7
S'h3'
p2285
sa(dp2286
g7
S'h4'
p2287
sa(dp2288
g5
S'black_pawn'
p2289
sg7
S'h5'
p2290
sa(dp2291
g7
S'h6'
p2292
sa(dp2293
g7
S'h7'
p2294
sa(dp2295
g5
S'black_rook'
p2296
sg7
S'h8'
p2297
saaVHe at last develops.
p2298
aa(lp2299
S'8. Qd2'
p2300
a(lp2301
(dp2302
g5
S'white_rook'
p2303
sg7
S'a1'
p2304
sa(dp2305
g5
S'white_pawn'
p2306
sg7
S'a2'
p2307
sa(dp2308
g7
S'a3'
p2309
sa(dp2310
g7
S'a4'
p2311
sa(dp2312
g7
S'a5'
p2313
sa(dp2314
g7
S'a6'
p2315
sa(dp2316
g5
S'black_pawn'
p2317
sg7
S'a7'
p2318
sa(dp2319
g5
S'black_rook'
p2320
sg7
S'a8'
p2321
sa(dp2322
g7
S'b1'
p2323
sa(dp2324
g5
S'white_pawn'
p2325
sg7
S'b2'
p2326
sa(dp2327
g7
S'b3'
p2328
sa(dp2329
g7
S'b4'
p2330
sa(dp2331
g5
S'black_pawn'
p2332
sg7
S'b5'
p2333
sa(dp2334
g7
S'b6'
p2335
sa(dp2336
g7
S'b7'
p2337
sa(dp2338
g5
S'black_knight'
p2339
sg7
S'b8'
p2340
sa(dp2341
g7
S'c1'
p2342
sa(dp2343
g5
S'white_pawn'
p2344
sg7
S'c2'
p2345
sa(dp2346
g5
S'white_knight'
p2347
sg7
S'c3'
p2348
sa(dp2349
g7
S'c4'
p2350
sa(dp2351
g7
S'c5'
p2352
sa(dp2353
g5
S'black_pawn'
p2354
sg7
S'c6'
p2355
sa(dp2356
g7
S'c7'
p2357
sa(dp2358
g5
S'black_bishop'
p2359
sg7
S'c8'
p2360
sa(dp2361
g7
S'd1'
p2362
sa(dp2363
g5
S'white_queen'
p2364
sg7
S'd2'
p2365
sa(dp2366
g5
S'white_bishop'
p2367
sg7
S'd3'
p2368
sa(dp2369
g5
S'white_pawn'
p2370
sg7
S'd4'
p2371
sa(dp2372
g7
S'd5'
p2373
sa(dp2374
g5
S'black_pawn'
p2375
sg7
S'd6'
p2376
sa(dp2377
g7
S'd7'
p2378
sa(dp2379
g5
S'black_queen'
p2380
sg7
S'd8'
p2381
sa(dp2382
g5
S'white_king'
p2383
sg7
S'e1'
p2384
sa(dp2385
g5
S'white_knight'
p2386
sg7
S'e2'
p2387
sa(dp2388
g7
S'e3'
p2389
sa(dp2390
g5
S'white_pawn'
p2391
sg7
S'e4'
p2392
sa(dp2393
g5
S'black_pawn'
p2394
sg7
S'e5'
p2395
sa(dp2396
g7
S'e6'
p2397
sa(dp2398
g5
S'black_bishop'
p2399
sg7
S'e7'
p2400
sa(dp2401
g5
S'black_king'
p2402
sg7
S'e8'
p2403
sa(dp2404
g7
S'f1'
p2405
sa(dp2406
g7
S'f2'
p2407
sa(dp2408
g5
S'white_pawn'
p2409
sg7
S'f3'
p2410
sa(dp2411
g7
S'f4'
p2412
sa(dp2413
g7
S'f5'
p2414
sa(dp2415
g5
S'black_knight'
p2416
sg7
S'f6'
p2417
sa(dp2418
g5
S'black_pawn'
p2419
sg7
S'f7'
p2420
sa(dp2421
g7
S'f8'
p2422
sa(dp2423
g7
S'g1'
p2424
sa(dp2425
g5
S'white_pawn'
p2426
sg7
S'g2'
p2427
sa(dp2428
g7
S'g3'
p2429
sa(dp2430
g7
S'g4'
p2431
sa(dp2432
g5
S'white_bishop'
p2433
sg7
S'g5'
p2434
sa(dp2435
g7
S'g6'
p2436
sa(dp2437
g5
S'black_pawn'
p2438
sg7
S'g7'
p2439
sa(dp2440
g7
S'g8'
p2441
sa(dp2442
g5
S'white_rook'
p2443
sg7
S'h1'
p2444
sa(dp2445
g5
S'white_pawn'
p2446
sg7
S'h2'
p2447
sa(dp2448
g7
S'h3'
p2449
sa(dp2450
g7
S'h4'
p2451
sa(dp2452
g5
S'black_pawn'
p2453
sg7
S'h5'
p2454
sa(dp2455
g7
S'h6'
p2456
sa(dp2457
g7
S'h7'
p2458
sa(dp2459
g5
S'black_rook'
p2460
sg7
S'h8'
p2461
saaVAnd I continue.
p2462
aa(lp2463
S'8... a6'
p2464
a(lp2465
(dp2466
g5
S'white_rook'
p2467
sg7
S'a1'
p2468
sa(dp2469
g5
S'white_pawn'
p2470
sg7
S'a2'
p2471
sa(dp2472
g7
S'a3'
p2473
sa(dp2474
g7
S'a4'
p2475
sa(dp2476
g7
S'a5'
p2477
sa(dp2478
g5
S'black_pawn'
p2479
sg7
S'a6'
p2480
sa(dp2481
g7
S'a7'
p2482
sa(dp2483
g5
S'black_rook'
p2484
sg7
S'a8'
p2485
sa(dp2486
g7
S'b1'
p2487
sa(dp2488
g5
S'white_pawn'
p2489
sg7
S'b2'
p2490
sa(dp2491
g7
S'b3'
p2492
sa(dp2493
g7
S'b4'
p2494
sa(dp2495
g5
S'black_pawn'
p2496
sg7
S'b5'
p2497
sa(dp2498
g7
S'b6'
p2499
sa(dp2500
g7
S'b7'
p2501
sa(dp2502
g5
S'black_knight'
p2503
sg7
S'b8'
p2504
sa(dp2505
g7
S'c1'
p2506
sa(dp2507
g5
S'white_pawn'
p2508
sg7
S'c2'
p2509
sa(dp2510
g5
S'white_knight'
p2511
sg7
S'c3'
p2512
sa(dp2513
g7
S'c4'
p2514
sa(dp2515
g7
S'c5'
p2516
sa(dp2517
g5
S'black_pawn'
p2518
sg7
S'c6'
p2519
sa(dp2520
g7
S'c7'
p2521
sa(dp2522
g5
S'black_bishop'
p2523
sg7
S'c8'
p2524
sa(dp2525
g7
S'd1'
p2526
sa(dp2527
g5
S'white_queen'
p2528
sg7
S'd2'
p2529
sa(dp2530
g5
S'white_bishop'
p2531
sg7
S'd3'
p2532
sa(dp2533
g5
S'white_pawn'
p2534
sg7
S'd4'
p2535
sa(dp2536
g7
S'd5'
p2537
sa(dp2538
g5
S'black_pawn'
p2539
sg7
S'd6'
p2540
sa(dp2541
g7
S'd7'
p2542
sa(dp2543
g5
S'black_queen'
p2544
sg7
S'd8'
p2545
sa(dp2546
g5
S'white_king'
p2547
sg7
S'e1'
p2548
sa(dp2549
g5
S'white_knight'
p2550
sg7
S'e2'
p2551
sa(dp2552
g7
S'e3'
p2553
sa(dp2554
g5
S'white_pawn'
p2555
sg7
S'e4'
p2556
sa(dp2557
g5
S'black_pawn'
p2558
sg7
S'e5'
p2559
sa(dp2560
g7
S'e6'
p2561
sa(dp2562
g5
S'black_bishop'
p2563
sg7
S'e7'
p2564
sa(dp2565
g5
S'black_king'
p2566
sg7
S'e8'
p2567
sa(dp2568
g7
S'f1'
p2569
sa(dp2570
g7
S'f2'
p2571
sa(dp2572
g5
S'white_pawn'
p2573
sg7
S'f3'
p2574
sa(dp2575
g7
S'f4'
p2576
sa(dp2577
g7
S'f5'
p2578
sa(dp2579
g5
S'black_knight'
p2580
sg7
S'f6'
p2581
sa(dp2582
g5
S'black_pawn'
p2583
sg7
S'f7'
p2584
sa(dp2585
g7
S'f8'
p2586
sa(dp2587
g7
S'g1'
p2588
sa(dp2589
g5
S'white_pawn'
p2590
sg7
S'g2'
p2591
sa(dp2592
g7
S'g3'
p2593
sa(dp2594
g7
S'g4'
p2595
sa(dp2596
g5
S'white_bishop'
p2597
sg7
S'g5'
p2598
sa(dp2599
g7
S'g6'
p2600
sa(dp2601
g5
S'black_pawn'
p2602
sg7
S'g7'
p2603
sa(dp2604
g7
S'g8'
p2605
sa(dp2606
g5
S'white_rook'
p2607
sg7
S'h1'
p2608
sa(dp2609
g5
S'white_pawn'
p2610
sg7
S'h2'
p2611
sa(dp2612
g7
S'h3'
p2613
sa(dp2614
g7
S'h4'
p2615
sa(dp2616
g5
S'black_pawn'
p2617
sg7
S'h5'
p2618
sa(dp2619
g7
S'h6'
p2620
sa(dp2621
g7
S'h7'
p2622
sa(dp2623
g5
S'black_rook'
p2624
sg7
S'h8'
p2625
saaVMaybe he was planning c6-c5.
p2626
aa(lp2627
S'9. dxe5'
p2628
a(lp2629
(dp2630
g5
S'white_rook'
p2631
sg7
S'a1'
p2632
sa(dp2633
g5
S'white_pawn'
p2634
sg7
S'a2'
p2635
sa(dp2636
g7
S'a3'
p2637
sa(dp2638
g7
S'a4'
p2639
sa(dp2640
g7
S'a5'
p2641
sa(dp2642
g5
S'black_pawn'
p2643
sg7
S'a6'
p2644
sa(dp2645
g7
S'a7'
p2646
sa(dp2647
g5
S'black_rook'
p2648
sg7
S'a8'
p2649
sa(dp2650
g7
S'b1'
p2651
sa(dp2652
g5
S'white_pawn'
p2653
sg7
S'b2'
p2654
sa(dp2655
g7
S'b3'
p2656
sa(dp2657
g7
S'b4'
p2658
sa(dp2659
g5
S'black_pawn'
p2660
sg7
S'b5'
p2661
sa(dp2662
g7
S'b6'
p2663
sa(dp2664
g7
S'b7'
p2665
sa(dp2666
g5
S'black_knight'
p2667
sg7
S'b8'
p2668
sa(dp2669
g7
S'c1'
p2670
sa(dp2671
g5
S'white_pawn'
p2672
sg7
S'c2'
p2673
sa(dp2674
g5
S'white_knight'
p2675
sg7
S'c3'
p2676
sa(dp2677
g7
S'c4'
p2678
sa(dp2679
g7
S'c5'
p2680
sa(dp2681
g5
S'black_pawn'
p2682
sg7
S'c6'
p2683
sa(dp2684
g7
S'c7'
p2685
sa(dp2686
g5
S'black_bishop'
p2687
sg7
S'c8'
p2688
sa(dp2689
g7
S'd1'
p2690
sa(dp2691
g5
S'white_queen'
p2692
sg7
S'd2'
p2693
sa(dp2694
g5
S'white_bishop'
p2695
sg7
S'd3'
p2696
sa(dp2697
g7
S'd4'
p2698
sa(dp2699
g7
S'd5'
p2700
sa(dp2701
g5
S'black_pawn'
p2702
sg7
S'd6'
p2703
sa(dp2704
g7
S'd7'
p2705
sa(dp2706
g5
S'black_queen'
p2707
sg7
S'd8'
p2708
sa(dp2709
g5
S'white_king'
p2710
sg7
S'e1'
p2711
sa(dp2712
g5
S'white_knight'
p2713
sg7
S'e2'
p2714
sa(dp2715
g7
S'e3'
p2716
sa(dp2717
g5
S'white_pawn'
p2718
sg7
S'e4'
p2719
sa(dp2720
g5
S'white_pawn'
p2721
sg7
S'e5'
p2722
sa(dp2723
g7
S'e6'
p2724
sa(dp2725
g5
S'black_bishop'
p2726
sg7
S'e7'
p2727
sa(dp2728
g5
S'black_king'
p2729
sg7
S'e8'
p2730
sa(dp2731
g7
S'f1'
p2732
sa(dp2733
g7
S'f2'
p2734
sa(dp2735
g5
S'white_pawn'
p2736
sg7
S'f3'
p2737
sa(dp2738
g7
S'f4'
p2739
sa(dp2740
g7
S'f5'
p2741
sa(dp2742
g5
S'black_knight'
p2743
sg7
S'f6'
p2744
sa(dp2745
g5
S'black_pawn'
p2746
sg7
S'f7'
p2747
sa(dp2748
g7
S'f8'
p2749
sa(dp2750
g7
S'g1'
p2751
sa(dp2752
g5
S'white_pawn'
p2753
sg7
S'g2'
p2754
sa(dp2755
g7
S'g3'
p2756
sa(dp2757
g7
S'g4'
p2758
sa(dp2759
g5
S'white_bishop'
p2760
sg7
S'g5'
p2761
sa(dp2762
g7
S'g6'
p2763
sa(dp2764
g5
S'black_pawn'
p2765
sg7
S'g7'
p2766
sa(dp2767
g7
S'g8'
p2768
sa(dp2769
g5
S'white_rook'
p2770
sg7
S'h1'
p2771
sa(dp2772
g5
S'white_pawn'
p2773
sg7
S'h2'
p2774
sa(dp2775
g7
S'h3'
p2776
sa(dp2777
g7
S'h4'
p2778
sa(dp2779
g5
S'black_pawn'
p2780
sg7
S'h5'
p2781
sa(dp2782
g7
S'h6'
p2783
sa(dp2784
g7
S'h7'
p2785
sa(dp2786
g5
S'black_rook'
p2787
sg7
S'h8'
p2788
saaVI exchanged as I was afraid of him exchanging on d4 followed by c6-c5-c4
p2789
aa(lp2790
S'9... dxe5'
p2791
a(lp2792
(dp2793
g5
S'white_rook'
p2794
sg7
S'a1'
p2795
sa(dp2796
g5
S'white_pawn'
p2797
sg7
S'a2'
p2798
sa(dp2799
g7
S'a3'
p2800
sa(dp2801
g7
S'a4'
p2802
sa(dp2803
g7
S'a5'
p2804
sa(dp2805
g5
S'black_pawn'
p2806
sg7
S'a6'
p2807
sa(dp2808
g7
S'a7'
p2809
sa(dp2810
g5
S'black_rook'
p2811
sg7
S'a8'
p2812
sa(dp2813
g7
S'b1'
p2814
sa(dp2815
g5
S'white_pawn'
p2816
sg7
S'b2'
p2817
sa(dp2818
g7
S'b3'
p2819
sa(dp2820
g7
S'b4'
p2821
sa(dp2822
g5
S'black_pawn'
p2823
sg7
S'b5'
p2824
sa(dp2825
g7
S'b6'
p2826
sa(dp2827
g7
S'b7'
p2828
sa(dp2829
g5
S'black_knight'
p2830
sg7
S'b8'
p2831
sa(dp2832
g7
S'c1'
p2833
sa(dp2834
g5
S'white_pawn'
p2835
sg7
S'c2'
p2836
sa(dp2837
g5
S'white_knight'
p2838
sg7
S'c3'
p2839
sa(dp2840
g7
S'c4'
p2841
sa(dp2842
g7
S'c5'
p2843
sa(dp2844
g5
S'black_pawn'
p2845
sg7
S'c6'
p2846
sa(dp2847
g7
S'c7'
p2848
sa(dp2849
g5
S'black_bishop'
p2850
sg7
S'c8'
p2851
sa(dp2852
g7
S'd1'
p2853
sa(dp2854
g5
S'white_queen'
p2855
sg7
S'd2'
p2856
sa(dp2857
g5
S'white_bishop'
p2858
sg7
S'd3'
p2859
sa(dp2860
g7
S'd4'
p2861
sa(dp2862
g7
S'd5'
p2863
sa(dp2864
g7
S'd6'
p2865
sa(dp2866
g7
S'd7'
p2867
sa(dp2868
g5
S'black_queen'
p2869
sg7
S'd8'
p2870
sa(dp2871
g5
S'white_king'
p2872
sg7
S'e1'
p2873
sa(dp2874
g5
S'white_knight'
p2875
sg7
S'e2'
p2876
sa(dp2877
g7
S'e3'
p2878
sa(dp2879
g5
S'white_pawn'
p2880
sg7
S'e4'
p2881
sa(dp2882
g5
S'black_pawn'
p2883
sg7
S'e5'
p2884
sa(dp2885
g7
S'e6'
p2886
sa(dp2887
g5
S'black_bishop'
p2888
sg7
S'e7'
p2889
sa(dp2890
g5
S'black_king'
p2891
sg7
S'e8'
p2892
sa(dp2893
g7
S'f1'
p2894
sa(dp2895
g7
S'f2'
p2896
sa(dp2897
g5
S'white_pawn'
p2898
sg7
S'f3'
p2899
sa(dp2900
g7
S'f4'
p2901
sa(dp2902
g7
S'f5'
p2903
sa(dp2904
g5
S'black_knight'
p2905
sg7
S'f6'
p2906
sa(dp2907
g5
S'black_pawn'
p2908
sg7
S'f7'
p2909
sa(dp2910
g7
S'f8'
p2911
sa(dp2912
g7
S'g1'
p2913
sa(dp2914
g5
S'white_pawn'
p2915
sg7
S'g2'
p2916
sa(dp2917
g7
S'g3'
p2918
sa(dp2919
g7
S'g4'
p2920
sa(dp2921
g5
S'white_bishop'
p2922
sg7
S'g5'
p2923
sa(dp2924
g7
S'g6'
p2925
sa(dp2926
g5
S'black_pawn'
p2927
sg7
S'g7'
p2928
sa(dp2929
g7
S'g8'
p2930
sa(dp2931
g5
S'white_rook'
p2932
sg7
S'h1'
p2933
sa(dp2934
g5
S'white_pawn'
p2935
sg7
S'h2'
p2936
sa(dp2937
g7
S'h3'
p2938
sa(dp2939
g7
S'h4'
p2940
sa(dp2941
g5
S'black_pawn'
p2942
sg7
S'h5'
p2943
sa(dp2944
g7
S'h6'
p2945
sa(dp2946
g7
S'h7'
p2947
sa(dp2948
g5
S'black_rook'
p2949
sg7
S'h8'
p2950
saaVHe takes back.
p2951
aa(lp2952
S'10. Nd1'
p2953
a(lp2954
(dp2955
g5
S'white_rook'
p2956
sg7
S'a1'
p2957
sa(dp2958
g5
S'white_pawn'
p2959
sg7
S'a2'
p2960
sa(dp2961
g7
S'a3'
p2962
sa(dp2963
g7
S'a4'
p2964
sa(dp2965
g7
S'a5'
p2966
sa(dp2967
g5
S'black_pawn'
p2968
sg7
S'a6'
p2969
sa(dp2970
g7
S'a7'
p2971
sa(dp2972
g5
S'black_rook'
p2973
sg7
S'a8'
p2974
sa(dp2975
g7
S'b1'
p2976
sa(dp2977
g5
S'white_pawn'
p2978
sg7
S'b2'
p2979
sa(dp2980
g7
S'b3'
p2981
sa(dp2982
g7
S'b4'
p2983
sa(dp2984
g5
S'black_pawn'
p2985
sg7
S'b5'
p2986
sa(dp2987
g7
S'b6'
p2988
sa(dp2989
g7
S'b7'
p2990
sa(dp2991
g5
S'black_knight'
p2992
sg7
S'b8'
p2993
sa(dp2994
g7
S'c1'
p2995
sa(dp2996
g5
S'white_pawn'
p2997
sg7
S'c2'
p2998
sa(dp2999
g7
S'c3'
p3000
sa(dp3001
g7
S'c4'
p3002
sa(dp3003
g7
S'c5'
p3004
sa(dp3005
g5
S'black_pawn'
p3006
sg7
S'c6'
p3007
sa(dp3008
g7
S'c7'
p3009
sa(dp3010
g5
S'black_bishop'
p3011
sg7
S'c8'
p3012
sa(dp3013
g5
S'white_knight'
p3014
sg7
S'd1'
p3015
sa(dp3016
g5
S'white_queen'
p3017
sg7
S'd2'
p3018
sa(dp3019
g5
S'white_bishop'
p3020
sg7
S'd3'
p3021
sa(dp3022
g7
S'd4'
p3023
sa(dp3024
g7
S'd5'
p3025
sa(dp3026
g7
S'd6'
p3027
sa(dp3028
g7
S'd7'
p3029
sa(dp3030
g5
S'black_queen'
p3031
sg7
S'd8'
p3032
sa(dp3033
g5
S'white_king'
p3034
sg7
S'e1'
p3035
sa(dp3036
g5
S'white_knight'
p3037
sg7
S'e2'
p3038
sa(dp3039
g7
S'e3'
p3040
sa(dp3041
g5
S'white_pawn'
p3042
sg7
S'e4'
p3043
sa(dp3044
g5
S'black_pawn'
p3045
sg7
S'e5'
p3046
sa(dp3047
g7
S'e6'
p3048
sa(dp3049
g5
S'black_bishop'
p3050
sg7
S'e7'
p3051
sa(dp3052
g5
S'black_king'
p3053
sg7
S'e8'
p3054
sa(dp3055
g7
S'f1'
p3056
sa(dp3057
g7
S'f2'
p3058
sa(dp3059
g5
S'white_pawn'
p3060
sg7
S'f3'
p3061
sa(dp3062
g7
S'f4'
p3063
sa(dp3064
g7
S'f5'
p3065
sa(dp3066
g5
S'black_knight'
p3067
sg7
S'f6'
p3068
sa(dp3069
g5
S'black_pawn'
p3070
sg7
S'f7'
p3071
sa(dp3072
g7
S'f8'
p3073
sa(dp3074
g7
S'g1'
p3075
sa(dp3076
g5
S'white_pawn'
p3077
sg7
S'g2'
p3078
sa(dp3079
g7
S'g3'
p3080
sa(dp3081
g7
S'g4'
p3082
sa(dp3083
g5
S'white_bishop'
p3084
sg7
S'g5'
p3085
sa(dp3086
g7
S'g6'
p3087
sa(dp3088
g5
S'black_pawn'
p3089
sg7
S'g7'
p3090
sa(dp3091
g7
S'g8'
p3092
sa(dp3093
g5
S'white_rook'
p3094
sg7
S'h1'
p3095
sa(dp3096
g5
S'white_pawn'
p3097
sg7
S'h2'
p3098
sa(dp3099
g7
S'h3'
p3100
sa(dp3101
g7
S'h4'
p3102
sa(dp3103
g5
S'black_pawn'
p3104
sg7
S'h5'
p3105
sa(dp3106
g7
S'h6'
p3107
sa(dp3108
g7
S'h7'
p3109
sa(dp3110
g5
S'black_rook'
p3111
sg7
S'h8'
p3112
saaVI decide to re-route my knight to e3 and I was thinking about strengthening my centre with c2-c3.
p3113
aa(lp3114
S'10... Be6'
p3115
a(lp3116
(dp3117
g5
S'white_rook'
p3118
sg7
S'a1'
p3119
sa(dp3120
g5
S'white_pawn'
p3121
sg7
S'a2'
p3122
sa(dp3123
g7
S'a3'
p3124
sa(dp3125
g7
S'a4'
p3126
sa(dp3127
g7
S'a5'
p3128
sa(dp3129
g5
S'black_pawn'
p3130
sg7
S'a6'
p3131
sa(dp3132
g7
S'a7'
p3133
sa(dp3134
g5
S'black_rook'
p3135
sg7
S'a8'
p3136
sa(dp3137
g7
S'b1'
p3138
sa(dp3139
g5
S'white_pawn'
p3140
sg7
S'b2'
p3141
sa(dp3142
g7
S'b3'
p3143
sa(dp3144
g7
S'b4'
p3145
sa(dp3146
g5
S'black_pawn'
p3147
sg7
S'b5'
p3148
sa(dp3149
g7
S'b6'
p3150
sa(dp3151
g7
S'b7'
p3152
sa(dp3153
g5
S'black_knight'
p3154
sg7
S'b8'
p3155
sa(dp3156
g7
S'c1'
p3157
sa(dp3158
g5
S'white_pawn'
p3159
sg7
S'c2'
p3160
sa(dp3161
g7
S'c3'
p3162
sa(dp3163
g7
S'c4'
p3164
sa(dp3165
g7
S'c5'
p3166
sa(dp3167
g5
S'black_pawn'
p3168
sg7
S'c6'
p3169
sa(dp3170
g7
S'c7'
p3171
sa(dp3172
g7
S'c8'
p3173
sa(dp3174
g5
S'white_knight'
p3175
sg7
S'd1'
p3176
sa(dp3177
g5
S'white_queen'
p3178
sg7
S'd2'
p3179
sa(dp3180
g5
S'white_bishop'
p3181
sg7
S'd3'
p3182
sa(dp3183
g7
S'd4'
p3184
sa(dp3185
g7
S'd5'
p3186
sa(dp3187
g7
S'd6'
p3188
sa(dp3189
g7
S'd7'
p3190
sa(dp3191
g5
S'black_queen'
p3192
sg7
S'd8'
p3193
sa(dp3194
g5
S'white_king'
p3195
sg7
S'e1'
p3196
sa(dp3197
g5
S'white_knight'
p3198
sg7
S'e2'
p3199
sa(dp3200
g7
S'e3'
p3201
sa(dp3202
g5
S'white_pawn'
p3203
sg7
S'e4'
p3204
sa(dp3205
g5
S'black_pawn'
p3206
sg7
S'e5'
p3207
sa(dp3208
g5
S'black_bishop'
p3209
sg7
S'e6'
p3210
sa(dp3211
g5
S'black_bishop'
p3212
sg7
S'e7'
p3213
sa(dp3214
g5
S'black_king'
p3215
sg7
S'e8'
p3216
sa(dp3217
g7
S'f1'
p3218
sa(dp3219
g7
S'f2'
p3220
sa(dp3221
g5
S'white_pawn'
p3222
sg7
S'f3'
p3223
sa(dp3224
g7
S'f4'
p3225
sa(dp3226
g7
S'f5'
p3227
sa(dp3228
g5
S'black_knight'
p3229
sg7
S'f6'
p3230
sa(dp3231
g5
S'black_pawn'
p3232
sg7
S'f7'
p3233
sa(dp3234
g7
S'f8'
p3235
sa(dp3236
g7
S'g1'
p3237
sa(dp3238
g5
S'white_pawn'
p3239
sg7
S'g2'
p3240
sa(dp3241
g7
S'g3'
p3242
sa(dp3243
g7
S'g4'
p3244
sa(dp3245
g5
S'white_bishop'
p3246
sg7
S'g5'
p3247
sa(dp3248
g7
S'g6'
p3249
sa(dp3250
g5
S'black_pawn'
p3251
sg7
S'g7'
p3252
sa(dp3253
g7
S'g8'
p3254
sa(dp3255
g5
S'white_rook'
p3256
sg7
S'h1'
p3257
sa(dp3258
g5
S'white_pawn'
p3259
sg7
S'h2'
p3260
sa(dp3261
g7
S'h3'
p3262
sa(dp3263
g7
S'h4'
p3264
sa(dp3265
g5
S'black_pawn'
p3266
sg7
S'h5'
p3267
sa(dp3268
g7
S'h6'
p3269
sa(dp3270
g7
S'h7'
p3271
sa(dp3272
g5
S'black_rook'
p3273
sg7
S'h8'
p3274
saaVHe develops.
p3275
aa.