(lp0
(lp1
S'21. Kg1'
p2
a(lp3
(dp4
S'piece'
p5
S'white_rook'
p6
sS'location'
p7
S'a1'
p8
sa(dp9
g7
S'a2'
p10
sa(dp11
g7
S'a3'
p12
sa(dp13
g7
S'a4'
p14
sa(dp15
g7
S'a5'
p16
sa(dp17
g7
S'a6'
p18
sa(dp19
g7
S'a7'
p20
sa(dp21
g5
S'black_rook'
p22
sg7
S'a8'
p23
sa(dp24
g7
S'b1'
p25
sa(dp26
g5
S'white_pawn'
p27
sg7
S'b2'
p28
sa(dp29
g7
S'b3'
p30
sa(dp31
g7
S'b4'
p32
sa(dp33
g5
S'black_pawn'
p34
sg7
S'b5'
p35
sa(dp36
g5
S'black_queen'
p37
sg7
S'b6'
p38
sa(dp39
g7
S'b7'
p40
sa(dp41
g7
S'b8'
p42
sa(dp43
g7
S'c1'
p44
sa(dp45
g5
S'white_pawn'
p46
sg7
S'c2'
p47
sa(dp48
g5
S'white_knight'
p49
sg7
S'c3'
p50
sa(dp51
g7
S'c4'
p52
sa(dp53
g7
S'c5'
p54
sa(dp55
g5
S'black_pawn'
p56
sg7
S'c6'
p57
sa(dp58
g7
S'c7'
p59
sa(dp60
g7
S'c8'
p61
sa(dp62
g7
S'd1'
p63
sa(dp64
g7
S'd2'
p65
sa(dp66
g5
S'white_bishop'
p67
sg7
S'd3'
p68
sa(dp69
g7
S'd4'
p70
sa(dp71
g7
S'd5'
p72
sa(dp73
g7
S'd6'
p74
sa(dp75
g5
S'black_knight'
p76
sg7
S'd7'
p77
sa(dp78
g7
S'd8'
p79
sa(dp80
g7
S'e1'
p81
sa(dp82
g5
S'white_queen'
p83
sg7
S'e2'
p84
sa(dp85
g5
S'black_bishop'
p86
sg7
S'e3'
p87
sa(dp88
g5
S'white_pawn'
p89
sg7
S'e4'
p90
sa(dp91
g5
S'black_pawn'
p92
sg7
S'e5'
p93
sa(dp94
g5
S'black_bishop'
p95
sg7
S'e6'
p96
sa(dp97
g7
S'e7'
p98
sa(dp99
g7
S'e8'
p100
sa(dp101
g5
S'white_rook'
p102
sg7
S'f1'
p103
sa(dp104
g5
S'white_knight'
p105
sg7
S'f2'
p106
sa(dp107
g5
S'white_pawn'
p108
sg7
S'f3'
p109
sa(dp110
g7
S'f4'
p111
sa(dp112
g7
S'f5'
p113
sa(dp114
g7
S'f6'
p115
sa(dp116
g5
S'black_pawn'
p117
sg7
S'f7'
p118
sa(dp119
g5
S'black_rook'
p120
sg7
S'f8'
p121
sa(dp122
g5
S'white_king'
p123
sg7
S'g1'
p124
sa(dp125
g5
S'white_pawn'
p126
sg7
S'g2'
p127
sa(dp128
g7
S'g3'
p129
sa(dp130
g7
S'g4'
p131
sa(dp132
g7
S'g5'
p133
sa(dp134
g5
S'black_pawn'
p135
sg7
S'g6'
p136
sa(dp137
g7
S'g7'
p138
sa(dp139
g5
S'black_king'
p140
sg7
S'g8'
p141
sa(dp142
g7
S'h1'
p143
sa(dp144
g5
S'white_pawn'
p145
sg7
S'h2'
p146
sa(dp147
g7
S'h3'
p148
sa(dp149
g7
S'h4'
p150
sa(dp151
g5
S'black_pawn'
p152
sg7
S'h5'
p153
sa(dp154
g7
S'h6'
p155
sa(dp156
g7
S'h7'
p157
sa(dp158
g7
S'h8'
p159
saaVAn unusual self pin!
p160
aa(lp161
S'21... Kg7'
p162
a(lp163
(dp164
g5
S'white_rook'
p165
sg7
S'a1'
p166
sa(dp167
g7
S'a2'
p168
sa(dp169
g7
S'a3'
p170
sa(dp171
g7
S'a4'
p172
sa(dp173
g7
S'a5'
p174
sa(dp175
g7
S'a6'
p176
sa(dp177
g7
S'a7'
p178
sa(dp179
g5
S'black_rook'
p180
sg7
S'a8'
p181
sa(dp182
g7
S'b1'
p183
sa(dp184
g5
S'white_pawn'
p185
sg7
S'b2'
p186
sa(dp187
g7
S'b3'
p188
sa(dp189
g7
S'b4'
p190
sa(dp191
g5
S'black_pawn'
p192
sg7
S'b5'
p193
sa(dp194
g5
S'black_queen'
p195
sg7
S'b6'
p196
sa(dp197
g7
S'b7'
p198
sa(dp199
g7
S'b8'
p200
sa(dp201
g7
S'c1'
p202
sa(dp203
g5
S'white_pawn'
p204
sg7
S'c2'
p205
sa(dp206
g5
S'white_knight'
p207
sg7
S'c3'
p208
sa(dp209
g7
S'c4'
p210
sa(dp211
g7
S'c5'
p212
sa(dp213
g5
S'black_pawn'
p214
sg7
S'c6'
p215
sa(dp216
g7
S'c7'
p217
sa(dp218
g7
S'c8'
p219
sa(dp220
g7
S'd1'
p221
sa(dp222
g7
S'd2'
p223
sa(dp224
g5
S'white_bishop'
p225
sg7
S'd3'
p226
sa(dp227
g7
S'd4'
p228
sa(dp229
g7
S'd5'
p230
sa(dp231
g7
S'd6'
p232
sa(dp233
g5
S'black_knight'
p234
sg7
S'd7'
p235
sa(dp236
g7
S'd8'
p237
sa(dp238
g7
S'e1'
p239
sa(dp240
g5
S'white_queen'
p241
sg7
S'e2'
p242
sa(dp243
g5
S'black_bishop'
p244
sg7
S'e3'
p245
sa(dp246
g5
S'white_pawn'
p247
sg7
S'e4'
p248
sa(dp249
g5
S'black_pawn'
p250
sg7
S'e5'
p251
sa(dp252
g5
S'black_bishop'
p253
sg7
S'e6'
p254
sa(dp255
g7
S'e7'
p256
sa(dp257
g7
S'e8'
p258
sa(dp259
g5
S'white_rook'
p260
sg7
S'f1'
p261
sa(dp262
g5
S'white_knight'
p263
sg7
S'f2'
p264
sa(dp265
g5
S'white_pawn'
p266
sg7
S'f3'
p267
sa(dp268
g7
S'f4'
p269
sa(dp270
g7
S'f5'
p271
sa(dp272
g7
S'f6'
p273
sa(dp274
g5
S'black_pawn'
p275
sg7
S'f7'
p276
sa(dp277
g5
S'black_rook'
p278
sg7
S'f8'
p279
sa(dp280
g5
S'white_king'
p281
sg7
S'g1'
p282
sa(dp283
g5
S'white_pawn'
p284
sg7
S'g2'
p285
sa(dp286
g7
S'g3'
p287
sa(dp288
g7
S'g4'
p289
sa(dp290
g7
S'g5'
p291
sa(dp292
g5
S'black_pawn'
p293
sg7
S'g6'
p294
sa(dp295
g5
S'black_king'
p296
sg7
S'g7'
p297
sa(dp298
g7
S'g8'
p299
sa(dp300
g7
S'h1'
p301
sa(dp302
g5
S'white_pawn'
p303
sg7
S'h2'
p304
sa(dp305
g7
S'h3'
p306
sa(dp307
g7
S'h4'
p308
sa(dp309
g5
S'black_pawn'
p310
sg7
S'h5'
p311
sa(dp312
g7
S'h6'
p313
sa(dp314
g7
S'h7'
p315
sa(dp316
g7
S'h8'
p317
saaVBlack is in control. He masterly improves the position of his king before doing anything.
p318
aa(lp319
S'22. Rfe1'
p320
a(lp321
(dp322
g5
S'white_rook'
p323
sg7
S'a1'
p324
sa(dp325
g7
S'a2'
p326
sa(dp327
g7
S'a3'
p328
sa(dp329
g7
S'a4'
p330
sa(dp331
g7
S'a5'
p332
sa(dp333
g7
S'a6'
p334
sa(dp335
g7
S'a7'
p336
sa(dp337
g5
S'black_rook'
p338
sg7
S'a8'
p339
sa(dp340
g7
S'b1'
p341
sa(dp342
g5
S'white_pawn'
p343
sg7
S'b2'
p344
sa(dp345
g7
S'b3'
p346
sa(dp347
g7
S'b4'
p348
sa(dp349
g5
S'black_pawn'
p350
sg7
S'b5'
p351
sa(dp352
g5
S'black_queen'
p353
sg7
S'b6'
p354
sa(dp355
g7
S'b7'
p356
sa(dp357
g7
S'b8'
p358
sa(dp359
g7
S'c1'
p360
sa(dp361
g5
S'white_pawn'
p362
sg7
S'c2'
p363
sa(dp364
g5
S'white_knight'
p365
sg7
S'c3'
p366
sa(dp367
g7
S'c4'
p368
sa(dp369
g7
S'c5'
p370
sa(dp371
g5
S'black_pawn'
p372
sg7
S'c6'
p373
sa(dp374
g7
S'c7'
p375
sa(dp376
g7
S'c8'
p377
sa(dp378
g7
S'd1'
p379
sa(dp380
g7
S'd2'
p381
sa(dp382
g5
S'white_bishop'
p383
sg7
S'd3'
p384
sa(dp385
g7
S'd4'
p386
sa(dp387
g7
S'd5'
p388
sa(dp389
g7
S'd6'
p390
sa(dp391
g5
S'black_knight'
p392
sg7
S'd7'
p393
sa(dp394
g7
S'd8'
p395
sa(dp396
g5
S'white_rook'
p397
sg7
S'e1'
p398
sa(dp399
g5
S'white_queen'
p400
sg7
S'e2'
p401
sa(dp402
g5
S'black_bishop'
p403
sg7
S'e3'
p404
sa(dp405
g5
S'white_pawn'
p406
sg7
S'e4'
p407
sa(dp408
g5
S'black_pawn'
p409
sg7
S'e5'
p410
sa(dp411
g5
S'black_bishop'
p412
sg7
S'e6'
p413
sa(dp414
g7
S'e7'
p415
sa(dp416
g7
S'e8'
p417
sa(dp418
g7
S'f1'
p419
sa(dp420
g5
S'white_knight'
p421
sg7
S'f2'
p422
sa(dp423
g5
S'white_pawn'
p424
sg7
S'f3'
p425
sa(dp426
g7
S'f4'
p427
sa(dp428
g7
S'f5'
p429
sa(dp430
g7
S'f6'
p431
sa(dp432
g5
S'black_pawn'
p433
sg7
S'f7'
p434
sa(dp435
g5
S'black_rook'
p436
sg7
S'f8'
p437
sa(dp438
g5
S'white_king'
p439
sg7
S'g1'
p440
sa(dp441
g5
S'white_pawn'
p442
sg7
S'g2'
p443
sa(dp444
g7
S'g3'
p445
sa(dp446
g7
S'g4'
p447
sa(dp448
g7
S'g5'
p449
sa(dp450
g5
S'black_pawn'
p451
sg7
S'g6'
p452
sa(dp453
g5
S'black_king'
p454
sg7
S'g7'
p455
sa(dp456
g7
S'g8'
p457
sa(dp458
g7
S'h1'
p459
sa(dp460
g5
S'white_pawn'
p461
sg7
S'h2'
p462
sa(dp463
g7
S'h3'
p464
sa(dp465
g7
S'h4'
p466
sa(dp467
g5
S'black_pawn'
p468
sg7
S'h5'
p469
sa(dp470
g7
S'h6'
p471
sa(dp472
g7
S'h7'
p473
sa(dp474
g7
S'h8'
p475
saaVI hit his bishop
p476
aa(lp477
S'22... Bd4'
p478
a(lp479
(dp480
g5
S'white_rook'
p481
sg7
S'a1'
p482
sa(dp483
g7
S'a2'
p484
sa(dp485
g7
S'a3'
p486
sa(dp487
g7
S'a4'
p488
sa(dp489
g7
S'a5'
p490
sa(dp491
g7
S'a6'
p492
sa(dp493
g7
S'a7'
p494
sa(dp495
g5
S'black_rook'
p496
sg7
S'a8'
p497
sa(dp498
g7
S'b1'
p499
sa(dp500
g5
S'white_pawn'
p501
sg7
S'b2'
p502
sa(dp503
g7
S'b3'
p504
sa(dp505
g7
S'b4'
p506
sa(dp507
g5
S'black_pawn'
p508
sg7
S'b5'
p509
sa(dp510
g5
S'black_queen'
p511
sg7
S'b6'
p512
sa(dp513
g7
S'b7'
p514
sa(dp515
g7
S'b8'
p516
sa(dp517
g7
S'c1'
p518
sa(dp519
g5
S'white_pawn'
p520
sg7
S'c2'
p521
sa(dp522
g5
S'white_knight'
p523
sg7
S'c3'
p524
sa(dp525
g7
S'c4'
p526
sa(dp527
g7
S'c5'
p528
sa(dp529
g5
S'black_pawn'
p530
sg7
S'c6'
p531
sa(dp532
g7
S'c7'
p533
sa(dp534
g7
S'c8'
p535
sa(dp536
g7
S'd1'
p537
sa(dp538
g7
S'd2'
p539
sa(dp540
g5
S'white_bishop'
p541
sg7
S'd3'
p542
sa(dp543
g5
S'black_bishop'
p544
sg7
S'd4'
p545
sa(dp546
g7
S'd5'
p547
sa(dp548
g7
S'd6'
p549
sa(dp550
g5
S'black_knight'
p551
sg7
S'd7'
p552
sa(dp553
g7
S'd8'
p554
sa(dp555
g5
S'white_rook'
p556
sg7
S'e1'
p557
sa(dp558
g5
S'white_queen'
p559
sg7
S'e2'
p560
sa(dp561
g7
S'e3'
p562
sa(dp563
g5
S'white_pawn'
p564
sg7
S'e4'
p565
sa(dp566
g5
S'black_pawn'
p567
sg7
S'e5'
p568
sa(dp569
g5
S'black_bishop'
p570
sg7
S'e6'
p571
sa(dp572
g7
S'e7'
p573
sa(dp574
g7
S'e8'
p575
sa(dp576
g7
S'f1'
p577
sa(dp578
g5
S'white_knight'
p579
sg7
S'f2'
p580
sa(dp581
g5
S'white_pawn'
p582
sg7
S'f3'
p583
sa(dp584
g7
S'f4'
p585
sa(dp586
g7
S'f5'
p587
sa(dp588
g7
S'f6'
p589
sa(dp590
g5
S'black_pawn'
p591
sg7
S'f7'
p592
sa(dp593
g5
S'black_rook'
p594
sg7
S'f8'
p595
sa(dp596
g5
S'white_king'
p597
sg7
S'g1'
p598
sa(dp599
g5
S'white_pawn'
p600
sg7
S'g2'
p601
sa(dp602
g7
S'g3'
p603
sa(dp604
g7
S'g4'
p605
sa(dp606
g7
S'g5'
p607
sa(dp608
g5
S'black_pawn'
p609
sg7
S'g6'
p610
sa(dp611
g5
S'black_king'
p612
sg7
S'g7'
p613
sa(dp614
g7
S'g8'
p615
sa(dp616
g7
S'h1'
p617
sa(dp618
g5
S'white_pawn'
p619
sg7
S'h2'
p620
sa(dp621
g7
S'h3'
p622
sa(dp623
g7
S'h4'
p624
sa(dp625
g5
S'black_pawn'
p626
sg7
S'h5'
p627
sa(dp628
g7
S'h6'
p629
sa(dp630
g7
S'h7'
p631
sa(dp632
g7
S'h8'
p633
saaVIt retreats.
p634
aa(lp635
S'23. Qd2'
p636
a(lp637
(dp638
g5
S'white_rook'
p639
sg7
S'a1'
p640
sa(dp641
g7
S'a2'
p642
sa(dp643
g7
S'a3'
p644
sa(dp645
g7
S'a4'
p646
sa(dp647
g7
S'a5'
p648
sa(dp649
g7
S'a6'
p650
sa(dp651
g7
S'a7'
p652
sa(dp653
g5
S'black_rook'
p654
sg7
S'a8'
p655
sa(dp656
g7
S'b1'
p657
sa(dp658
g5
S'white_pawn'
p659
sg7
S'b2'
p660
sa(dp661
g7
S'b3'
p662
sa(dp663
g7
S'b4'
p664
sa(dp665
g5
S'black_pawn'
p666
sg7
S'b5'
p667
sa(dp668
g5
S'black_queen'
p669
sg7
S'b6'
p670
sa(dp671
g7
S'b7'
p672
sa(dp673
g7
S'b8'
p674
sa(dp675
g7
S'c1'
p676
sa(dp677
g5
S'white_pawn'
p678
sg7
S'c2'
p679
sa(dp680
g5
S'white_knight'
p681
sg7
S'c3'
p682
sa(dp683
g7
S'c4'
p684
sa(dp685
g7
S'c5'
p686
sa(dp687
g5
S'black_pawn'
p688
sg7
S'c6'
p689
sa(dp690
g7
S'c7'
p691
sa(dp692
g7
S'c8'
p693
sa(dp694
g7
S'd1'
p695
sa(dp696
g5
S'white_queen'
p697
sg7
S'd2'
p698
sa(dp699
g5
S'white_bishop'
p700
sg7
S'd3'
p701
sa(dp702
g5
S'black_bishop'
p703
sg7
S'd4'
p704
sa(dp705
g7
S'd5'
p706
sa(dp707
g7
S'd6'
p708
sa(dp709
g5
S'black_knight'
p710
sg7
S'd7'
p711
sa(dp712
g7
S'd8'
p713
sa(dp714
g5
S'white_rook'
p715
sg7
S'e1'
p716
sa(dp717
g7
S'e2'
p718
sa(dp719
g7
S'e3'
p720
sa(dp721
g5
S'white_pawn'
p722
sg7
S'e4'
p723
sa(dp724
g5
S'black_pawn'
p725
sg7
S'e5'
p726
sa(dp727
g5
S'black_bishop'
p728
sg7
S'e6'
p729
sa(dp730
g7
S'e7'
p731
sa(dp732
g7
S'e8'
p733
sa(dp734
g7
S'f1'
p735
sa(dp736
g5
S'white_knight'
p737
sg7
S'f2'
p738
sa(dp739
g5
S'white_pawn'
p740
sg7
S'f3'
p741
sa(dp742
g7
S'f4'
p743
sa(dp744
g7
S'f5'
p745
sa(dp746
g7
S'f6'
p747
sa(dp748
g5
S'black_pawn'
p749
sg7
S'f7'
p750
sa(dp751
g5
S'black_rook'
p752
sg7
S'f8'
p753
sa(dp754
g5
S'white_king'
p755
sg7
S'g1'
p756
sa(dp757
g5
S'white_pawn'
p758
sg7
S'g2'
p759
sa(dp760
g7
S'g3'
p761
sa(dp762
g7
S'g4'
p763
sa(dp764
g7
S'g5'
p765
sa(dp766
g5
S'black_pawn'
p767
sg7
S'g6'
p768
sa(dp769
g5
S'black_king'
p770
sg7
S'g7'
p771
sa(dp772
g7
S'g8'
p773
sa(dp774
g7
S'h1'
p775
sa(dp776
g5
S'white_pawn'
p777
sg7
S'h2'
p778
sa(dp779
g7
S'h3'
p780
sa(dp781
g7
S'h4'
p782
sa(dp783
g5
S'black_pawn'
p784
sg7
S'h5'
p785
sa(dp786
g7
S'h6'
p787
sa(dp788
g7
S'h7'
p789
sa(dp790
g7
S'h8'
p791
saaVI prevent him from doubling my pawns - although is that really a threat?
p792
aa(lp793
S'23... Ra7'
p794
a(lp795
(dp796
g5
S'white_rook'
p797
sg7
S'a1'
p798
sa(dp799
g7
S'a2'
p800
sa(dp801
g7
S'a3'
p802
sa(dp803
g7
S'a4'
p804
sa(dp805
g7
S'a5'
p806
sa(dp807
g7
S'a6'
p808
sa(dp809
g5
S'black_rook'
p810
sg7
S'a7'
p811
sa(dp812
g7
S'a8'
p813
sa(dp814
g7
S'b1'
p815
sa(dp816
g5
S'white_pawn'
p817
sg7
S'b2'
p818
sa(dp819
g7
S'b3'
p820
sa(dp821
g7
S'b4'
p822
sa(dp823
g5
S'black_pawn'
p824
sg7
S'b5'
p825
sa(dp826
g5
S'black_queen'
p827
sg7
S'b6'
p828
sa(dp829
g7
S'b7'
p830
sa(dp831
g7
S'b8'
p832
sa(dp833
g7
S'c1'
p834
sa(dp835
g5
S'white_pawn'
p836
sg7
S'c2'
p837
sa(dp838
g5
S'white_knight'
p839
sg7
S'c3'
p840
sa(dp841
g7
S'c4'
p842
sa(dp843
g7
S'c5'
p844
sa(dp845
g5
S'black_pawn'
p846
sg7
S'c6'
p847
sa(dp848
g7
S'c7'
p849
sa(dp850
g7
S'c8'
p851
sa(dp852
g7
S'd1'
p853
sa(dp854
g5
S'white_queen'
p855
sg7
S'd2'
p856
sa(dp857
g5
S'white_bishop'
p858
sg7
S'd3'
p859
sa(dp860
g5
S'black_bishop'
p861
sg7
S'd4'
p862
sa(dp863
g7
S'd5'
p864
sa(dp865
g7
S'd6'
p866
sa(dp867
g5
S'black_knight'
p868
sg7
S'd7'
p869
sa(dp870
g7
S'd8'
p871
sa(dp872
g5
S'white_rook'
p873
sg7
S'e1'
p874
sa(dp875
g7
S'e2'
p876
sa(dp877
g7
S'e3'
p878
sa(dp879
g5
S'white_pawn'
p880
sg7
S'e4'
p881
sa(dp882
g5
S'black_pawn'
p883
sg7
S'e5'
p884
sa(dp885
g5
S'black_bishop'
p886
sg7
S'e6'
p887
sa(dp888
g7
S'e7'
p889
sa(dp890
g7
S'e8'
p891
sa(dp892
g7
S'f1'
p893
sa(dp894
g5
S'white_knight'
p895
sg7
S'f2'
p896
sa(dp897
g5
S'white_pawn'
p898
sg7
S'f3'
p899
sa(dp900
g7
S'f4'
p901
sa(dp902
g7
S'f5'
p903
sa(dp904
g7
S'f6'
p905
sa(dp906
g5
S'black_pawn'
p907
sg7
S'f7'
p908
sa(dp909
g5
S'black_rook'
p910
sg7
S'f8'
p911
sa(dp912
g5
S'white_king'
p913
sg7
S'g1'
p914
sa(dp915
g5
S'white_pawn'
p916
sg7
S'g2'
p917
sa(dp918
g7
S'g3'
p919
sa(dp920
g7
S'g4'
p921
sa(dp922
g7
S'g5'
p923
sa(dp924
g5
S'black_pawn'
p925
sg7
S'g6'
p926
sa(dp927
g5
S'black_king'
p928
sg7
S'g7'
p929
sa(dp930
g7
S'g8'
p931
sa(dp932
g7
S'h1'
p933
sa(dp934
g5
S'white_pawn'
p935
sg7
S'h2'
p936
sa(dp937
g7
S'h3'
p938
sa(dp939
g7
S'h4'
p940
sa(dp941
g5
S'black_pawn'
p942
sg7
S'h5'
p943
sa(dp944
g7
S'h6'
p945
sa(dp946
g7
S'h7'
p947
sa(dp948
g7
S'h8'
p949
saaVHe starts to double on the a file.
p950
aa(lp951
S'24. Kf1'
p952
a(lp953
(dp954
g5
S'white_rook'
p955
sg7
S'a1'
p956
sa(dp957
g7
S'a2'
p958
sa(dp959
g7
S'a3'
p960
sa(dp961
g7
S'a4'
p962
sa(dp963
g7
S'a5'
p964
sa(dp965
g7
S'a6'
p966
sa(dp967
g5
S'black_rook'
p968
sg7
S'a7'
p969
sa(dp970
g7
S'a8'
p971
sa(dp972
g7
S'b1'
p973
sa(dp974
g5
S'white_pawn'
p975
sg7
S'b2'
p976
sa(dp977
g7
S'b3'
p978
sa(dp979
g7
S'b4'
p980
sa(dp981
g5
S'black_pawn'
p982
sg7
S'b5'
p983
sa(dp984
g5
S'black_queen'
p985
sg7
S'b6'
p986
sa(dp987
g7
S'b7'
p988
sa(dp989
g7
S'b8'
p990
sa(dp991
g7
S'c1'
p992
sa(dp993
g5
S'white_pawn'
p994
sg7
S'c2'
p995
sa(dp996
g5
S'white_knight'
p997
sg7
S'c3'
p998
sa(dp999
g7
S'c4'
p1000
sa(dp1001
g7
S'c5'
p1002
sa(dp1003
g5
S'black_pawn'
p1004
sg7
S'c6'
p1005
sa(dp1006
g7
S'c7'
p1007
sa(dp1008
g7
S'c8'
p1009
sa(dp1010
g7
S'd1'
p1011
sa(dp1012
g5
S'white_queen'
p1013
sg7
S'd2'
p1014
sa(dp1015
g5
S'white_bishop'
p1016
sg7
S'd3'
p1017
sa(dp1018
g5
S'black_bishop'
p1019
sg7
S'd4'
p1020
sa(dp1021
g7
S'd5'
p1022
sa(dp1023
g7
S'd6'
p1024
sa(dp1025
g5
S'black_knight'
p1026
sg7
S'd7'
p1027
sa(dp1028
g7
S'd8'
p1029
sa(dp1030
g5
S'white_rook'
p1031
sg7
S'e1'
p1032
sa(dp1033
g7
S'e2'
p1034
sa(dp1035
g7
S'e3'
p1036
sa(dp1037
g5
S'white_pawn'
p1038
sg7
S'e4'
p1039
sa(dp1040
g5
S'black_pawn'
p1041
sg7
S'e5'
p1042
sa(dp1043
g5
S'black_bishop'
p1044
sg7
S'e6'
p1045
sa(dp1046
g7
S'e7'
p1047
sa(dp1048
g7
S'e8'
p1049
sa(dp1050
g5
S'white_king'
p1051
sg7
S'f1'
p1052
sa(dp1053
g5
S'white_knight'
p1054
sg7
S'f2'
p1055
sa(dp1056
g5
S'white_pawn'
p1057
sg7
S'f3'
p1058
sa(dp1059
g7
S'f4'
p1060
sa(dp1061
g7
S'f5'
p1062
sa(dp1063
g7
S'f6'
p1064
sa(dp1065
g5
S'black_pawn'
p1066
sg7
S'f7'
p1067
sa(dp1068
g5
S'black_rook'
p1069
sg7
S'f8'
p1070
sa(dp1071
g7
S'g1'
p1072
sa(dp1073
g5
S'white_pawn'
p1074
sg7
S'g2'
p1075
sa(dp1076
g7
S'g3'
p1077
sa(dp1078
g7
S'g4'
p1079
sa(dp1080
g7
S'g5'
p1081
sa(dp1082
g5
S'black_pawn'
p1083
sg7
S'g6'
p1084
sa(dp1085
g5
S'black_king'
p1086
sg7
S'g7'
p1087
sa(dp1088
g7
S'g8'
p1089
sa(dp1090
g7
S'h1'
p1091
sa(dp1092
g5
S'white_pawn'
p1093
sg7
S'h2'
p1094
sa(dp1095
g7
S'h3'
p1096
sa(dp1097
g7
S'h4'
p1098
sa(dp1099
g5
S'black_pawn'
p1100
sg7
S'h5'
p1101
sa(dp1102
g7
S'h6'
p1103
sa(dp1104
g7
S'h7'
p1105
sa(dp1106
g7
S'h8'
p1107
saaVI unpin my knight.
p1108
aa(lp1109
S'24... Rfa8'
p1110
a(lp1111
(dp1112
g5
S'white_rook'
p1113
sg7
S'a1'
p1114
sa(dp1115
g7
S'a2'
p1116
sa(dp1117
g7
S'a3'
p1118
sa(dp1119
g7
S'a4'
p1120
sa(dp1121
g7
S'a5'
p1122
sa(dp1123
g7
S'a6'
p1124
sa(dp1125
g5
S'black_rook'
p1126
sg7
S'a7'
p1127
sa(dp1128
g5
S'black_rook'
p1129
sg7
S'a8'
p1130
sa(dp1131
g7
S'b1'
p1132
sa(dp1133
g5
S'white_pawn'
p1134
sg7
S'b2'
p1135
sa(dp1136
g7
S'b3'
p1137
sa(dp1138
g7
S'b4'
p1139
sa(dp1140
g5
S'black_pawn'
p1141
sg7
S'b5'
p1142
sa(dp1143
g5
S'black_queen'
p1144
sg7
S'b6'
p1145
sa(dp1146
g7
S'b7'
p1147
sa(dp1148
g7
S'b8'
p1149
sa(dp1150
g7
S'c1'
p1151
sa(dp1152
g5
S'white_pawn'
p1153
sg7
S'c2'
p1154
sa(dp1155
g5
S'white_knight'
p1156
sg7
S'c3'
p1157
sa(dp1158
g7
S'c4'
p1159
sa(dp1160
g7
S'c5'
p1161
sa(dp1162
g5
S'black_pawn'
p1163
sg7
S'c6'
p1164
sa(dp1165
g7
S'c7'
p1166
sa(dp1167
g7
S'c8'
p1168
sa(dp1169
g7
S'd1'
p1170
sa(dp1171
g5
S'white_queen'
p1172
sg7
S'd2'
p1173
sa(dp1174
g5
S'white_bishop'
p1175
sg7
S'd3'
p1176
sa(dp1177
g5
S'black_bishop'
p1178
sg7
S'd4'
p1179
sa(dp1180
g7
S'd5'
p1181
sa(dp1182
g7
S'd6'
p1183
sa(dp1184
g5
S'black_knight'
p1185
sg7
S'd7'
p1186
sa(dp1187
g7
S'd8'
p1188
sa(dp1189
g5
S'white_rook'
p1190
sg7
S'e1'
p1191
sa(dp1192
g7
S'e2'
p1193
sa(dp1194
g7
S'e3'
p1195
sa(dp1196
g5
S'white_pawn'
p1197
sg7
S'e4'
p1198
sa(dp1199
g5
S'black_pawn'
p1200
sg7
S'e5'
p1201
sa(dp1202
g5
S'black_bishop'
p1203
sg7
S'e6'
p1204
sa(dp1205
g7
S'e7'
p1206
sa(dp1207
g7
S'e8'
p1208
sa(dp1209
g5
S'white_king'
p1210
sg7
S'f1'
p1211
sa(dp1212
g5
S'white_knight'
p1213
sg7
S'f2'
p1214
sa(dp1215
g5
S'white_pawn'
p1216
sg7
S'f3'
p1217
sa(dp1218
g7
S'f4'
p1219
sa(dp1220
g7
S'f5'
p1221
sa(dp1222
g7
S'f6'
p1223
sa(dp1224
g5
S'black_pawn'
p1225
sg7
S'f7'
p1226
sa(dp1227
g7
S'f8'
p1228
sa(dp1229
g7
S'g1'
p1230
sa(dp1231
g5
S'white_pawn'
p1232
sg7
S'g2'
p1233
sa(dp1234
g7
S'g3'
p1235
sa(dp1236
g7
S'g4'
p1237
sa(dp1238
g7
S'g5'
p1239
sa(dp1240
g5
S'black_pawn'
p1241
sg7
S'g6'
p1242
sa(dp1243
g5
S'black_king'
p1244
sg7
S'g7'
p1245
sa(dp1246
g7
S'g8'
p1247
sa(dp1248
g7
S'h1'
p1249
sa(dp1250
g5
S'white_pawn'
p1251
sg7
S'h2'
p1252
sa(dp1253
g7
S'h3'
p1254
sa(dp1255
g7
S'h4'
p1256
sa(dp1257
g5
S'black_pawn'
p1258
sg7
S'h5'
p1259
sa(dp1260
g7
S'h6'
p1261
sa(dp1262
g7
S'h7'
p1263
sa(dp1264
g7
S'h8'
p1265
saaVHe doubles his rooks.
p1266
aa(lp1267
S'25. Rxa7'
p1268
a(lp1269
(dp1270
g7
S'a1'
p1271
sa(dp1272
g7
S'a2'
p1273
sa(dp1274
g7
S'a3'
p1275
sa(dp1276
g7
S'a4'
p1277
sa(dp1278
g7
S'a5'
p1279
sa(dp1280
g7
S'a6'
p1281
sa(dp1282
g5
S'white_rook'
p1283
sg7
S'a7'
p1284
sa(dp1285
g5
S'black_rook'
p1286
sg7
S'a8'
p1287
sa(dp1288
g7
S'b1'
p1289
sa(dp1290
g5
S'white_pawn'
p1291
sg7
S'b2'
p1292
sa(dp1293
g7
S'b3'
p1294
sa(dp1295
g7
S'b4'
p1296
sa(dp1297
g5
S'black_pawn'
p1298
sg7
S'b5'
p1299
sa(dp1300
g5
S'black_queen'
p1301
sg7
S'b6'
p1302
sa(dp1303
g7
S'b7'
p1304
sa(dp1305
g7
S'b8'
p1306
sa(dp1307
g7
S'c1'
p1308
sa(dp1309
g5
S'white_pawn'
p1310
sg7
S'c2'
p1311
sa(dp1312
g5
S'white_knight'
p1313
sg7
S'c3'
p1314
sa(dp1315
g7
S'c4'
p1316
sa(dp1317
g7
S'c5'
p1318
sa(dp1319
g5
S'black_pawn'
p1320
sg7
S'c6'
p1321
sa(dp1322
g7
S'c7'
p1323
sa(dp1324
g7
S'c8'
p1325
sa(dp1326
g7
S'd1'
p1327
sa(dp1328
g5
S'white_queen'
p1329
sg7
S'd2'
p1330
sa(dp1331
g5
S'white_bishop'
p1332
sg7
S'd3'
p1333
sa(dp1334
g5
S'black_bishop'
p1335
sg7
S'd4'
p1336
sa(dp1337
g7
S'd5'
p1338
sa(dp1339
g7
S'd6'
p1340
sa(dp1341
g5
S'black_knight'
p1342
sg7
S'd7'
p1343
sa(dp1344
g7
S'd8'
p1345
sa(dp1346
g5
S'white_rook'
p1347
sg7
S'e1'
p1348
sa(dp1349
g7
S'e2'
p1350
sa(dp1351
g7
S'e3'
p1352
sa(dp1353
g5
S'white_pawn'
p1354
sg7
S'e4'
p1355
sa(dp1356
g5
S'black_pawn'
p1357
sg7
S'e5'
p1358
sa(dp1359
g5
S'black_bishop'
p1360
sg7
S'e6'
p1361
sa(dp1362
g7
S'e7'
p1363
sa(dp1364
g7
S'e8'
p1365
sa(dp1366
g5
S'white_king'
p1367
sg7
S'f1'
p1368
sa(dp1369
g5
S'white_knight'
p1370
sg7
S'f2'
p1371
sa(dp1372
g5
S'white_pawn'
p1373
sg7
S'f3'
p1374
sa(dp1375
g7
S'f4'
p1376
sa(dp1377
g7
S'f5'
p1378
sa(dp1379
g7
S'f6'
p1380
sa(dp1381
g5
S'black_pawn'
p1382
sg7
S'f7'
p1383
sa(dp1384
g7
S'f8'
p1385
sa(dp1386
g7
S'g1'
p1387
sa(dp1388
g5
S'white_pawn'
p1389
sg7
S'g2'
p1390
sa(dp1391
g7
S'g3'
p1392
sa(dp1393
g7
S'g4'
p1394
sa(dp1395
g7
S'g5'
p1396
sa(dp1397
g5
S'black_pawn'
p1398
sg7
S'g6'
p1399
sa(dp1400
g5
S'black_king'
p1401
sg7
S'g7'
p1402
sa(dp1403
g7
S'g8'
p1404
sa(dp1405
g7
S'h1'
p1406
sa(dp1407
g5
S'white_pawn'
p1408
sg7
S'h2'
p1409
sa(dp1410
g7
S'h3'
p1411
sa(dp1412
g7
S'h4'
p1413
sa(dp1414
g5
S'black_pawn'
p1415
sg7
S'h5'
p1416
sa(dp1417
g7
S'h6'
p1418
sa(dp1419
g7
S'h7'
p1420
sa(dp1421
g7
S'h8'
p1422
saaVI exchange.
p1423
aa(lp1424
S'25... Rxa7'
p1425
a(lp1426
(dp1427
g7
S'a1'
p1428
sa(dp1429
g7
S'a2'
p1430
sa(dp1431
g7
S'a3'
p1432
sa(dp1433
g7
S'a4'
p1434
sa(dp1435
g7
S'a5'
p1436
sa(dp1437
g7
S'a6'
p1438
sa(dp1439
g5
S'black_rook'
p1440
sg7
S'a7'
p1441
sa(dp1442
g7
S'a8'
p1443
sa(dp1444
g7
S'b1'
p1445
sa(dp1446
g5
S'white_pawn'
p1447
sg7
S'b2'
p1448
sa(dp1449
g7
S'b3'
p1450
sa(dp1451
g7
S'b4'
p1452
sa(dp1453
g5
S'black_pawn'
p1454
sg7
S'b5'
p1455
sa(dp1456
g5
S'black_queen'
p1457
sg7
S'b6'
p1458
sa(dp1459
g7
S'b7'
p1460
sa(dp1461
g7
S'b8'
p1462
sa(dp1463
g7
S'c1'
p1464
sa(dp1465
g5
S'white_pawn'
p1466
sg7
S'c2'
p1467
sa(dp1468
g5
S'white_knight'
p1469
sg7
S'c3'
p1470
sa(dp1471
g7
S'c4'
p1472
sa(dp1473
g7
S'c5'
p1474
sa(dp1475
g5
S'black_pawn'
p1476
sg7
S'c6'
p1477
sa(dp1478
g7
S'c7'
p1479
sa(dp1480
g7
S'c8'
p1481
sa(dp1482
g7
S'd1'
p1483
sa(dp1484
g5
S'white_queen'
p1485
sg7
S'd2'
p1486
sa(dp1487
g5
S'white_bishop'
p1488
sg7
S'd3'
p1489
sa(dp1490
g5
S'black_bishop'
p1491
sg7
S'd4'
p1492
sa(dp1493
g7
S'd5'
p1494
sa(dp1495
g7
S'd6'
p1496
sa(dp1497
g5
S'black_knight'
p1498
sg7
S'd7'
p1499
sa(dp1500
g7
S'd8'
p1501
sa(dp1502
g5
S'white_rook'
p1503
sg7
S'e1'
p1504
sa(dp1505
g7
S'e2'
p1506
sa(dp1507
g7
S'e3'
p1508
sa(dp1509
g5
S'white_pawn'
p1510
sg7
S'e4'
p1511
sa(dp1512
g5
S'black_pawn'
p1513
sg7
S'e5'
p1514
sa(dp1515
g5
S'black_bishop'
p1516
sg7
S'e6'
p1517
sa(dp1518
g7
S'e7'
p1519
sa(dp1520
g7
S'e8'
p1521
sa(dp1522
g5
S'white_king'
p1523
sg7
S'f1'
p1524
sa(dp1525
g5
S'white_knight'
p1526
sg7
S'f2'
p1527
sa(dp1528
g5
S'white_pawn'
p1529
sg7
S'f3'
p1530
sa(dp1531
g7
S'f4'
p1532
sa(dp1533
g7
S'f5'
p1534
sa(dp1535
g7
S'f6'
p1536
sa(dp1537
g5
S'black_pawn'
p1538
sg7
S'f7'
p1539
sa(dp1540
g7
S'f8'
p1541
sa(dp1542
g7
S'g1'
p1543
sa(dp1544
g5
S'white_pawn'
p1545
sg7
S'g2'
p1546
sa(dp1547
g7
S'g3'
p1548
sa(dp1549
g7
S'g4'
p1550
sa(dp1551
g7
S'g5'
p1552
sa(dp1553
g5
S'black_pawn'
p1554
sg7
S'g6'
p1555
sa(dp1556
g5
S'black_king'
p1557
sg7
S'g7'
p1558
sa(dp1559
g7
S'g8'
p1560
sa(dp1561
g7
S'h1'
p1562
sa(dp1563
g5
S'white_pawn'
p1564
sg7
S'h2'
p1565
sa(dp1566
g7
S'h3'
p1567
sa(dp1568
g7
S'h4'
p1569
sa(dp1570
g5
S'black_pawn'
p1571
sg7
S'h5'
p1572
sa(dp1573
g7
S'h6'
p1574
sa(dp1575
g7
S'h7'
p1576
sa(dp1577
g7
S'h8'
p1578
saaVHe takes back.
p1579
aa(lp1580
S'26. Nh1'
p1581
a(lp1582
(dp1583
g7
S'a1'
p1584
sa(dp1585
g7
S'a2'
p1586
sa(dp1587
g7
S'a3'
p1588
sa(dp1589
g7
S'a4'
p1590
sa(dp1591
g7
S'a5'
p1592
sa(dp1593
g7
S'a6'
p1594
sa(dp1595
g5
S'black_rook'
p1596
sg7
S'a7'
p1597
sa(dp1598
g7
S'a8'
p1599
sa(dp1600
g7
S'b1'
p1601
sa(dp1602
g5
S'white_pawn'
p1603
sg7
S'b2'
p1604
sa(dp1605
g7
S'b3'
p1606
sa(dp1607
g7
S'b4'
p1608
sa(dp1609
g5
S'black_pawn'
p1610
sg7
S'b5'
p1611
sa(dp1612
g5
S'black_queen'
p1613
sg7
S'b6'
p1614
sa(dp1615
g7
S'b7'
p1616
sa(dp1617
g7
S'b8'
p1618
sa(dp1619
g7
S'c1'
p1620
sa(dp1621
g5
S'white_pawn'
p1622
sg7
S'c2'
p1623
sa(dp1624
g5
S'white_knight'
p1625
sg7
S'c3'
p1626
sa(dp1627
g7
S'c4'
p1628
sa(dp1629
g7
S'c5'
p1630
sa(dp1631
g5
S'black_pawn'
p1632
sg7
S'c6'
p1633
sa(dp1634
g7
S'c7'
p1635
sa(dp1636
g7
S'c8'
p1637
sa(dp1638
g7
S'd1'
p1639
sa(dp1640
g5
S'white_queen'
p1641
sg7
S'd2'
p1642
sa(dp1643
g5
S'white_bishop'
p1644
sg7
S'd3'
p1645
sa(dp1646
g5
S'black_bishop'
p1647
sg7
S'd4'
p1648
sa(dp1649
g7
S'd5'
p1650
sa(dp1651
g7
S'd6'
p1652
sa(dp1653
g5
S'black_knight'
p1654
sg7
S'd7'
p1655
sa(dp1656
g7
S'd8'
p1657
sa(dp1658
g5
S'white_rook'
p1659
sg7
S'e1'
p1660
sa(dp1661
g7
S'e2'
p1662
sa(dp1663
g7
S'e3'
p1664
sa(dp1665
g5
S'white_pawn'
p1666
sg7
S'e4'
p1667
sa(dp1668
g5
S'black_pawn'
p1669
sg7
S'e5'
p1670
sa(dp1671
g5
S'black_bishop'
p1672
sg7
S'e6'
p1673
sa(dp1674
g7
S'e7'
p1675
sa(dp1676
g7
S'e8'
p1677
sa(dp1678
g5
S'white_king'
p1679
sg7
S'f1'
p1680
sa(dp1681
g7
S'f2'
p1682
sa(dp1683
g5
S'white_pawn'
p1684
sg7
S'f3'
p1685
sa(dp1686
g7
S'f4'
p1687
sa(dp1688
g7
S'f5'
p1689
sa(dp1690
g7
S'f6'
p1691
sa(dp1692
g5
S'black_pawn'
p1693
sg7
S'f7'
p1694
sa(dp1695
g7
S'f8'
p1696
sa(dp1697
g7
S'g1'
p1698
sa(dp1699
g5
S'white_pawn'
p1700
sg7
S'g2'
p1701
sa(dp1702
g7
S'g3'
p1703
sa(dp1704
g7
S'g4'
p1705
sa(dp1706
g7
S'g5'
p1707
sa(dp1708
g5
S'black_pawn'
p1709
sg7
S'g6'
p1710
sa(dp1711
g5
S'black_king'
p1712
sg7
S'g7'
p1713
sa(dp1714
g7
S'g8'
p1715
sa(dp1716
g5
S'white_knight'
p1717
sg7
S'h1'
p1718
sa(dp1719
g5
S'white_pawn'
p1720
sg7
S'h2'
p1721
sa(dp1722
g7
S'h3'
p1723
sa(dp1724
g7
S'h4'
p1725
sa(dp1726
g5
S'black_pawn'
p1727
sg7
S'h5'
p1728
sa(dp1729
g7
S'h6'
p1730
sa(dp1731
g7
S'h7'
p1732
sa(dp1733
g7
S'h8'
p1734
saaVI can stop worrying about him taking on f2 now.
p1735
aa(lp1736
S'26... b4'
p1737
a(lp1738
(dp1739
g7
S'a1'
p1740
sa(dp1741
g7
S'a2'
p1742
sa(dp1743
g7
S'a3'
p1744
sa(dp1745
g7
S'a4'
p1746
sa(dp1747
g7
S'a5'
p1748
sa(dp1749
g7
S'a6'
p1750
sa(dp1751
g5
S'black_rook'
p1752
sg7
S'a7'
p1753
sa(dp1754
g7
S'a8'
p1755
sa(dp1756
g7
S'b1'
p1757
sa(dp1758
g5
S'white_pawn'
p1759
sg7
S'b2'
p1760
sa(dp1761
g7
S'b3'
p1762
sa(dp1763
g5
S'black_pawn'
p1764
sg7
S'b4'
p1765
sa(dp1766
g7
S'b5'
p1767
sa(dp1768
g5
S'black_queen'
p1769
sg7
S'b6'
p1770
sa(dp1771
g7
S'b7'
p1772
sa(dp1773
g7
S'b8'
p1774
sa(dp1775
g7
S'c1'
p1776
sa(dp1777
g5
S'white_pawn'
p1778
sg7
S'c2'
p1779
sa(dp1780
g5
S'white_knight'
p1781
sg7
S'c3'
p1782
sa(dp1783
g7
S'c4'
p1784
sa(dp1785
g7
S'c5'
p1786
sa(dp1787
g5
S'black_pawn'
p1788
sg7
S'c6'
p1789
sa(dp1790
g7
S'c7'
p1791
sa(dp1792
g7
S'c8'
p1793
sa(dp1794
g7
S'd1'
p1795
sa(dp1796
g5
S'white_queen'
p1797
sg7
S'd2'
p1798
sa(dp1799
g5
S'white_bishop'
p1800
sg7
S'd3'
p1801
sa(dp1802
g5
S'black_bishop'
p1803
sg7
S'd4'
p1804
sa(dp1805
g7
S'd5'
p1806
sa(dp1807
g7
S'd6'
p1808
sa(dp1809
g5
S'black_knight'
p1810
sg7
S'd7'
p1811
sa(dp1812
g7
S'd8'
p1813
sa(dp1814
g5
S'white_rook'
p1815
sg7
S'e1'
p1816
sa(dp1817
g7
S'e2'
p1818
sa(dp1819
g7
S'e3'
p1820
sa(dp1821
g5
S'white_pawn'
p1822
sg7
S'e4'
p1823
sa(dp1824
g5
S'black_pawn'
p1825
sg7
S'e5'
p1826
sa(dp1827
g5
S'black_bishop'
p1828
sg7
S'e6'
p1829
sa(dp1830
g7
S'e7'
p1831
sa(dp1832
g7
S'e8'
p1833
sa(dp1834
g5
S'white_king'
p1835
sg7
S'f1'
p1836
sa(dp1837
g7
S'f2'
p1838
sa(dp1839
g5
S'white_pawn'
p1840
sg7
S'f3'
p1841
sa(dp1842
g7
S'f4'
p1843
sa(dp1844
g7
S'f5'
p1845
sa(dp1846
g7
S'f6'
p1847
sa(dp1848
g5
S'black_pawn'
p1849
sg7
S'f7'
p1850
sa(dp1851
g7
S'f8'
p1852
sa(dp1853
g7
S'g1'
p1854
sa(dp1855
g5
S'white_pawn'
p1856
sg7
S'g2'
p1857
sa(dp1858
g7
S'g3'
p1859
sa(dp1860
g7
S'g4'
p1861
sa(dp1862
g7
S'g5'
p1863
sa(dp1864
g5
S'black_pawn'
p1865
sg7
S'g6'
p1866
sa(dp1867
g5
S'black_king'
p1868
sg7
S'g7'
p1869
sa(dp1870
g7
S'g8'
p1871
sa(dp1872
g5
S'white_knight'
p1873
sg7
S'h1'
p1874
sa(dp1875
g5
S'white_pawn'
p1876
sg7
S'h2'
p1877
sa(dp1878
g7
S'h3'
p1879
sa(dp1880
g7
S'h4'
p1881
sa(dp1882
g5
S'black_pawn'
p1883
sg7
S'h5'
p1884
sa(dp1885
g7
S'h6'
p1886
sa(dp1887
g7
S'h7'
p1888
sa(dp1889
g7
S'h8'
p1890
saaVI was rather expecting h5-h4 preventing Ng3.
p1891
aa(lp1892
S'27. Nd1'
p1893
a(lp1894
(dp1895
g7
S'a1'
p1896
sa(dp1897
g7
S'a2'
p1898
sa(dp1899
g7
S'a3'
p1900
sa(dp1901
g7
S'a4'
p1902
sa(dp1903
g7
S'a5'
p1904
sa(dp1905
g7
S'a6'
p1906
sa(dp1907
g5
S'black_rook'
p1908
sg7
S'a7'
p1909
sa(dp1910
g7
S'a8'
p1911
sa(dp1912
g7
S'b1'
p1913
sa(dp1914
g5
S'white_pawn'
p1915
sg7
S'b2'
p1916
sa(dp1917
g7
S'b3'
p1918
sa(dp1919
g5
S'black_pawn'
p1920
sg7
S'b4'
p1921
sa(dp1922
g7
S'b5'
p1923
sa(dp1924
g5
S'black_queen'
p1925
sg7
S'b6'
p1926
sa(dp1927
g7
S'b7'
p1928
sa(dp1929
g7
S'b8'
p1930
sa(dp1931
g7
S'c1'
p1932
sa(dp1933
g5
S'white_pawn'
p1934
sg7
S'c2'
p1935
sa(dp1936
g7
S'c3'
p1937
sa(dp1938
g7
S'c4'
p1939
sa(dp1940
g7
S'c5'
p1941
sa(dp1942
g5
S'black_pawn'
p1943
sg7
S'c6'
p1944
sa(dp1945
g7
S'c7'
p1946
sa(dp1947
g7
S'c8'
p1948
sa(dp1949
g5
S'white_knight'
p1950
sg7
S'd1'
p1951
sa(dp1952
g5
S'white_queen'
p1953
sg7
S'd2'
p1954
sa(dp1955
g5
S'white_bishop'
p1956
sg7
S'd3'
p1957
sa(dp1958
g5
S'black_bishop'
p1959
sg7
S'd4'
p1960
sa(dp1961
g7
S'd5'
p1962
sa(dp1963
g7
S'd6'
p1964
sa(dp1965
g5
S'black_knight'
p1966
sg7
S'd7'
p1967
sa(dp1968
g7
S'd8'
p1969
sa(dp1970
g5
S'white_rook'
p1971
sg7
S'e1'
p1972
sa(dp1973
g7
S'e2'
p1974
sa(dp1975
g7
S'e3'
p1976
sa(dp1977
g5
S'white_pawn'
p1978
sg7
S'e4'
p1979
sa(dp1980
g5
S'black_pawn'
p1981
sg7
S'e5'
p1982
sa(dp1983
g5
S'black_bishop'
p1984
sg7
S'e6'
p1985
sa(dp1986
g7
S'e7'
p1987
sa(dp1988
g7
S'e8'
p1989
sa(dp1990
g5
S'white_king'
p1991
sg7
S'f1'
p1992
sa(dp1993
g7
S'f2'
p1994
sa(dp1995
g5
S'white_pawn'
p1996
sg7
S'f3'
p1997
sa(dp1998
g7
S'f4'
p1999
sa(dp2000
g7
S'f5'
p2001
sa(dp2002
g7
S'f6'
p2003
sa(dp2004
g5
S'black_pawn'
p2005
sg7
S'f7'
p2006
sa(dp2007
g7
S'f8'
p2008
sa(dp2009
g7
S'g1'
p2010
sa(dp2011
g5
S'white_pawn'
p2012
sg7
S'g2'
p2013
sa(dp2014
g7
S'g3'
p2015
sa(dp2016
g7
S'g4'
p2017
sa(dp2018
g7
S'g5'
p2019
sa(dp2020
g5
S'black_pawn'
p2021
sg7
S'g6'
p2022
sa(dp2023
g5
S'black_king'
p2024
sg7
S'g7'
p2025
sa(dp2026
g7
S'g8'
p2027
sa(dp2028
g5
S'white_knight'
p2029
sg7
S'h1'
p2030
sa(dp2031
g5
S'white_pawn'
p2032
sg7
S'h2'
p2033
sa(dp2034
g7
S'h3'
p2035
sa(dp2036
g7
S'h4'
p2037
sa(dp2038
g5
S'black_pawn'
p2039
sg7
S'h5'
p2040
sa(dp2041
g7
S'h6'
p2042
sa(dp2043
g7
S'h7'
p2044
sa(dp2045
g7
S'h8'
p2046
saaVProtecting b2.
p2047
aa(lp2048
S'27... Ra2'
p2049
a(lp2050
(dp2051
g7
S'a1'
p2052
sa(dp2053
g5
S'black_rook'
p2054
sg7
S'a2'
p2055
sa(dp2056
g7
S'a3'
p2057
sa(dp2058
g7
S'a4'
p2059
sa(dp2060
g7
S'a5'
p2061
sa(dp2062
g7
S'a6'
p2063
sa(dp2064
g7
S'a7'
p2065
sa(dp2066
g7
S'a8'
p2067
sa(dp2068
g7
S'b1'
p2069
sa(dp2070
g5
S'white_pawn'
p2071
sg7
S'b2'
p2072
sa(dp2073
g7
S'b3'
p2074
sa(dp2075
g5
S'black_pawn'
p2076
sg7
S'b4'
p2077
sa(dp2078
g7
S'b5'
p2079
sa(dp2080
g5
S'black_queen'
p2081
sg7
S'b6'
p2082
sa(dp2083
g7
S'b7'
p2084
sa(dp2085
g7
S'b8'
p2086
sa(dp2087
g7
S'c1'
p2088
sa(dp2089
g5
S'white_pawn'
p2090
sg7
S'c2'
p2091
sa(dp2092
g7
S'c3'
p2093
sa(dp2094
g7
S'c4'
p2095
sa(dp2096
g7
S'c5'
p2097
sa(dp2098
g5
S'black_pawn'
p2099
sg7
S'c6'
p2100
sa(dp2101
g7
S'c7'
p2102
sa(dp2103
g7
S'c8'
p2104
sa(dp2105
g5
S'white_knight'
p2106
sg7
S'd1'
p2107
sa(dp2108
g5
S'white_queen'
p2109
sg7
S'd2'
p2110
sa(dp2111
g5
S'white_bishop'
p2112
sg7
S'd3'
p2113
sa(dp2114
g5
S'black_bishop'
p2115
sg7
S'd4'
p2116
sa(dp2117
g7
S'd5'
p2118
sa(dp2119
g7
S'd6'
p2120
sa(dp2121
g5
S'black_knight'
p2122
sg7
S'd7'
p2123
sa(dp2124
g7
S'd8'
p2125
sa(dp2126
g5
S'white_rook'
p2127
sg7
S'e1'
p2128
sa(dp2129
g7
S'e2'
p2130
sa(dp2131
g7
S'e3'
p2132
sa(dp2133
g5
S'white_pawn'
p2134
sg7
S'e4'
p2135
sa(dp2136
g5
S'black_pawn'
p2137
sg7
S'e5'
p2138
sa(dp2139
g5
S'black_bishop'
p2140
sg7
S'e6'
p2141
sa(dp2142
g7
S'e7'
p2143
sa(dp2144
g7
S'e8'
p2145
sa(dp2146
g5
S'white_king'
p2147
sg7
S'f1'
p2148
sa(dp2149
g7
S'f2'
p2150
sa(dp2151
g5
S'white_pawn'
p2152
sg7
S'f3'
p2153
sa(dp2154
g7
S'f4'
p2155
sa(dp2156
g7
S'f5'
p2157
sa(dp2158
g7
S'f6'
p2159
sa(dp2160
g5
S'black_pawn'
p2161
sg7
S'f7'
p2162
sa(dp2163
g7
S'f8'
p2164
sa(dp2165
g7
S'g1'
p2166
sa(dp2167
g5
S'white_pawn'
p2168
sg7
S'g2'
p2169
sa(dp2170
g7
S'g3'
p2171
sa(dp2172
g7
S'g4'
p2173
sa(dp2174
g7
S'g5'
p2175
sa(dp2176
g5
S'black_pawn'
p2177
sg7
S'g6'
p2178
sa(dp2179
g5
S'black_king'
p2180
sg7
S'g7'
p2181
sa(dp2182
g7
S'g8'
p2183
sa(dp2184
g5
S'white_knight'
p2185
sg7
S'h1'
p2186
sa(dp2187
g5
S'white_pawn'
p2188
sg7
S'h2'
p2189
sa(dp2190
g7
S'h3'
p2191
sa(dp2192
g7
S'h4'
p2193
sa(dp2194
g5
S'black_pawn'
p2195
sg7
S'h5'
p2196
sa(dp2197
g7
S'h6'
p2198
sa(dp2199
g7
S'h7'
p2200
sa(dp2201
g7
S'h8'
p2202
saaVAttacking b2.
p2203
aa(lp2204
S'28. Ng3'
p2205
a(lp2206
(dp2207
g7
S'a1'
p2208
sa(dp2209
g5
S'black_rook'
p2210
sg7
S'a2'
p2211
sa(dp2212
g7
S'a3'
p2213
sa(dp2214
g7
S'a4'
p2215
sa(dp2216
g7
S'a5'
p2217
sa(dp2218
g7
S'a6'
p2219
sa(dp2220
g7
S'a7'
p2221
sa(dp2222
g7
S'a8'
p2223
sa(dp2224
g7
S'b1'
p2225
sa(dp2226
g5
S'white_pawn'
p2227
sg7
S'b2'
p2228
sa(dp2229
g7
S'b3'
p2230
sa(dp2231
g5
S'black_pawn'
p2232
sg7
S'b4'
p2233
sa(dp2234
g7
S'b5'
p2235
sa(dp2236
g5
S'black_queen'
p2237
sg7
S'b6'
p2238
sa(dp2239
g7
S'b7'
p2240
sa(dp2241
g7
S'b8'
p2242
sa(dp2243
g7
S'c1'
p2244
sa(dp2245
g5
S'white_pawn'
p2246
sg7
S'c2'
p2247
sa(dp2248
g7
S'c3'
p2249
sa(dp2250
g7
S'c4'
p2251
sa(dp2252
g7
S'c5'
p2253
sa(dp2254
g5
S'black_pawn'
p2255
sg7
S'c6'
p2256
sa(dp2257
g7
S'c7'
p2258
sa(dp2259
g7
S'c8'
p2260
sa(dp2261
g5
S'white_knight'
p2262
sg7
S'd1'
p2263
sa(dp2264
g5
S'white_queen'
p2265
sg7
S'd2'
p2266
sa(dp2267
g5
S'white_bishop'
p2268
sg7
S'd3'
p2269
sa(dp2270
g5
S'black_bishop'
p2271
sg7
S'd4'
p2272
sa(dp2273
g7
S'd5'
p2274
sa(dp2275
g7
S'd6'
p2276
sa(dp2277
g5
S'black_knight'
p2278
sg7
S'd7'
p2279
sa(dp2280
g7
S'd8'
p2281
sa(dp2282
g5
S'white_rook'
p2283
sg7
S'e1'
p2284
sa(dp2285
g7
S'e2'
p2286
sa(dp2287
g7
S'e3'
p2288
sa(dp2289
g5
S'white_pawn'
p2290
sg7
S'e4'
p2291
sa(dp2292
g5
S'black_pawn'
p2293
sg7
S'e5'
p2294
sa(dp2295
g5
S'black_bishop'
p2296
sg7
S'e6'
p2297
sa(dp2298
g7
S'e7'
p2299
sa(dp2300
g7
S'e8'
p2301
sa(dp2302
g5
S'white_king'
p2303
sg7
S'f1'
p2304
sa(dp2305
g7
S'f2'
p2306
sa(dp2307
g5
S'white_pawn'
p2308
sg7
S'f3'
p2309
sa(dp2310
g7
S'f4'
p2311
sa(dp2312
g7
S'f5'
p2313
sa(dp2314
g7
S'f6'
p2315
sa(dp2316
g5
S'black_pawn'
p2317
sg7
S'f7'
p2318
sa(dp2319
g7
S'f8'
p2320
sa(dp2321
g7
S'g1'
p2322
sa(dp2323
g5
S'white_pawn'
p2324
sg7
S'g2'
p2325
sa(dp2326
g5
S'white_knight'
p2327
sg7
S'g3'
p2328
sa(dp2329
g7
S'g4'
p2330
sa(dp2331
g7
S'g5'
p2332
sa(dp2333
g5
S'black_pawn'
p2334
sg7
S'g6'
p2335
sa(dp2336
g5
S'black_king'
p2337
sg7
S'g7'
p2338
sa(dp2339
g7
S'g8'
p2340
sa(dp2341
g7
S'h1'
p2342
sa(dp2343
g5
S'white_pawn'
p2344
sg7
S'h2'
p2345
sa(dp2346
g7
S'h3'
p2347
sa(dp2348
g7
S'h4'
p2349
sa(dp2350
g5
S'black_pawn'
p2351
sg7
S'h5'
p2352
sa(dp2353
g7
S'h6'
p2354
sa(dp2355
g7
S'h7'
p2356
sa(dp2357
g7
S'h8'
p2358
saaVI am hoping he would give up his strong bishop to gain a pawn here.
p2359
aa(lp2360
S'28... Qd8'
p2361
a(lp2362
(dp2363
g7
S'a1'
p2364
sa(dp2365
g5
S'black_rook'
p2366
sg7
S'a2'
p2367
sa(dp2368
g7
S'a3'
p2369
sa(dp2370
g7
S'a4'
p2371
sa(dp2372
g7
S'a5'
p2373
sa(dp2374
g7
S'a6'
p2375
sa(dp2376
g7
S'a7'
p2377
sa(dp2378
g7
S'a8'
p2379
sa(dp2380
g7
S'b1'
p2381
sa(dp2382
g5
S'white_pawn'
p2383
sg7
S'b2'
p2384
sa(dp2385
g7
S'b3'
p2386
sa(dp2387
g5
S'black_pawn'
p2388
sg7
S'b4'
p2389
sa(dp2390
g7
S'b5'
p2391
sa(dp2392
g7
S'b6'
p2393
sa(dp2394
g7
S'b7'
p2395
sa(dp2396
g7
S'b8'
p2397
sa(dp2398
g7
S'c1'
p2399
sa(dp2400
g5
S'white_pawn'
p2401
sg7
S'c2'
p2402
sa(dp2403
g7
S'c3'
p2404
sa(dp2405
g7
S'c4'
p2406
sa(dp2407
g7
S'c5'
p2408
sa(dp2409
g5
S'black_pawn'
p2410
sg7
S'c6'
p2411
sa(dp2412
g7
S'c7'
p2413
sa(dp2414
g7
S'c8'
p2415
sa(dp2416
g5
S'white_knight'
p2417
sg7
S'd1'
p2418
sa(dp2419
g5
S'white_queen'
p2420
sg7
S'd2'
p2421
sa(dp2422
g5
S'white_bishop'
p2423
sg7
S'd3'
p2424
sa(dp2425
g5
S'black_bishop'
p2426
sg7
S'd4'
p2427
sa(dp2428
g7
S'd5'
p2429
sa(dp2430
g7
S'd6'
p2431
sa(dp2432
g5
S'black_knight'
p2433
sg7
S'd7'
p2434
sa(dp2435
g5
S'black_queen'
p2436
sg7
S'd8'
p2437
sa(dp2438
g5
S'white_rook'
p2439
sg7
S'e1'
p2440
sa(dp2441
g7
S'e2'
p2442
sa(dp2443
g7
S'e3'
p2444
sa(dp2445
g5
S'white_pawn'
p2446
sg7
S'e4'
p2447
sa(dp2448
g5
S'black_pawn'
p2449
sg7
S'e5'
p2450
sa(dp2451
g5
S'black_bishop'
p2452
sg7
S'e6'
p2453
sa(dp2454
g7
S'e7'
p2455
sa(dp2456
g7
S'e8'
p2457
sa(dp2458
g5
S'white_king'
p2459
sg7
S'f1'
p2460
sa(dp2461
g7
S'f2'
p2462
sa(dp2463
g5
S'white_pawn'
p2464
sg7
S'f3'
p2465
sa(dp2466
g7
S'f4'
p2467
sa(dp2468
g7
S'f5'
p2469
sa(dp2470
g7
S'f6'
p2471
sa(dp2472
g5
S'black_pawn'
p2473
sg7
S'f7'
p2474
sa(dp2475
g7
S'f8'
p2476
sa(dp2477
g7
S'g1'
p2478
sa(dp2479
g5
S'white_pawn'
p2480
sg7
S'g2'
p2481
sa(dp2482
g5
S'white_knight'
p2483
sg7
S'g3'
p2484
sa(dp2485
g7
S'g4'
p2486
sa(dp2487
g7
S'g5'
p2488
sa(dp2489
g5
S'black_pawn'
p2490
sg7
S'g6'
p2491
sa(dp2492
g5
S'black_king'
p2493
sg7
S'g7'
p2494
sa(dp2495
g7
S'g8'
p2496
sa(dp2497
g7
S'h1'
p2498
sa(dp2499
g5
S'white_pawn'
p2500
sg7
S'h2'
p2501
sa(dp2502
g7
S'h3'
p2503
sa(dp2504
g7
S'h4'
p2505
sa(dp2506
g5
S'black_pawn'
p2507
sg7
S'h5'
p2508
sa(dp2509
g7
S'h6'
p2510
sa(dp2511
g7
S'h7'
p2512
sa(dp2513
g7
S'h8'
p2514
saaVInstead he correctly plays this.
p2515
aa(lp2516
S'29. Ne2'
p2517
a(lp2518
(dp2519
g7
S'a1'
p2520
sa(dp2521
g5
S'black_rook'
p2522
sg7
S'a2'
p2523
sa(dp2524
g7
S'a3'
p2525
sa(dp2526
g7
S'a4'
p2527
sa(dp2528
g7
S'a5'
p2529
sa(dp2530
g7
S'a6'
p2531
sa(dp2532
g7
S'a7'
p2533
sa(dp2534
g7
S'a8'
p2535
sa(dp2536
g7
S'b1'
p2537
sa(dp2538
g5
S'white_pawn'
p2539
sg7
S'b2'
p2540
sa(dp2541
g7
S'b3'
p2542
sa(dp2543
g5
S'black_pawn'
p2544
sg7
S'b4'
p2545
sa(dp2546
g7
S'b5'
p2547
sa(dp2548
g7
S'b6'
p2549
sa(dp2550
g7
S'b7'
p2551
sa(dp2552
g7
S'b8'
p2553
sa(dp2554
g7
S'c1'
p2555
sa(dp2556
g5
S'white_pawn'
p2557
sg7
S'c2'
p2558
sa(dp2559
g7
S'c3'
p2560
sa(dp2561
g7
S'c4'
p2562
sa(dp2563
g7
S'c5'
p2564
sa(dp2565
g5
S'black_pawn'
p2566
sg7
S'c6'
p2567
sa(dp2568
g7
S'c7'
p2569
sa(dp2570
g7
S'c8'
p2571
sa(dp2572
g5
S'white_knight'
p2573
sg7
S'd1'
p2574
sa(dp2575
g5
S'white_queen'
p2576
sg7
S'd2'
p2577
sa(dp2578
g5
S'white_bishop'
p2579
sg7
S'd3'
p2580
sa(dp2581
g5
S'black_bishop'
p2582
sg7
S'd4'
p2583
sa(dp2584
g7
S'd5'
p2585
sa(dp2586
g7
S'd6'
p2587
sa(dp2588
g5
S'black_knight'
p2589
sg7
S'd7'
p2590
sa(dp2591
g5
S'black_queen'
p2592
sg7
S'd8'
p2593
sa(dp2594
g5
S'white_rook'
p2595
sg7
S'e1'
p2596
sa(dp2597
g5
S'white_knight'
p2598
sg7
S'e2'
p2599
sa(dp2600
g7
S'e3'
p2601
sa(dp2602
g5
S'white_pawn'
p2603
sg7
S'e4'
p2604
sa(dp2605
g5
S'black_pawn'
p2606
sg7
S'e5'
p2607
sa(dp2608
g5
S'black_bishop'
p2609
sg7
S'e6'
p2610
sa(dp2611
g7
S'e7'
p2612
sa(dp2613
g7
S'e8'
p2614
sa(dp2615
g5
S'white_king'
p2616
sg7
S'f1'
p2617
sa(dp2618
g7
S'f2'
p2619
sa(dp2620
g5
S'white_pawn'
p2621
sg7
S'f3'
p2622
sa(dp2623
g7
S'f4'
p2624
sa(dp2625
g7
S'f5'
p2626
sa(dp2627
g7
S'f6'
p2628
sa(dp2629
g5
S'black_pawn'
p2630
sg7
S'f7'
p2631
sa(dp2632
g7
S'f8'
p2633
sa(dp2634
g7
S'g1'
p2635
sa(dp2636
g5
S'white_pawn'
p2637
sg7
S'g2'
p2638
sa(dp2639
g7
S'g3'
p2640
sa(dp2641
g7
S'g4'
p2642
sa(dp2643
g7
S'g5'
p2644
sa(dp2645
g5
S'black_pawn'
p2646
sg7
S'g6'
p2647
sa(dp2648
g5
S'black_king'
p2649
sg7
S'g7'
p2650
sa(dp2651
g7
S'g8'
p2652
sa(dp2653
g7
S'h1'
p2654
sa(dp2655
g5
S'white_pawn'
p2656
sg7
S'h2'
p2657
sa(dp2658
g7
S'h3'
p2659
sa(dp2660
g7
S'h4'
p2661
sa(dp2662
g5
S'black_pawn'
p2663
sg7
S'h5'
p2664
sa(dp2665
g7
S'h6'
p2666
sa(dp2667
g7
S'h7'
p2668
sa(dp2669
g7
S'h8'
p2670
saaVI continue my plan. 29. Qxb4 loses to Qh4 
p2671
aa(lp2672
S'29... Bc5'
p2673
a(lp2674
(dp2675
g7
S'a1'
p2676
sa(dp2677
g5
S'black_rook'
p2678
sg7
S'a2'
p2679
sa(dp2680
g7
S'a3'
p2681
sa(dp2682
g7
S'a4'
p2683
sa(dp2684
g7
S'a5'
p2685
sa(dp2686
g7
S'a6'
p2687
sa(dp2688
g7
S'a7'
p2689
sa(dp2690
g7
S'a8'
p2691
sa(dp2692
g7
S'b1'
p2693
sa(dp2694
g5
S'white_pawn'
p2695
sg7
S'b2'
p2696
sa(dp2697
g7
S'b3'
p2698
sa(dp2699
g5
S'black_pawn'
p2700
sg7
S'b4'
p2701
sa(dp2702
g7
S'b5'
p2703
sa(dp2704
g7
S'b6'
p2705
sa(dp2706
g7
S'b7'
p2707
sa(dp2708
g7
S'b8'
p2709
sa(dp2710
g7
S'c1'
p2711
sa(dp2712
g5
S'white_pawn'
p2713
sg7
S'c2'
p2714
sa(dp2715
g7
S'c3'
p2716
sa(dp2717
g7
S'c4'
p2718
sa(dp2719
g5
S'black_bishop'
p2720
sg7
S'c5'
p2721
sa(dp2722
g5
S'black_pawn'
p2723
sg7
S'c6'
p2724
sa(dp2725
g7
S'c7'
p2726
sa(dp2727
g7
S'c8'
p2728
sa(dp2729
g5
S'white_knight'
p2730
sg7
S'd1'
p2731
sa(dp2732
g5
S'white_queen'
p2733
sg7
S'd2'
p2734
sa(dp2735
g5
S'white_bishop'
p2736
sg7
S'd3'
p2737
sa(dp2738
g7
S'd4'
p2739
sa(dp2740
g7
S'd5'
p2741
sa(dp2742
g7
S'd6'
p2743
sa(dp2744
g5
S'black_knight'
p2745
sg7
S'd7'
p2746
sa(dp2747
g5
S'black_queen'
p2748
sg7
S'd8'
p2749
sa(dp2750
g5
S'white_rook'
p2751
sg7
S'e1'
p2752
sa(dp2753
g5
S'white_knight'
p2754
sg7
S'e2'
p2755
sa(dp2756
g7
S'e3'
p2757
sa(dp2758
g5
S'white_pawn'
p2759
sg7
S'e4'
p2760
sa(dp2761
g5
S'black_pawn'
p2762
sg7
S'e5'
p2763
sa(dp2764
g5
S'black_bishop'
p2765
sg7
S'e6'
p2766
sa(dp2767
g7
S'e7'
p2768
sa(dp2769
g7
S'e8'
p2770
sa(dp2771
g5
S'white_king'
p2772
sg7
S'f1'
p2773
sa(dp2774
g7
S'f2'
p2775
sa(dp2776
g5
S'white_pawn'
p2777
sg7
S'f3'
p2778
sa(dp2779
g7
S'f4'
p2780
sa(dp2781
g7
S'f5'
p2782
sa(dp2783
g7
S'f6'
p2784
sa(dp2785
g5
S'black_pawn'
p2786
sg7
S'f7'
p2787
sa(dp2788
g7
S'f8'
p2789
sa(dp2790
g7
S'g1'
p2791
sa(dp2792
g5
S'white_pawn'
p2793
sg7
S'g2'
p2794
sa(dp2795
g7
S'g3'
p2796
sa(dp2797
g7
S'g4'
p2798
sa(dp2799
g7
S'g5'
p2800
sa(dp2801
g5
S'black_pawn'
p2802
sg7
S'g6'
p2803
sa(dp2804
g5
S'black_king'
p2805
sg7
S'g7'
p2806
sa(dp2807
g7
S'g8'
p2808
sa(dp2809
g7
S'h1'
p2810
sa(dp2811
g5
S'white_pawn'
p2812
sg7
S'h2'
p2813
sa(dp2814
g7
S'h3'
p2815
sa(dp2816
g7
S'h4'
p2817
sa(dp2818
g5
S'black_pawn'
p2819
sg7
S'h5'
p2820
sa(dp2821
g7
S'h6'
p2822
sa(dp2823
g7
S'h7'
p2824
sa(dp2825
g7
S'h8'
p2826
saaVHe correctly keeps his good bishop.
p2827
aa(lp2828
S'30. Ng1'
p2829
a(lp2830
(dp2831
g7
S'a1'
p2832
sa(dp2833
g5
S'black_rook'
p2834
sg7
S'a2'
p2835
sa(dp2836
g7
S'a3'
p2837
sa(dp2838
g7
S'a4'
p2839
sa(dp2840
g7
S'a5'
p2841
sa(dp2842
g7
S'a6'
p2843
sa(dp2844
g7
S'a7'
p2845
sa(dp2846
g7
S'a8'
p2847
sa(dp2848
g7
S'b1'
p2849
sa(dp2850
g5
S'white_pawn'
p2851
sg7
S'b2'
p2852
sa(dp2853
g7
S'b3'
p2854
sa(dp2855
g5
S'black_pawn'
p2856
sg7
S'b4'
p2857
sa(dp2858
g7
S'b5'
p2859
sa(dp2860
g7
S'b6'
p2861
sa(dp2862
g7
S'b7'
p2863
sa(dp2864
g7
S'b8'
p2865
sa(dp2866
g7
S'c1'
p2867
sa(dp2868
g5
S'white_pawn'
p2869
sg7
S'c2'
p2870
sa(dp2871
g7
S'c3'
p2872
sa(dp2873
g7
S'c4'
p2874
sa(dp2875
g5
S'black_bishop'
p2876
sg7
S'c5'
p2877
sa(dp2878
g5
S'black_pawn'
p2879
sg7
S'c6'
p2880
sa(dp2881
g7
S'c7'
p2882
sa(dp2883
g7
S'c8'
p2884
sa(dp2885
g5
S'white_knight'
p2886
sg7
S'd1'
p2887
sa(dp2888
g5
S'white_queen'
p2889
sg7
S'd2'
p2890
sa(dp2891
g5
S'white_bishop'
p2892
sg7
S'd3'
p2893
sa(dp2894
g7
S'd4'
p2895
sa(dp2896
g7
S'd5'
p2897
sa(dp2898
g7
S'd6'
p2899
sa(dp2900
g5
S'black_knight'
p2901
sg7
S'd7'
p2902
sa(dp2903
g5
S'black_queen'
p2904
sg7
S'd8'
p2905
sa(dp2906
g5
S'white_rook'
p2907
sg7
S'e1'
p2908
sa(dp2909
g7
S'e2'
p2910
sa(dp2911
g7
S'e3'
p2912
sa(dp2913
g5
S'white_pawn'
p2914
sg7
S'e4'
p2915
sa(dp2916
g5
S'black_pawn'
p2917
sg7
S'e5'
p2918
sa(dp2919
g5
S'black_bishop'
p2920
sg7
S'e6'
p2921
sa(dp2922
g7
S'e7'
p2923
sa(dp2924
g7
S'e8'
p2925
sa(dp2926
g5
S'white_king'
p2927
sg7
S'f1'
p2928
sa(dp2929
g7
S'f2'
p2930
sa(dp2931
g5
S'white_pawn'
p2932
sg7
S'f3'
p2933
sa(dp2934
g7
S'f4'
p2935
sa(dp2936
g7
S'f5'
p2937
sa(dp2938
g7
S'f6'
p2939
sa(dp2940
g5
S'black_pawn'
p2941
sg7
S'f7'
p2942
sa(dp2943
g7
S'f8'
p2944
sa(dp2945
g5
S'white_knight'
p2946
sg7
S'g1'
p2947
sa(dp2948
g5
S'white_pawn'
p2949
sg7
S'g2'
p2950
sa(dp2951
g7
S'g3'
p2952
sa(dp2953
g7
S'g4'
p2954
sa(dp2955
g7
S'g5'
p2956
sa(dp2957
g5
S'black_pawn'
p2958
sg7
S'g6'
p2959
sa(dp2960
g5
S'black_king'
p2961
sg7
S'g7'
p2962
sa(dp2963
g7
S'g8'
p2964
sa(dp2965
g7
S'h1'
p2966
sa(dp2967
g5
S'white_pawn'
p2968
sg7
S'h2'
p2969
sa(dp2970
g7
S'h3'
p2971
sa(dp2972
g7
S'h4'
p2973
sa(dp2974
g5
S'black_pawn'
p2975
sg7
S'h5'
p2976
sa(dp2977
g7
S'h6'
p2978
sa(dp2979
g7
S'h7'
p2980
sa(dp2981
g7
S'h8'
p2982
saaVMaybe Nc1 was better? What do you think dear reader?
p2983
aa(lp2984
S'30... Nb6'
p2985
a(lp2986
(dp2987
g7
S'a1'
p2988
sa(dp2989
g5
S'black_rook'
p2990
sg7
S'a2'
p2991
sa(dp2992
g7
S'a3'
p2993
sa(dp2994
g7
S'a4'
p2995
sa(dp2996
g7
S'a5'
p2997
sa(dp2998
g7
S'a6'
p2999
sa(dp3000
g7
S'a7'
p3001
sa(dp3002
g7
S'a8'
p3003
sa(dp3004
g7
S'b1'
p3005
sa(dp3006
g5
S'white_pawn'
p3007
sg7
S'b2'
p3008
sa(dp3009
g7
S'b3'
p3010
sa(dp3011
g5
S'black_pawn'
p3012
sg7
S'b4'
p3013
sa(dp3014
g7
S'b5'
p3015
sa(dp3016
g5
S'black_knight'
p3017
sg7
S'b6'
p3018
sa(dp3019
g7
S'b7'
p3020
sa(dp3021
g7
S'b8'
p3022
sa(dp3023
g7
S'c1'
p3024
sa(dp3025
g5
S'white_pawn'
p3026
sg7
S'c2'
p3027
sa(dp3028
g7
S'c3'
p3029
sa(dp3030
g7
S'c4'
p3031
sa(dp3032
g5
S'black_bishop'
p3033
sg7
S'c5'
p3034
sa(dp3035
g5
S'black_pawn'
p3036
sg7
S'c6'
p3037
sa(dp3038
g7
S'c7'
p3039
sa(dp3040
g7
S'c8'
p3041
sa(dp3042
g5
S'white_knight'
p3043
sg7
S'd1'
p3044
sa(dp3045
g5
S'white_queen'
p3046
sg7
S'd2'
p3047
sa(dp3048
g5
S'white_bishop'
p3049
sg7
S'd3'
p3050
sa(dp3051
g7
S'd4'
p3052
sa(dp3053
g7
S'd5'
p3054
sa(dp3055
g7
S'd6'
p3056
sa(dp3057
g7
S'd7'
p3058
sa(dp3059
g5
S'black_queen'
p3060
sg7
S'd8'
p3061
sa(dp3062
g5
S'white_rook'
p3063
sg7
S'e1'
p3064
sa(dp3065
g7
S'e2'
p3066
sa(dp3067
g7
S'e3'
p3068
sa(dp3069
g5
S'white_pawn'
p3070
sg7
S'e4'
p3071
sa(dp3072
g5
S'black_pawn'
p3073
sg7
S'e5'
p3074
sa(dp3075
g5
S'black_bishop'
p3076
sg7
S'e6'
p3077
sa(dp3078
g7
S'e7'
p3079
sa(dp3080
g7
S'e8'
p3081
sa(dp3082
g5
S'white_king'
p3083
sg7
S'f1'
p3084
sa(dp3085
g7
S'f2'
p3086
sa(dp3087
g5
S'white_pawn'
p3088
sg7
S'f3'
p3089
sa(dp3090
g7
S'f4'
p3091
sa(dp3092
g7
S'f5'
p3093
sa(dp3094
g7
S'f6'
p3095
sa(dp3096
g5
S'black_pawn'
p3097
sg7
S'f7'
p3098
sa(dp3099
g7
S'f8'
p3100
sa(dp3101
g5
S'white_knight'
p3102
sg7
S'g1'
p3103
sa(dp3104
g5
S'white_pawn'
p3105
sg7
S'g2'
p3106
sa(dp3107
g7
S'g3'
p3108
sa(dp3109
g7
S'g4'
p3110
sa(dp3111
g7
S'g5'
p3112
sa(dp3113
g5
S'black_pawn'
p3114
sg7
S'g6'
p3115
sa(dp3116
g5
S'black_king'
p3117
sg7
S'g7'
p3118
sa(dp3119
g7
S'g8'
p3120
sa(dp3121
g7
S'h1'
p3122
sa(dp3123
g5
S'white_pawn'
p3124
sg7
S'h2'
p3125
sa(dp3126
g7
S'h3'
p3127
sa(dp3128
g7
S'h4'
p3129
sa(dp3130
g5
S'black_pawn'
p3131
sg7
S'h5'
p3132
sa(dp3133
g7
S'h6'
p3134
sa(dp3135
g7
S'h7'
p3136
sa(dp3137
g7
S'h8'
p3138
saaVHe improves the position of his knight.
p3139
aa.