(lp0
(lp1
S'45... Rxf8 46. f6 Rgf7 47. Qg4+ Kh7 48. Qf5+ Kh8 49. Rf4 Qb2+ 50. Kh3 Qxc3'
p2
a(lp3
(dp4
S'location'
p5
S'a1'
p6
sa(dp7
g5
S'a2'
p8
sa(dp9
g5
S'a3'
p10
sa(dp11
g5
S'a4'
p12
sa(dp13
g5
S'a5'
p14
sa(dp15
S'piece'
p16
S'black_pawn'
p17
sg5
S'a6'
p18
sa(dp19
g5
S'a7'
p20
sa(dp21
g5
S'a8'
p22
sa(dp23
g5
S'b1'
p24
sa(dp25
g5
S'b2'
p26
sa(dp27
g5
S'b3'
p28
sa(dp29
g16
S'white_pawn'
p30
sg5
S'b4'
p31
sa(dp32
g16
S'black_pawn'
p33
sg5
S'b5'
p34
sa(dp35
g5
S'b6'
p36
sa(dp37
g5
S'b7'
p38
sa(dp39
g5
S'b8'
p40
sa(dp41
g5
S'c1'
p42
sa(dp43
g5
S'c2'
p44
sa(dp45
g16
S'black_queen'
p46
sg5
S'c3'
p47
sa(dp48
g5
S'c4'
p49
sa(dp50
g5
S'c5'
p51
sa(dp52
g5
S'c6'
p53
sa(dp54
g5
S'c7'
p55
sa(dp56
g5
S'c8'
p57
sa(dp58
g5
S'd1'
p59
sa(dp60
g5
S'd2'
p61
sa(dp62
g5
S'd3'
p63
sa(dp64
g5
S'd4'
p65
sa(dp66
g5
S'd5'
p67
sa(dp68
g5
S'd6'
p69
sa(dp70
g5
S'd7'
p71
sa(dp72
g5
S'd8'
p73
sa(dp74
g5
S'e1'
p75
sa(dp76
g5
S'e2'
p77
sa(dp78
g5
S'e3'
p79
sa(dp80
g5
S'e4'
p81
sa(dp82
g16
S'white_pawn'
p83
sg5
S'e5'
p84
sa(dp85
g5
S'e6'
p86
sa(dp87
g5
S'e7'
p88
sa(dp89
g5
S'e8'
p90
sa(dp91
g5
S'f1'
p92
sa(dp93
g5
S'f2'
p94
sa(dp95
g5
S'f3'
p96
sa(dp97
g16
S'white_rook'
p98
sg5
S'f4'
p99
sa(dp100
g16
S'white_queen'
p101
sg5
S'f5'
p102
sa(dp103
g16
S'white_pawn'
p104
sg5
S'f6'
p105
sa(dp106
g16
S'black_rook'
p107
sg5
S'f7'
p108
sa(dp109
g16
S'black_rook'
p110
sg5
S'f8'
p111
sa(dp112
g5
S'g1'
p113
sa(dp114
g5
S'g2'
p115
sa(dp116
g16
S'white_pawn'
p117
sg5
S'g3'
p118
sa(dp119
g5
S'g4'
p120
sa(dp121
g5
S'g5'
p122
sa(dp123
g5
S'g6'
p124
sa(dp125
g5
S'g7'
p126
sa(dp127
g5
S'g8'
p128
sa(dp129
g5
S'h1'
p130
sa(dp131
g5
S'h2'
p132
sa(dp133
g16
S'white_king'
p134
sg5
S'h3'
p135
sa(dp136
g5
S'h4'
p137
sa(dp138
g5
S'h5'
p139
sa(dp140
g16
S'black_pawn'
p141
sg5
S'h6'
p142
sa(dp143
g5
S'h7'
p144
sa(dp145
g16
S'black_king'
p146
sg5
S'h8'
p147
saaV?  He should have chased my K around with something like 50...Qa1 threatening ...Qh1 but I'm not convinced he realized how strong my threat was.
p148
aa(lp149
S'51. Rh4 Rg8'
p150
a(lp151
(dp152
g5
S'a1'
p153
sa(dp154
g5
S'a2'
p155
sa(dp156
g5
S'a3'
p157
sa(dp158
g5
S'a4'
p159
sa(dp160
g5
S'a5'
p161
sa(dp162
g16
S'black_pawn'
p163
sg5
S'a6'
p164
sa(dp165
g5
S'a7'
p166
sa(dp167
g5
S'a8'
p168
sa(dp169
g5
S'b1'
p170
sa(dp171
g5
S'b2'
p172
sa(dp173
g5
S'b3'
p174
sa(dp175
g16
S'white_pawn'
p176
sg5
S'b4'
p177
sa(dp178
g16
S'black_pawn'
p179
sg5
S'b5'
p180
sa(dp181
g5
S'b6'
p182
sa(dp183
g5
S'b7'
p184
sa(dp185
g5
S'b8'
p186
sa(dp187
g5
S'c1'
p188
sa(dp189
g5
S'c2'
p190
sa(dp191
g16
S'black_queen'
p192
sg5
S'c3'
p193
sa(dp194
g5
S'c4'
p195
sa(dp196
g5
S'c5'
p197
sa(dp198
g5
S'c6'
p199
sa(dp200
g5
S'c7'
p201
sa(dp202
g5
S'c8'
p203
sa(dp204
g5
S'd1'
p205
sa(dp206
g5
S'd2'
p207
sa(dp208
g5
S'd3'
p209
sa(dp210
g5
S'd4'
p211
sa(dp212
g5
S'd5'
p213
sa(dp214
g5
S'd6'
p215
sa(dp216
g5
S'd7'
p217
sa(dp218
g5
S'd8'
p219
sa(dp220
g5
S'e1'
p221
sa(dp222
g5
S'e2'
p223
sa(dp224
g5
S'e3'
p225
sa(dp226
g5
S'e4'
p227
sa(dp228
g16
S'white_pawn'
p229
sg5
S'e5'
p230
sa(dp231
g5
S'e6'
p232
sa(dp233
g5
S'e7'
p234
sa(dp235
g5
S'e8'
p236
sa(dp237
g5
S'f1'
p238
sa(dp239
g5
S'f2'
p240
sa(dp241
g5
S'f3'
p242
sa(dp243
g5
S'f4'
p244
sa(dp245
g16
S'white_queen'
p246
sg5
S'f5'
p247
sa(dp248
g16
S'white_pawn'
p249
sg5
S'f6'
p250
sa(dp251
g16
S'black_rook'
p252
sg5
S'f7'
p253
sa(dp254
g5
S'f8'
p255
sa(dp256
g5
S'g1'
p257
sa(dp258
g5
S'g2'
p259
sa(dp260
g16
S'white_pawn'
p261
sg5
S'g3'
p262
sa(dp263
g5
S'g4'
p264
sa(dp265
g5
S'g5'
p266
sa(dp267
g5
S'g6'
p268
sa(dp269
g5
S'g7'
p270
sa(dp271
g16
S'black_rook'
p272
sg5
S'g8'
p273
sa(dp274
g5
S'h1'
p275
sa(dp276
g5
S'h2'
p277
sa(dp278
g16
S'white_king'
p279
sg5
S'h3'
p280
sa(dp281
g16
S'white_rook'
p282
sg5
S'h4'
p283
sa(dp284
g5
S'h5'
p285
sa(dp286
g16
S'black_pawn'
p287
sg5
S'h6'
p288
sa(dp289
g5
S'h7'
p290
sa(dp291
g16
S'black_king'
p292
sg5
S'h8'
p293
saaV??  Forced mate in 2.  Even 51...Rh7 would have been technically better.  He resigned on my next fatal move.
p294
aa(lp295
S'52. Rxh6+'
p296
a(lp297
(dp298
g5
S'a1'
p299
sa(dp300
g5
S'a2'
p301
sa(dp302
g5
S'a3'
p303
sa(dp304
g5
S'a4'
p305
sa(dp306
g5
S'a5'
p307
sa(dp308
g16
S'black_pawn'
p309
sg5
S'a6'
p310
sa(dp311
g5
S'a7'
p312
sa(dp313
g5
S'a8'
p314
sa(dp315
g5
S'b1'
p316
sa(dp317
g5
S'b2'
p318
sa(dp319
g5
S'b3'
p320
sa(dp321
g16
S'white_pawn'
p322
sg5
S'b4'
p323
sa(dp324
g16
S'black_pawn'
p325
sg5
S'b5'
p326
sa(dp327
g5
S'b6'
p328
sa(dp329
g5
S'b7'
p330
sa(dp331
g5
S'b8'
p332
sa(dp333
g5
S'c1'
p334
sa(dp335
g5
S'c2'
p336
sa(dp337
g16
S'black_queen'
p338
sg5
S'c3'
p339
sa(dp340
g5
S'c4'
p341
sa(dp342
g5
S'c5'
p343
sa(dp344
g5
S'c6'
p345
sa(dp346
g5
S'c7'
p347
sa(dp348
g5
S'c8'
p349
sa(dp350
g5
S'd1'
p351
sa(dp352
g5
S'd2'
p353
sa(dp354
g5
S'd3'
p355
sa(dp356
g5
S'd4'
p357
sa(dp358
g5
S'd5'
p359
sa(dp360
g5
S'd6'
p361
sa(dp362
g5
S'd7'
p363
sa(dp364
g5
S'd8'
p365
sa(dp366
g5
S'e1'
p367
sa(dp368
g5
S'e2'
p369
sa(dp370
g5
S'e3'
p371
sa(dp372
g5
S'e4'
p373
sa(dp374
g16
S'white_pawn'
p375
sg5
S'e5'
p376
sa(dp377
g5
S'e6'
p378
sa(dp379
g5
S'e7'
p380
sa(dp381
g5
S'e8'
p382
sa(dp383
g5
S'f1'
p384
sa(dp385
g5
S'f2'
p386
sa(dp387
g5
S'f3'
p388
sa(dp389
g5
S'f4'
p390
sa(dp391
g16
S'white_queen'
p392
sg5
S'f5'
p393
sa(dp394
g16
S'white_pawn'
p395
sg5
S'f6'
p396
sa(dp397
g16
S'black_rook'
p398
sg5
S'f7'
p399
sa(dp400
g5
S'f8'
p401
sa(dp402
g5
S'g1'
p403
sa(dp404
g5
S'g2'
p405
sa(dp406
g16
S'white_pawn'
p407
sg5
S'g3'
p408
sa(dp409
g5
S'g4'
p410
sa(dp411
g5
S'g5'
p412
sa(dp413
g5
S'g6'
p414
sa(dp415
g5
S'g7'
p416
sa(dp417
g16
S'black_rook'
p418
sg5
S'g8'
p419
sa(dp420
g5
S'h1'
p421
sa(dp422
g5
S'h2'
p423
sa(dp424
g16
S'white_king'
p425
sg5
S'h3'
p426
sa(dp427
g5
S'h4'
p428
sa(dp429
g5
S'h5'
p430
sa(dp431
g16
S'white_rook'
p432
sg5
S'h6'
p433
sa(dp434
g5
S'h7'
p435
sa(dp436
g16
S'black_king'
p437
sg5
S'h8'
p438
saaV
p439
aa.