(lp0
(lp1
S'13... b4'
p2
a(lp3
(dp4
S'piece'
p5
S'white_rook'
p6
sS'location'
p7
S'a1'
p8
sa(dp9
g5
S'white_pawn'
p10
sg7
S'a2'
p11
sa(dp12
g7
S'a3'
p13
sa(dp14
g7
S'a4'
p15
sa(dp16
g7
S'a5'
p17
sa(dp18
g5
S'black_pawn'
p19
sg7
S'a6'
p20
sa(dp21
g7
S'a7'
p22
sa(dp23
g7
S'a8'
p24
sa(dp25
g7
S'b1'
p26
sa(dp27
g5
S'white_pawn'
p28
sg7
S'b2'
p29
sa(dp30
g7
S'b3'
p31
sa(dp32
g5
S'black_pawn'
p33
sg7
S'b4'
p34
sa(dp35
g7
S'b5'
p36
sa(dp37
g7
S'b6'
p38
sa(dp39
g7
S'b7'
p40
sa(dp41
g5
S'black_rook'
p42
sg7
S'b8'
p43
sa(dp44
g7
S'c1'
p45
sa(dp46
g7
S'c2'
p47
sa(dp48
g5
S'white_knight'
p49
sg7
S'c3'
p50
sa(dp51
g7
S'c4'
p52
sa(dp53
g5
S'white_pawn'
p54
sg7
S'c5'
p55
sa(dp56
g7
S'c6'
p57
sa(dp58
g5
S'black_pawn'
p59
sg7
S'c7'
p60
sa(dp61
g5
S'black_bishop'
p62
sg7
S'c8'
p63
sa(dp64
g7
S'd1'
p65
sa(dp66
g5
S'white_queen'
p67
sg7
S'd2'
p68
sa(dp69
g7
S'd3'
p70
sa(dp71
g5
S'white_bishop'
p72
sg7
S'd4'
p73
sa(dp74
g7
S'd5'
p75
sa(dp76
g5
S'black_pawn'
p77
sg7
S'd6'
p78
sa(dp79
g7
S'd7'
p80
sa(dp81
g5
S'black_queen'
p82
sg7
S'd8'
p83
sa(dp84
g5
S'white_king'
p85
sg7
S'e1'
p86
sa(dp87
g7
S'e2'
p88
sa(dp89
g7
S'e3'
p90
sa(dp91
g5
S'white_pawn'
p92
sg7
S'e4'
p93
sa(dp94
g7
S'e5'
p95
sa(dp96
g7
S'e6'
p97
sa(dp98
g7
S'e7'
p99
sa(dp100
g7
S'e8'
p101
sa(dp102
g5
S'white_bishop'
p103
sg7
S'f1'
p104
sa(dp105
g7
S'f2'
p106
sa(dp107
g5
S'white_pawn'
p108
sg7
S'f3'
p109
sa(dp110
g7
S'f4'
p111
sa(dp112
g7
S'f5'
p113
sa(dp114
g5
S'black_knight'
p115
sg7
S'f6'
p116
sa(dp117
g5
S'black_pawn'
p118
sg7
S'f7'
p119
sa(dp120
g5
S'black_rook'
p121
sg7
S'f8'
p122
sa(dp123
g7
S'g1'
p124
sa(dp125
g5
S'white_pawn'
p126
sg7
S'g2'
p127
sa(dp128
g7
S'g3'
p129
sa(dp130
g7
S'g4'
p131
sa(dp132
g7
S'g5'
p133
sa(dp134
g5
S'black_pawn'
p135
sg7
S'g6'
p136
sa(dp137
g5
S'black_bishop'
p138
sg7
S'g7'
p139
sa(dp140
g5
S'black_king'
p141
sg7
S'g8'
p142
sa(dp143
g5
S'white_rook'
p144
sg7
S'h1'
p145
sa(dp146
g5
S'white_pawn'
p147
sg7
S'h2'
p148
sa(dp149
g7
S'h3'
p150
sa(dp151
g7
S'h4'
p152
sa(dp153
g7
S'h5'
p154
sa(dp155
g7
S'h6'
p156
sa(dp157
g5
S'black_pawn'
p158
sg7
S'h7'
p159
sa(dp160
g7
S'h8'
p161
saaVHe hits my knight.
p162
aa(lp163
S'14. Nd1'
p164
a(lp165
(dp166
g5
S'white_rook'
p167
sg7
S'a1'
p168
sa(dp169
g5
S'white_pawn'
p170
sg7
S'a2'
p171
sa(dp172
g7
S'a3'
p173
sa(dp174
g7
S'a4'
p175
sa(dp176
g7
S'a5'
p177
sa(dp178
g5
S'black_pawn'
p179
sg7
S'a6'
p180
sa(dp181
g7
S'a7'
p182
sa(dp183
g7
S'a8'
p184
sa(dp185
g7
S'b1'
p186
sa(dp187
g5
S'white_pawn'
p188
sg7
S'b2'
p189
sa(dp190
g7
S'b3'
p191
sa(dp192
g5
S'black_pawn'
p193
sg7
S'b4'
p194
sa(dp195
g7
S'b5'
p196
sa(dp197
g7
S'b6'
p198
sa(dp199
g7
S'b7'
p200
sa(dp201
g5
S'black_rook'
p202
sg7
S'b8'
p203
sa(dp204
g7
S'c1'
p205
sa(dp206
g7
S'c2'
p207
sa(dp208
g7
S'c3'
p209
sa(dp210
g7
S'c4'
p211
sa(dp212
g5
S'white_pawn'
p213
sg7
S'c5'
p214
sa(dp215
g7
S'c6'
p216
sa(dp217
g5
S'black_pawn'
p218
sg7
S'c7'
p219
sa(dp220
g5
S'black_bishop'
p221
sg7
S'c8'
p222
sa(dp223
g5
S'white_knight'
p224
sg7
S'd1'
p225
sa(dp226
g5
S'white_queen'
p227
sg7
S'd2'
p228
sa(dp229
g7
S'd3'
p230
sa(dp231
g5
S'white_bishop'
p232
sg7
S'd4'
p233
sa(dp234
g7
S'd5'
p235
sa(dp236
g5
S'black_pawn'
p237
sg7
S'd6'
p238
sa(dp239
g7
S'd7'
p240
sa(dp241
g5
S'black_queen'
p242
sg7
S'd8'
p243
sa(dp244
g5
S'white_king'
p245
sg7
S'e1'
p246
sa(dp247
g7
S'e2'
p248
sa(dp249
g7
S'e3'
p250
sa(dp251
g5
S'white_pawn'
p252
sg7
S'e4'
p253
sa(dp254
g7
S'e5'
p255
sa(dp256
g7
S'e6'
p257
sa(dp258
g7
S'e7'
p259
sa(dp260
g7
S'e8'
p261
sa(dp262
g5
S'white_bishop'
p263
sg7
S'f1'
p264
sa(dp265
g7
S'f2'
p266
sa(dp267
g5
S'white_pawn'
p268
sg7
S'f3'
p269
sa(dp270
g7
S'f4'
p271
sa(dp272
g7
S'f5'
p273
sa(dp274
g5
S'black_knight'
p275
sg7
S'f6'
p276
sa(dp277
g5
S'black_pawn'
p278
sg7
S'f7'
p279
sa(dp280
g5
S'black_rook'
p281
sg7
S'f8'
p282
sa(dp283
g7
S'g1'
p284
sa(dp285
g5
S'white_pawn'
p286
sg7
S'g2'
p287
sa(dp288
g7
S'g3'
p289
sa(dp290
g7
S'g4'
p291
sa(dp292
g7
S'g5'
p293
sa(dp294
g5
S'black_pawn'
p295
sg7
S'g6'
p296
sa(dp297
g5
S'black_bishop'
p298
sg7
S'g7'
p299
sa(dp300
g5
S'black_king'
p301
sg7
S'g8'
p302
sa(dp303
g5
S'white_rook'
p304
sg7
S'h1'
p305
sa(dp306
g5
S'white_pawn'
p307
sg7
S'h2'
p308
sa(dp309
g7
S'h3'
p310
sa(dp311
g7
S'h4'
p312
sa(dp313
g7
S'h5'
p314
sa(dp315
g7
S'h6'
p316
sa(dp317
g5
S'black_pawn'
p318
sg7
S'h7'
p319
sa(dp320
g7
S'h8'
p321
saaVKnight retreats.
p322
aa(lp323
S'14... Re8'
p324
a(lp325
(dp326
g5
S'white_rook'
p327
sg7
S'a1'
p328
sa(dp329
g5
S'white_pawn'
p330
sg7
S'a2'
p331
sa(dp332
g7
S'a3'
p333
sa(dp334
g7
S'a4'
p335
sa(dp336
g7
S'a5'
p337
sa(dp338
g5
S'black_pawn'
p339
sg7
S'a6'
p340
sa(dp341
g7
S'a7'
p342
sa(dp343
g7
S'a8'
p344
sa(dp345
g7
S'b1'
p346
sa(dp347
g5
S'white_pawn'
p348
sg7
S'b2'
p349
sa(dp350
g7
S'b3'
p351
sa(dp352
g5
S'black_pawn'
p353
sg7
S'b4'
p354
sa(dp355
g7
S'b5'
p356
sa(dp357
g7
S'b6'
p358
sa(dp359
g7
S'b7'
p360
sa(dp361
g5
S'black_rook'
p362
sg7
S'b8'
p363
sa(dp364
g7
S'c1'
p365
sa(dp366
g7
S'c2'
p367
sa(dp368
g7
S'c3'
p369
sa(dp370
g7
S'c4'
p371
sa(dp372
g5
S'white_pawn'
p373
sg7
S'c5'
p374
sa(dp375
g7
S'c6'
p376
sa(dp377
g5
S'black_pawn'
p378
sg7
S'c7'
p379
sa(dp380
g5
S'black_bishop'
p381
sg7
S'c8'
p382
sa(dp383
g5
S'white_knight'
p384
sg7
S'd1'
p385
sa(dp386
g5
S'white_queen'
p387
sg7
S'd2'
p388
sa(dp389
g7
S'd3'
p390
sa(dp391
g5
S'white_bishop'
p392
sg7
S'd4'
p393
sa(dp394
g7
S'd5'
p395
sa(dp396
g5
S'black_pawn'
p397
sg7
S'd6'
p398
sa(dp399
g7
S'd7'
p400
sa(dp401
g5
S'black_queen'
p402
sg7
S'd8'
p403
sa(dp404
g5
S'white_king'
p405
sg7
S'e1'
p406
sa(dp407
g7
S'e2'
p408
sa(dp409
g7
S'e3'
p410
sa(dp411
g5
S'white_pawn'
p412
sg7
S'e4'
p413
sa(dp414
g7
S'e5'
p415
sa(dp416
g7
S'e6'
p417
sa(dp418
g7
S'e7'
p419
sa(dp420
g5
S'black_rook'
p421
sg7
S'e8'
p422
sa(dp423
g5
S'white_bishop'
p424
sg7
S'f1'
p425
sa(dp426
g7
S'f2'
p427
sa(dp428
g5
S'white_pawn'
p429
sg7
S'f3'
p430
sa(dp431
g7
S'f4'
p432
sa(dp433
g7
S'f5'
p434
sa(dp435
g5
S'black_knight'
p436
sg7
S'f6'
p437
sa(dp438
g5
S'black_pawn'
p439
sg7
S'f7'
p440
sa(dp441
g7
S'f8'
p442
sa(dp443
g7
S'g1'
p444
sa(dp445
g5
S'white_pawn'
p446
sg7
S'g2'
p447
sa(dp448
g7
S'g3'
p449
sa(dp450
g7
S'g4'
p451
sa(dp452
g7
S'g5'
p453
sa(dp454
g5
S'black_pawn'
p455
sg7
S'g6'
p456
sa(dp457
g5
S'black_bishop'
p458
sg7
S'g7'
p459
sa(dp460
g5
S'black_king'
p461
sg7
S'g8'
p462
sa(dp463
g5
S'white_rook'
p464
sg7
S'h1'
p465
sa(dp466
g5
S'white_pawn'
p467
sg7
S'h2'
p468
sa(dp469
g7
S'h3'
p470
sa(dp471
g7
S'h4'
p472
sa(dp473
g7
S'h5'
p474
sa(dp475
g7
S'h6'
p476
sa(dp477
g5
S'black_pawn'
p478
sg7
S'h7'
p479
sa(dp480
g7
S'h8'
p481
saaVRook develops.
p482
aa(lp483
S'15. Bc4'
p484
a(lp485
(dp486
g5
S'white_rook'
p487
sg7
S'a1'
p488
sa(dp489
g5
S'white_pawn'
p490
sg7
S'a2'
p491
sa(dp492
g7
S'a3'
p493
sa(dp494
g7
S'a4'
p495
sa(dp496
g7
S'a5'
p497
sa(dp498
g5
S'black_pawn'
p499
sg7
S'a6'
p500
sa(dp501
g7
S'a7'
p502
sa(dp503
g7
S'a8'
p504
sa(dp505
g7
S'b1'
p506
sa(dp507
g5
S'white_pawn'
p508
sg7
S'b2'
p509
sa(dp510
g7
S'b3'
p511
sa(dp512
g5
S'black_pawn'
p513
sg7
S'b4'
p514
sa(dp515
g7
S'b5'
p516
sa(dp517
g7
S'b6'
p518
sa(dp519
g7
S'b7'
p520
sa(dp521
g5
S'black_rook'
p522
sg7
S'b8'
p523
sa(dp524
g7
S'c1'
p525
sa(dp526
g7
S'c2'
p527
sa(dp528
g7
S'c3'
p529
sa(dp530
g5
S'white_bishop'
p531
sg7
S'c4'
p532
sa(dp533
g5
S'white_pawn'
p534
sg7
S'c5'
p535
sa(dp536
g7
S'c6'
p537
sa(dp538
g5
S'black_pawn'
p539
sg7
S'c7'
p540
sa(dp541
g5
S'black_bishop'
p542
sg7
S'c8'
p543
sa(dp544
g5
S'white_knight'
p545
sg7
S'd1'
p546
sa(dp547
g5
S'white_queen'
p548
sg7
S'd2'
p549
sa(dp550
g7
S'd3'
p551
sa(dp552
g5
S'white_bishop'
p553
sg7
S'd4'
p554
sa(dp555
g7
S'd5'
p556
sa(dp557
g5
S'black_pawn'
p558
sg7
S'd6'
p559
sa(dp560
g7
S'd7'
p561
sa(dp562
g5
S'black_queen'
p563
sg7
S'd8'
p564
sa(dp565
g5
S'white_king'
p566
sg7
S'e1'
p567
sa(dp568
g7
S'e2'
p569
sa(dp570
g7
S'e3'
p571
sa(dp572
g5
S'white_pawn'
p573
sg7
S'e4'
p574
sa(dp575
g7
S'e5'
p576
sa(dp577
g7
S'e6'
p578
sa(dp579
g7
S'e7'
p580
sa(dp581
g5
S'black_rook'
p582
sg7
S'e8'
p583
sa(dp584
g7
S'f1'
p585
sa(dp586
g7
S'f2'
p587
sa(dp588
g5
S'white_pawn'
p589
sg7
S'f3'
p590
sa(dp591
g7
S'f4'
p592
sa(dp593
g7
S'f5'
p594
sa(dp595
g5
S'black_knight'
p596
sg7
S'f6'
p597
sa(dp598
g5
S'black_pawn'
p599
sg7
S'f7'
p600
sa(dp601
g7
S'f8'
p602
sa(dp603
g7
S'g1'
p604
sa(dp605
g5
S'white_pawn'
p606
sg7
S'g2'
p607
sa(dp608
g7
S'g3'
p609
sa(dp610
g7
S'g4'
p611
sa(dp612
g7
S'g5'
p613
sa(dp614
g5
S'black_pawn'
p615
sg7
S'g6'
p616
sa(dp617
g5
S'black_bishop'
p618
sg7
S'g7'
p619
sa(dp620
g5
S'black_king'
p621
sg7
S'g8'
p622
sa(dp623
g5
S'white_rook'
p624
sg7
S'h1'
p625
sa(dp626
g5
S'white_pawn'
p627
sg7
S'h2'
p628
sa(dp629
g7
S'h3'
p630
sa(dp631
g7
S'h4'
p632
sa(dp633
g7
S'h5'
p634
sa(dp635
g7
S'h6'
p636
sa(dp637
g5
S'black_pawn'
p638
sg7
S'h7'
p639
sa(dp640
g7
S'h8'
p641
saaVI thought that I was developing the Bf1 to an attacking post, but this may very well be a losing error. What does black play now?
p642
aa(lp643
S'15... Nxe4'
p644
a(lp645
(dp646
g5
S'white_rook'
p647
sg7
S'a1'
p648
sa(dp649
g5
S'white_pawn'
p650
sg7
S'a2'
p651
sa(dp652
g7
S'a3'
p653
sa(dp654
g7
S'a4'
p655
sa(dp656
g7
S'a5'
p657
sa(dp658
g5
S'black_pawn'
p659
sg7
S'a6'
p660
sa(dp661
g7
S'a7'
p662
sa(dp663
g7
S'a8'
p664
sa(dp665
g7
S'b1'
p666
sa(dp667
g5
S'white_pawn'
p668
sg7
S'b2'
p669
sa(dp670
g7
S'b3'
p671
sa(dp672
g5
S'black_pawn'
p673
sg7
S'b4'
p674
sa(dp675
g7
S'b5'
p676
sa(dp677
g7
S'b6'
p678
sa(dp679
g7
S'b7'
p680
sa(dp681
g5
S'black_rook'
p682
sg7
S'b8'
p683
sa(dp684
g7
S'c1'
p685
sa(dp686
g7
S'c2'
p687
sa(dp688
g7
S'c3'
p689
sa(dp690
g5
S'white_bishop'
p691
sg7
S'c4'
p692
sa(dp693
g5
S'white_pawn'
p694
sg7
S'c5'
p695
sa(dp696
g7
S'c6'
p697
sa(dp698
g5
S'black_pawn'
p699
sg7
S'c7'
p700
sa(dp701
g5
S'black_bishop'
p702
sg7
S'c8'
p703
sa(dp704
g5
S'white_knight'
p705
sg7
S'd1'
p706
sa(dp707
g5
S'white_queen'
p708
sg7
S'd2'
p709
sa(dp710
g7
S'd3'
p711
sa(dp712
g5
S'white_bishop'
p713
sg7
S'd4'
p714
sa(dp715
g7
S'd5'
p716
sa(dp717
g5
S'black_pawn'
p718
sg7
S'd6'
p719
sa(dp720
g7
S'd7'
p721
sa(dp722
g5
S'black_queen'
p723
sg7
S'd8'
p724
sa(dp725
g5
S'white_king'
p726
sg7
S'e1'
p727
sa(dp728
g7
S'e2'
p729
sa(dp730
g7
S'e3'
p731
sa(dp732
g5
S'black_knight'
p733
sg7
S'e4'
p734
sa(dp735
g7
S'e5'
p736
sa(dp737
g7
S'e6'
p738
sa(dp739
g7
S'e7'
p740
sa(dp741
g5
S'black_rook'
p742
sg7
S'e8'
p743
sa(dp744
g7
S'f1'
p745
sa(dp746
g7
S'f2'
p747
sa(dp748
g5
S'white_pawn'
p749
sg7
S'f3'
p750
sa(dp751
g7
S'f4'
p752
sa(dp753
g7
S'f5'
p754
sa(dp755
g7
S'f6'
p756
sa(dp757
g5
S'black_pawn'
p758
sg7
S'f7'
p759
sa(dp760
g7
S'f8'
p761
sa(dp762
g7
S'g1'
p763
sa(dp764
g5
S'white_pawn'
p765
sg7
S'g2'
p766
sa(dp767
g7
S'g3'
p768
sa(dp769
g7
S'g4'
p770
sa(dp771
g7
S'g5'
p772
sa(dp773
g5
S'black_pawn'
p774
sg7
S'g6'
p775
sa(dp776
g5
S'black_bishop'
p777
sg7
S'g7'
p778
sa(dp779
g5
S'black_king'
p780
sg7
S'g8'
p781
sa(dp782
g5
S'white_rook'
p783
sg7
S'h1'
p784
sa(dp785
g5
S'white_pawn'
p786
sg7
S'h2'
p787
sa(dp788
g7
S'h3'
p789
sa(dp790
g7
S'h4'
p791
sa(dp792
g7
S'h5'
p793
sa(dp794
g7
S'h6'
p795
sa(dp796
g5
S'black_pawn'
p797
sg7
S'h7'
p798
sa(dp799
g7
S'h8'
p800
saaVBlack also had an alternative in 15.....d6-d5 but it "only" seems to win a pawn after 16. Be2 dxe4 17. 0-0 and Fritz regards the position as plus .74 for black, and indeed, after a few minutes prefers 15.... Bb7 as the second best move for black (+.77) while it regards the position as +2.37 for black after this move. Now if I take the knight 16. fxe4 Rxe4 and if I save the bishop on d4 with 17. Be3 Rxc4. So I thought that if he is winning the knight back anyway, I may as well take the pawn with check to maintain level material.
p801
aa(lp802
S'16. Bxf7+'
p803
a(lp804
(dp805
g5
S'white_rook'
p806
sg7
S'a1'
p807
sa(dp808
g5
S'white_pawn'
p809
sg7
S'a2'
p810
sa(dp811
g7
S'a3'
p812
sa(dp813
g7
S'a4'
p814
sa(dp815
g7
S'a5'
p816
sa(dp817
g5
S'black_pawn'
p818
sg7
S'a6'
p819
sa(dp820
g7
S'a7'
p821
sa(dp822
g7
S'a8'
p823
sa(dp824
g7
S'b1'
p825
sa(dp826
g5
S'white_pawn'
p827
sg7
S'b2'
p828
sa(dp829
g7
S'b3'
p830
sa(dp831
g5
S'black_pawn'
p832
sg7
S'b4'
p833
sa(dp834
g7
S'b5'
p835
sa(dp836
g7
S'b6'
p837
sa(dp838
g7
S'b7'
p839
sa(dp840
g5
S'black_rook'
p841
sg7
S'b8'
p842
sa(dp843
g7
S'c1'
p844
sa(dp845
g7
S'c2'
p846
sa(dp847
g7
S'c3'
p848
sa(dp849
g7
S'c4'
p850
sa(dp851
g5
S'white_pawn'
p852
sg7
S'c5'
p853
sa(dp854
g7
S'c6'
p855
sa(dp856
g5
S'black_pawn'
p857
sg7
S'c7'
p858
sa(dp859
g5
S'black_bishop'
p860
sg7
S'c8'
p861
sa(dp862
g5
S'white_knight'
p863
sg7
S'd1'
p864
sa(dp865
g5
S'white_queen'
p866
sg7
S'd2'
p867
sa(dp868
g7
S'd3'
p869
sa(dp870
g5
S'white_bishop'
p871
sg7
S'd4'
p872
sa(dp873
g7
S'd5'
p874
sa(dp875
g5
S'black_pawn'
p876
sg7
S'd6'
p877
sa(dp878
g7
S'd7'
p879
sa(dp880
g5
S'black_queen'
p881
sg7
S'd8'
p882
sa(dp883
g5
S'white_king'
p884
sg7
S'e1'
p885
sa(dp886
g7
S'e2'
p887
sa(dp888
g7
S'e3'
p889
sa(dp890
g5
S'black_knight'
p891
sg7
S'e4'
p892
sa(dp893
g7
S'e5'
p894
sa(dp895
g7
S'e6'
p896
sa(dp897
g7
S'e7'
p898
sa(dp899
g5
S'black_rook'
p900
sg7
S'e8'
p901
sa(dp902
g7
S'f1'
p903
sa(dp904
g7
S'f2'
p905
sa(dp906
g5
S'white_pawn'
p907
sg7
S'f3'
p908
sa(dp909
g7
S'f4'
p910
sa(dp911
g7
S'f5'
p912
sa(dp913
g7
S'f6'
p914
sa(dp915
g5
S'white_bishop'
p916
sg7
S'f7'
p917
sa(dp918
g7
S'f8'
p919
sa(dp920
g7
S'g1'
p921
sa(dp922
g5
S'white_pawn'
p923
sg7
S'g2'
p924
sa(dp925
g7
S'g3'
p926
sa(dp927
g7
S'g4'
p928
sa(dp929
g7
S'g5'
p930
sa(dp931
g5
S'black_pawn'
p932
sg7
S'g6'
p933
sa(dp934
g5
S'black_bishop'
p935
sg7
S'g7'
p936
sa(dp937
g5
S'black_king'
p938
sg7
S'g8'
p939
sa(dp940
g5
S'white_rook'
p941
sg7
S'h1'
p942
sa(dp943
g5
S'white_pawn'
p944
sg7
S'h2'
p945
sa(dp946
g7
S'h3'
p947
sa(dp948
g7
S'h4'
p949
sa(dp950
g7
S'h5'
p951
sa(dp952
g7
S'h6'
p953
sa(dp954
g5
S'black_pawn'
p955
sg7
S'h7'
p956
sa(dp957
g7
S'h8'
p958
saaVSo I take.
p959
aa(lp960
S'16... Kxf7'
p961
a(lp962
(dp963
g5
S'white_rook'
p964
sg7
S'a1'
p965
sa(dp966
g5
S'white_pawn'
p967
sg7
S'a2'
p968
sa(dp969
g7
S'a3'
p970
sa(dp971
g7
S'a4'
p972
sa(dp973
g7
S'a5'
p974
sa(dp975
g5
S'black_pawn'
p976
sg7
S'a6'
p977
sa(dp978
g7
S'a7'
p979
sa(dp980
g7
S'a8'
p981
sa(dp982
g7
S'b1'
p983
sa(dp984
g5
S'white_pawn'
p985
sg7
S'b2'
p986
sa(dp987
g7
S'b3'
p988
sa(dp989
g5
S'black_pawn'
p990
sg7
S'b4'
p991
sa(dp992
g7
S'b5'
p993
sa(dp994
g7
S'b6'
p995
sa(dp996
g7
S'b7'
p997
sa(dp998
g5
S'black_rook'
p999
sg7
S'b8'
p1000
sa(dp1001
g7
S'c1'
p1002
sa(dp1003
g7
S'c2'
p1004
sa(dp1005
g7
S'c3'
p1006
sa(dp1007
g7
S'c4'
p1008
sa(dp1009
g5
S'white_pawn'
p1010
sg7
S'c5'
p1011
sa(dp1012
g7
S'c6'
p1013
sa(dp1014
g5
S'black_pawn'
p1015
sg7
S'c7'
p1016
sa(dp1017
g5
S'black_bishop'
p1018
sg7
S'c8'
p1019
sa(dp1020
g5
S'white_knight'
p1021
sg7
S'd1'
p1022
sa(dp1023
g5
S'white_queen'
p1024
sg7
S'd2'
p1025
sa(dp1026
g7
S'd3'
p1027
sa(dp1028
g5
S'white_bishop'
p1029
sg7
S'd4'
p1030
sa(dp1031
g7
S'd5'
p1032
sa(dp1033
g5
S'black_pawn'
p1034
sg7
S'd6'
p1035
sa(dp1036
g7
S'd7'
p1037
sa(dp1038
g5
S'black_queen'
p1039
sg7
S'd8'
p1040
sa(dp1041
g5
S'white_king'
p1042
sg7
S'e1'
p1043
sa(dp1044
g7
S'e2'
p1045
sa(dp1046
g7
S'e3'
p1047
sa(dp1048
g5
S'black_knight'
p1049
sg7
S'e4'
p1050
sa(dp1051
g7
S'e5'
p1052
sa(dp1053
g7
S'e6'
p1054
sa(dp1055
g7
S'e7'
p1056
sa(dp1057
g5
S'black_rook'
p1058
sg7
S'e8'
p1059
sa(dp1060
g7
S'f1'
p1061
sa(dp1062
g7
S'f2'
p1063
sa(dp1064
g5
S'white_pawn'
p1065
sg7
S'f3'
p1066
sa(dp1067
g7
S'f4'
p1068
sa(dp1069
g7
S'f5'
p1070
sa(dp1071
g7
S'f6'
p1072
sa(dp1073
g5
S'black_king'
p1074
sg7
S'f7'
p1075
sa(dp1076
g7
S'f8'
p1077
sa(dp1078
g7
S'g1'
p1079
sa(dp1080
g5
S'white_pawn'
p1081
sg7
S'g2'
p1082
sa(dp1083
g7
S'g3'
p1084
sa(dp1085
g7
S'g4'
p1086
sa(dp1087
g7
S'g5'
p1088
sa(dp1089
g5
S'black_pawn'
p1090
sg7
S'g6'
p1091
sa(dp1092
g5
S'black_bishop'
p1093
sg7
S'g7'
p1094
sa(dp1095
g7
S'g8'
p1096
sa(dp1097
g5
S'white_rook'
p1098
sg7
S'h1'
p1099
sa(dp1100
g5
S'white_pawn'
p1101
sg7
S'h2'
p1102
sa(dp1103
g7
S'h3'
p1104
sa(dp1105
g7
S'h4'
p1106
sa(dp1107
g7
S'h5'
p1108
sa(dp1109
g7
S'h6'
p1110
sa(dp1111
g5
S'black_pawn'
p1112
sg7
S'h7'
p1113
sa(dp1114
g7
S'h8'
p1115
saaVHe takes back.
p1116
aa(lp1117
S'17. Qf4+'
p1118
a(lp1119
(dp1120
g5
S'white_rook'
p1121
sg7
S'a1'
p1122
sa(dp1123
g5
S'white_pawn'
p1124
sg7
S'a2'
p1125
sa(dp1126
g7
S'a3'
p1127
sa(dp1128
g7
S'a4'
p1129
sa(dp1130
g7
S'a5'
p1131
sa(dp1132
g5
S'black_pawn'
p1133
sg7
S'a6'
p1134
sa(dp1135
g7
S'a7'
p1136
sa(dp1137
g7
S'a8'
p1138
sa(dp1139
g7
S'b1'
p1140
sa(dp1141
g5
S'white_pawn'
p1142
sg7
S'b2'
p1143
sa(dp1144
g7
S'b3'
p1145
sa(dp1146
g5
S'black_pawn'
p1147
sg7
S'b4'
p1148
sa(dp1149
g7
S'b5'
p1150
sa(dp1151
g7
S'b6'
p1152
sa(dp1153
g7
S'b7'
p1154
sa(dp1155
g5
S'black_rook'
p1156
sg7
S'b8'
p1157
sa(dp1158
g7
S'c1'
p1159
sa(dp1160
g7
S'c2'
p1161
sa(dp1162
g7
S'c3'
p1163
sa(dp1164
g7
S'c4'
p1165
sa(dp1166
g5
S'white_pawn'
p1167
sg7
S'c5'
p1168
sa(dp1169
g7
S'c6'
p1170
sa(dp1171
g5
S'black_pawn'
p1172
sg7
S'c7'
p1173
sa(dp1174
g5
S'black_bishop'
p1175
sg7
S'c8'
p1176
sa(dp1177
g5
S'white_knight'
p1178
sg7
S'd1'
p1179
sa(dp1180
g7
S'd2'
p1181
sa(dp1182
g7
S'd3'
p1183
sa(dp1184
g5
S'white_bishop'
p1185
sg7
S'd4'
p1186
sa(dp1187
g7
S'd5'
p1188
sa(dp1189
g5
S'black_pawn'
p1190
sg7
S'd6'
p1191
sa(dp1192
g7
S'd7'
p1193
sa(dp1194
g5
S'black_queen'
p1195
sg7
S'd8'
p1196
sa(dp1197
g5
S'white_king'
p1198
sg7
S'e1'
p1199
sa(dp1200
g7
S'e2'
p1201
sa(dp1202
g7
S'e3'
p1203
sa(dp1204
g5
S'black_knight'
p1205
sg7
S'e4'
p1206
sa(dp1207
g7
S'e5'
p1208
sa(dp1209
g7
S'e6'
p1210
sa(dp1211
g7
S'e7'
p1212
sa(dp1213
g5
S'black_rook'
p1214
sg7
S'e8'
p1215
sa(dp1216
g7
S'f1'
p1217
sa(dp1218
g7
S'f2'
p1219
sa(dp1220
g5
S'white_pawn'
p1221
sg7
S'f3'
p1222
sa(dp1223
g5
S'white_queen'
p1224
sg7
S'f4'
p1225
sa(dp1226
g7
S'f5'
p1227
sa(dp1228
g7
S'f6'
p1229
sa(dp1230
g5
S'black_king'
p1231
sg7
S'f7'
p1232
sa(dp1233
g7
S'f8'
p1234
sa(dp1235
g7
S'g1'
p1236
sa(dp1237
g5
S'white_pawn'
p1238
sg7
S'g2'
p1239
sa(dp1240
g7
S'g3'
p1241
sa(dp1242
g7
S'g4'
p1243
sa(dp1244
g7
S'g5'
p1245
sa(dp1246
g5
S'black_pawn'
p1247
sg7
S'g6'
p1248
sa(dp1249
g5
S'black_bishop'
p1250
sg7
S'g7'
p1251
sa(dp1252
g7
S'g8'
p1253
sa(dp1254
g5
S'white_rook'
p1255
sg7
S'h1'
p1256
sa(dp1257
g5
S'white_pawn'
p1258
sg7
S'h2'
p1259
sa(dp1260
g7
S'h3'
p1261
sa(dp1262
g7
S'h4'
p1263
sa(dp1264
g7
S'h5'
p1265
sa(dp1266
g7
S'h6'
p1267
sa(dp1268
g5
S'black_pawn'
p1269
sg7
S'h7'
p1270
sa(dp1271
g7
S'h8'
p1272
saaVI threw in a check. I was rather surprised that he just didn't retreat the knight with a discovered check, but what he played was good enough.
p1273
aa(lp1274
S'17... Kg8'
p1275
a(lp1276
(dp1277
g5
S'white_rook'
p1278
sg7
S'a1'
p1279
sa(dp1280
g5
S'white_pawn'
p1281
sg7
S'a2'
p1282
sa(dp1283
g7
S'a3'
p1284
sa(dp1285
g7
S'a4'
p1286
sa(dp1287
g7
S'a5'
p1288
sa(dp1289
g5
S'black_pawn'
p1290
sg7
S'a6'
p1291
sa(dp1292
g7
S'a7'
p1293
sa(dp1294
g7
S'a8'
p1295
sa(dp1296
g7
S'b1'
p1297
sa(dp1298
g5
S'white_pawn'
p1299
sg7
S'b2'
p1300
sa(dp1301
g7
S'b3'
p1302
sa(dp1303
g5
S'black_pawn'
p1304
sg7
S'b4'
p1305
sa(dp1306
g7
S'b5'
p1307
sa(dp1308
g7
S'b6'
p1309
sa(dp1310
g7
S'b7'
p1311
sa(dp1312
g5
S'black_rook'
p1313
sg7
S'b8'
p1314
sa(dp1315
g7
S'c1'
p1316
sa(dp1317
g7
S'c2'
p1318
sa(dp1319
g7
S'c3'
p1320
sa(dp1321
g7
S'c4'
p1322
sa(dp1323
g5
S'white_pawn'
p1324
sg7
S'c5'
p1325
sa(dp1326
g7
S'c6'
p1327
sa(dp1328
g5
S'black_pawn'
p1329
sg7
S'c7'
p1330
sa(dp1331
g5
S'black_bishop'
p1332
sg7
S'c8'
p1333
sa(dp1334
g5
S'white_knight'
p1335
sg7
S'd1'
p1336
sa(dp1337
g7
S'd2'
p1338
sa(dp1339
g7
S'd3'
p1340
sa(dp1341
g5
S'white_bishop'
p1342
sg7
S'd4'
p1343
sa(dp1344
g7
S'd5'
p1345
sa(dp1346
g5
S'black_pawn'
p1347
sg7
S'd6'
p1348
sa(dp1349
g7
S'd7'
p1350
sa(dp1351
g5
S'black_queen'
p1352
sg7
S'd8'
p1353
sa(dp1354
g5
S'white_king'
p1355
sg7
S'e1'
p1356
sa(dp1357
g7
S'e2'
p1358
sa(dp1359
g7
S'e3'
p1360
sa(dp1361
g5
S'black_knight'
p1362
sg7
S'e4'
p1363
sa(dp1364
g7
S'e5'
p1365
sa(dp1366
g7
S'e6'
p1367
sa(dp1368
g7
S'e7'
p1369
sa(dp1370
g5
S'black_rook'
p1371
sg7
S'e8'
p1372
sa(dp1373
g7
S'f1'
p1374
sa(dp1375
g7
S'f2'
p1376
sa(dp1377
g5
S'white_pawn'
p1378
sg7
S'f3'
p1379
sa(dp1380
g5
S'white_queen'
p1381
sg7
S'f4'
p1382
sa(dp1383
g7
S'f5'
p1384
sa(dp1385
g7
S'f6'
p1386
sa(dp1387
g7
S'f7'
p1388
sa(dp1389
g7
S'f8'
p1390
sa(dp1391
g7
S'g1'
p1392
sa(dp1393
g5
S'white_pawn'
p1394
sg7
S'g2'
p1395
sa(dp1396
g7
S'g3'
p1397
sa(dp1398
g7
S'g4'
p1399
sa(dp1400
g7
S'g5'
p1401
sa(dp1402
g5
S'black_pawn'
p1403
sg7
S'g6'
p1404
sa(dp1405
g5
S'black_bishop'
p1406
sg7
S'g7'
p1407
sa(dp1408
g5
S'black_king'
p1409
sg7
S'g8'
p1410
sa(dp1411
g5
S'white_rook'
p1412
sg7
S'h1'
p1413
sa(dp1414
g5
S'white_pawn'
p1415
sg7
S'h2'
p1416
sa(dp1417
g7
S'h3'
p1418
sa(dp1419
g7
S'h4'
p1420
sa(dp1421
g7
S'h5'
p1422
sa(dp1423
g7
S'h6'
p1424
sa(dp1425
g5
S'black_pawn'
p1426
sg7
S'h7'
p1427
sa(dp1428
g7
S'h8'
p1429
saaVWhich was simply to retreat the king. Firitz actually thinks this is the best move.
p1430
aa(lp1431
S'18. fxe4'
p1432
a(lp1433
(dp1434
g5
S'white_rook'
p1435
sg7
S'a1'
p1436
sa(dp1437
g5
S'white_pawn'
p1438
sg7
S'a2'
p1439
sa(dp1440
g7
S'a3'
p1441
sa(dp1442
g7
S'a4'
p1443
sa(dp1444
g7
S'a5'
p1445
sa(dp1446
g5
S'black_pawn'
p1447
sg7
S'a6'
p1448
sa(dp1449
g7
S'a7'
p1450
sa(dp1451
g7
S'a8'
p1452
sa(dp1453
g7
S'b1'
p1454
sa(dp1455
g5
S'white_pawn'
p1456
sg7
S'b2'
p1457
sa(dp1458
g7
S'b3'
p1459
sa(dp1460
g5
S'black_pawn'
p1461
sg7
S'b4'
p1462
sa(dp1463
g7
S'b5'
p1464
sa(dp1465
g7
S'b6'
p1466
sa(dp1467
g7
S'b7'
p1468
sa(dp1469
g5
S'black_rook'
p1470
sg7
S'b8'
p1471
sa(dp1472
g7
S'c1'
p1473
sa(dp1474
g7
S'c2'
p1475
sa(dp1476
g7
S'c3'
p1477
sa(dp1478
g7
S'c4'
p1479
sa(dp1480
g5
S'white_pawn'
p1481
sg7
S'c5'
p1482
sa(dp1483
g7
S'c6'
p1484
sa(dp1485
g5
S'black_pawn'
p1486
sg7
S'c7'
p1487
sa(dp1488
g5
S'black_bishop'
p1489
sg7
S'c8'
p1490
sa(dp1491
g5
S'white_knight'
p1492
sg7
S'd1'
p1493
sa(dp1494
g7
S'd2'
p1495
sa(dp1496
g7
S'd3'
p1497
sa(dp1498
g5
S'white_bishop'
p1499
sg7
S'd4'
p1500
sa(dp1501
g7
S'd5'
p1502
sa(dp1503
g5
S'black_pawn'
p1504
sg7
S'd6'
p1505
sa(dp1506
g7
S'd7'
p1507
sa(dp1508
g5
S'black_queen'
p1509
sg7
S'd8'
p1510
sa(dp1511
g5
S'white_king'
p1512
sg7
S'e1'
p1513
sa(dp1514
g7
S'e2'
p1515
sa(dp1516
g7
S'e3'
p1517
sa(dp1518
g5
S'white_pawn'
p1519
sg7
S'e4'
p1520
sa(dp1521
g7
S'e5'
p1522
sa(dp1523
g7
S'e6'
p1524
sa(dp1525
g7
S'e7'
p1526
sa(dp1527
g5
S'black_rook'
p1528
sg7
S'e8'
p1529
sa(dp1530
g7
S'f1'
p1531
sa(dp1532
g7
S'f2'
p1533
sa(dp1534
g7
S'f3'
p1535
sa(dp1536
g5
S'white_queen'
p1537
sg7
S'f4'
p1538
sa(dp1539
g7
S'f5'
p1540
sa(dp1541
g7
S'f6'
p1542
sa(dp1543
g7
S'f7'
p1544
sa(dp1545
g7
S'f8'
p1546
sa(dp1547
g7
S'g1'
p1548
sa(dp1549
g5
S'white_pawn'
p1550
sg7
S'g2'
p1551
sa(dp1552
g7
S'g3'
p1553
sa(dp1554
g7
S'g4'
p1555
sa(dp1556
g7
S'g5'
p1557
sa(dp1558
g5
S'black_pawn'
p1559
sg7
S'g6'
p1560
sa(dp1561
g5
S'black_bishop'
p1562
sg7
S'g7'
p1563
sa(dp1564
g5
S'black_king'
p1565
sg7
S'g8'
p1566
sa(dp1567
g5
S'white_rook'
p1568
sg7
S'h1'
p1569
sa(dp1570
g5
S'white_pawn'
p1571
sg7
S'h2'
p1572
sa(dp1573
g7
S'h3'
p1574
sa(dp1575
g7
S'h4'
p1576
sa(dp1577
g7
S'h5'
p1578
sa(dp1579
g7
S'h6'
p1580
sa(dp1581
g5
S'black_pawn'
p1582
sg7
S'h7'
p1583
sa(dp1584
g7
S'h8'
p1585
saaVI took his knight.
p1586
aa(lp1587
S'18... dxc5'
p1588
a(lp1589
(dp1590
g5
S'white_rook'
p1591
sg7
S'a1'
p1592
sa(dp1593
g5
S'white_pawn'
p1594
sg7
S'a2'
p1595
sa(dp1596
g7
S'a3'
p1597
sa(dp1598
g7
S'a4'
p1599
sa(dp1600
g7
S'a5'
p1601
sa(dp1602
g5
S'black_pawn'
p1603
sg7
S'a6'
p1604
sa(dp1605
g7
S'a7'
p1606
sa(dp1607
g7
S'a8'
p1608
sa(dp1609
g7
S'b1'
p1610
sa(dp1611
g5
S'white_pawn'
p1612
sg7
S'b2'
p1613
sa(dp1614
g7
S'b3'
p1615
sa(dp1616
g5
S'black_pawn'
p1617
sg7
S'b4'
p1618
sa(dp1619
g7
S'b5'
p1620
sa(dp1621
g7
S'b6'
p1622
sa(dp1623
g7
S'b7'
p1624
sa(dp1625
g5
S'black_rook'
p1626
sg7
S'b8'
p1627
sa(dp1628
g7
S'c1'
p1629
sa(dp1630
g7
S'c2'
p1631
sa(dp1632
g7
S'c3'
p1633
sa(dp1634
g7
S'c4'
p1635
sa(dp1636
g5
S'black_pawn'
p1637
sg7
S'c5'
p1638
sa(dp1639
g7
S'c6'
p1640
sa(dp1641
g5
S'black_pawn'
p1642
sg7
S'c7'
p1643
sa(dp1644
g5
S'black_bishop'
p1645
sg7
S'c8'
p1646
sa(dp1647
g5
S'white_knight'
p1648
sg7
S'd1'
p1649
sa(dp1650
g7
S'd2'
p1651
sa(dp1652
g7
S'd3'
p1653
sa(dp1654
g5
S'white_bishop'
p1655
sg7
S'd4'
p1656
sa(dp1657
g7
S'd5'
p1658
sa(dp1659
g7
S'd6'
p1660
sa(dp1661
g7
S'd7'
p1662
sa(dp1663
g5
S'black_queen'
p1664
sg7
S'd8'
p1665
sa(dp1666
g5
S'white_king'
p1667
sg7
S'e1'
p1668
sa(dp1669
g7
S'e2'
p1670
sa(dp1671
g7
S'e3'
p1672
sa(dp1673
g5
S'white_pawn'
p1674
sg7
S'e4'
p1675
sa(dp1676
g7
S'e5'
p1677
sa(dp1678
g7
S'e6'
p1679
sa(dp1680
g7
S'e7'
p1681
sa(dp1682
g5
S'black_rook'
p1683
sg7
S'e8'
p1684
sa(dp1685
g7
S'f1'
p1686
sa(dp1687
g7
S'f2'
p1688
sa(dp1689
g7
S'f3'
p1690
sa(dp1691
g5
S'white_queen'
p1692
sg7
S'f4'
p1693
sa(dp1694
g7
S'f5'
p1695
sa(dp1696
g7
S'f6'
p1697
sa(dp1698
g7
S'f7'
p1699
sa(dp1700
g7
S'f8'
p1701
sa(dp1702
g7
S'g1'
p1703
sa(dp1704
g5
S'white_pawn'
p1705
sg7
S'g2'
p1706
sa(dp1707
g7
S'g3'
p1708
sa(dp1709
g7
S'g4'
p1710
sa(dp1711
g7
S'g5'
p1712
sa(dp1713
g5
S'black_pawn'
p1714
sg7
S'g6'
p1715
sa(dp1716
g5
S'black_bishop'
p1717
sg7
S'g7'
p1718
sa(dp1719
g5
S'black_king'
p1720
sg7
S'g8'
p1721
sa(dp1722
g5
S'white_rook'
p1723
sg7
S'h1'
p1724
sa(dp1725
g5
S'white_pawn'
p1726
sg7
S'h2'
p1727
sa(dp1728
g7
S'h3'
p1729
sa(dp1730
g7
S'h4'
p1731
sa(dp1732
g7
S'h5'
p1733
sa(dp1734
g7
S'h6'
p1735
sa(dp1736
g5
S'black_pawn'
p1737
sg7
S'h7'
p1738
sa(dp1739
g7
S'h8'
p1740
saaVI am not sure why he didn't simply take my bishop on d4.
p1741
aa(lp1742
S'19. Bxc5'
p1743
a(lp1744
(dp1745
g5
S'white_rook'
p1746
sg7
S'a1'
p1747
sa(dp1748
g5
S'white_pawn'
p1749
sg7
S'a2'
p1750
sa(dp1751
g7
S'a3'
p1752
sa(dp1753
g7
S'a4'
p1754
sa(dp1755
g7
S'a5'
p1756
sa(dp1757
g5
S'black_pawn'
p1758
sg7
S'a6'
p1759
sa(dp1760
g7
S'a7'
p1761
sa(dp1762
g7
S'a8'
p1763
sa(dp1764
g7
S'b1'
p1765
sa(dp1766
g5
S'white_pawn'
p1767
sg7
S'b2'
p1768
sa(dp1769
g7
S'b3'
p1770
sa(dp1771
g5
S'black_pawn'
p1772
sg7
S'b4'
p1773
sa(dp1774
g7
S'b5'
p1775
sa(dp1776
g7
S'b6'
p1777
sa(dp1778
g7
S'b7'
p1779
sa(dp1780
g5
S'black_rook'
p1781
sg7
S'b8'
p1782
sa(dp1783
g7
S'c1'
p1784
sa(dp1785
g7
S'c2'
p1786
sa(dp1787
g7
S'c3'
p1788
sa(dp1789
g7
S'c4'
p1790
sa(dp1791
g5
S'white_bishop'
p1792
sg7
S'c5'
p1793
sa(dp1794
g7
S'c6'
p1795
sa(dp1796
g5
S'black_pawn'
p1797
sg7
S'c7'
p1798
sa(dp1799
g5
S'black_bishop'
p1800
sg7
S'c8'
p1801
sa(dp1802
g5
S'white_knight'
p1803
sg7
S'd1'
p1804
sa(dp1805
g7
S'd2'
p1806
sa(dp1807
g7
S'd3'
p1808
sa(dp1809
g7
S'd4'
p1810
sa(dp1811
g7
S'd5'
p1812
sa(dp1813
g7
S'd6'
p1814
sa(dp1815
g7
S'd7'
p1816
sa(dp1817
g5
S'black_queen'
p1818
sg7
S'd8'
p1819
sa(dp1820
g5
S'white_king'
p1821
sg7
S'e1'
p1822
sa(dp1823
g7
S'e2'
p1824
sa(dp1825
g7
S'e3'
p1826
sa(dp1827
g5
S'white_pawn'
p1828
sg7
S'e4'
p1829
sa(dp1830
g7
S'e5'
p1831
sa(dp1832
g7
S'e6'
p1833
sa(dp1834
g7
S'e7'
p1835
sa(dp1836
g5
S'black_rook'
p1837
sg7
S'e8'
p1838
sa(dp1839
g7
S'f1'
p1840
sa(dp1841
g7
S'f2'
p1842
sa(dp1843
g7
S'f3'
p1844
sa(dp1845
g5
S'white_queen'
p1846
sg7
S'f4'
p1847
sa(dp1848
g7
S'f5'
p1849
sa(dp1850
g7
S'f6'
p1851
sa(dp1852
g7
S'f7'
p1853
sa(dp1854
g7
S'f8'
p1855
sa(dp1856
g7
S'g1'
p1857
sa(dp1858
g5
S'white_pawn'
p1859
sg7
S'g2'
p1860
sa(dp1861
g7
S'g3'
p1862
sa(dp1863
g7
S'g4'
p1864
sa(dp1865
g7
S'g5'
p1866
sa(dp1867
g5
S'black_pawn'
p1868
sg7
S'g6'
p1869
sa(dp1870
g5
S'black_bishop'
p1871
sg7
S'g7'
p1872
sa(dp1873
g5
S'black_king'
p1874
sg7
S'g8'
p1875
sa(dp1876
g5
S'white_rook'
p1877
sg7
S'h1'
p1878
sa(dp1879
g5
S'white_pawn'
p1880
sg7
S'h2'
p1881
sa(dp1882
g7
S'h3'
p1883
sa(dp1884
g7
S'h4'
p1885
sa(dp1886
g7
S'h5'
p1887
sa(dp1888
g7
S'h6'
p1889
sa(dp1890
g5
S'black_pawn'
p1891
sg7
S'h7'
p1892
sa(dp1893
g7
S'h8'
p1894
saaVSo I take back. This is in fact a mistake. Black could have kept his deficit to managable proportions by just giving up a pawn and exchanging on g7 and then castling.
p1895
aa(lp1896
S'19... Qd3'
p1897
a(lp1898
(dp1899
g5
S'white_rook'
p1900
sg7
S'a1'
p1901
sa(dp1902
g5
S'white_pawn'
p1903
sg7
S'a2'
p1904
sa(dp1905
g7
S'a3'
p1906
sa(dp1907
g7
S'a4'
p1908
sa(dp1909
g7
S'a5'
p1910
sa(dp1911
g5
S'black_pawn'
p1912
sg7
S'a6'
p1913
sa(dp1914
g7
S'a7'
p1915
sa(dp1916
g7
S'a8'
p1917
sa(dp1918
g7
S'b1'
p1919
sa(dp1920
g5
S'white_pawn'
p1921
sg7
S'b2'
p1922
sa(dp1923
g7
S'b3'
p1924
sa(dp1925
g5
S'black_pawn'
p1926
sg7
S'b4'
p1927
sa(dp1928
g7
S'b5'
p1929
sa(dp1930
g7
S'b6'
p1931
sa(dp1932
g7
S'b7'
p1933
sa(dp1934
g5
S'black_rook'
p1935
sg7
S'b8'
p1936
sa(dp1937
g7
S'c1'
p1938
sa(dp1939
g7
S'c2'
p1940
sa(dp1941
g7
S'c3'
p1942
sa(dp1943
g7
S'c4'
p1944
sa(dp1945
g5
S'white_bishop'
p1946
sg7
S'c5'
p1947
sa(dp1948
g7
S'c6'
p1949
sa(dp1950
g5
S'black_pawn'
p1951
sg7
S'c7'
p1952
sa(dp1953
g5
S'black_bishop'
p1954
sg7
S'c8'
p1955
sa(dp1956
g5
S'white_knight'
p1957
sg7
S'd1'
p1958
sa(dp1959
g7
S'd2'
p1960
sa(dp1961
g5
S'black_queen'
p1962
sg7
S'd3'
p1963
sa(dp1964
g7
S'd4'
p1965
sa(dp1966
g7
S'd5'
p1967
sa(dp1968
g7
S'd6'
p1969
sa(dp1970
g7
S'd7'
p1971
sa(dp1972
g7
S'd8'
p1973
sa(dp1974
g5
S'white_king'
p1975
sg7
S'e1'
p1976
sa(dp1977
g7
S'e2'
p1978
sa(dp1979
g7
S'e3'
p1980
sa(dp1981
g5
S'white_pawn'
p1982
sg7
S'e4'
p1983
sa(dp1984
g7
S'e5'
p1985
sa(dp1986
g7
S'e6'
p1987
sa(dp1988
g7
S'e7'
p1989
sa(dp1990
g5
S'black_rook'
p1991
sg7
S'e8'
p1992
sa(dp1993
g7
S'f1'
p1994
sa(dp1995
g7
S'f2'
p1996
sa(dp1997
g7
S'f3'
p1998
sa(dp1999
g5
S'white_queen'
p2000
sg7
S'f4'
p2001
sa(dp2002
g7
S'f5'
p2003
sa(dp2004
g7
S'f6'
p2005
sa(dp2006
g7
S'f7'
p2007
sa(dp2008
g7
S'f8'
p2009
sa(dp2010
g7
S'g1'
p2011
sa(dp2012
g5
S'white_pawn'
p2013
sg7
S'g2'
p2014
sa(dp2015
g7
S'g3'
p2016
sa(dp2017
g7
S'g4'
p2018
sa(dp2019
g7
S'g5'
p2020
sa(dp2021
g5
S'black_pawn'
p2022
sg7
S'g6'
p2023
sa(dp2024
g5
S'black_bishop'
p2025
sg7
S'g7'
p2026
sa(dp2027
g5
S'black_king'
p2028
sg7
S'g8'
p2029
sa(dp2030
g5
S'white_rook'
p2031
sg7
S'h1'
p2032
sa(dp2033
g5
S'white_pawn'
p2034
sg7
S'h2'
p2035
sa(dp2036
g7
S'h3'
p2037
sa(dp2038
g7
S'h4'
p2039
sa(dp2040
g7
S'h5'
p2041
sa(dp2042
g7
S'h6'
p2043
sa(dp2044
g5
S'black_pawn'
p2045
sg7
S'h7'
p2046
sa(dp2047
g7
S'h8'
p2048
saaVThreatening to take the e pawn and stopping me from castling. Fritz prefers 19....Rb5 or 19....Qd5
p2049
aa(lp2050
S'20. Nf2'
p2051
a(lp2052
(dp2053
g5
S'white_rook'
p2054
sg7
S'a1'
p2055
sa(dp2056
g5
S'white_pawn'
p2057
sg7
S'a2'
p2058
sa(dp2059
g7
S'a3'
p2060
sa(dp2061
g7
S'a4'
p2062
sa(dp2063
g7
S'a5'
p2064
sa(dp2065
g5
S'black_pawn'
p2066
sg7
S'a6'
p2067
sa(dp2068
g7
S'a7'
p2069
sa(dp2070
g7
S'a8'
p2071
sa(dp2072
g7
S'b1'
p2073
sa(dp2074
g5
S'white_pawn'
p2075
sg7
S'b2'
p2076
sa(dp2077
g7
S'b3'
p2078
sa(dp2079
g5
S'black_pawn'
p2080
sg7
S'b4'
p2081
sa(dp2082
g7
S'b5'
p2083
sa(dp2084
g7
S'b6'
p2085
sa(dp2086
g7
S'b7'
p2087
sa(dp2088
g5
S'black_rook'
p2089
sg7
S'b8'
p2090
sa(dp2091
g7
S'c1'
p2092
sa(dp2093
g7
S'c2'
p2094
sa(dp2095
g7
S'c3'
p2096
sa(dp2097
g7
S'c4'
p2098
sa(dp2099
g5
S'white_bishop'
p2100
sg7
S'c5'
p2101
sa(dp2102
g7
S'c6'
p2103
sa(dp2104
g5
S'black_pawn'
p2105
sg7
S'c7'
p2106
sa(dp2107
g5
S'black_bishop'
p2108
sg7
S'c8'
p2109
sa(dp2110
g7
S'd1'
p2111
sa(dp2112
g7
S'd2'
p2113
sa(dp2114
g5
S'black_queen'
p2115
sg7
S'd3'
p2116
sa(dp2117
g7
S'd4'
p2118
sa(dp2119
g7
S'd5'
p2120
sa(dp2121
g7
S'd6'
p2122
sa(dp2123
g7
S'd7'
p2124
sa(dp2125
g7
S'd8'
p2126
sa(dp2127
g5
S'white_king'
p2128
sg7
S'e1'
p2129
sa(dp2130
g7
S'e2'
p2131
sa(dp2132
g7
S'e3'
p2133
sa(dp2134
g5
S'white_pawn'
p2135
sg7
S'e4'
p2136
sa(dp2137
g7
S'e5'
p2138
sa(dp2139
g7
S'e6'
p2140
sa(dp2141
g7
S'e7'
p2142
sa(dp2143
g5
S'black_rook'
p2144
sg7
S'e8'
p2145
sa(dp2146
g7
S'f1'
p2147
sa(dp2148
g5
S'white_knight'
p2149
sg7
S'f2'
p2150
sa(dp2151
g7
S'f3'
p2152
sa(dp2153
g5
S'white_queen'
p2154
sg7
S'f4'
p2155
sa(dp2156
g7
S'f5'
p2157
sa(dp2158
g7
S'f6'
p2159
sa(dp2160
g7
S'f7'
p2161
sa(dp2162
g7
S'f8'
p2163
sa(dp2164
g7
S'g1'
p2165
sa(dp2166
g5
S'white_pawn'
p2167
sg7
S'g2'
p2168
sa(dp2169
g7
S'g3'
p2170
sa(dp2171
g7
S'g4'
p2172
sa(dp2173
g7
S'g5'
p2174
sa(dp2175
g5
S'black_pawn'
p2176
sg7
S'g6'
p2177
sa(dp2178
g5
S'black_bishop'
p2179
sg7
S'g7'
p2180
sa(dp2181
g5
S'black_king'
p2182
sg7
S'g8'
p2183
sa(dp2184
g5
S'white_rook'
p2185
sg7
S'h1'
p2186
sa(dp2187
g5
S'white_pawn'
p2188
sg7
S'h2'
p2189
sa(dp2190
g7
S'h3'
p2191
sa(dp2192
g7
S'h4'
p2193
sa(dp2194
g7
S'h5'
p2195
sa(dp2196
g7
S'h6'
p2197
sa(dp2198
g5
S'black_pawn'
p2199
sg7
S'h7'
p2200
sa(dp2201
g7
S'h8'
p2202
saaVProtecting e4 and attacking the queen. What would you do as black now?
p2203
aa(lp2204
S'20... Qb5'
p2205
a(lp2206
(dp2207
g5
S'white_rook'
p2208
sg7
S'a1'
p2209
sa(dp2210
g5
S'white_pawn'
p2211
sg7
S'a2'
p2212
sa(dp2213
g7
S'a3'
p2214
sa(dp2215
g7
S'a4'
p2216
sa(dp2217
g7
S'a5'
p2218
sa(dp2219
g5
S'black_pawn'
p2220
sg7
S'a6'
p2221
sa(dp2222
g7
S'a7'
p2223
sa(dp2224
g7
S'a8'
p2225
sa(dp2226
g7
S'b1'
p2227
sa(dp2228
g5
S'white_pawn'
p2229
sg7
S'b2'
p2230
sa(dp2231
g7
S'b3'
p2232
sa(dp2233
g5
S'black_pawn'
p2234
sg7
S'b4'
p2235
sa(dp2236
g5
S'black_queen'
p2237
sg7
S'b5'
p2238
sa(dp2239
g7
S'b6'
p2240
sa(dp2241
g7
S'b7'
p2242
sa(dp2243
g5
S'black_rook'
p2244
sg7
S'b8'
p2245
sa(dp2246
g7
S'c1'
p2247
sa(dp2248
g7
S'c2'
p2249
sa(dp2250
g7
S'c3'
p2251
sa(dp2252
g7
S'c4'
p2253
sa(dp2254
g5
S'white_bishop'
p2255
sg7
S'c5'
p2256
sa(dp2257
g7
S'c6'
p2258
sa(dp2259
g5
S'black_pawn'
p2260
sg7
S'c7'
p2261
sa(dp2262
g5
S'black_bishop'
p2263
sg7
S'c8'
p2264
sa(dp2265
g7
S'd1'
p2266
sa(dp2267
g7
S'd2'
p2268
sa(dp2269
g7
S'd3'
p2270
sa(dp2271
g7
S'd4'
p2272
sa(dp2273
g7
S'd5'
p2274
sa(dp2275
g7
S'd6'
p2276
sa(dp2277
g7
S'd7'
p2278
sa(dp2279
g7
S'd8'
p2280
sa(dp2281
g5
S'white_king'
p2282
sg7
S'e1'
p2283
sa(dp2284
g7
S'e2'
p2285
sa(dp2286
g7
S'e3'
p2287
sa(dp2288
g5
S'white_pawn'
p2289
sg7
S'e4'
p2290
sa(dp2291
g7
S'e5'
p2292
sa(dp2293
g7
S'e6'
p2294
sa(dp2295
g7
S'e7'
p2296
sa(dp2297
g5
S'black_rook'
p2298
sg7
S'e8'
p2299
sa(dp2300
g7
S'f1'
p2301
sa(dp2302
g5
S'white_knight'
p2303
sg7
S'f2'
p2304
sa(dp2305
g7
S'f3'
p2306
sa(dp2307
g5
S'white_queen'
p2308
sg7
S'f4'
p2309
sa(dp2310
g7
S'f5'
p2311
sa(dp2312
g7
S'f6'
p2313
sa(dp2314
g7
S'f7'
p2315
sa(dp2316
g7
S'f8'
p2317
sa(dp2318
g7
S'g1'
p2319
sa(dp2320
g5
S'white_pawn'
p2321
sg7
S'g2'
p2322
sa(dp2323
g7
S'g3'
p2324
sa(dp2325
g7
S'g4'
p2326
sa(dp2327
g7
S'g5'
p2328
sa(dp2329
g5
S'black_pawn'
p2330
sg7
S'g6'
p2331
sa(dp2332
g5
S'black_bishop'
p2333
sg7
S'g7'
p2334
sa(dp2335
g5
S'black_king'
p2336
sg7
S'g8'
p2337
sa(dp2338
g5
S'white_rook'
p2339
sg7
S'h1'
p2340
sa(dp2341
g5
S'white_pawn'
p2342
sg7
S'h2'
p2343
sa(dp2344
g7
S'h3'
p2345
sa(dp2346
g7
S'h4'
p2347
sa(dp2348
g7
S'h5'
p2349
sa(dp2350
g7
S'h6'
p2351
sa(dp2352
g5
S'black_pawn'
p2353
sg7
S'h7'
p2354
sa(dp2355
g7
S'h8'
p2356
saaVAgain Fritz prefers 20....Bc3+! 21. bxc3 Qxc3+ 22. Ke2 Be6 and black has a raging attack.
p2357
aa(lp2358
S'21. Qxc7'
p2359
a(lp2360
(dp2361
g5
S'white_rook'
p2362
sg7
S'a1'
p2363
sa(dp2364
g5
S'white_pawn'
p2365
sg7
S'a2'
p2366
sa(dp2367
g7
S'a3'
p2368
sa(dp2369
g7
S'a4'
p2370
sa(dp2371
g7
S'a5'
p2372
sa(dp2373
g5
S'black_pawn'
p2374
sg7
S'a6'
p2375
sa(dp2376
g7
S'a7'
p2377
sa(dp2378
g7
S'a8'
p2379
sa(dp2380
g7
S'b1'
p2381
sa(dp2382
g5
S'white_pawn'
p2383
sg7
S'b2'
p2384
sa(dp2385
g7
S'b3'
p2386
sa(dp2387
g5
S'black_pawn'
p2388
sg7
S'b4'
p2389
sa(dp2390
g5
S'black_queen'
p2391
sg7
S'b5'
p2392
sa(dp2393
g7
S'b6'
p2394
sa(dp2395
g7
S'b7'
p2396
sa(dp2397
g5
S'black_rook'
p2398
sg7
S'b8'
p2399
sa(dp2400
g7
S'c1'
p2401
sa(dp2402
g7
S'c2'
p2403
sa(dp2404
g7
S'c3'
p2405
sa(dp2406
g7
S'c4'
p2407
sa(dp2408
g5
S'white_bishop'
p2409
sg7
S'c5'
p2410
sa(dp2411
g7
S'c6'
p2412
sa(dp2413
g5
S'white_queen'
p2414
sg7
S'c7'
p2415
sa(dp2416
g5
S'black_bishop'
p2417
sg7
S'c8'
p2418
sa(dp2419
g7
S'd1'
p2420
sa(dp2421
g7
S'd2'
p2422
sa(dp2423
g7
S'd3'
p2424
sa(dp2425
g7
S'd4'
p2426
sa(dp2427
g7
S'd5'
p2428
sa(dp2429
g7
S'd6'
p2430
sa(dp2431
g7
S'd7'
p2432
sa(dp2433
g7
S'd8'
p2434
sa(dp2435
g5
S'white_king'
p2436
sg7
S'e1'
p2437
sa(dp2438
g7
S'e2'
p2439
sa(dp2440
g7
S'e3'
p2441
sa(dp2442
g5
S'white_pawn'
p2443
sg7
S'e4'
p2444
sa(dp2445
g7
S'e5'
p2446
sa(dp2447
g7
S'e6'
p2448
sa(dp2449
g7
S'e7'
p2450
sa(dp2451
g5
S'black_rook'
p2452
sg7
S'e8'
p2453
sa(dp2454
g7
S'f1'
p2455
sa(dp2456
g5
S'white_knight'
p2457
sg7
S'f2'
p2458
sa(dp2459
g7
S'f3'
p2460
sa(dp2461
g7
S'f4'
p2462
sa(dp2463
g7
S'f5'
p2464
sa(dp2465
g7
S'f6'
p2466
sa(dp2467
g7
S'f7'
p2468
sa(dp2469
g7
S'f8'
p2470
sa(dp2471
g7
S'g1'
p2472
sa(dp2473
g5
S'white_pawn'
p2474
sg7
S'g2'
p2475
sa(dp2476
g7
S'g3'
p2477
sa(dp2478
g7
S'g4'
p2479
sa(dp2480
g7
S'g5'
p2481
sa(dp2482
g5
S'black_pawn'
p2483
sg7
S'g6'
p2484
sa(dp2485
g5
S'black_bishop'
p2486
sg7
S'g7'
p2487
sa(dp2488
g5
S'black_king'
p2489
sg7
S'g8'
p2490
sa(dp2491
g5
S'white_rook'
p2492
sg7
S'h1'
p2493
sa(dp2494
g5
S'white_pawn'
p2495
sg7
S'h2'
p2496
sa(dp2497
g7
S'h3'
p2498
sa(dp2499
g7
S'h4'
p2500
sa(dp2501
g7
S'h5'
p2502
sa(dp2503
g7
S'h6'
p2504
sa(dp2505
g5
S'black_pawn'
p2506
sg7
S'h7'
p2507
sa(dp2508
g7
S'h8'
p2509
saaVAnd this is yet another mistake! Best for white according to Fritz is 21. Qe3 Bxb2 22. Qb3+ Be6 23. Qxb2 Qxc5 24. 0-0 and white is still in the game, a pawn down. Fritz also prefers 22. Qc1
p2510
aa(lp2511
S'21... Rb7'
p2512
a(lp2513
(dp2514
g5
S'white_rook'
p2515
sg7
S'a1'
p2516
sa(dp2517
g5
S'white_pawn'
p2518
sg7
S'a2'
p2519
sa(dp2520
g7
S'a3'
p2521
sa(dp2522
g7
S'a4'
p2523
sa(dp2524
g7
S'a5'
p2525
sa(dp2526
g5
S'black_pawn'
p2527
sg7
S'a6'
p2528
sa(dp2529
g7
S'a7'
p2530
sa(dp2531
g7
S'a8'
p2532
sa(dp2533
g7
S'b1'
p2534
sa(dp2535
g5
S'white_pawn'
p2536
sg7
S'b2'
p2537
sa(dp2538
g7
S'b3'
p2539
sa(dp2540
g5
S'black_pawn'
p2541
sg7
S'b4'
p2542
sa(dp2543
g5
S'black_queen'
p2544
sg7
S'b5'
p2545
sa(dp2546
g7
S'b6'
p2547
sa(dp2548
g5
S'black_rook'
p2549
sg7
S'b7'
p2550
sa(dp2551
g7
S'b8'
p2552
sa(dp2553
g7
S'c1'
p2554
sa(dp2555
g7
S'c2'
p2556
sa(dp2557
g7
S'c3'
p2558
sa(dp2559
g7
S'c4'
p2560
sa(dp2561
g5
S'white_bishop'
p2562
sg7
S'c5'
p2563
sa(dp2564
g7
S'c6'
p2565
sa(dp2566
g5
S'white_queen'
p2567
sg7
S'c7'
p2568
sa(dp2569
g5
S'black_bishop'
p2570
sg7
S'c8'
p2571
sa(dp2572
g7
S'd1'
p2573
sa(dp2574
g7
S'd2'
p2575
sa(dp2576
g7
S'd3'
p2577
sa(dp2578
g7
S'd4'
p2579
sa(dp2580
g7
S'd5'
p2581
sa(dp2582
g7
S'd6'
p2583
sa(dp2584
g7
S'd7'
p2585
sa(dp2586
g7
S'd8'
p2587
sa(dp2588
g5
S'white_king'
p2589
sg7
S'e1'
p2590
sa(dp2591
g7
S'e2'
p2592
sa(dp2593
g7
S'e3'
p2594
sa(dp2595
g5
S'white_pawn'
p2596
sg7
S'e4'
p2597
sa(dp2598
g7
S'e5'
p2599
sa(dp2600
g7
S'e6'
p2601
sa(dp2602
g7
S'e7'
p2603
sa(dp2604
g5
S'black_rook'
p2605
sg7
S'e8'
p2606
sa(dp2607
g7
S'f1'
p2608
sa(dp2609
g5
S'white_knight'
p2610
sg7
S'f2'
p2611
sa(dp2612
g7
S'f3'
p2613
sa(dp2614
g7
S'f4'
p2615
sa(dp2616
g7
S'f5'
p2617
sa(dp2618
g7
S'f6'
p2619
sa(dp2620
g7
S'f7'
p2621
sa(dp2622
g7
S'f8'
p2623
sa(dp2624
g7
S'g1'
p2625
sa(dp2626
g5
S'white_pawn'
p2627
sg7
S'g2'
p2628
sa(dp2629
g7
S'g3'
p2630
sa(dp2631
g7
S'g4'
p2632
sa(dp2633
g7
S'g5'
p2634
sa(dp2635
g5
S'black_pawn'
p2636
sg7
S'g6'
p2637
sa(dp2638
g5
S'black_bishop'
p2639
sg7
S'g7'
p2640
sa(dp2641
g5
S'black_king'
p2642
sg7
S'g8'
p2643
sa(dp2644
g5
S'white_rook'
p2645
sg7
S'h1'
p2646
sa(dp2647
g5
S'white_pawn'
p2648
sg7
S'h2'
p2649
sa(dp2650
g7
S'h3'
p2651
sa(dp2652
g7
S'h4'
p2653
sa(dp2654
g7
S'h5'
p2655
sa(dp2656
g7
S'h6'
p2657
sa(dp2658
g5
S'black_pawn'
p2659
sg7
S'h7'
p2660
sa(dp2661
g7
S'h8'
p2662
saaVHe attacks my queen.
p2663
aa(lp2664
S'22. Qd6'
p2665
a(lp2666
(dp2667
g5
S'white_rook'
p2668
sg7
S'a1'
p2669
sa(dp2670
g5
S'white_pawn'
p2671
sg7
S'a2'
p2672
sa(dp2673
g7
S'a3'
p2674
sa(dp2675
g7
S'a4'
p2676
sa(dp2677
g7
S'a5'
p2678
sa(dp2679
g5
S'black_pawn'
p2680
sg7
S'a6'
p2681
sa(dp2682
g7
S'a7'
p2683
sa(dp2684
g7
S'a8'
p2685
sa(dp2686
g7
S'b1'
p2687
sa(dp2688
g5
S'white_pawn'
p2689
sg7
S'b2'
p2690
sa(dp2691
g7
S'b3'
p2692
sa(dp2693
g5
S'black_pawn'
p2694
sg7
S'b4'
p2695
sa(dp2696
g5
S'black_queen'
p2697
sg7
S'b5'
p2698
sa(dp2699
g7
S'b6'
p2700
sa(dp2701
g5
S'black_rook'
p2702
sg7
S'b7'
p2703
sa(dp2704
g7
S'b8'
p2705
sa(dp2706
g7
S'c1'
p2707
sa(dp2708
g7
S'c2'
p2709
sa(dp2710
g7
S'c3'
p2711
sa(dp2712
g7
S'c4'
p2713
sa(dp2714
g5
S'white_bishop'
p2715
sg7
S'c5'
p2716
sa(dp2717
g7
S'c6'
p2718
sa(dp2719
g7
S'c7'
p2720
sa(dp2721
g5
S'black_bishop'
p2722
sg7
S'c8'
p2723
sa(dp2724
g7
S'd1'
p2725
sa(dp2726
g7
S'd2'
p2727
sa(dp2728
g7
S'd3'
p2729
sa(dp2730
g7
S'd4'
p2731
sa(dp2732
g7
S'd5'
p2733
sa(dp2734
g5
S'white_queen'
p2735
sg7
S'd6'
p2736
sa(dp2737
g7
S'd7'
p2738
sa(dp2739
g7
S'd8'
p2740
sa(dp2741
g5
S'white_king'
p2742
sg7
S'e1'
p2743
sa(dp2744
g7
S'e2'
p2745
sa(dp2746
g7
S'e3'
p2747
sa(dp2748
g5
S'white_pawn'
p2749
sg7
S'e4'
p2750
sa(dp2751
g7
S'e5'
p2752
sa(dp2753
g7
S'e6'
p2754
sa(dp2755
g7
S'e7'
p2756
sa(dp2757
g5
S'black_rook'
p2758
sg7
S'e8'
p2759
sa(dp2760
g7
S'f1'
p2761
sa(dp2762
g5
S'white_knight'
p2763
sg7
S'f2'
p2764
sa(dp2765
g7
S'f3'
p2766
sa(dp2767
g7
S'f4'
p2768
sa(dp2769
g7
S'f5'
p2770
sa(dp2771
g7
S'f6'
p2772
sa(dp2773
g7
S'f7'
p2774
sa(dp2775
g7
S'f8'
p2776
sa(dp2777
g7
S'g1'
p2778
sa(dp2779
g5
S'white_pawn'
p2780
sg7
S'g2'
p2781
sa(dp2782
g7
S'g3'
p2783
sa(dp2784
g7
S'g4'
p2785
sa(dp2786
g7
S'g5'
p2787
sa(dp2788
g5
S'black_pawn'
p2789
sg7
S'g6'
p2790
sa(dp2791
g5
S'black_bishop'
p2792
sg7
S'g7'
p2793
sa(dp2794
g5
S'black_king'
p2795
sg7
S'g8'
p2796
sa(dp2797
g5
S'white_rook'
p2798
sg7
S'h1'
p2799
sa(dp2800
g5
S'white_pawn'
p2801
sg7
S'h2'
p2802
sa(dp2803
g7
S'h3'
p2804
sa(dp2805
g7
S'h4'
p2806
sa(dp2807
g7
S'h5'
p2808
sa(dp2809
g7
S'h6'
p2810
sa(dp2811
g5
S'black_pawn'
p2812
sg7
S'h7'
p2813
sa(dp2814
g7
S'h8'
p2815
saaVI try to stay protecting my bishop, but....
p2816
aa(lp2817
S'22... Bf8'
p2818
a(lp2819
(dp2820
g5
S'white_rook'
p2821
sg7
S'a1'
p2822
sa(dp2823
g5
S'white_pawn'
p2824
sg7
S'a2'
p2825
sa(dp2826
g7
S'a3'
p2827
sa(dp2828
g7
S'a4'
p2829
sa(dp2830
g7
S'a5'
p2831
sa(dp2832
g5
S'black_pawn'
p2833
sg7
S'a6'
p2834
sa(dp2835
g7
S'a7'
p2836
sa(dp2837
g7
S'a8'
p2838
sa(dp2839
g7
S'b1'
p2840
sa(dp2841
g5
S'white_pawn'
p2842
sg7
S'b2'
p2843
sa(dp2844
g7
S'b3'
p2845
sa(dp2846
g5
S'black_pawn'
p2847
sg7
S'b4'
p2848
sa(dp2849
g5
S'black_queen'
p2850
sg7
S'b5'
p2851
sa(dp2852
g7
S'b6'
p2853
sa(dp2854
g5
S'black_rook'
p2855
sg7
S'b7'
p2856
sa(dp2857
g7
S'b8'
p2858
sa(dp2859
g7
S'c1'
p2860
sa(dp2861
g7
S'c2'
p2862
sa(dp2863
g7
S'c3'
p2864
sa(dp2865
g7
S'c4'
p2866
sa(dp2867
g5
S'white_bishop'
p2868
sg7
S'c5'
p2869
sa(dp2870
g7
S'c6'
p2871
sa(dp2872
g7
S'c7'
p2873
sa(dp2874
g5
S'black_bishop'
p2875
sg7
S'c8'
p2876
sa(dp2877
g7
S'd1'
p2878
sa(dp2879
g7
S'd2'
p2880
sa(dp2881
g7
S'd3'
p2882
sa(dp2883
g7
S'd4'
p2884
sa(dp2885
g7
S'd5'
p2886
sa(dp2887
g5
S'white_queen'
p2888
sg7
S'd6'
p2889
sa(dp2890
g7
S'd7'
p2891
sa(dp2892
g7
S'd8'
p2893
sa(dp2894
g5
S'white_king'
p2895
sg7
S'e1'
p2896
sa(dp2897
g7
S'e2'
p2898
sa(dp2899
g7
S'e3'
p2900
sa(dp2901
g5
S'white_pawn'
p2902
sg7
S'e4'
p2903
sa(dp2904
g7
S'e5'
p2905
sa(dp2906
g7
S'e6'
p2907
sa(dp2908
g7
S'e7'
p2909
sa(dp2910
g5
S'black_rook'
p2911
sg7
S'e8'
p2912
sa(dp2913
g7
S'f1'
p2914
sa(dp2915
g5
S'white_knight'
p2916
sg7
S'f2'
p2917
sa(dp2918
g7
S'f3'
p2919
sa(dp2920
g7
S'f4'
p2921
sa(dp2922
g7
S'f5'
p2923
sa(dp2924
g7
S'f6'
p2925
sa(dp2926
g7
S'f7'
p2927
sa(dp2928
g5
S'black_bishop'
p2929
sg7
S'f8'
p2930
sa(dp2931
g7
S'g1'
p2932
sa(dp2933
g5
S'white_pawn'
p2934
sg7
S'g2'
p2935
sa(dp2936
g7
S'g3'
p2937
sa(dp2938
g7
S'g4'
p2939
sa(dp2940
g7
S'g5'
p2941
sa(dp2942
g5
S'black_pawn'
p2943
sg7
S'g6'
p2944
sa(dp2945
g7
S'g7'
p2946
sa(dp2947
g5
S'black_king'
p2948
sg7
S'g8'
p2949
sa(dp2950
g5
S'white_rook'
p2951
sg7
S'h1'
p2952
sa(dp2953
g5
S'white_pawn'
p2954
sg7
S'h2'
p2955
sa(dp2956
g7
S'h3'
p2957
sa(dp2958
g7
S'h4'
p2959
sa(dp2960
g7
S'h5'
p2961
sa(dp2962
g7
S'h6'
p2963
sa(dp2964
g5
S'black_pawn'
p2965
sg7
S'h7'
p2966
sa(dp2967
g7
S'h8'
p2968
saaVAnd white has to give up the bishop. I would normally resign here, but at 25 minutes each, and no increment, who knows what may happen? I played it out quickly, until I was mated eventually. I the last round against Jacek Bylica I evenutally lost, trying too hard to win. Thanks for reading, please leave a comment or two and rate this annotation on the star system. Until next time dear reader!
p2969
aa.