(lp0
(lp1
S'21. Nc4'
p2
a(lp3
(dp4
S'piece'
p5
S'white_rook'
p6
sS'location'
p7
S'a1'
p8
sa(dp9
g5
S'white_pawn'
p10
sg7
S'a2'
p11
sa(dp12
g7
S'a3'
p13
sa(dp14
g7
S'a4'
p15
sa(dp16
g7
S'a5'
p17
sa(dp18
g5
S'black_pawn'
p19
sg7
S'a6'
p20
sa(dp21
g7
S'a7'
p22
sa(dp23
g7
S'a8'
p24
sa(dp25
g7
S'b1'
p26
sa(dp27
g7
S'b2'
p28
sa(dp29
g5
S'white_pawn'
p30
sg7
S'b3'
p31
sa(dp32
g7
S'b4'
p33
sa(dp34
g7
S'b5'
p35
sa(dp36
g7
S'b6'
p37
sa(dp38
g5
S'black_pawn'
p39
sg7
S'b7'
p40
sa(dp41
g7
S'b8'
p42
sa(dp43
g7
S'c1'
p44
sa(dp45
g7
S'c2'
p46
sa(dp47
g7
S'c3'
p48
sa(dp49
g5
S'white_knight'
p50
sg7
S'c4'
p51
sa(dp52
g7
S'c5'
p53
sa(dp54
g7
S'c6'
p55
sa(dp56
g7
S'c7'
p57
sa(dp58
g7
S'c8'
p59
sa(dp60
g7
S'd1'
p61
sa(dp62
g5
S'white_pawn'
p63
sg7
S'd2'
p64
sa(dp65
g7
S'd3'
p66
sa(dp67
g5
S'black_queen'
p68
sg7
S'd4'
p69
sa(dp70
g7
S'd5'
p71
sa(dp72
g5
S'white_pawn'
p73
sg7
S'd6'
p74
sa(dp75
g5
S'black_rook'
p76
sg7
S'd7'
p77
sa(dp78
g7
S'd8'
p79
sa(dp80
g7
S'e1'
p81
sa(dp82
g7
S'e2'
p83
sa(dp84
g7
S'e3'
p85
sa(dp86
g7
S'e4'
p87
sa(dp88
g5
S'black_pawn'
p89
sg7
S'e5'
p90
sa(dp91
g7
S'e6'
p92
sa(dp93
g7
S'e7'
p94
sa(dp95
g5
S'black_king'
p96
sg7
S'e8'
p97
sa(dp98
g5
S'white_rook'
p99
sg7
S'f1'
p100
sa(dp101
g5
S'white_pawn'
p102
sg7
S'f2'
p103
sa(dp104
g5
S'white_queen'
p105
sg7
S'f3'
p106
sa(dp107
g7
S'f4'
p108
sa(dp109
g7
S'f5'
p110
sa(dp111
g5
S'black_pawn'
p112
sg7
S'f6'
p113
sa(dp114
g7
S'f7'
p115
sa(dp116
g7
S'f8'
p117
sa(dp118
g5
S'white_king'
p119
sg7
S'g1'
p120
sa(dp121
g5
S'white_pawn'
p122
sg7
S'g2'
p123
sa(dp124
g7
S'g3'
p125
sa(dp126
g7
S'g4'
p127
sa(dp128
g7
S'g5'
p129
sa(dp130
g7
S'g6'
p131
sa(dp132
g5
S'black_pawn'
p133
sg7
S'g7'
p134
sa(dp135
g5
S'black_knight'
p136
sg7
S'g8'
p137
sa(dp138
g7
S'h1'
p139
sa(dp140
g5
S'white_pawn'
p141
sg7
S'h2'
p142
sa(dp143
g7
S'h3'
p144
sa(dp145
g7
S'h4'
p146
sa(dp147
g7
S'h5'
p148
sa(dp149
g7
S'h6'
p150
sa(dp151
g5
S'black_pawn'
p152
sg7
S'h7'
p153
sa(dp154
g5
S'black_rook'
p155
sg7
S'h8'
p156
saaVHis knight protects d6.
p157
aa(lp158
S'21... Nh6'
p159
a(lp160
(dp161
g5
S'white_rook'
p162
sg7
S'a1'
p163
sa(dp164
g5
S'white_pawn'
p165
sg7
S'a2'
p166
sa(dp167
g7
S'a3'
p168
sa(dp169
g7
S'a4'
p170
sa(dp171
g7
S'a5'
p172
sa(dp173
g5
S'black_pawn'
p174
sg7
S'a6'
p175
sa(dp176
g7
S'a7'
p177
sa(dp178
g7
S'a8'
p179
sa(dp180
g7
S'b1'
p181
sa(dp182
g7
S'b2'
p183
sa(dp184
g5
S'white_pawn'
p185
sg7
S'b3'
p186
sa(dp187
g7
S'b4'
p188
sa(dp189
g7
S'b5'
p190
sa(dp191
g7
S'b6'
p192
sa(dp193
g5
S'black_pawn'
p194
sg7
S'b7'
p195
sa(dp196
g7
S'b8'
p197
sa(dp198
g7
S'c1'
p199
sa(dp200
g7
S'c2'
p201
sa(dp202
g7
S'c3'
p203
sa(dp204
g5
S'white_knight'
p205
sg7
S'c4'
p206
sa(dp207
g7
S'c5'
p208
sa(dp209
g7
S'c6'
p210
sa(dp211
g7
S'c7'
p212
sa(dp213
g7
S'c8'
p214
sa(dp215
g7
S'd1'
p216
sa(dp217
g5
S'white_pawn'
p218
sg7
S'd2'
p219
sa(dp220
g7
S'd3'
p221
sa(dp222
g5
S'black_queen'
p223
sg7
S'd4'
p224
sa(dp225
g7
S'd5'
p226
sa(dp227
g5
S'white_pawn'
p228
sg7
S'd6'
p229
sa(dp230
g5
S'black_rook'
p231
sg7
S'd7'
p232
sa(dp233
g7
S'd8'
p234
sa(dp235
g7
S'e1'
p236
sa(dp237
g7
S'e2'
p238
sa(dp239
g7
S'e3'
p240
sa(dp241
g7
S'e4'
p242
sa(dp243
g5
S'black_pawn'
p244
sg7
S'e5'
p245
sa(dp246
g7
S'e6'
p247
sa(dp248
g7
S'e7'
p249
sa(dp250
g5
S'black_king'
p251
sg7
S'e8'
p252
sa(dp253
g5
S'white_rook'
p254
sg7
S'f1'
p255
sa(dp256
g5
S'white_pawn'
p257
sg7
S'f2'
p258
sa(dp259
g5
S'white_queen'
p260
sg7
S'f3'
p261
sa(dp262
g7
S'f4'
p263
sa(dp264
g7
S'f5'
p265
sa(dp266
g5
S'black_pawn'
p267
sg7
S'f6'
p268
sa(dp269
g7
S'f7'
p270
sa(dp271
g7
S'f8'
p272
sa(dp273
g5
S'white_king'
p274
sg7
S'g1'
p275
sa(dp276
g5
S'white_pawn'
p277
sg7
S'g2'
p278
sa(dp279
g7
S'g3'
p280
sa(dp281
g7
S'g4'
p282
sa(dp283
g7
S'g5'
p284
sa(dp285
g7
S'g6'
p286
sa(dp287
g5
S'black_pawn'
p288
sg7
S'g7'
p289
sa(dp290
g7
S'g8'
p291
sa(dp292
g7
S'h1'
p293
sa(dp294
g5
S'white_pawn'
p295
sg7
S'h2'
p296
sa(dp297
g7
S'h3'
p298
sa(dp299
g7
S'h4'
p300
sa(dp301
g7
S'h5'
p302
sa(dp303
g5
S'black_knight'
p304
sg7
S'h6'
p305
sa(dp306
g5
S'black_pawn'
p307
sg7
S'h7'
p308
sa(dp309
g5
S'black_rook'
p310
sg7
S'h8'
p311
saaVPreparing to castle. I can win the d6 pawn either by Nf7 at some stage or b7-b5 driving away his knight protecting it. Black has at least equalised. 
p312
aa(lp313
S'22. Qe3'
p314
a(lp315
(dp316
g5
S'white_rook'
p317
sg7
S'a1'
p318
sa(dp319
g5
S'white_pawn'
p320
sg7
S'a2'
p321
sa(dp322
g7
S'a3'
p323
sa(dp324
g7
S'a4'
p325
sa(dp326
g7
S'a5'
p327
sa(dp328
g5
S'black_pawn'
p329
sg7
S'a6'
p330
sa(dp331
g7
S'a7'
p332
sa(dp333
g7
S'a8'
p334
sa(dp335
g7
S'b1'
p336
sa(dp337
g7
S'b2'
p338
sa(dp339
g5
S'white_pawn'
p340
sg7
S'b3'
p341
sa(dp342
g7
S'b4'
p343
sa(dp344
g7
S'b5'
p345
sa(dp346
g7
S'b6'
p347
sa(dp348
g5
S'black_pawn'
p349
sg7
S'b7'
p350
sa(dp351
g7
S'b8'
p352
sa(dp353
g7
S'c1'
p354
sa(dp355
g7
S'c2'
p356
sa(dp357
g7
S'c3'
p358
sa(dp359
g5
S'white_knight'
p360
sg7
S'c4'
p361
sa(dp362
g7
S'c5'
p363
sa(dp364
g7
S'c6'
p365
sa(dp366
g7
S'c7'
p367
sa(dp368
g7
S'c8'
p369
sa(dp370
g7
S'd1'
p371
sa(dp372
g5
S'white_pawn'
p373
sg7
S'd2'
p374
sa(dp375
g7
S'd3'
p376
sa(dp377
g5
S'black_queen'
p378
sg7
S'd4'
p379
sa(dp380
g7
S'd5'
p381
sa(dp382
g5
S'white_pawn'
p383
sg7
S'd6'
p384
sa(dp385
g5
S'black_rook'
p386
sg7
S'd7'
p387
sa(dp388
g7
S'd8'
p389
sa(dp390
g7
S'e1'
p391
sa(dp392
g7
S'e2'
p393
sa(dp394
g5
S'white_queen'
p395
sg7
S'e3'
p396
sa(dp397
g7
S'e4'
p398
sa(dp399
g5
S'black_pawn'
p400
sg7
S'e5'
p401
sa(dp402
g7
S'e6'
p403
sa(dp404
g7
S'e7'
p405
sa(dp406
g5
S'black_king'
p407
sg7
S'e8'
p408
sa(dp409
g5
S'white_rook'
p410
sg7
S'f1'
p411
sa(dp412
g5
S'white_pawn'
p413
sg7
S'f2'
p414
sa(dp415
g7
S'f3'
p416
sa(dp417
g7
S'f4'
p418
sa(dp419
g7
S'f5'
p420
sa(dp421
g5
S'black_pawn'
p422
sg7
S'f6'
p423
sa(dp424
g7
S'f7'
p425
sa(dp426
g7
S'f8'
p427
sa(dp428
g5
S'white_king'
p429
sg7
S'g1'
p430
sa(dp431
g5
S'white_pawn'
p432
sg7
S'g2'
p433
sa(dp434
g7
S'g3'
p435
sa(dp436
g7
S'g4'
p437
sa(dp438
g7
S'g5'
p439
sa(dp440
g7
S'g6'
p441
sa(dp442
g5
S'black_pawn'
p443
sg7
S'g7'
p444
sa(dp445
g7
S'g8'
p446
sa(dp447
g7
S'h1'
p448
sa(dp449
g5
S'white_pawn'
p450
sg7
S'h2'
p451
sa(dp452
g7
S'h3'
p453
sa(dp454
g7
S'h4'
p455
sa(dp456
g7
S'h5'
p457
sa(dp458
g5
S'black_knight'
p459
sg7
S'h6'
p460
sa(dp461
g5
S'black_pawn'
p462
sg7
S'h7'
p463
sa(dp464
g5
S'black_rook'
p465
sg7
S'h8'
p466
saaVHe decides to exchange my dominant queen.
p467
aa(lp468
S'22... Nf5'
p469
a(lp470
(dp471
g5
S'white_rook'
p472
sg7
S'a1'
p473
sa(dp474
g5
S'white_pawn'
p475
sg7
S'a2'
p476
sa(dp477
g7
S'a3'
p478
sa(dp479
g7
S'a4'
p480
sa(dp481
g7
S'a5'
p482
sa(dp483
g5
S'black_pawn'
p484
sg7
S'a6'
p485
sa(dp486
g7
S'a7'
p487
sa(dp488
g7
S'a8'
p489
sa(dp490
g7
S'b1'
p491
sa(dp492
g7
S'b2'
p493
sa(dp494
g5
S'white_pawn'
p495
sg7
S'b3'
p496
sa(dp497
g7
S'b4'
p498
sa(dp499
g7
S'b5'
p500
sa(dp501
g7
S'b6'
p502
sa(dp503
g5
S'black_pawn'
p504
sg7
S'b7'
p505
sa(dp506
g7
S'b8'
p507
sa(dp508
g7
S'c1'
p509
sa(dp510
g7
S'c2'
p511
sa(dp512
g7
S'c3'
p513
sa(dp514
g5
S'white_knight'
p515
sg7
S'c4'
p516
sa(dp517
g7
S'c5'
p518
sa(dp519
g7
S'c6'
p520
sa(dp521
g7
S'c7'
p522
sa(dp523
g7
S'c8'
p524
sa(dp525
g7
S'd1'
p526
sa(dp527
g5
S'white_pawn'
p528
sg7
S'd2'
p529
sa(dp530
g7
S'd3'
p531
sa(dp532
g5
S'black_queen'
p533
sg7
S'd4'
p534
sa(dp535
g7
S'd5'
p536
sa(dp537
g5
S'white_pawn'
p538
sg7
S'd6'
p539
sa(dp540
g5
S'black_rook'
p541
sg7
S'd7'
p542
sa(dp543
g7
S'd8'
p544
sa(dp545
g7
S'e1'
p546
sa(dp547
g7
S'e2'
p548
sa(dp549
g5
S'white_queen'
p550
sg7
S'e3'
p551
sa(dp552
g7
S'e4'
p553
sa(dp554
g5
S'black_pawn'
p555
sg7
S'e5'
p556
sa(dp557
g7
S'e6'
p558
sa(dp559
g7
S'e7'
p560
sa(dp561
g5
S'black_king'
p562
sg7
S'e8'
p563
sa(dp564
g5
S'white_rook'
p565
sg7
S'f1'
p566
sa(dp567
g5
S'white_pawn'
p568
sg7
S'f2'
p569
sa(dp570
g7
S'f3'
p571
sa(dp572
g7
S'f4'
p573
sa(dp574
g5
S'black_knight'
p575
sg7
S'f5'
p576
sa(dp577
g5
S'black_pawn'
p578
sg7
S'f6'
p579
sa(dp580
g7
S'f7'
p581
sa(dp582
g7
S'f8'
p583
sa(dp584
g5
S'white_king'
p585
sg7
S'g1'
p586
sa(dp587
g5
S'white_pawn'
p588
sg7
S'g2'
p589
sa(dp590
g7
S'g3'
p591
sa(dp592
g7
S'g4'
p593
sa(dp594
g7
S'g5'
p595
sa(dp596
g7
S'g6'
p597
sa(dp598
g5
S'black_pawn'
p599
sg7
S'g7'
p600
sa(dp601
g7
S'g8'
p602
sa(dp603
g7
S'h1'
p604
sa(dp605
g5
S'white_pawn'
p606
sg7
S'h2'
p607
sa(dp608
g7
S'h3'
p609
sa(dp610
g7
S'h4'
p611
sa(dp612
g7
S'h5'
p613
sa(dp614
g7
S'h6'
p615
sa(dp616
g5
S'black_pawn'
p617
sg7
S'h7'
p618
sa(dp619
g5
S'black_rook'
p620
sg7
S'h8'
p621
saaVBut my knight comes in.
p622
aa(lp623
S'23. Qxd4'
p624
a(lp625
(dp626
g5
S'white_rook'
p627
sg7
S'a1'
p628
sa(dp629
g5
S'white_pawn'
p630
sg7
S'a2'
p631
sa(dp632
g7
S'a3'
p633
sa(dp634
g7
S'a4'
p635
sa(dp636
g7
S'a5'
p637
sa(dp638
g5
S'black_pawn'
p639
sg7
S'a6'
p640
sa(dp641
g7
S'a7'
p642
sa(dp643
g7
S'a8'
p644
sa(dp645
g7
S'b1'
p646
sa(dp647
g7
S'b2'
p648
sa(dp649
g5
S'white_pawn'
p650
sg7
S'b3'
p651
sa(dp652
g7
S'b4'
p653
sa(dp654
g7
S'b5'
p655
sa(dp656
g7
S'b6'
p657
sa(dp658
g5
S'black_pawn'
p659
sg7
S'b7'
p660
sa(dp661
g7
S'b8'
p662
sa(dp663
g7
S'c1'
p664
sa(dp665
g7
S'c2'
p666
sa(dp667
g7
S'c3'
p668
sa(dp669
g5
S'white_knight'
p670
sg7
S'c4'
p671
sa(dp672
g7
S'c5'
p673
sa(dp674
g7
S'c6'
p675
sa(dp676
g7
S'c7'
p677
sa(dp678
g7
S'c8'
p679
sa(dp680
g7
S'd1'
p681
sa(dp682
g5
S'white_pawn'
p683
sg7
S'd2'
p684
sa(dp685
g7
S'd3'
p686
sa(dp687
g5
S'white_queen'
p688
sg7
S'd4'
p689
sa(dp690
g7
S'd5'
p691
sa(dp692
g5
S'white_pawn'
p693
sg7
S'd6'
p694
sa(dp695
g5
S'black_rook'
p696
sg7
S'd7'
p697
sa(dp698
g7
S'd8'
p699
sa(dp700
g7
S'e1'
p701
sa(dp702
g7
S'e2'
p703
sa(dp704
g7
S'e3'
p705
sa(dp706
g7
S'e4'
p707
sa(dp708
g5
S'black_pawn'
p709
sg7
S'e5'
p710
sa(dp711
g7
S'e6'
p712
sa(dp713
g7
S'e7'
p714
sa(dp715
g5
S'black_king'
p716
sg7
S'e8'
p717
sa(dp718
g5
S'white_rook'
p719
sg7
S'f1'
p720
sa(dp721
g5
S'white_pawn'
p722
sg7
S'f2'
p723
sa(dp724
g7
S'f3'
p725
sa(dp726
g7
S'f4'
p727
sa(dp728
g5
S'black_knight'
p729
sg7
S'f5'
p730
sa(dp731
g5
S'black_pawn'
p732
sg7
S'f6'
p733
sa(dp734
g7
S'f7'
p735
sa(dp736
g7
S'f8'
p737
sa(dp738
g5
S'white_king'
p739
sg7
S'g1'
p740
sa(dp741
g5
S'white_pawn'
p742
sg7
S'g2'
p743
sa(dp744
g7
S'g3'
p745
sa(dp746
g7
S'g4'
p747
sa(dp748
g7
S'g5'
p749
sa(dp750
g7
S'g6'
p751
sa(dp752
g5
S'black_pawn'
p753
sg7
S'g7'
p754
sa(dp755
g7
S'g8'
p756
sa(dp757
g7
S'h1'
p758
sa(dp759
g5
S'white_pawn'
p760
sg7
S'h2'
p761
sa(dp762
g7
S'h3'
p763
sa(dp764
g7
S'h4'
p765
sa(dp766
g7
S'h5'
p767
sa(dp768
g7
S'h6'
p769
sa(dp770
g5
S'black_pawn'
p771
sg7
S'h7'
p772
sa(dp773
g5
S'black_rook'
p774
sg7
S'h8'
p775
saaVHe takes, and offered a draw, which I declined.
p776
aa(lp777
S'23... Nxd4'
p778
a(lp779
(dp780
g5
S'white_rook'
p781
sg7
S'a1'
p782
sa(dp783
g5
S'white_pawn'
p784
sg7
S'a2'
p785
sa(dp786
g7
S'a3'
p787
sa(dp788
g7
S'a4'
p789
sa(dp790
g7
S'a5'
p791
sa(dp792
g5
S'black_pawn'
p793
sg7
S'a6'
p794
sa(dp795
g7
S'a7'
p796
sa(dp797
g7
S'a8'
p798
sa(dp799
g7
S'b1'
p800
sa(dp801
g7
S'b2'
p802
sa(dp803
g5
S'white_pawn'
p804
sg7
S'b3'
p805
sa(dp806
g7
S'b4'
p807
sa(dp808
g7
S'b5'
p809
sa(dp810
g7
S'b6'
p811
sa(dp812
g5
S'black_pawn'
p813
sg7
S'b7'
p814
sa(dp815
g7
S'b8'
p816
sa(dp817
g7
S'c1'
p818
sa(dp819
g7
S'c2'
p820
sa(dp821
g7
S'c3'
p822
sa(dp823
g5
S'white_knight'
p824
sg7
S'c4'
p825
sa(dp826
g7
S'c5'
p827
sa(dp828
g7
S'c6'
p829
sa(dp830
g7
S'c7'
p831
sa(dp832
g7
S'c8'
p833
sa(dp834
g7
S'd1'
p835
sa(dp836
g5
S'white_pawn'
p837
sg7
S'd2'
p838
sa(dp839
g7
S'd3'
p840
sa(dp841
g5
S'black_knight'
p842
sg7
S'd4'
p843
sa(dp844
g7
S'd5'
p845
sa(dp846
g5
S'white_pawn'
p847
sg7
S'd6'
p848
sa(dp849
g5
S'black_rook'
p850
sg7
S'd7'
p851
sa(dp852
g7
S'd8'
p853
sa(dp854
g7
S'e1'
p855
sa(dp856
g7
S'e2'
p857
sa(dp858
g7
S'e3'
p859
sa(dp860
g7
S'e4'
p861
sa(dp862
g5
S'black_pawn'
p863
sg7
S'e5'
p864
sa(dp865
g7
S'e6'
p866
sa(dp867
g7
S'e7'
p868
sa(dp869
g5
S'black_king'
p870
sg7
S'e8'
p871
sa(dp872
g5
S'white_rook'
p873
sg7
S'f1'
p874
sa(dp875
g5
S'white_pawn'
p876
sg7
S'f2'
p877
sa(dp878
g7
S'f3'
p879
sa(dp880
g7
S'f4'
p881
sa(dp882
g7
S'f5'
p883
sa(dp884
g5
S'black_pawn'
p885
sg7
S'f6'
p886
sa(dp887
g7
S'f7'
p888
sa(dp889
g7
S'f8'
p890
sa(dp891
g5
S'white_king'
p892
sg7
S'g1'
p893
sa(dp894
g5
S'white_pawn'
p895
sg7
S'g2'
p896
sa(dp897
g7
S'g3'
p898
sa(dp899
g7
S'g4'
p900
sa(dp901
g7
S'g5'
p902
sa(dp903
g7
S'g6'
p904
sa(dp905
g5
S'black_pawn'
p906
sg7
S'g7'
p907
sa(dp908
g7
S'g8'
p909
sa(dp910
g7
S'h1'
p911
sa(dp912
g5
S'white_pawn'
p913
sg7
S'h2'
p914
sa(dp915
g7
S'h3'
p916
sa(dp917
g7
S'h4'
p918
sa(dp919
g7
S'h5'
p920
sa(dp921
g7
S'h6'
p922
sa(dp923
g5
S'black_pawn'
p924
sg7
S'h7'
p925
sa(dp926
g5
S'black_rook'
p927
sg7
S'h8'
p928
saaVMy knight is now dominant.
p929
aa(lp930
S'24. g3'
p931
a(lp932
(dp933
g5
S'white_rook'
p934
sg7
S'a1'
p935
sa(dp936
g5
S'white_pawn'
p937
sg7
S'a2'
p938
sa(dp939
g7
S'a3'
p940
sa(dp941
g7
S'a4'
p942
sa(dp943
g7
S'a5'
p944
sa(dp945
g5
S'black_pawn'
p946
sg7
S'a6'
p947
sa(dp948
g7
S'a7'
p949
sa(dp950
g7
S'a8'
p951
sa(dp952
g7
S'b1'
p953
sa(dp954
g7
S'b2'
p955
sa(dp956
g5
S'white_pawn'
p957
sg7
S'b3'
p958
sa(dp959
g7
S'b4'
p960
sa(dp961
g7
S'b5'
p962
sa(dp963
g7
S'b6'
p964
sa(dp965
g5
S'black_pawn'
p966
sg7
S'b7'
p967
sa(dp968
g7
S'b8'
p969
sa(dp970
g7
S'c1'
p971
sa(dp972
g7
S'c2'
p973
sa(dp974
g7
S'c3'
p975
sa(dp976
g5
S'white_knight'
p977
sg7
S'c4'
p978
sa(dp979
g7
S'c5'
p980
sa(dp981
g7
S'c6'
p982
sa(dp983
g7
S'c7'
p984
sa(dp985
g7
S'c8'
p986
sa(dp987
g7
S'd1'
p988
sa(dp989
g5
S'white_pawn'
p990
sg7
S'd2'
p991
sa(dp992
g7
S'd3'
p993
sa(dp994
g5
S'black_knight'
p995
sg7
S'd4'
p996
sa(dp997
g7
S'd5'
p998
sa(dp999
g5
S'white_pawn'
p1000
sg7
S'd6'
p1001
sa(dp1002
g5
S'black_rook'
p1003
sg7
S'd7'
p1004
sa(dp1005
g7
S'd8'
p1006
sa(dp1007
g7
S'e1'
p1008
sa(dp1009
g7
S'e2'
p1010
sa(dp1011
g7
S'e3'
p1012
sa(dp1013
g7
S'e4'
p1014
sa(dp1015
g5
S'black_pawn'
p1016
sg7
S'e5'
p1017
sa(dp1018
g7
S'e6'
p1019
sa(dp1020
g7
S'e7'
p1021
sa(dp1022
g5
S'black_king'
p1023
sg7
S'e8'
p1024
sa(dp1025
g5
S'white_rook'
p1026
sg7
S'f1'
p1027
sa(dp1028
g5
S'white_pawn'
p1029
sg7
S'f2'
p1030
sa(dp1031
g7
S'f3'
p1032
sa(dp1033
g7
S'f4'
p1034
sa(dp1035
g7
S'f5'
p1036
sa(dp1037
g5
S'black_pawn'
p1038
sg7
S'f6'
p1039
sa(dp1040
g7
S'f7'
p1041
sa(dp1042
g7
S'f8'
p1043
sa(dp1044
g5
S'white_king'
p1045
sg7
S'g1'
p1046
sa(dp1047
g7
S'g2'
p1048
sa(dp1049
g5
S'white_pawn'
p1050
sg7
S'g3'
p1051
sa(dp1052
g7
S'g4'
p1053
sa(dp1054
g7
S'g5'
p1055
sa(dp1056
g7
S'g6'
p1057
sa(dp1058
g5
S'black_pawn'
p1059
sg7
S'g7'
p1060
sa(dp1061
g7
S'g8'
p1062
sa(dp1063
g7
S'h1'
p1064
sa(dp1065
g5
S'white_pawn'
p1066
sg7
S'h2'
p1067
sa(dp1068
g7
S'h3'
p1069
sa(dp1070
g7
S'h4'
p1071
sa(dp1072
g7
S'h5'
p1073
sa(dp1074
g7
S'h6'
p1075
sa(dp1076
g5
S'black_pawn'
p1077
sg7
S'h7'
p1078
sa(dp1079
g5
S'black_rook'
p1080
sg7
S'h8'
p1081
saaVPerhaps planning f2-f4.
p1082
aa(lp1083
S'24... b5'
p1084
a(lp1085
(dp1086
g5
S'white_rook'
p1087
sg7
S'a1'
p1088
sa(dp1089
g5
S'white_pawn'
p1090
sg7
S'a2'
p1091
sa(dp1092
g7
S'a3'
p1093
sa(dp1094
g7
S'a4'
p1095
sa(dp1096
g7
S'a5'
p1097
sa(dp1098
g5
S'black_pawn'
p1099
sg7
S'a6'
p1100
sa(dp1101
g7
S'a7'
p1102
sa(dp1103
g7
S'a8'
p1104
sa(dp1105
g7
S'b1'
p1106
sa(dp1107
g7
S'b2'
p1108
sa(dp1109
g5
S'white_pawn'
p1110
sg7
S'b3'
p1111
sa(dp1112
g7
S'b4'
p1113
sa(dp1114
g5
S'black_pawn'
p1115
sg7
S'b5'
p1116
sa(dp1117
g7
S'b6'
p1118
sa(dp1119
g7
S'b7'
p1120
sa(dp1121
g7
S'b8'
p1122
sa(dp1123
g7
S'c1'
p1124
sa(dp1125
g7
S'c2'
p1126
sa(dp1127
g7
S'c3'
p1128
sa(dp1129
g5
S'white_knight'
p1130
sg7
S'c4'
p1131
sa(dp1132
g7
S'c5'
p1133
sa(dp1134
g7
S'c6'
p1135
sa(dp1136
g7
S'c7'
p1137
sa(dp1138
g7
S'c8'
p1139
sa(dp1140
g7
S'd1'
p1141
sa(dp1142
g5
S'white_pawn'
p1143
sg7
S'd2'
p1144
sa(dp1145
g7
S'd3'
p1146
sa(dp1147
g5
S'black_knight'
p1148
sg7
S'd4'
p1149
sa(dp1150
g7
S'd5'
p1151
sa(dp1152
g5
S'white_pawn'
p1153
sg7
S'd6'
p1154
sa(dp1155
g5
S'black_rook'
p1156
sg7
S'd7'
p1157
sa(dp1158
g7
S'd8'
p1159
sa(dp1160
g7
S'e1'
p1161
sa(dp1162
g7
S'e2'
p1163
sa(dp1164
g7
S'e3'
p1165
sa(dp1166
g7
S'e4'
p1167
sa(dp1168
g5
S'black_pawn'
p1169
sg7
S'e5'
p1170
sa(dp1171
g7
S'e6'
p1172
sa(dp1173
g7
S'e7'
p1174
sa(dp1175
g5
S'black_king'
p1176
sg7
S'e8'
p1177
sa(dp1178
g5
S'white_rook'
p1179
sg7
S'f1'
p1180
sa(dp1181
g5
S'white_pawn'
p1182
sg7
S'f2'
p1183
sa(dp1184
g7
S'f3'
p1185
sa(dp1186
g7
S'f4'
p1187
sa(dp1188
g7
S'f5'
p1189
sa(dp1190
g5
S'black_pawn'
p1191
sg7
S'f6'
p1192
sa(dp1193
g7
S'f7'
p1194
sa(dp1195
g7
S'f8'
p1196
sa(dp1197
g5
S'white_king'
p1198
sg7
S'g1'
p1199
sa(dp1200
g7
S'g2'
p1201
sa(dp1202
g5
S'white_pawn'
p1203
sg7
S'g3'
p1204
sa(dp1205
g7
S'g4'
p1206
sa(dp1207
g7
S'g5'
p1208
sa(dp1209
g7
S'g6'
p1210
sa(dp1211
g5
S'black_pawn'
p1212
sg7
S'g7'
p1213
sa(dp1214
g7
S'g8'
p1215
sa(dp1216
g7
S'h1'
p1217
sa(dp1218
g5
S'white_pawn'
p1219
sg7
S'h2'
p1220
sa(dp1221
g7
S'h3'
p1222
sa(dp1223
g7
S'h4'
p1224
sa(dp1225
g7
S'h5'
p1226
sa(dp1227
g7
S'h6'
p1228
sa(dp1229
g5
S'black_pawn'
p1230
sg7
S'h7'
p1231
sa(dp1232
g5
S'black_rook'
p1233
sg7
S'h8'
p1234
saaVI decide to round up the d6 pawn.
p1235
aa(lp1236
S'25. Ne3'
p1237
a(lp1238
(dp1239
g5
S'white_rook'
p1240
sg7
S'a1'
p1241
sa(dp1242
g5
S'white_pawn'
p1243
sg7
S'a2'
p1244
sa(dp1245
g7
S'a3'
p1246
sa(dp1247
g7
S'a4'
p1248
sa(dp1249
g7
S'a5'
p1250
sa(dp1251
g5
S'black_pawn'
p1252
sg7
S'a6'
p1253
sa(dp1254
g7
S'a7'
p1255
sa(dp1256
g7
S'a8'
p1257
sa(dp1258
g7
S'b1'
p1259
sa(dp1260
g7
S'b2'
p1261
sa(dp1262
g5
S'white_pawn'
p1263
sg7
S'b3'
p1264
sa(dp1265
g7
S'b4'
p1266
sa(dp1267
g5
S'black_pawn'
p1268
sg7
S'b5'
p1269
sa(dp1270
g7
S'b6'
p1271
sa(dp1272
g7
S'b7'
p1273
sa(dp1274
g7
S'b8'
p1275
sa(dp1276
g7
S'c1'
p1277
sa(dp1278
g7
S'c2'
p1279
sa(dp1280
g7
S'c3'
p1281
sa(dp1282
g7
S'c4'
p1283
sa(dp1284
g7
S'c5'
p1285
sa(dp1286
g7
S'c6'
p1287
sa(dp1288
g7
S'c7'
p1289
sa(dp1290
g7
S'c8'
p1291
sa(dp1292
g7
S'd1'
p1293
sa(dp1294
g5
S'white_pawn'
p1295
sg7
S'd2'
p1296
sa(dp1297
g7
S'd3'
p1298
sa(dp1299
g5
S'black_knight'
p1300
sg7
S'd4'
p1301
sa(dp1302
g7
S'd5'
p1303
sa(dp1304
g5
S'white_pawn'
p1305
sg7
S'd6'
p1306
sa(dp1307
g5
S'black_rook'
p1308
sg7
S'd7'
p1309
sa(dp1310
g7
S'd8'
p1311
sa(dp1312
g7
S'e1'
p1313
sa(dp1314
g7
S'e2'
p1315
sa(dp1316
g5
S'white_knight'
p1317
sg7
S'e3'
p1318
sa(dp1319
g7
S'e4'
p1320
sa(dp1321
g5
S'black_pawn'
p1322
sg7
S'e5'
p1323
sa(dp1324
g7
S'e6'
p1325
sa(dp1326
g7
S'e7'
p1327
sa(dp1328
g5
S'black_king'
p1329
sg7
S'e8'
p1330
sa(dp1331
g5
S'white_rook'
p1332
sg7
S'f1'
p1333
sa(dp1334
g5
S'white_pawn'
p1335
sg7
S'f2'
p1336
sa(dp1337
g7
S'f3'
p1338
sa(dp1339
g7
S'f4'
p1340
sa(dp1341
g7
S'f5'
p1342
sa(dp1343
g5
S'black_pawn'
p1344
sg7
S'f6'
p1345
sa(dp1346
g7
S'f7'
p1347
sa(dp1348
g7
S'f8'
p1349
sa(dp1350
g5
S'white_king'
p1351
sg7
S'g1'
p1352
sa(dp1353
g7
S'g2'
p1354
sa(dp1355
g5
S'white_pawn'
p1356
sg7
S'g3'
p1357
sa(dp1358
g7
S'g4'
p1359
sa(dp1360
g7
S'g5'
p1361
sa(dp1362
g7
S'g6'
p1363
sa(dp1364
g5
S'black_pawn'
p1365
sg7
S'g7'
p1366
sa(dp1367
g7
S'g8'
p1368
sa(dp1369
g7
S'h1'
p1370
sa(dp1371
g5
S'white_pawn'
p1372
sg7
S'h2'
p1373
sa(dp1374
g7
S'h3'
p1375
sa(dp1376
g7
S'h4'
p1377
sa(dp1378
g7
S'h5'
p1379
sa(dp1380
g7
S'h6'
p1381
sa(dp1382
g5
S'black_pawn'
p1383
sg7
S'h7'
p1384
sa(dp1385
g5
S'black_rook'
p1386
sg7
S'h8'
p1387
saaVHis knight drops back.
p1388
aa(lp1389
S'25... Rxd6'
p1390
a(lp1391
(dp1392
g5
S'white_rook'
p1393
sg7
S'a1'
p1394
sa(dp1395
g5
S'white_pawn'
p1396
sg7
S'a2'
p1397
sa(dp1398
g7
S'a3'
p1399
sa(dp1400
g7
S'a4'
p1401
sa(dp1402
g7
S'a5'
p1403
sa(dp1404
g5
S'black_pawn'
p1405
sg7
S'a6'
p1406
sa(dp1407
g7
S'a7'
p1408
sa(dp1409
g7
S'a8'
p1410
sa(dp1411
g7
S'b1'
p1412
sa(dp1413
g7
S'b2'
p1414
sa(dp1415
g5
S'white_pawn'
p1416
sg7
S'b3'
p1417
sa(dp1418
g7
S'b4'
p1419
sa(dp1420
g5
S'black_pawn'
p1421
sg7
S'b5'
p1422
sa(dp1423
g7
S'b6'
p1424
sa(dp1425
g7
S'b7'
p1426
sa(dp1427
g7
S'b8'
p1428
sa(dp1429
g7
S'c1'
p1430
sa(dp1431
g7
S'c2'
p1432
sa(dp1433
g7
S'c3'
p1434
sa(dp1435
g7
S'c4'
p1436
sa(dp1437
g7
S'c5'
p1438
sa(dp1439
g7
S'c6'
p1440
sa(dp1441
g7
S'c7'
p1442
sa(dp1443
g7
S'c8'
p1444
sa(dp1445
g7
S'd1'
p1446
sa(dp1447
g5
S'white_pawn'
p1448
sg7
S'd2'
p1449
sa(dp1450
g7
S'd3'
p1451
sa(dp1452
g5
S'black_knight'
p1453
sg7
S'd4'
p1454
sa(dp1455
g7
S'd5'
p1456
sa(dp1457
g5
S'black_rook'
p1458
sg7
S'd6'
p1459
sa(dp1460
g7
S'd7'
p1461
sa(dp1462
g7
S'd8'
p1463
sa(dp1464
g7
S'e1'
p1465
sa(dp1466
g7
S'e2'
p1467
sa(dp1468
g5
S'white_knight'
p1469
sg7
S'e3'
p1470
sa(dp1471
g7
S'e4'
p1472
sa(dp1473
g5
S'black_pawn'
p1474
sg7
S'e5'
p1475
sa(dp1476
g7
S'e6'
p1477
sa(dp1478
g7
S'e7'
p1479
sa(dp1480
g5
S'black_king'
p1481
sg7
S'e8'
p1482
sa(dp1483
g5
S'white_rook'
p1484
sg7
S'f1'
p1485
sa(dp1486
g5
S'white_pawn'
p1487
sg7
S'f2'
p1488
sa(dp1489
g7
S'f3'
p1490
sa(dp1491
g7
S'f4'
p1492
sa(dp1493
g7
S'f5'
p1494
sa(dp1495
g5
S'black_pawn'
p1496
sg7
S'f6'
p1497
sa(dp1498
g7
S'f7'
p1499
sa(dp1500
g7
S'f8'
p1501
sa(dp1502
g5
S'white_king'
p1503
sg7
S'g1'
p1504
sa(dp1505
g7
S'g2'
p1506
sa(dp1507
g5
S'white_pawn'
p1508
sg7
S'g3'
p1509
sa(dp1510
g7
S'g4'
p1511
sa(dp1512
g7
S'g5'
p1513
sa(dp1514
g7
S'g6'
p1515
sa(dp1516
g5
S'black_pawn'
p1517
sg7
S'g7'
p1518
sa(dp1519
g7
S'g8'
p1520
sa(dp1521
g7
S'h1'
p1522
sa(dp1523
g5
S'white_pawn'
p1524
sg7
S'h2'
p1525
sa(dp1526
g7
S'h3'
p1527
sa(dp1528
g7
S'h4'
p1529
sa(dp1530
g7
S'h5'
p1531
sa(dp1532
g7
S'h6'
p1533
sa(dp1534
g5
S'black_pawn'
p1535
sg7
S'h7'
p1536
sa(dp1537
g5
S'black_rook'
p1538
sg7
S'h8'
p1539
saaVThe pawn goes.
p1540
aa(lp1541
S'26. Kg2'
p1542
a(lp1543
(dp1544
g5
S'white_rook'
p1545
sg7
S'a1'
p1546
sa(dp1547
g5
S'white_pawn'
p1548
sg7
S'a2'
p1549
sa(dp1550
g7
S'a3'
p1551
sa(dp1552
g7
S'a4'
p1553
sa(dp1554
g7
S'a5'
p1555
sa(dp1556
g5
S'black_pawn'
p1557
sg7
S'a6'
p1558
sa(dp1559
g7
S'a7'
p1560
sa(dp1561
g7
S'a8'
p1562
sa(dp1563
g7
S'b1'
p1564
sa(dp1565
g7
S'b2'
p1566
sa(dp1567
g5
S'white_pawn'
p1568
sg7
S'b3'
p1569
sa(dp1570
g7
S'b4'
p1571
sa(dp1572
g5
S'black_pawn'
p1573
sg7
S'b5'
p1574
sa(dp1575
g7
S'b6'
p1576
sa(dp1577
g7
S'b7'
p1578
sa(dp1579
g7
S'b8'
p1580
sa(dp1581
g7
S'c1'
p1582
sa(dp1583
g7
S'c2'
p1584
sa(dp1585
g7
S'c3'
p1586
sa(dp1587
g7
S'c4'
p1588
sa(dp1589
g7
S'c5'
p1590
sa(dp1591
g7
S'c6'
p1592
sa(dp1593
g7
S'c7'
p1594
sa(dp1595
g7
S'c8'
p1596
sa(dp1597
g7
S'd1'
p1598
sa(dp1599
g5
S'white_pawn'
p1600
sg7
S'd2'
p1601
sa(dp1602
g7
S'd3'
p1603
sa(dp1604
g5
S'black_knight'
p1605
sg7
S'd4'
p1606
sa(dp1607
g7
S'd5'
p1608
sa(dp1609
g5
S'black_rook'
p1610
sg7
S'd6'
p1611
sa(dp1612
g7
S'd7'
p1613
sa(dp1614
g7
S'd8'
p1615
sa(dp1616
g7
S'e1'
p1617
sa(dp1618
g7
S'e2'
p1619
sa(dp1620
g5
S'white_knight'
p1621
sg7
S'e3'
p1622
sa(dp1623
g7
S'e4'
p1624
sa(dp1625
g5
S'black_pawn'
p1626
sg7
S'e5'
p1627
sa(dp1628
g7
S'e6'
p1629
sa(dp1630
g7
S'e7'
p1631
sa(dp1632
g5
S'black_king'
p1633
sg7
S'e8'
p1634
sa(dp1635
g5
S'white_rook'
p1636
sg7
S'f1'
p1637
sa(dp1638
g5
S'white_pawn'
p1639
sg7
S'f2'
p1640
sa(dp1641
g7
S'f3'
p1642
sa(dp1643
g7
S'f4'
p1644
sa(dp1645
g7
S'f5'
p1646
sa(dp1647
g5
S'black_pawn'
p1648
sg7
S'f6'
p1649
sa(dp1650
g7
S'f7'
p1651
sa(dp1652
g7
S'f8'
p1653
sa(dp1654
g7
S'g1'
p1655
sa(dp1656
g5
S'white_king'
p1657
sg7
S'g2'
p1658
sa(dp1659
g5
S'white_pawn'
p1660
sg7
S'g3'
p1661
sa(dp1662
g7
S'g4'
p1663
sa(dp1664
g7
S'g5'
p1665
sa(dp1666
g7
S'g6'
p1667
sa(dp1668
g5
S'black_pawn'
p1669
sg7
S'g7'
p1670
sa(dp1671
g7
S'g8'
p1672
sa(dp1673
g7
S'h1'
p1674
sa(dp1675
g5
S'white_pawn'
p1676
sg7
S'h2'
p1677
sa(dp1678
g7
S'h3'
p1679
sa(dp1680
g7
S'h4'
p1681
sa(dp1682
g7
S'h5'
p1683
sa(dp1684
g7
S'h6'
p1685
sa(dp1686
g5
S'black_pawn'
p1687
sg7
S'h7'
p1688
sa(dp1689
g5
S'black_rook'
p1690
sg7
S'h8'
p1691
saaVHe improves the position of his king.
p1692
aa(lp1693
S'26... e4'
p1694
a(lp1695
(dp1696
g5
S'white_rook'
p1697
sg7
S'a1'
p1698
sa(dp1699
g5
S'white_pawn'
p1700
sg7
S'a2'
p1701
sa(dp1702
g7
S'a3'
p1703
sa(dp1704
g7
S'a4'
p1705
sa(dp1706
g7
S'a5'
p1707
sa(dp1708
g5
S'black_pawn'
p1709
sg7
S'a6'
p1710
sa(dp1711
g7
S'a7'
p1712
sa(dp1713
g7
S'a8'
p1714
sa(dp1715
g7
S'b1'
p1716
sa(dp1717
g7
S'b2'
p1718
sa(dp1719
g5
S'white_pawn'
p1720
sg7
S'b3'
p1721
sa(dp1722
g7
S'b4'
p1723
sa(dp1724
g5
S'black_pawn'
p1725
sg7
S'b5'
p1726
sa(dp1727
g7
S'b6'
p1728
sa(dp1729
g7
S'b7'
p1730
sa(dp1731
g7
S'b8'
p1732
sa(dp1733
g7
S'c1'
p1734
sa(dp1735
g7
S'c2'
p1736
sa(dp1737
g7
S'c3'
p1738
sa(dp1739
g7
S'c4'
p1740
sa(dp1741
g7
S'c5'
p1742
sa(dp1743
g7
S'c6'
p1744
sa(dp1745
g7
S'c7'
p1746
sa(dp1747
g7
S'c8'
p1748
sa(dp1749
g7
S'd1'
p1750
sa(dp1751
g5
S'white_pawn'
p1752
sg7
S'd2'
p1753
sa(dp1754
g7
S'd3'
p1755
sa(dp1756
g5
S'black_knight'
p1757
sg7
S'd4'
p1758
sa(dp1759
g7
S'd5'
p1760
sa(dp1761
g5
S'black_rook'
p1762
sg7
S'd6'
p1763
sa(dp1764
g7
S'd7'
p1765
sa(dp1766
g7
S'd8'
p1767
sa(dp1768
g7
S'e1'
p1769
sa(dp1770
g7
S'e2'
p1771
sa(dp1772
g5
S'white_knight'
p1773
sg7
S'e3'
p1774
sa(dp1775
g5
S'black_pawn'
p1776
sg7
S'e4'
p1777
sa(dp1778
g7
S'e5'
p1779
sa(dp1780
g7
S'e6'
p1781
sa(dp1782
g7
S'e7'
p1783
sa(dp1784
g5
S'black_king'
p1785
sg7
S'e8'
p1786
sa(dp1787
g5
S'white_rook'
p1788
sg7
S'f1'
p1789
sa(dp1790
g5
S'white_pawn'
p1791
sg7
S'f2'
p1792
sa(dp1793
g7
S'f3'
p1794
sa(dp1795
g7
S'f4'
p1796
sa(dp1797
g7
S'f5'
p1798
sa(dp1799
g5
S'black_pawn'
p1800
sg7
S'f6'
p1801
sa(dp1802
g7
S'f7'
p1803
sa(dp1804
g7
S'f8'
p1805
sa(dp1806
g7
S'g1'
p1807
sa(dp1808
g5
S'white_king'
p1809
sg7
S'g2'
p1810
sa(dp1811
g5
S'white_pawn'
p1812
sg7
S'g3'
p1813
sa(dp1814
g7
S'g4'
p1815
sa(dp1816
g7
S'g5'
p1817
sa(dp1818
g7
S'g6'
p1819
sa(dp1820
g5
S'black_pawn'
p1821
sg7
S'g7'
p1822
sa(dp1823
g7
S'g8'
p1824
sa(dp1825
g7
S'h1'
p1826
sa(dp1827
g5
S'white_pawn'
p1828
sg7
S'h2'
p1829
sa(dp1830
g7
S'h3'
p1831
sa(dp1832
g7
S'h4'
p1833
sa(dp1834
g7
S'h5'
p1835
sa(dp1836
g7
S'h6'
p1837
sa(dp1838
g5
S'black_pawn'
p1839
sg7
S'h7'
p1840
sa(dp1841
g5
S'black_rook'
p1842
sg7
S'h8'
p1843
saaVI prevent f2-f4, which would now be met by taking his f pawn en passant. 
p1844
aa(lp1845
S'27. Rac1'
p1846
a(lp1847
(dp1848
g7
S'a1'
p1849
sa(dp1850
g5
S'white_pawn'
p1851
sg7
S'a2'
p1852
sa(dp1853
g7
S'a3'
p1854
sa(dp1855
g7
S'a4'
p1856
sa(dp1857
g7
S'a5'
p1858
sa(dp1859
g5
S'black_pawn'
p1860
sg7
S'a6'
p1861
sa(dp1862
g7
S'a7'
p1863
sa(dp1864
g7
S'a8'
p1865
sa(dp1866
g7
S'b1'
p1867
sa(dp1868
g7
S'b2'
p1869
sa(dp1870
g5
S'white_pawn'
p1871
sg7
S'b3'
p1872
sa(dp1873
g7
S'b4'
p1874
sa(dp1875
g5
S'black_pawn'
p1876
sg7
S'b5'
p1877
sa(dp1878
g7
S'b6'
p1879
sa(dp1880
g7
S'b7'
p1881
sa(dp1882
g7
S'b8'
p1883
sa(dp1884
g5
S'white_rook'
p1885
sg7
S'c1'
p1886
sa(dp1887
g7
S'c2'
p1888
sa(dp1889
g7
S'c3'
p1890
sa(dp1891
g7
S'c4'
p1892
sa(dp1893
g7
S'c5'
p1894
sa(dp1895
g7
S'c6'
p1896
sa(dp1897
g7
S'c7'
p1898
sa(dp1899
g7
S'c8'
p1900
sa(dp1901
g7
S'd1'
p1902
sa(dp1903
g5
S'white_pawn'
p1904
sg7
S'd2'
p1905
sa(dp1906
g7
S'd3'
p1907
sa(dp1908
g5
S'black_knight'
p1909
sg7
S'd4'
p1910
sa(dp1911
g7
S'd5'
p1912
sa(dp1913
g5
S'black_rook'
p1914
sg7
S'd6'
p1915
sa(dp1916
g7
S'd7'
p1917
sa(dp1918
g7
S'd8'
p1919
sa(dp1920
g7
S'e1'
p1921
sa(dp1922
g7
S'e2'
p1923
sa(dp1924
g5
S'white_knight'
p1925
sg7
S'e3'
p1926
sa(dp1927
g5
S'black_pawn'
p1928
sg7
S'e4'
p1929
sa(dp1930
g7
S'e5'
p1931
sa(dp1932
g7
S'e6'
p1933
sa(dp1934
g7
S'e7'
p1935
sa(dp1936
g5
S'black_king'
p1937
sg7
S'e8'
p1938
sa(dp1939
g5
S'white_rook'
p1940
sg7
S'f1'
p1941
sa(dp1942
g5
S'white_pawn'
p1943
sg7
S'f2'
p1944
sa(dp1945
g7
S'f3'
p1946
sa(dp1947
g7
S'f4'
p1948
sa(dp1949
g7
S'f5'
p1950
sa(dp1951
g5
S'black_pawn'
p1952
sg7
S'f6'
p1953
sa(dp1954
g7
S'f7'
p1955
sa(dp1956
g7
S'f8'
p1957
sa(dp1958
g7
S'g1'
p1959
sa(dp1960
g5
S'white_king'
p1961
sg7
S'g2'
p1962
sa(dp1963
g5
S'white_pawn'
p1964
sg7
S'g3'
p1965
sa(dp1966
g7
S'g4'
p1967
sa(dp1968
g7
S'g5'
p1969
sa(dp1970
g7
S'g6'
p1971
sa(dp1972
g5
S'black_pawn'
p1973
sg7
S'g7'
p1974
sa(dp1975
g7
S'g8'
p1976
sa(dp1977
g7
S'h1'
p1978
sa(dp1979
g5
S'white_pawn'
p1980
sg7
S'h2'
p1981
sa(dp1982
g7
S'h3'
p1983
sa(dp1984
g7
S'h4'
p1985
sa(dp1986
g7
S'h5'
p1987
sa(dp1988
g7
S'h6'
p1989
sa(dp1990
g5
S'black_pawn'
p1991
sg7
S'h7'
p1992
sa(dp1993
g5
S'black_rook'
p1994
sg7
S'h8'
p1995
saaVHe contests the c file.
p1996
aa(lp1997
S'27... Kd7'
p1998
a(lp1999
(dp2000
g7
S'a1'
p2001
sa(dp2002
g5
S'white_pawn'
p2003
sg7
S'a2'
p2004
sa(dp2005
g7
S'a3'
p2006
sa(dp2007
g7
S'a4'
p2008
sa(dp2009
g7
S'a5'
p2010
sa(dp2011
g5
S'black_pawn'
p2012
sg7
S'a6'
p2013
sa(dp2014
g7
S'a7'
p2015
sa(dp2016
g7
S'a8'
p2017
sa(dp2018
g7
S'b1'
p2019
sa(dp2020
g7
S'b2'
p2021
sa(dp2022
g5
S'white_pawn'
p2023
sg7
S'b3'
p2024
sa(dp2025
g7
S'b4'
p2026
sa(dp2027
g5
S'black_pawn'
p2028
sg7
S'b5'
p2029
sa(dp2030
g7
S'b6'
p2031
sa(dp2032
g7
S'b7'
p2033
sa(dp2034
g7
S'b8'
p2035
sa(dp2036
g5
S'white_rook'
p2037
sg7
S'c1'
p2038
sa(dp2039
g7
S'c2'
p2040
sa(dp2041
g7
S'c3'
p2042
sa(dp2043
g7
S'c4'
p2044
sa(dp2045
g7
S'c5'
p2046
sa(dp2047
g7
S'c6'
p2048
sa(dp2049
g7
S'c7'
p2050
sa(dp2051
g7
S'c8'
p2052
sa(dp2053
g7
S'd1'
p2054
sa(dp2055
g5
S'white_pawn'
p2056
sg7
S'd2'
p2057
sa(dp2058
g7
S'd3'
p2059
sa(dp2060
g5
S'black_knight'
p2061
sg7
S'd4'
p2062
sa(dp2063
g7
S'd5'
p2064
sa(dp2065
g5
S'black_rook'
p2066
sg7
S'd6'
p2067
sa(dp2068
g5
S'black_king'
p2069
sg7
S'd7'
p2070
sa(dp2071
g7
S'd8'
p2072
sa(dp2073
g7
S'e1'
p2074
sa(dp2075
g7
S'e2'
p2076
sa(dp2077
g5
S'white_knight'
p2078
sg7
S'e3'
p2079
sa(dp2080
g5
S'black_pawn'
p2081
sg7
S'e4'
p2082
sa(dp2083
g7
S'e5'
p2084
sa(dp2085
g7
S'e6'
p2086
sa(dp2087
g7
S'e7'
p2088
sa(dp2089
g7
S'e8'
p2090
sa(dp2091
g5
S'white_rook'
p2092
sg7
S'f1'
p2093
sa(dp2094
g5
S'white_pawn'
p2095
sg7
S'f2'
p2096
sa(dp2097
g7
S'f3'
p2098
sa(dp2099
g7
S'f4'
p2100
sa(dp2101
g7
S'f5'
p2102
sa(dp2103
g5
S'black_pawn'
p2104
sg7
S'f6'
p2105
sa(dp2106
g7
S'f7'
p2107
sa(dp2108
g7
S'f8'
p2109
sa(dp2110
g7
S'g1'
p2111
sa(dp2112
g5
S'white_king'
p2113
sg7
S'g2'
p2114
sa(dp2115
g5
S'white_pawn'
p2116
sg7
S'g3'
p2117
sa(dp2118
g7
S'g4'
p2119
sa(dp2120
g7
S'g5'
p2121
sa(dp2122
g7
S'g6'
p2123
sa(dp2124
g5
S'black_pawn'
p2125
sg7
S'g7'
p2126
sa(dp2127
g7
S'g8'
p2128
sa(dp2129
g7
S'h1'
p2130
sa(dp2131
g5
S'white_pawn'
p2132
sg7
S'h2'
p2133
sa(dp2134
g7
S'h3'
p2135
sa(dp2136
g7
S'h4'
p2137
sa(dp2138
g7
S'h5'
p2139
sa(dp2140
g7
S'h6'
p2141
sa(dp2142
g5
S'black_pawn'
p2143
sg7
S'h7'
p2144
sa(dp2145
g5
S'black_rook'
p2146
sg7
S'h8'
p2147
saaVI bock his entry squares on c8, c7 and c6.
p2148
aa(lp2149
S'28. Rc5'
p2150
a(lp2151
(dp2152
g7
S'a1'
p2153
sa(dp2154
g5
S'white_pawn'
p2155
sg7
S'a2'
p2156
sa(dp2157
g7
S'a3'
p2158
sa(dp2159
g7
S'a4'
p2160
sa(dp2161
g7
S'a5'
p2162
sa(dp2163
g5
S'black_pawn'
p2164
sg7
S'a6'
p2165
sa(dp2166
g7
S'a7'
p2167
sa(dp2168
g7
S'a8'
p2169
sa(dp2170
g7
S'b1'
p2171
sa(dp2172
g7
S'b2'
p2173
sa(dp2174
g5
S'white_pawn'
p2175
sg7
S'b3'
p2176
sa(dp2177
g7
S'b4'
p2178
sa(dp2179
g5
S'black_pawn'
p2180
sg7
S'b5'
p2181
sa(dp2182
g7
S'b6'
p2183
sa(dp2184
g7
S'b7'
p2185
sa(dp2186
g7
S'b8'
p2187
sa(dp2188
g7
S'c1'
p2189
sa(dp2190
g7
S'c2'
p2191
sa(dp2192
g7
S'c3'
p2193
sa(dp2194
g7
S'c4'
p2195
sa(dp2196
g5
S'white_rook'
p2197
sg7
S'c5'
p2198
sa(dp2199
g7
S'c6'
p2200
sa(dp2201
g7
S'c7'
p2202
sa(dp2203
g7
S'c8'
p2204
sa(dp2205
g7
S'd1'
p2206
sa(dp2207
g5
S'white_pawn'
p2208
sg7
S'd2'
p2209
sa(dp2210
g7
S'd3'
p2211
sa(dp2212
g5
S'black_knight'
p2213
sg7
S'd4'
p2214
sa(dp2215
g7
S'd5'
p2216
sa(dp2217
g5
S'black_rook'
p2218
sg7
S'd6'
p2219
sa(dp2220
g5
S'black_king'
p2221
sg7
S'd7'
p2222
sa(dp2223
g7
S'd8'
p2224
sa(dp2225
g7
S'e1'
p2226
sa(dp2227
g7
S'e2'
p2228
sa(dp2229
g5
S'white_knight'
p2230
sg7
S'e3'
p2231
sa(dp2232
g5
S'black_pawn'
p2233
sg7
S'e4'
p2234
sa(dp2235
g7
S'e5'
p2236
sa(dp2237
g7
S'e6'
p2238
sa(dp2239
g7
S'e7'
p2240
sa(dp2241
g7
S'e8'
p2242
sa(dp2243
g5
S'white_rook'
p2244
sg7
S'f1'
p2245
sa(dp2246
g5
S'white_pawn'
p2247
sg7
S'f2'
p2248
sa(dp2249
g7
S'f3'
p2250
sa(dp2251
g7
S'f4'
p2252
sa(dp2253
g7
S'f5'
p2254
sa(dp2255
g5
S'black_pawn'
p2256
sg7
S'f6'
p2257
sa(dp2258
g7
S'f7'
p2259
sa(dp2260
g7
S'f8'
p2261
sa(dp2262
g7
S'g1'
p2263
sa(dp2264
g5
S'white_king'
p2265
sg7
S'g2'
p2266
sa(dp2267
g5
S'white_pawn'
p2268
sg7
S'g3'
p2269
sa(dp2270
g7
S'g4'
p2271
sa(dp2272
g7
S'g5'
p2273
sa(dp2274
g7
S'g6'
p2275
sa(dp2276
g5
S'black_pawn'
p2277
sg7
S'g7'
p2278
sa(dp2279
g7
S'g8'
p2280
sa(dp2281
g7
S'h1'
p2282
sa(dp2283
g5
S'white_pawn'
p2284
sg7
S'h2'
p2285
sa(dp2286
g7
S'h3'
p2287
sa(dp2288
g7
S'h4'
p2289
sa(dp2290
g7
S'h5'
p2291
sa(dp2292
g7
S'h6'
p2293
sa(dp2294
g5
S'black_pawn'
p2295
sg7
S'h7'
p2296
sa(dp2297
g5
S'black_rook'
p2298
sg7
S'h8'
p2299
saaVSo he comes in here instead.
p2300
aa(lp2301
S'28... Rc8'
p2302
a(lp2303
(dp2304
g7
S'a1'
p2305
sa(dp2306
g5
S'white_pawn'
p2307
sg7
S'a2'
p2308
sa(dp2309
g7
S'a3'
p2310
sa(dp2311
g7
S'a4'
p2312
sa(dp2313
g7
S'a5'
p2314
sa(dp2315
g5
S'black_pawn'
p2316
sg7
S'a6'
p2317
sa(dp2318
g7
S'a7'
p2319
sa(dp2320
g7
S'a8'
p2321
sa(dp2322
g7
S'b1'
p2323
sa(dp2324
g7
S'b2'
p2325
sa(dp2326
g5
S'white_pawn'
p2327
sg7
S'b3'
p2328
sa(dp2329
g7
S'b4'
p2330
sa(dp2331
g5
S'black_pawn'
p2332
sg7
S'b5'
p2333
sa(dp2334
g7
S'b6'
p2335
sa(dp2336
g7
S'b7'
p2337
sa(dp2338
g7
S'b8'
p2339
sa(dp2340
g7
S'c1'
p2341
sa(dp2342
g7
S'c2'
p2343
sa(dp2344
g7
S'c3'
p2345
sa(dp2346
g7
S'c4'
p2347
sa(dp2348
g5
S'white_rook'
p2349
sg7
S'c5'
p2350
sa(dp2351
g7
S'c6'
p2352
sa(dp2353
g7
S'c7'
p2354
sa(dp2355
g5
S'black_rook'
p2356
sg7
S'c8'
p2357
sa(dp2358
g7
S'd1'
p2359
sa(dp2360
g5
S'white_pawn'
p2361
sg7
S'd2'
p2362
sa(dp2363
g7
S'd3'
p2364
sa(dp2365
g5
S'black_knight'
p2366
sg7
S'd4'
p2367
sa(dp2368
g7
S'd5'
p2369
sa(dp2370
g5
S'black_rook'
p2371
sg7
S'd6'
p2372
sa(dp2373
g5
S'black_king'
p2374
sg7
S'd7'
p2375
sa(dp2376
g7
S'd8'
p2377
sa(dp2378
g7
S'e1'
p2379
sa(dp2380
g7
S'e2'
p2381
sa(dp2382
g5
S'white_knight'
p2383
sg7
S'e3'
p2384
sa(dp2385
g5
S'black_pawn'
p2386
sg7
S'e4'
p2387
sa(dp2388
g7
S'e5'
p2389
sa(dp2390
g7
S'e6'
p2391
sa(dp2392
g7
S'e7'
p2393
sa(dp2394
g7
S'e8'
p2395
sa(dp2396
g5
S'white_rook'
p2397
sg7
S'f1'
p2398
sa(dp2399
g5
S'white_pawn'
p2400
sg7
S'f2'
p2401
sa(dp2402
g7
S'f3'
p2403
sa(dp2404
g7
S'f4'
p2405
sa(dp2406
g7
S'f5'
p2407
sa(dp2408
g5
S'black_pawn'
p2409
sg7
S'f6'
p2410
sa(dp2411
g7
S'f7'
p2412
sa(dp2413
g7
S'f8'
p2414
sa(dp2415
g7
S'g1'
p2416
sa(dp2417
g5
S'white_king'
p2418
sg7
S'g2'
p2419
sa(dp2420
g5
S'white_pawn'
p2421
sg7
S'g3'
p2422
sa(dp2423
g7
S'g4'
p2424
sa(dp2425
g7
S'g5'
p2426
sa(dp2427
g7
S'g6'
p2428
sa(dp2429
g5
S'black_pawn'
p2430
sg7
S'g7'
p2431
sa(dp2432
g7
S'g8'
p2433
sa(dp2434
g7
S'h1'
p2435
sa(dp2436
g5
S'white_pawn'
p2437
sg7
S'h2'
p2438
sa(dp2439
g7
S'h3'
p2440
sa(dp2441
g7
S'h4'
p2442
sa(dp2443
g7
S'h5'
p2444
sa(dp2445
g7
S'h6'
p2446
sa(dp2447
g5
S'black_pawn'
p2448
sg7
S'h7'
p2449
sa(dp2450
g7
S'h8'
p2451
saaVI contest the c file.
p2452
aa(lp2453
S'29. Rxc8'
p2454
a(lp2455
(dp2456
g7
S'a1'
p2457
sa(dp2458
g5
S'white_pawn'
p2459
sg7
S'a2'
p2460
sa(dp2461
g7
S'a3'
p2462
sa(dp2463
g7
S'a4'
p2464
sa(dp2465
g7
S'a5'
p2466
sa(dp2467
g5
S'black_pawn'
p2468
sg7
S'a6'
p2469
sa(dp2470
g7
S'a7'
p2471
sa(dp2472
g7
S'a8'
p2473
sa(dp2474
g7
S'b1'
p2475
sa(dp2476
g7
S'b2'
p2477
sa(dp2478
g5
S'white_pawn'
p2479
sg7
S'b3'
p2480
sa(dp2481
g7
S'b4'
p2482
sa(dp2483
g5
S'black_pawn'
p2484
sg7
S'b5'
p2485
sa(dp2486
g7
S'b6'
p2487
sa(dp2488
g7
S'b7'
p2489
sa(dp2490
g7
S'b8'
p2491
sa(dp2492
g7
S'c1'
p2493
sa(dp2494
g7
S'c2'
p2495
sa(dp2496
g7
S'c3'
p2497
sa(dp2498
g7
S'c4'
p2499
sa(dp2500
g7
S'c5'
p2501
sa(dp2502
g7
S'c6'
p2503
sa(dp2504
g7
S'c7'
p2505
sa(dp2506
g5
S'white_rook'
p2507
sg7
S'c8'
p2508
sa(dp2509
g7
S'd1'
p2510
sa(dp2511
g5
S'white_pawn'
p2512
sg7
S'd2'
p2513
sa(dp2514
g7
S'd3'
p2515
sa(dp2516
g5
S'black_knight'
p2517
sg7
S'd4'
p2518
sa(dp2519
g7
S'd5'
p2520
sa(dp2521
g5
S'black_rook'
p2522
sg7
S'd6'
p2523
sa(dp2524
g5
S'black_king'
p2525
sg7
S'd7'
p2526
sa(dp2527
g7
S'd8'
p2528
sa(dp2529
g7
S'e1'
p2530
sa(dp2531
g7
S'e2'
p2532
sa(dp2533
g5
S'white_knight'
p2534
sg7
S'e3'
p2535
sa(dp2536
g5
S'black_pawn'
p2537
sg7
S'e4'
p2538
sa(dp2539
g7
S'e5'
p2540
sa(dp2541
g7
S'e6'
p2542
sa(dp2543
g7
S'e7'
p2544
sa(dp2545
g7
S'e8'
p2546
sa(dp2547
g5
S'white_rook'
p2548
sg7
S'f1'
p2549
sa(dp2550
g5
S'white_pawn'
p2551
sg7
S'f2'
p2552
sa(dp2553
g7
S'f3'
p2554
sa(dp2555
g7
S'f4'
p2556
sa(dp2557
g7
S'f5'
p2558
sa(dp2559
g5
S'black_pawn'
p2560
sg7
S'f6'
p2561
sa(dp2562
g7
S'f7'
p2563
sa(dp2564
g7
S'f8'
p2565
sa(dp2566
g7
S'g1'
p2567
sa(dp2568
g5
S'white_king'
p2569
sg7
S'g2'
p2570
sa(dp2571
g5
S'white_pawn'
p2572
sg7
S'g3'
p2573
sa(dp2574
g7
S'g4'
p2575
sa(dp2576
g7
S'g5'
p2577
sa(dp2578
g7
S'g6'
p2579
sa(dp2580
g5
S'black_pawn'
p2581
sg7
S'g7'
p2582
sa(dp2583
g7
S'g8'
p2584
sa(dp2585
g7
S'h1'
p2586
sa(dp2587
g5
S'white_pawn'
p2588
sg7
S'h2'
p2589
sa(dp2590
g7
S'h3'
p2591
sa(dp2592
g7
S'h4'
p2593
sa(dp2594
g7
S'h5'
p2595
sa(dp2596
g7
S'h6'
p2597
sa(dp2598
g5
S'black_pawn'
p2599
sg7
S'h7'
p2600
sa(dp2601
g7
S'h8'
p2602
saaVHe takes.
p2603
aa(lp2604
S'29... Kxc8'
p2605
a(lp2606
(dp2607
g7
S'a1'
p2608
sa(dp2609
g5
S'white_pawn'
p2610
sg7
S'a2'
p2611
sa(dp2612
g7
S'a3'
p2613
sa(dp2614
g7
S'a4'
p2615
sa(dp2616
g7
S'a5'
p2617
sa(dp2618
g5
S'black_pawn'
p2619
sg7
S'a6'
p2620
sa(dp2621
g7
S'a7'
p2622
sa(dp2623
g7
S'a8'
p2624
sa(dp2625
g7
S'b1'
p2626
sa(dp2627
g7
S'b2'
p2628
sa(dp2629
g5
S'white_pawn'
p2630
sg7
S'b3'
p2631
sa(dp2632
g7
S'b4'
p2633
sa(dp2634
g5
S'black_pawn'
p2635
sg7
S'b5'
p2636
sa(dp2637
g7
S'b6'
p2638
sa(dp2639
g7
S'b7'
p2640
sa(dp2641
g7
S'b8'
p2642
sa(dp2643
g7
S'c1'
p2644
sa(dp2645
g7
S'c2'
p2646
sa(dp2647
g7
S'c3'
p2648
sa(dp2649
g7
S'c4'
p2650
sa(dp2651
g7
S'c5'
p2652
sa(dp2653
g7
S'c6'
p2654
sa(dp2655
g7
S'c7'
p2656
sa(dp2657
g5
S'black_king'
p2658
sg7
S'c8'
p2659
sa(dp2660
g7
S'd1'
p2661
sa(dp2662
g5
S'white_pawn'
p2663
sg7
S'd2'
p2664
sa(dp2665
g7
S'd3'
p2666
sa(dp2667
g5
S'black_knight'
p2668
sg7
S'd4'
p2669
sa(dp2670
g7
S'd5'
p2671
sa(dp2672
g5
S'black_rook'
p2673
sg7
S'd6'
p2674
sa(dp2675
g7
S'd7'
p2676
sa(dp2677
g7
S'd8'
p2678
sa(dp2679
g7
S'e1'
p2680
sa(dp2681
g7
S'e2'
p2682
sa(dp2683
g5
S'white_knight'
p2684
sg7
S'e3'
p2685
sa(dp2686
g5
S'black_pawn'
p2687
sg7
S'e4'
p2688
sa(dp2689
g7
S'e5'
p2690
sa(dp2691
g7
S'e6'
p2692
sa(dp2693
g7
S'e7'
p2694
sa(dp2695
g7
S'e8'
p2696
sa(dp2697
g5
S'white_rook'
p2698
sg7
S'f1'
p2699
sa(dp2700
g5
S'white_pawn'
p2701
sg7
S'f2'
p2702
sa(dp2703
g7
S'f3'
p2704
sa(dp2705
g7
S'f4'
p2706
sa(dp2707
g7
S'f5'
p2708
sa(dp2709
g5
S'black_pawn'
p2710
sg7
S'f6'
p2711
sa(dp2712
g7
S'f7'
p2713
sa(dp2714
g7
S'f8'
p2715
sa(dp2716
g7
S'g1'
p2717
sa(dp2718
g5
S'white_king'
p2719
sg7
S'g2'
p2720
sa(dp2721
g5
S'white_pawn'
p2722
sg7
S'g3'
p2723
sa(dp2724
g7
S'g4'
p2725
sa(dp2726
g7
S'g5'
p2727
sa(dp2728
g7
S'g6'
p2729
sa(dp2730
g5
S'black_pawn'
p2731
sg7
S'g7'
p2732
sa(dp2733
g7
S'g8'
p2734
sa(dp2735
g7
S'h1'
p2736
sa(dp2737
g5
S'white_pawn'
p2738
sg7
S'h2'
p2739
sa(dp2740
g7
S'h3'
p2741
sa(dp2742
g7
S'h4'
p2743
sa(dp2744
g7
S'h5'
p2745
sa(dp2746
g7
S'h6'
p2747
sa(dp2748
g5
S'black_pawn'
p2749
sg7
S'h7'
p2750
sa(dp2751
g7
S'h8'
p2752
saaVI take back.
p2753
aa(lp2754
S'30. Rc1+'
p2755
a(lp2756
(dp2757
g7
S'a1'
p2758
sa(dp2759
g5
S'white_pawn'
p2760
sg7
S'a2'
p2761
sa(dp2762
g7
S'a3'
p2763
sa(dp2764
g7
S'a4'
p2765
sa(dp2766
g7
S'a5'
p2767
sa(dp2768
g5
S'black_pawn'
p2769
sg7
S'a6'
p2770
sa(dp2771
g7
S'a7'
p2772
sa(dp2773
g7
S'a8'
p2774
sa(dp2775
g7
S'b1'
p2776
sa(dp2777
g7
S'b2'
p2778
sa(dp2779
g5
S'white_pawn'
p2780
sg7
S'b3'
p2781
sa(dp2782
g7
S'b4'
p2783
sa(dp2784
g5
S'black_pawn'
p2785
sg7
S'b5'
p2786
sa(dp2787
g7
S'b6'
p2788
sa(dp2789
g7
S'b7'
p2790
sa(dp2791
g7
S'b8'
p2792
sa(dp2793
g5
S'white_rook'
p2794
sg7
S'c1'
p2795
sa(dp2796
g7
S'c2'
p2797
sa(dp2798
g7
S'c3'
p2799
sa(dp2800
g7
S'c4'
p2801
sa(dp2802
g7
S'c5'
p2803
sa(dp2804
g7
S'c6'
p2805
sa(dp2806
g7
S'c7'
p2807
sa(dp2808
g5
S'black_king'
p2809
sg7
S'c8'
p2810
sa(dp2811
g7
S'd1'
p2812
sa(dp2813
g5
S'white_pawn'
p2814
sg7
S'd2'
p2815
sa(dp2816
g7
S'd3'
p2817
sa(dp2818
g5
S'black_knight'
p2819
sg7
S'd4'
p2820
sa(dp2821
g7
S'd5'
p2822
sa(dp2823
g5
S'black_rook'
p2824
sg7
S'd6'
p2825
sa(dp2826
g7
S'd7'
p2827
sa(dp2828
g7
S'd8'
p2829
sa(dp2830
g7
S'e1'
p2831
sa(dp2832
g7
S'e2'
p2833
sa(dp2834
g5
S'white_knight'
p2835
sg7
S'e3'
p2836
sa(dp2837
g5
S'black_pawn'
p2838
sg7
S'e4'
p2839
sa(dp2840
g7
S'e5'
p2841
sa(dp2842
g7
S'e6'
p2843
sa(dp2844
g7
S'e7'
p2845
sa(dp2846
g7
S'e8'
p2847
sa(dp2848
g7
S'f1'
p2849
sa(dp2850
g5
S'white_pawn'
p2851
sg7
S'f2'
p2852
sa(dp2853
g7
S'f3'
p2854
sa(dp2855
g7
S'f4'
p2856
sa(dp2857
g7
S'f5'
p2858
sa(dp2859
g5
S'black_pawn'
p2860
sg7
S'f6'
p2861
sa(dp2862
g7
S'f7'
p2863
sa(dp2864
g7
S'f8'
p2865
sa(dp2866
g7
S'g1'
p2867
sa(dp2868
g5
S'white_king'
p2869
sg7
S'g2'
p2870
sa(dp2871
g5
S'white_pawn'
p2872
sg7
S'g3'
p2873
sa(dp2874
g7
S'g4'
p2875
sa(dp2876
g7
S'g5'
p2877
sa(dp2878
g7
S'g6'
p2879
sa(dp2880
g5
S'black_pawn'
p2881
sg7
S'g7'
p2882
sa(dp2883
g7
S'g8'
p2884
sa(dp2885
g7
S'h1'
p2886
sa(dp2887
g5
S'white_pawn'
p2888
sg7
S'h2'
p2889
sa(dp2890
g7
S'h3'
p2891
sa(dp2892
g7
S'h4'
p2893
sa(dp2894
g7
S'h5'
p2895
sa(dp2896
g7
S'h6'
p2897
sa(dp2898
g5
S'black_pawn'
p2899
sg7
S'h7'
p2900
sa(dp2901
g7
S'h8'
p2902
saaVHe throws in a check.
p2903
aa(lp2904
S'30... Kd7'
p2905
a(lp2906
(dp2907
g7
S'a1'
p2908
sa(dp2909
g5
S'white_pawn'
p2910
sg7
S'a2'
p2911
sa(dp2912
g7
S'a3'
p2913
sa(dp2914
g7
S'a4'
p2915
sa(dp2916
g7
S'a5'
p2917
sa(dp2918
g5
S'black_pawn'
p2919
sg7
S'a6'
p2920
sa(dp2921
g7
S'a7'
p2922
sa(dp2923
g7
S'a8'
p2924
sa(dp2925
g7
S'b1'
p2926
sa(dp2927
g7
S'b2'
p2928
sa(dp2929
g5
S'white_pawn'
p2930
sg7
S'b3'
p2931
sa(dp2932
g7
S'b4'
p2933
sa(dp2934
g5
S'black_pawn'
p2935
sg7
S'b5'
p2936
sa(dp2937
g7
S'b6'
p2938
sa(dp2939
g7
S'b7'
p2940
sa(dp2941
g7
S'b8'
p2942
sa(dp2943
g5
S'white_rook'
p2944
sg7
S'c1'
p2945
sa(dp2946
g7
S'c2'
p2947
sa(dp2948
g7
S'c3'
p2949
sa(dp2950
g7
S'c4'
p2951
sa(dp2952
g7
S'c5'
p2953
sa(dp2954
g7
S'c6'
p2955
sa(dp2956
g7
S'c7'
p2957
sa(dp2958
g7
S'c8'
p2959
sa(dp2960
g7
S'd1'
p2961
sa(dp2962
g5
S'white_pawn'
p2963
sg7
S'd2'
p2964
sa(dp2965
g7
S'd3'
p2966
sa(dp2967
g5
S'black_knight'
p2968
sg7
S'd4'
p2969
sa(dp2970
g7
S'd5'
p2971
sa(dp2972
g5
S'black_rook'
p2973
sg7
S'd6'
p2974
sa(dp2975
g5
S'black_king'
p2976
sg7
S'd7'
p2977
sa(dp2978
g7
S'd8'
p2979
sa(dp2980
g7
S'e1'
p2981
sa(dp2982
g7
S'e2'
p2983
sa(dp2984
g5
S'white_knight'
p2985
sg7
S'e3'
p2986
sa(dp2987
g5
S'black_pawn'
p2988
sg7
S'e4'
p2989
sa(dp2990
g7
S'e5'
p2991
sa(dp2992
g7
S'e6'
p2993
sa(dp2994
g7
S'e7'
p2995
sa(dp2996
g7
S'e8'
p2997
sa(dp2998
g7
S'f1'
p2999
sa(dp3000
g5
S'white_pawn'
p3001
sg7
S'f2'
p3002
sa(dp3003
g7
S'f3'
p3004
sa(dp3005
g7
S'f4'
p3006
sa(dp3007
g7
S'f5'
p3008
sa(dp3009
g5
S'black_pawn'
p3010
sg7
S'f6'
p3011
sa(dp3012
g7
S'f7'
p3013
sa(dp3014
g7
S'f8'
p3015
sa(dp3016
g7
S'g1'
p3017
sa(dp3018
g5
S'white_king'
p3019
sg7
S'g2'
p3020
sa(dp3021
g5
S'white_pawn'
p3022
sg7
S'g3'
p3023
sa(dp3024
g7
S'g4'
p3025
sa(dp3026
g7
S'g5'
p3027
sa(dp3028
g7
S'g6'
p3029
sa(dp3030
g5
S'black_pawn'
p3031
sg7
S'g7'
p3032
sa(dp3033
g7
S'g8'
p3034
sa(dp3035
g7
S'h1'
p3036
sa(dp3037
g5
S'white_pawn'
p3038
sg7
S'h2'
p3039
sa(dp3040
g7
S'h3'
p3041
sa(dp3042
g7
S'h4'
p3043
sa(dp3044
g7
S'h5'
p3045
sa(dp3046
g7
S'h6'
p3047
sa(dp3048
g5
S'black_pawn'
p3049
sg7
S'h7'
p3050
sa(dp3051
g7
S'h8'
p3052
saaVI return to d7.
p3053
aa.