(lp0
(lp1
S'36... Rxc2 37. Be3 Bf6+'
p2
a(lp3
(dp4
S'location'
p5
S'a1'
p6
sa(dp7
g5
S'a2'
p8
sa(dp9
g5
S'a3'
p10
sa(dp11
S'piece'
p12
S'white_pawn'
p13
sg5
S'a4'
p14
sa(dp15
g12
S'black_pawn'
p16
sg5
S'a5'
p17
sa(dp18
g5
S'a6'
p19
sa(dp20
g5
S'a7'
p21
sa(dp22
g5
S'a8'
p23
sa(dp24
g5
S'b1'
p25
sa(dp26
g5
S'b2'
p27
sa(dp28
g12
S'white_pawn'
p29
sg5
S'b3'
p30
sa(dp31
g12
S'black_pawn'
p32
sg5
S'b4'
p33
sa(dp34
g5
S'b5'
p35
sa(dp36
g5
S'b6'
p37
sa(dp38
g5
S'b7'
p39
sa(dp40
g5
S'b8'
p41
sa(dp42
g5
S'c1'
p43
sa(dp44
g12
S'black_rook'
p45
sg5
S'c2'
p46
sa(dp47
g5
S'c3'
p48
sa(dp49
g5
S'c4'
p50
sa(dp51
g5
S'c5'
p52
sa(dp53
g5
S'c6'
p54
sa(dp55
g5
S'c7'
p56
sa(dp57
g5
S'c8'
p58
sa(dp59
g5
S'd1'
p60
sa(dp61
g5
S'd2'
p62
sa(dp63
g12
S'white_pawn'
p64
sg5
S'd3'
p65
sa(dp66
g12
S'white_king'
p67
sg5
S'd4'
p68
sa(dp69
g12
S'black_pawn'
p70
sg5
S'd5'
p71
sa(dp72
g12
S'white_rook'
p73
sg5
S'd6'
p74
sa(dp75
g5
S'd7'
p76
sa(dp77
g5
S'd8'
p78
sa(dp79
g5
S'e1'
p80
sa(dp81
g5
S'e2'
p82
sa(dp83
g12
S'white_bishop'
p84
sg5
S'e3'
p85
sa(dp86
g5
S'e4'
p87
sa(dp88
g5
S'e5'
p89
sa(dp90
g5
S'e6'
p91
sa(dp92
g5
S'e7'
p93
sa(dp94
g5
S'e8'
p95
sa(dp96
g5
S'f1'
p97
sa(dp98
g5
S'f2'
p99
sa(dp100
g5
S'f3'
p101
sa(dp102
g12
S'white_pawn'
p103
sg5
S'f4'
p104
sa(dp105
g5
S'f5'
p106
sa(dp107
g12
S'black_bishop'
p108
sg5
S'f6'
p109
sa(dp110
g12
S'black_king'
p111
sg5
S'f7'
p112
sa(dp113
g5
S'f8'
p114
sa(dp115
g5
S'g1'
p116
sa(dp117
g5
S'g2'
p118
sa(dp119
g5
S'g3'
p120
sa(dp121
g12
S'white_pawn'
p122
sg5
S'g4'
p123
sa(dp124
g5
S'g5'
p125
sa(dp126
g5
S'g6'
p127
sa(dp128
g12
S'black_pawn'
p129
sg5
S'g7'
p130
sa(dp131
g5
S'g8'
p132
sa(dp133
g5
S'h1'
p134
sa(dp135
g5
S'h2'
p136
sa(dp137
g5
S'h3'
p138
sa(dp139
g5
S'h4'
p140
sa(dp141
g5
S'h5'
p142
sa(dp143
g12
S'black_pawn'
p144
sg5
S'h6'
p145
sa(dp146
g5
S'h7'
p147
sa(dp148
g5
S'h8'
p149
saaVthe last resort, but not helping; best was Re2, to keep the next move from happening, and let White work it out...
p150
aa(lp151
S'38. Kxd5 Rc3 39. Ke4 Rxb3 40. Rd5'
p152
a(lp153
(dp154
g5
S'a1'
p155
sa(dp156
g5
S'a2'
p157
sa(dp158
g5
S'a3'
p159
sa(dp160
g12
S'white_pawn'
p161
sg5
S'a4'
p162
sa(dp163
g12
S'black_pawn'
p164
sg5
S'a5'
p165
sa(dp166
g5
S'a6'
p167
sa(dp168
g5
S'a7'
p169
sa(dp170
g5
S'a8'
p171
sa(dp172
g5
S'b1'
p173
sa(dp174
g5
S'b2'
p175
sa(dp176
g12
S'black_rook'
p177
sg5
S'b3'
p178
sa(dp179
g12
S'black_pawn'
p180
sg5
S'b4'
p181
sa(dp182
g5
S'b5'
p183
sa(dp184
g5
S'b6'
p185
sa(dp186
g5
S'b7'
p187
sa(dp188
g5
S'b8'
p189
sa(dp190
g5
S'c1'
p191
sa(dp192
g5
S'c2'
p193
sa(dp194
g5
S'c3'
p195
sa(dp196
g5
S'c4'
p197
sa(dp198
g5
S'c5'
p199
sa(dp200
g5
S'c6'
p201
sa(dp202
g5
S'c7'
p203
sa(dp204
g5
S'c8'
p205
sa(dp206
g5
S'd1'
p207
sa(dp208
g5
S'd2'
p209
sa(dp210
g12
S'white_pawn'
p211
sg5
S'd3'
p212
sa(dp213
g5
S'd4'
p214
sa(dp215
g12
S'white_rook'
p216
sg5
S'd5'
p217
sa(dp218
g5
S'd6'
p219
sa(dp220
g5
S'd7'
p221
sa(dp222
g5
S'd8'
p223
sa(dp224
g5
S'e1'
p225
sa(dp226
g5
S'e2'
p227
sa(dp228
g12
S'white_bishop'
p229
sg5
S'e3'
p230
sa(dp231
g12
S'white_king'
p232
sg5
S'e4'
p233
sa(dp234
g5
S'e5'
p235
sa(dp236
g5
S'e6'
p237
sa(dp238
g5
S'e7'
p239
sa(dp240
g5
S'e8'
p241
sa(dp242
g5
S'f1'
p243
sa(dp244
g5
S'f2'
p245
sa(dp246
g5
S'f3'
p247
sa(dp248
g12
S'white_pawn'
p249
sg5
S'f4'
p250
sa(dp251
g5
S'f5'
p252
sa(dp253
g12
S'black_bishop'
p254
sg5
S'f6'
p255
sa(dp256
g12
S'black_king'
p257
sg5
S'f7'
p258
sa(dp259
g5
S'f8'
p260
sa(dp261
g5
S'g1'
p262
sa(dp263
g5
S'g2'
p264
sa(dp265
g5
S'g3'
p266
sa(dp267
g12
S'white_pawn'
p268
sg5
S'g4'
p269
sa(dp270
g5
S'g5'
p271
sa(dp272
g5
S'g6'
p273
sa(dp274
g12
S'black_pawn'
p275
sg5
S'g7'
p276
sa(dp277
g5
S'g8'
p278
sa(dp279
g5
S'h1'
p280
sa(dp281
g5
S'h2'
p282
sa(dp283
g5
S'h3'
p284
sa(dp285
g5
S'h4'
p286
sa(dp287
g5
S'h5'
p288
sa(dp289
g12
S'black_pawn'
p290
sg5
S'h6'
p291
sa(dp292
g5
S'h7'
p293
sa(dp294
g5
S'h8'
p295
saaVor Ra6: nothing can save a5 any longer...
p296
aa(lp297
S'40... Ra3'
p298
a(lp299
(dp300
g5
S'a1'
p301
sa(dp302
g5
S'a2'
p303
sa(dp304
g12
S'black_rook'
p305
sg5
S'a3'
p306
sa(dp307
g12
S'white_pawn'
p308
sg5
S'a4'
p309
sa(dp310
g12
S'black_pawn'
p311
sg5
S'a5'
p312
sa(dp313
g5
S'a6'
p314
sa(dp315
g5
S'a7'
p316
sa(dp317
g5
S'a8'
p318
sa(dp319
g5
S'b1'
p320
sa(dp321
g5
S'b2'
p322
sa(dp323
g5
S'b3'
p324
sa(dp325
g12
S'black_pawn'
p326
sg5
S'b4'
p327
sa(dp328
g5
S'b5'
p329
sa(dp330
g5
S'b6'
p331
sa(dp332
g5
S'b7'
p333
sa(dp334
g5
S'b8'
p335
sa(dp336
g5
S'c1'
p337
sa(dp338
g5
S'c2'
p339
sa(dp340
g5
S'c3'
p341
sa(dp342
g5
S'c4'
p343
sa(dp344
g5
S'c5'
p345
sa(dp346
g5
S'c6'
p347
sa(dp348
g5
S'c7'
p349
sa(dp350
g5
S'c8'
p351
sa(dp352
g5
S'd1'
p353
sa(dp354
g5
S'd2'
p355
sa(dp356
g12
S'white_pawn'
p357
sg5
S'd3'
p358
sa(dp359
g5
S'd4'
p360
sa(dp361
g12
S'white_rook'
p362
sg5
S'd5'
p363
sa(dp364
g5
S'd6'
p365
sa(dp366
g5
S'd7'
p367
sa(dp368
g5
S'd8'
p369
sa(dp370
g5
S'e1'
p371
sa(dp372
g5
S'e2'
p373
sa(dp374
g12
S'white_bishop'
p375
sg5
S'e3'
p376
sa(dp377
g12
S'white_king'
p378
sg5
S'e4'
p379
sa(dp380
g5
S'e5'
p381
sa(dp382
g5
S'e6'
p383
sa(dp384
g5
S'e7'
p385
sa(dp386
g5
S'e8'
p387
sa(dp388
g5
S'f1'
p389
sa(dp390
g5
S'f2'
p391
sa(dp392
g5
S'f3'
p393
sa(dp394
g12
S'white_pawn'
p395
sg5
S'f4'
p396
sa(dp397
g5
S'f5'
p398
sa(dp399
g12
S'black_bishop'
p400
sg5
S'f6'
p401
sa(dp402
g12
S'black_king'
p403
sg5
S'f7'
p404
sa(dp405
g5
S'f8'
p406
sa(dp407
g5
S'g1'
p408
sa(dp409
g5
S'g2'
p410
sa(dp411
g5
S'g3'
p412
sa(dp413
g12
S'white_pawn'
p414
sg5
S'g4'
p415
sa(dp416
g5
S'g5'
p417
sa(dp418
g5
S'g6'
p419
sa(dp420
g12
S'black_pawn'
p421
sg5
S'g7'
p422
sa(dp423
g5
S'g8'
p424
sa(dp425
g5
S'h1'
p426
sa(dp427
g5
S'h2'
p428
sa(dp429
g5
S'h3'
p430
sa(dp431
g5
S'h4'
p432
sa(dp433
g5
S'h5'
p434
sa(dp435
g12
S'black_pawn'
p436
sg5
S'h6'
p437
sa(dp438
g5
S'h7'
p439
sa(dp440
g5
S'h8'
p441
saaVthis is losing; much safer would have been Rb1, to support b3...
p442
aa(lp443
S'41. Rxa5 b3 42. Ra7+'
p444
a(lp445
(dp446
g5
S'a1'
p447
sa(dp448
g5
S'a2'
p449
sa(dp450
g12
S'black_rook'
p451
sg5
S'a3'
p452
sa(dp453
g12
S'white_pawn'
p454
sg5
S'a4'
p455
sa(dp456
g5
S'a5'
p457
sa(dp458
g5
S'a6'
p459
sa(dp460
g12
S'white_rook'
p461
sg5
S'a7'
p462
sa(dp463
g5
S'a8'
p464
sa(dp465
g5
S'b1'
p466
sa(dp467
g5
S'b2'
p468
sa(dp469
g12
S'black_pawn'
p470
sg5
S'b3'
p471
sa(dp472
g5
S'b4'
p473
sa(dp474
g5
S'b5'
p475
sa(dp476
g5
S'b6'
p477
sa(dp478
g5
S'b7'
p479
sa(dp480
g5
S'b8'
p481
sa(dp482
g5
S'c1'
p483
sa(dp484
g5
S'c2'
p485
sa(dp486
g5
S'c3'
p487
sa(dp488
g5
S'c4'
p489
sa(dp490
g5
S'c5'
p491
sa(dp492
g5
S'c6'
p493
sa(dp494
g5
S'c7'
p495
sa(dp496
g5
S'c8'
p497
sa(dp498
g5
S'd1'
p499
sa(dp500
g5
S'd2'
p501
sa(dp502
g12
S'white_pawn'
p503
sg5
S'd3'
p504
sa(dp505
g5
S'd4'
p506
sa(dp507
g5
S'd5'
p508
sa(dp509
g5
S'd6'
p510
sa(dp511
g5
S'd7'
p512
sa(dp513
g5
S'd8'
p514
sa(dp515
g5
S'e1'
p516
sa(dp517
g5
S'e2'
p518
sa(dp519
g12
S'white_bishop'
p520
sg5
S'e3'
p521
sa(dp522
g12
S'white_king'
p523
sg5
S'e4'
p524
sa(dp525
g5
S'e5'
p526
sa(dp527
g5
S'e6'
p528
sa(dp529
g5
S'e7'
p530
sa(dp531
g5
S'e8'
p532
sa(dp533
g5
S'f1'
p534
sa(dp535
g5
S'f2'
p536
sa(dp537
g5
S'f3'
p538
sa(dp539
g12
S'white_pawn'
p540
sg5
S'f4'
p541
sa(dp542
g5
S'f5'
p543
sa(dp544
g12
S'black_bishop'
p545
sg5
S'f6'
p546
sa(dp547
g12
S'black_king'
p548
sg5
S'f7'
p549
sa(dp550
g5
S'f8'
p551
sa(dp552
g5
S'g1'
p553
sa(dp554
g5
S'g2'
p555
sa(dp556
g5
S'g3'
p557
sa(dp558
g12
S'white_pawn'
p559
sg5
S'g4'
p560
sa(dp561
g5
S'g5'
p562
sa(dp563
g5
S'g6'
p564
sa(dp565
g12
S'black_pawn'
p566
sg5
S'g7'
p567
sa(dp568
g5
S'g8'
p569
sa(dp570
g5
S'h1'
p571
sa(dp572
g5
S'h2'
p573
sa(dp574
g5
S'h3'
p575
sa(dp576
g5
S'h4'
p577
sa(dp578
g5
S'h5'
p579
sa(dp580
g12
S'black_pawn'
p581
sg5
S'h6'
p582
sa(dp583
g5
S'h7'
p584
sa(dp585
g5
S'h8'
p586
saaVsuddenly, Black is caught up in a mate trap; f5 being the killer here... plus: d4 is about to ruin control over the b-pawn... best is Ke8, d4, g6, to hold f5; White of course can always trade pawns via Rb7...
p587
aa(lp588
S'42... Ke6'
p589
a(lp590
(dp591
g5
S'a1'
p592
sa(dp593
g5
S'a2'
p594
sa(dp595
g12
S'black_rook'
p596
sg5
S'a3'
p597
sa(dp598
g12
S'white_pawn'
p599
sg5
S'a4'
p600
sa(dp601
g5
S'a5'
p602
sa(dp603
g5
S'a6'
p604
sa(dp605
g12
S'white_rook'
p606
sg5
S'a7'
p607
sa(dp608
g5
S'a8'
p609
sa(dp610
g5
S'b1'
p611
sa(dp612
g5
S'b2'
p613
sa(dp614
g12
S'black_pawn'
p615
sg5
S'b3'
p616
sa(dp617
g5
S'b4'
p618
sa(dp619
g5
S'b5'
p620
sa(dp621
g5
S'b6'
p622
sa(dp623
g5
S'b7'
p624
sa(dp625
g5
S'b8'
p626
sa(dp627
g5
S'c1'
p628
sa(dp629
g5
S'c2'
p630
sa(dp631
g5
S'c3'
p632
sa(dp633
g5
S'c4'
p634
sa(dp635
g5
S'c5'
p636
sa(dp637
g5
S'c6'
p638
sa(dp639
g5
S'c7'
p640
sa(dp641
g5
S'c8'
p642
sa(dp643
g5
S'd1'
p644
sa(dp645
g5
S'd2'
p646
sa(dp647
g12
S'white_pawn'
p648
sg5
S'd3'
p649
sa(dp650
g5
S'd4'
p651
sa(dp652
g5
S'd5'
p653
sa(dp654
g5
S'd6'
p655
sa(dp656
g5
S'd7'
p657
sa(dp658
g5
S'd8'
p659
sa(dp660
g5
S'e1'
p661
sa(dp662
g5
S'e2'
p663
sa(dp664
g12
S'white_bishop'
p665
sg5
S'e3'
p666
sa(dp667
g12
S'white_king'
p668
sg5
S'e4'
p669
sa(dp670
g5
S'e5'
p671
sa(dp672
g12
S'black_king'
p673
sg5
S'e6'
p674
sa(dp675
g5
S'e7'
p676
sa(dp677
g5
S'e8'
p678
sa(dp679
g5
S'f1'
p680
sa(dp681
g5
S'f2'
p682
sa(dp683
g5
S'f3'
p684
sa(dp685
g12
S'white_pawn'
p686
sg5
S'f4'
p687
sa(dp688
g5
S'f5'
p689
sa(dp690
g12
S'black_bishop'
p691
sg5
S'f6'
p692
sa(dp693
g5
S'f7'
p694
sa(dp695
g5
S'f8'
p696
sa(dp697
g5
S'g1'
p698
sa(dp699
g5
S'g2'
p700
sa(dp701
g5
S'g3'
p702
sa(dp703
g12
S'white_pawn'
p704
sg5
S'g4'
p705
sa(dp706
g5
S'g5'
p707
sa(dp708
g5
S'g6'
p709
sa(dp710
g12
S'black_pawn'
p711
sg5
S'g7'
p712
sa(dp713
g5
S'g8'
p714
sa(dp715
g5
S'h1'
p716
sa(dp717
g5
S'h2'
p718
sa(dp719
g5
S'h3'
p720
sa(dp721
g5
S'h4'
p722
sa(dp723
g5
S'h5'
p724
sa(dp725
g12
S'black_pawn'
p726
sg5
S'h6'
p727
sa(dp728
g5
S'h7'
p729
sa(dp730
g5
S'h8'
p731
saaVa point of no return: preparing Kd6, after f5+, but losing immediately in opposing Whites' King...
p732
aa(lp733
S'43. Bc5'
p734
a(lp735
(dp736
g5
S'a1'
p737
sa(dp738
g5
S'a2'
p739
sa(dp740
g12
S'black_rook'
p741
sg5
S'a3'
p742
sa(dp743
g12
S'white_pawn'
p744
sg5
S'a4'
p745
sa(dp746
g5
S'a5'
p747
sa(dp748
g5
S'a6'
p749
sa(dp750
g12
S'white_rook'
p751
sg5
S'a7'
p752
sa(dp753
g5
S'a8'
p754
sa(dp755
g5
S'b1'
p756
sa(dp757
g5
S'b2'
p758
sa(dp759
g12
S'black_pawn'
p760
sg5
S'b3'
p761
sa(dp762
g5
S'b4'
p763
sa(dp764
g5
S'b5'
p765
sa(dp766
g5
S'b6'
p767
sa(dp768
g5
S'b7'
p769
sa(dp770
g5
S'b8'
p771
sa(dp772
g5
S'c1'
p773
sa(dp774
g5
S'c2'
p775
sa(dp776
g5
S'c3'
p777
sa(dp778
g5
S'c4'
p779
sa(dp780
g12
S'white_bishop'
p781
sg5
S'c5'
p782
sa(dp783
g5
S'c6'
p784
sa(dp785
g5
S'c7'
p786
sa(dp787
g5
S'c8'
p788
sa(dp789
g5
S'd1'
p790
sa(dp791
g5
S'd2'
p792
sa(dp793
g12
S'white_pawn'
p794
sg5
S'd3'
p795
sa(dp796
g5
S'd4'
p797
sa(dp798
g5
S'd5'
p799
sa(dp800
g5
S'd6'
p801
sa(dp802
g5
S'd7'
p803
sa(dp804
g5
S'd8'
p805
sa(dp806
g5
S'e1'
p807
sa(dp808
g5
S'e2'
p809
sa(dp810
g5
S'e3'
p811
sa(dp812
g12
S'white_king'
p813
sg5
S'e4'
p814
sa(dp815
g5
S'e5'
p816
sa(dp817
g12
S'black_king'
p818
sg5
S'e6'
p819
sa(dp820
g5
S'e7'
p821
sa(dp822
g5
S'e8'
p823
sa(dp824
g5
S'f1'
p825
sa(dp826
g5
S'f2'
p827
sa(dp828
g5
S'f3'
p829
sa(dp830
g12
S'white_pawn'
p831
sg5
S'f4'
p832
sa(dp833
g5
S'f5'
p834
sa(dp835
g12
S'black_bishop'
p836
sg5
S'f6'
p837
sa(dp838
g5
S'f7'
p839
sa(dp840
g5
S'f8'
p841
sa(dp842
g5
S'g1'
p843
sa(dp844
g5
S'g2'
p845
sa(dp846
g5
S'g3'
p847
sa(dp848
g12
S'white_pawn'
p849
sg5
S'g4'
p850
sa(dp851
g5
S'g5'
p852
sa(dp853
g5
S'g6'
p854
sa(dp855
g12
S'black_pawn'
p856
sg5
S'g7'
p857
sa(dp858
g5
S'g8'
p859
sa(dp860
g5
S'h1'
p861
sa(dp862
g5
S'h2'
p863
sa(dp864
g5
S'h3'
p865
sa(dp866
g5
S'h4'
p867
sa(dp868
g5
S'h5'
p869
sa(dp870
g12
S'black_pawn'
p871
sg5
S'h6'
p872
sa(dp873
g5
S'h7'
p874
sa(dp875
g5
S'h8'
p876
saaVafter this move, f5 is the executioner; or Bxa3...
p877
aa(lp878
S'43... Rxa4+'
p879
a(lp880
(dp881
g5
S'a1'
p882
sa(dp883
g5
S'a2'
p884
sa(dp885
g5
S'a3'
p886
sa(dp887
g12
S'black_rook'
p888
sg5
S'a4'
p889
sa(dp890
g5
S'a5'
p891
sa(dp892
g5
S'a6'
p893
sa(dp894
g12
S'white_rook'
p895
sg5
S'a7'
p896
sa(dp897
g5
S'a8'
p898
sa(dp899
g5
S'b1'
p900
sa(dp901
g5
S'b2'
p902
sa(dp903
g12
S'black_pawn'
p904
sg5
S'b3'
p905
sa(dp906
g5
S'b4'
p907
sa(dp908
g5
S'b5'
p909
sa(dp910
g5
S'b6'
p911
sa(dp912
g5
S'b7'
p913
sa(dp914
g5
S'b8'
p915
sa(dp916
g5
S'c1'
p917
sa(dp918
g5
S'c2'
p919
sa(dp920
g5
S'c3'
p921
sa(dp922
g5
S'c4'
p923
sa(dp924
g12
S'white_bishop'
p925
sg5
S'c5'
p926
sa(dp927
g5
S'c6'
p928
sa(dp929
g5
S'c7'
p930
sa(dp931
g5
S'c8'
p932
sa(dp933
g5
S'd1'
p934
sa(dp935
g5
S'd2'
p936
sa(dp937
g12
S'white_pawn'
p938
sg5
S'd3'
p939
sa(dp940
g5
S'd4'
p941
sa(dp942
g5
S'd5'
p943
sa(dp944
g5
S'd6'
p945
sa(dp946
g5
S'd7'
p947
sa(dp948
g5
S'd8'
p949
sa(dp950
g5
S'e1'
p951
sa(dp952
g5
S'e2'
p953
sa(dp954
g5
S'e3'
p955
sa(dp956
g12
S'white_king'
p957
sg5
S'e4'
p958
sa(dp959
g5
S'e5'
p960
sa(dp961
g12
S'black_king'
p962
sg5
S'e6'
p963
sa(dp964
g5
S'e7'
p965
sa(dp966
g5
S'e8'
p967
sa(dp968
g5
S'f1'
p969
sa(dp970
g5
S'f2'
p971
sa(dp972
g5
S'f3'
p973
sa(dp974
g12
S'white_pawn'
p975
sg5
S'f4'
p976
sa(dp977
g5
S'f5'
p978
sa(dp979
g12
S'black_bishop'
p980
sg5
S'f6'
p981
sa(dp982
g5
S'f7'
p983
sa(dp984
g5
S'f8'
p985
sa(dp986
g5
S'g1'
p987
sa(dp988
g5
S'g2'
p989
sa(dp990
g5
S'g3'
p991
sa(dp992
g12
S'white_pawn'
p993
sg5
S'g4'
p994
sa(dp995
g5
S'g5'
p996
sa(dp997
g5
S'g6'
p998
sa(dp999
g12
S'black_pawn'
p1000
sg5
S'g7'
p1001
sa(dp1002
g5
S'g8'
p1003
sa(dp1004
g5
S'h1'
p1005
sa(dp1006
g5
S'h2'
p1007
sa(dp1008
g5
S'h3'
p1009
sa(dp1010
g5
S'h4'
p1011
sa(dp1012
g5
S'h5'
p1013
sa(dp1014
g12
S'black_pawn'
p1015
sg5
S'h6'
p1016
sa(dp1017
g5
S'h7'
p1018
sa(dp1019
g5
S'h8'
p1020
saaVthe only one, to prevent f5 and worse...
p1021
aa(lp1022
S'44. Rxa4 b2'
p1023
a(lp1024
(dp1025
g5
S'a1'
p1026
sa(dp1027
g5
S'a2'
p1028
sa(dp1029
g5
S'a3'
p1030
sa(dp1031
g12
S'white_rook'
p1032
sg5
S'a4'
p1033
sa(dp1034
g5
S'a5'
p1035
sa(dp1036
g5
S'a6'
p1037
sa(dp1038
g5
S'a7'
p1039
sa(dp1040
g5
S'a8'
p1041
sa(dp1042
g5
S'b1'
p1043
sa(dp1044
g12
S'black_pawn'
p1045
sg5
S'b2'
p1046
sa(dp1047
g5
S'b3'
p1048
sa(dp1049
g5
S'b4'
p1050
sa(dp1051
g5
S'b5'
p1052
sa(dp1053
g5
S'b6'
p1054
sa(dp1055
g5
S'b7'
p1056
sa(dp1057
g5
S'b8'
p1058
sa(dp1059
g5
S'c1'
p1060
sa(dp1061
g5
S'c2'
p1062
sa(dp1063
g5
S'c3'
p1064
sa(dp1065
g5
S'c4'
p1066
sa(dp1067
g12
S'white_bishop'
p1068
sg5
S'c5'
p1069
sa(dp1070
g5
S'c6'
p1071
sa(dp1072
g5
S'c7'
p1073
sa(dp1074
g5
S'c8'
p1075
sa(dp1076
g5
S'd1'
p1077
sa(dp1078
g5
S'd2'
p1079
sa(dp1080
g12
S'white_pawn'
p1081
sg5
S'd3'
p1082
sa(dp1083
g5
S'd4'
p1084
sa(dp1085
g5
S'd5'
p1086
sa(dp1087
g5
S'd6'
p1088
sa(dp1089
g5
S'd7'
p1090
sa(dp1091
g5
S'd8'
p1092
sa(dp1093
g5
S'e1'
p1094
sa(dp1095
g5
S'e2'
p1096
sa(dp1097
g5
S'e3'
p1098
sa(dp1099
g12
S'white_king'
p1100
sg5
S'e4'
p1101
sa(dp1102
g5
S'e5'
p1103
sa(dp1104
g12
S'black_king'
p1105
sg5
S'e6'
p1106
sa(dp1107
g5
S'e7'
p1108
sa(dp1109
g5
S'e8'
p1110
sa(dp1111
g5
S'f1'
p1112
sa(dp1113
g5
S'f2'
p1114
sa(dp1115
g5
S'f3'
p1116
sa(dp1117
g12
S'white_pawn'
p1118
sg5
S'f4'
p1119
sa(dp1120
g5
S'f5'
p1121
sa(dp1122
g12
S'black_bishop'
p1123
sg5
S'f6'
p1124
sa(dp1125
g5
S'f7'
p1126
sa(dp1127
g5
S'f8'
p1128
sa(dp1129
g5
S'g1'
p1130
sa(dp1131
g5
S'g2'
p1132
sa(dp1133
g5
S'g3'
p1134
sa(dp1135
g12
S'white_pawn'
p1136
sg5
S'g4'
p1137
sa(dp1138
g5
S'g5'
p1139
sa(dp1140
g5
S'g6'
p1141
sa(dp1142
g12
S'black_pawn'
p1143
sg5
S'g7'
p1144
sa(dp1145
g5
S'g8'
p1146
sa(dp1147
g5
S'h1'
p1148
sa(dp1149
g5
S'h2'
p1150
sa(dp1151
g5
S'h3'
p1152
sa(dp1153
g5
S'h4'
p1154
sa(dp1155
g5
S'h5'
p1156
sa(dp1157
g12
S'black_pawn'
p1158
sg5
S'h6'
p1159
sa(dp1160
g5
S'h7'
p1161
sa(dp1162
g5
S'h8'
p1163
saaVafter Rb4, of course all is over; but why not try?
p1164
aa(lp1165
S'45. Ra7'
p1166
a(lp1167
(dp1168
g5
S'a1'
p1169
sa(dp1170
g5
S'a2'
p1171
sa(dp1172
g5
S'a3'
p1173
sa(dp1174
g5
S'a4'
p1175
sa(dp1176
g5
S'a5'
p1177
sa(dp1178
g5
S'a6'
p1179
sa(dp1180
g12
S'white_rook'
p1181
sg5
S'a7'
p1182
sa(dp1183
g5
S'a8'
p1184
sa(dp1185
g5
S'b1'
p1186
sa(dp1187
g12
S'black_pawn'
p1188
sg5
S'b2'
p1189
sa(dp1190
g5
S'b3'
p1191
sa(dp1192
g5
S'b4'
p1193
sa(dp1194
g5
S'b5'
p1195
sa(dp1196
g5
S'b6'
p1197
sa(dp1198
g5
S'b7'
p1199
sa(dp1200
g5
S'b8'
p1201
sa(dp1202
g5
S'c1'
p1203
sa(dp1204
g5
S'c2'
p1205
sa(dp1206
g5
S'c3'
p1207
sa(dp1208
g5
S'c4'
p1209
sa(dp1210
g12
S'white_bishop'
p1211
sg5
S'c5'
p1212
sa(dp1213
g5
S'c6'
p1214
sa(dp1215
g5
S'c7'
p1216
sa(dp1217
g5
S'c8'
p1218
sa(dp1219
g5
S'd1'
p1220
sa(dp1221
g5
S'd2'
p1222
sa(dp1223
g12
S'white_pawn'
p1224
sg5
S'd3'
p1225
sa(dp1226
g5
S'd4'
p1227
sa(dp1228
g5
S'd5'
p1229
sa(dp1230
g5
S'd6'
p1231
sa(dp1232
g5
S'd7'
p1233
sa(dp1234
g5
S'd8'
p1235
sa(dp1236
g5
S'e1'
p1237
sa(dp1238
g5
S'e2'
p1239
sa(dp1240
g5
S'e3'
p1241
sa(dp1242
g12
S'white_king'
p1243
sg5
S'e4'
p1244
sa(dp1245
g5
S'e5'
p1246
sa(dp1247
g12
S'black_king'
p1248
sg5
S'e6'
p1249
sa(dp1250
g5
S'e7'
p1251
sa(dp1252
g5
S'e8'
p1253
sa(dp1254
g5
S'f1'
p1255
sa(dp1256
g5
S'f2'
p1257
sa(dp1258
g5
S'f3'
p1259
sa(dp1260
g12
S'white_pawn'
p1261
sg5
S'f4'
p1262
sa(dp1263
g5
S'f5'
p1264
sa(dp1265
g12
S'black_bishop'
p1266
sg5
S'f6'
p1267
sa(dp1268
g5
S'f7'
p1269
sa(dp1270
g5
S'f8'
p1271
sa(dp1272
g5
S'g1'
p1273
sa(dp1274
g5
S'g2'
p1275
sa(dp1276
g5
S'g3'
p1277
sa(dp1278
g12
S'white_pawn'
p1279
sg5
S'g4'
p1280
sa(dp1281
g5
S'g5'
p1282
sa(dp1283
g5
S'g6'
p1284
sa(dp1285
g12
S'black_pawn'
p1286
sg5
S'g7'
p1287
sa(dp1288
g5
S'g8'
p1289
sa(dp1290
g5
S'h1'
p1291
sa(dp1292
g5
S'h2'
p1293
sa(dp1294
g5
S'h3'
p1295
sa(dp1296
g5
S'h4'
p1297
sa(dp1298
g5
S'h5'
p1299
sa(dp1300
g12
S'black_pawn'
p1301
sg5
S'h6'
p1302
sa(dp1303
g5
S'h7'
p1304
sa(dp1305
g5
S'h8'
p1306
saaVmaybe this is why: there is no escaping f5 anymore, without loss of more material and the game... eg. Be7 (to have Kf7 after f5+), Rxe7+, Kf6, Rb7 ends all... so Black resigned...
p1307
aa.