(lp0
(lp1
S'1. e4 d5'
p2
a(lp3
(dp4
S'piece'
p5
S'white_rook'
p6
sS'location'
p7
S'a1'
p8
sa(dp9
g5
S'white_pawn'
p10
sg7
S'a2'
p11
sa(dp12
g7
S'a3'
p13
sa(dp14
g7
S'a4'
p15
sa(dp16
g7
S'a5'
p17
sa(dp18
g7
S'a6'
p19
sa(dp20
g5
S'black_pawn'
p21
sg7
S'a7'
p22
sa(dp23
g5
S'black_rook'
p24
sg7
S'a8'
p25
sa(dp26
g5
S'white_knight'
p27
sg7
S'b1'
p28
sa(dp29
g5
S'white_pawn'
p30
sg7
S'b2'
p31
sa(dp32
g7
S'b3'
p33
sa(dp34
g7
S'b4'
p35
sa(dp36
g7
S'b5'
p37
sa(dp38
g7
S'b6'
p39
sa(dp40
g5
S'black_pawn'
p41
sg7
S'b7'
p42
sa(dp43
g5
S'black_knight'
p44
sg7
S'b8'
p45
sa(dp46
g5
S'white_bishop'
p47
sg7
S'c1'
p48
sa(dp49
g5
S'white_pawn'
p50
sg7
S'c2'
p51
sa(dp52
g7
S'c3'
p53
sa(dp54
g7
S'c4'
p55
sa(dp56
g7
S'c5'
p57
sa(dp58
g7
S'c6'
p59
sa(dp60
g5
S'black_pawn'
p61
sg7
S'c7'
p62
sa(dp63
g5
S'black_bishop'
p64
sg7
S'c8'
p65
sa(dp66
g5
S'white_queen'
p67
sg7
S'd1'
p68
sa(dp69
g5
S'white_pawn'
p70
sg7
S'd2'
p71
sa(dp72
g7
S'd3'
p73
sa(dp74
g7
S'd4'
p75
sa(dp76
g5
S'black_pawn'
p77
sg7
S'd5'
p78
sa(dp79
g7
S'd6'
p80
sa(dp81
g7
S'd7'
p82
sa(dp83
g5
S'black_queen'
p84
sg7
S'd8'
p85
sa(dp86
g5
S'white_king'
p87
sg7
S'e1'
p88
sa(dp89
g7
S'e2'
p90
sa(dp91
g7
S'e3'
p92
sa(dp93
g5
S'white_pawn'
p94
sg7
S'e4'
p95
sa(dp96
g7
S'e5'
p97
sa(dp98
g7
S'e6'
p99
sa(dp100
g5
S'black_pawn'
p101
sg7
S'e7'
p102
sa(dp103
g5
S'black_king'
p104
sg7
S'e8'
p105
sa(dp106
g5
S'white_bishop'
p107
sg7
S'f1'
p108
sa(dp109
g5
S'white_pawn'
p110
sg7
S'f2'
p111
sa(dp112
g7
S'f3'
p113
sa(dp114
g7
S'f4'
p115
sa(dp116
g7
S'f5'
p117
sa(dp118
g7
S'f6'
p119
sa(dp120
g5
S'black_pawn'
p121
sg7
S'f7'
p122
sa(dp123
g5
S'black_bishop'
p124
sg7
S'f8'
p125
sa(dp126
g5
S'white_knight'
p127
sg7
S'g1'
p128
sa(dp129
g5
S'white_pawn'
p130
sg7
S'g2'
p131
sa(dp132
g7
S'g3'
p133
sa(dp134
g7
S'g4'
p135
sa(dp136
g7
S'g5'
p137
sa(dp138
g7
S'g6'
p139
sa(dp140
g5
S'black_pawn'
p141
sg7
S'g7'
p142
sa(dp143
g5
S'black_knight'
p144
sg7
S'g8'
p145
sa(dp146
g5
S'white_rook'
p147
sg7
S'h1'
p148
sa(dp149
g5
S'white_pawn'
p150
sg7
S'h2'
p151
sa(dp152
g7
S'h3'
p153
sa(dp154
g7
S'h4'
p155
sa(dp156
g7
S'h5'
p157
sa(dp158
g7
S'h6'
p159
sa(dp160
g5
S'black_pawn'
p161
sg7
S'h7'
p162
sa(dp163
g5
S'black_rook'
p164
sg7
S'h8'
p165
saaVCentre Counter, sometimes called the Scandinavian Defence - Scandy by its affectionate devotees.  Directly challenging White in the centre, but there is a bit of a downside.
p166
aa(lp167
S'2. Nc3'
p168
a(lp169
(dp170
g5
S'white_rook'
p171
sg7
S'a1'
p172
sa(dp173
g5
S'white_pawn'
p174
sg7
S'a2'
p175
sa(dp176
g7
S'a3'
p177
sa(dp178
g7
S'a4'
p179
sa(dp180
g7
S'a5'
p181
sa(dp182
g7
S'a6'
p183
sa(dp184
g5
S'black_pawn'
p185
sg7
S'a7'
p186
sa(dp187
g5
S'black_rook'
p188
sg7
S'a8'
p189
sa(dp190
g7
S'b1'
p191
sa(dp192
g5
S'white_pawn'
p193
sg7
S'b2'
p194
sa(dp195
g7
S'b3'
p196
sa(dp197
g7
S'b4'
p198
sa(dp199
g7
S'b5'
p200
sa(dp201
g7
S'b6'
p202
sa(dp203
g5
S'black_pawn'
p204
sg7
S'b7'
p205
sa(dp206
g5
S'black_knight'
p207
sg7
S'b8'
p208
sa(dp209
g5
S'white_bishop'
p210
sg7
S'c1'
p211
sa(dp212
g5
S'white_pawn'
p213
sg7
S'c2'
p214
sa(dp215
g5
S'white_knight'
p216
sg7
S'c3'
p217
sa(dp218
g7
S'c4'
p219
sa(dp220
g7
S'c5'
p221
sa(dp222
g7
S'c6'
p223
sa(dp224
g5
S'black_pawn'
p225
sg7
S'c7'
p226
sa(dp227
g5
S'black_bishop'
p228
sg7
S'c8'
p229
sa(dp230
g5
S'white_queen'
p231
sg7
S'd1'
p232
sa(dp233
g5
S'white_pawn'
p234
sg7
S'd2'
p235
sa(dp236
g7
S'd3'
p237
sa(dp238
g7
S'd4'
p239
sa(dp240
g5
S'black_pawn'
p241
sg7
S'd5'
p242
sa(dp243
g7
S'd6'
p244
sa(dp245
g7
S'd7'
p246
sa(dp247
g5
S'black_queen'
p248
sg7
S'd8'
p249
sa(dp250
g5
S'white_king'
p251
sg7
S'e1'
p252
sa(dp253
g7
S'e2'
p254
sa(dp255
g7
S'e3'
p256
sa(dp257
g5
S'white_pawn'
p258
sg7
S'e4'
p259
sa(dp260
g7
S'e5'
p261
sa(dp262
g7
S'e6'
p263
sa(dp264
g5
S'black_pawn'
p265
sg7
S'e7'
p266
sa(dp267
g5
S'black_king'
p268
sg7
S'e8'
p269
sa(dp270
g5
S'white_bishop'
p271
sg7
S'f1'
p272
sa(dp273
g5
S'white_pawn'
p274
sg7
S'f2'
p275
sa(dp276
g7
S'f3'
p277
sa(dp278
g7
S'f4'
p279
sa(dp280
g7
S'f5'
p281
sa(dp282
g7
S'f6'
p283
sa(dp284
g5
S'black_pawn'
p285
sg7
S'f7'
p286
sa(dp287
g5
S'black_bishop'
p288
sg7
S'f8'
p289
sa(dp290
g5
S'white_knight'
p291
sg7
S'g1'
p292
sa(dp293
g5
S'white_pawn'
p294
sg7
S'g2'
p295
sa(dp296
g7
S'g3'
p297
sa(dp298
g7
S'g4'
p299
sa(dp300
g7
S'g5'
p301
sa(dp302
g7
S'g6'
p303
sa(dp304
g5
S'black_pawn'
p305
sg7
S'g7'
p306
sa(dp307
g5
S'black_knight'
p308
sg7
S'g8'
p309
sa(dp310
g5
S'white_rook'
p311
sg7
S'h1'
p312
sa(dp313
g5
S'white_pawn'
p314
sg7
S'h2'
p315
sa(dp316
g7
S'h3'
p317
sa(dp318
g7
S'h4'
p319
sa(dp320
g7
S'h5'
p321
sa(dp322
g7
S'h6'
p323
sa(dp324
g5
S'black_pawn'
p325
sg7
S'h7'
p326
sa(dp327
g5
S'black_rook'
p328
sg7
S'h8'
p329
saaVOK, but perhaps unnecessarily provocative.  Much more usual is 2.exd5 and if Black recaptures, 2...Qxd5, 3.Nc3 forces Black to move the Queen a second time.  I once won a game in four moves when Black thoughtlessly retreated his Queen to c6, whereat 4.Bb5 pinned his Q against his K.   Much more usual is 3...Qa5, which places the Q on a safe square, but still actively located.
p330
aa(lp331
S'2... d4'
p332
a(lp333
(dp334
g5
S'white_rook'
p335
sg7
S'a1'
p336
sa(dp337
g5
S'white_pawn'
p338
sg7
S'a2'
p339
sa(dp340
g7
S'a3'
p341
sa(dp342
g7
S'a4'
p343
sa(dp344
g7
S'a5'
p345
sa(dp346
g7
S'a6'
p347
sa(dp348
g5
S'black_pawn'
p349
sg7
S'a7'
p350
sa(dp351
g5
S'black_rook'
p352
sg7
S'a8'
p353
sa(dp354
g7
S'b1'
p355
sa(dp356
g5
S'white_pawn'
p357
sg7
S'b2'
p358
sa(dp359
g7
S'b3'
p360
sa(dp361
g7
S'b4'
p362
sa(dp363
g7
S'b5'
p364
sa(dp365
g7
S'b6'
p366
sa(dp367
g5
S'black_pawn'
p368
sg7
S'b7'
p369
sa(dp370
g5
S'black_knight'
p371
sg7
S'b8'
p372
sa(dp373
g5
S'white_bishop'
p374
sg7
S'c1'
p375
sa(dp376
g5
S'white_pawn'
p377
sg7
S'c2'
p378
sa(dp379
g5
S'white_knight'
p380
sg7
S'c3'
p381
sa(dp382
g7
S'c4'
p383
sa(dp384
g7
S'c5'
p385
sa(dp386
g7
S'c6'
p387
sa(dp388
g5
S'black_pawn'
p389
sg7
S'c7'
p390
sa(dp391
g5
S'black_bishop'
p392
sg7
S'c8'
p393
sa(dp394
g5
S'white_queen'
p395
sg7
S'd1'
p396
sa(dp397
g5
S'white_pawn'
p398
sg7
S'd2'
p399
sa(dp400
g7
S'd3'
p401
sa(dp402
g5
S'black_pawn'
p403
sg7
S'd4'
p404
sa(dp405
g7
S'd5'
p406
sa(dp407
g7
S'd6'
p408
sa(dp409
g7
S'd7'
p410
sa(dp411
g5
S'black_queen'
p412
sg7
S'd8'
p413
sa(dp414
g5
S'white_king'
p415
sg7
S'e1'
p416
sa(dp417
g7
S'e2'
p418
sa(dp419
g7
S'e3'
p420
sa(dp421
g5
S'white_pawn'
p422
sg7
S'e4'
p423
sa(dp424
g7
S'e5'
p425
sa(dp426
g7
S'e6'
p427
sa(dp428
g5
S'black_pawn'
p429
sg7
S'e7'
p430
sa(dp431
g5
S'black_king'
p432
sg7
S'e8'
p433
sa(dp434
g5
S'white_bishop'
p435
sg7
S'f1'
p436
sa(dp437
g5
S'white_pawn'
p438
sg7
S'f2'
p439
sa(dp440
g7
S'f3'
p441
sa(dp442
g7
S'f4'
p443
sa(dp444
g7
S'f5'
p445
sa(dp446
g7
S'f6'
p447
sa(dp448
g5
S'black_pawn'
p449
sg7
S'f7'
p450
sa(dp451
g5
S'black_bishop'
p452
sg7
S'f8'
p453
sa(dp454
g5
S'white_knight'
p455
sg7
S'g1'
p456
sa(dp457
g5
S'white_pawn'
p458
sg7
S'g2'
p459
sa(dp460
g7
S'g3'
p461
sa(dp462
g7
S'g4'
p463
sa(dp464
g7
S'g5'
p465
sa(dp466
g7
S'g6'
p467
sa(dp468
g5
S'black_pawn'
p469
sg7
S'g7'
p470
sa(dp471
g5
S'black_knight'
p472
sg7
S'g8'
p473
sa(dp474
g5
S'white_rook'
p475
sg7
S'h1'
p476
sa(dp477
g5
S'white_pawn'
p478
sg7
S'h2'
p479
sa(dp480
g7
S'h3'
p481
sa(dp482
g7
S'h4'
p483
sa(dp484
g7
S'h5'
p485
sa(dp486
g7
S'h6'
p487
sa(dp488
g5
S'black_pawn'
p489
sg7
S'h7'
p490
sa(dp491
g5
S'black_rook'
p492
sg7
S'h8'
p493
saaVGood response to White's threat to win the pawn.  Now the knight will have to move a second time.
p494
aa(lp495
S'3. Nd5'
p496
a(lp497
(dp498
g5
S'white_rook'
p499
sg7
S'a1'
p500
sa(dp501
g5
S'white_pawn'
p502
sg7
S'a2'
p503
sa(dp504
g7
S'a3'
p505
sa(dp506
g7
S'a4'
p507
sa(dp508
g7
S'a5'
p509
sa(dp510
g7
S'a6'
p511
sa(dp512
g5
S'black_pawn'
p513
sg7
S'a7'
p514
sa(dp515
g5
S'black_rook'
p516
sg7
S'a8'
p517
sa(dp518
g7
S'b1'
p519
sa(dp520
g5
S'white_pawn'
p521
sg7
S'b2'
p522
sa(dp523
g7
S'b3'
p524
sa(dp525
g7
S'b4'
p526
sa(dp527
g7
S'b5'
p528
sa(dp529
g7
S'b6'
p530
sa(dp531
g5
S'black_pawn'
p532
sg7
S'b7'
p533
sa(dp534
g5
S'black_knight'
p535
sg7
S'b8'
p536
sa(dp537
g5
S'white_bishop'
p538
sg7
S'c1'
p539
sa(dp540
g5
S'white_pawn'
p541
sg7
S'c2'
p542
sa(dp543
g7
S'c3'
p544
sa(dp545
g7
S'c4'
p546
sa(dp547
g7
S'c5'
p548
sa(dp549
g7
S'c6'
p550
sa(dp551
g5
S'black_pawn'
p552
sg7
S'c7'
p553
sa(dp554
g5
S'black_bishop'
p555
sg7
S'c8'
p556
sa(dp557
g5
S'white_queen'
p558
sg7
S'd1'
p559
sa(dp560
g5
S'white_pawn'
p561
sg7
S'd2'
p562
sa(dp563
g7
S'd3'
p564
sa(dp565
g5
S'black_pawn'
p566
sg7
S'd4'
p567
sa(dp568
g5
S'white_knight'
p569
sg7
S'd5'
p570
sa(dp571
g7
S'd6'
p572
sa(dp573
g7
S'd7'
p574
sa(dp575
g5
S'black_queen'
p576
sg7
S'd8'
p577
sa(dp578
g5
S'white_king'
p579
sg7
S'e1'
p580
sa(dp581
g7
S'e2'
p582
sa(dp583
g7
S'e3'
p584
sa(dp585
g5
S'white_pawn'
p586
sg7
S'e4'
p587
sa(dp588
g7
S'e5'
p589
sa(dp590
g7
S'e6'
p591
sa(dp592
g5
S'black_pawn'
p593
sg7
S'e7'
p594
sa(dp595
g5
S'black_king'
p596
sg7
S'e8'
p597
sa(dp598
g5
S'white_bishop'
p599
sg7
S'f1'
p600
sa(dp601
g5
S'white_pawn'
p602
sg7
S'f2'
p603
sa(dp604
g7
S'f3'
p605
sa(dp606
g7
S'f4'
p607
sa(dp608
g7
S'f5'
p609
sa(dp610
g7
S'f6'
p611
sa(dp612
g5
S'black_pawn'
p613
sg7
S'f7'
p614
sa(dp615
g5
S'black_bishop'
p616
sg7
S'f8'
p617
sa(dp618
g5
S'white_knight'
p619
sg7
S'g1'
p620
sa(dp621
g5
S'white_pawn'
p622
sg7
S'g2'
p623
sa(dp624
g7
S'g3'
p625
sa(dp626
g7
S'g4'
p627
sa(dp628
g7
S'g5'
p629
sa(dp630
g7
S'g6'
p631
sa(dp632
g5
S'black_pawn'
p633
sg7
S'g7'
p634
sa(dp635
g5
S'black_knight'
p636
sg7
S'g8'
p637
sa(dp638
g5
S'white_rook'
p639
sg7
S'h1'
p640
sa(dp641
g5
S'white_pawn'
p642
sg7
S'h2'
p643
sa(dp644
g7
S'h3'
p645
sa(dp646
g7
S'h4'
p647
sa(dp648
g7
S'h5'
p649
sa(dp650
g7
S'h6'
p651
sa(dp652
g5
S'black_pawn'
p653
sg7
S'h7'
p654
sa(dp655
g5
S'black_rook'
p656
sg7
S'h8'
p657
saaVAlthough this encourages Black to hit him again, I think this is probably OK.  3.Ne2 may be met by 3...e5, when Black has the larger share of the centre.  That need not be fatal - more like the colours reversing roles!
p658
aa(lp659
S'3... e6 4. Nf4 e5 5. Bc4'
p660
a(lp661
(dp662
g5
S'white_rook'
p663
sg7
S'a1'
p664
sa(dp665
g5
S'white_pawn'
p666
sg7
S'a2'
p667
sa(dp668
g7
S'a3'
p669
sa(dp670
g7
S'a4'
p671
sa(dp672
g7
S'a5'
p673
sa(dp674
g7
S'a6'
p675
sa(dp676
g5
S'black_pawn'
p677
sg7
S'a7'
p678
sa(dp679
g5
S'black_rook'
p680
sg7
S'a8'
p681
sa(dp682
g7
S'b1'
p683
sa(dp684
g5
S'white_pawn'
p685
sg7
S'b2'
p686
sa(dp687
g7
S'b3'
p688
sa(dp689
g7
S'b4'
p690
sa(dp691
g7
S'b5'
p692
sa(dp693
g7
S'b6'
p694
sa(dp695
g5
S'black_pawn'
p696
sg7
S'b7'
p697
sa(dp698
g5
S'black_knight'
p699
sg7
S'b8'
p700
sa(dp701
g5
S'white_bishop'
p702
sg7
S'c1'
p703
sa(dp704
g5
S'white_pawn'
p705
sg7
S'c2'
p706
sa(dp707
g7
S'c3'
p708
sa(dp709
g5
S'white_bishop'
p710
sg7
S'c4'
p711
sa(dp712
g7
S'c5'
p713
sa(dp714
g7
S'c6'
p715
sa(dp716
g5
S'black_pawn'
p717
sg7
S'c7'
p718
sa(dp719
g5
S'black_bishop'
p720
sg7
S'c8'
p721
sa(dp722
g5
S'white_queen'
p723
sg7
S'd1'
p724
sa(dp725
g5
S'white_pawn'
p726
sg7
S'd2'
p727
sa(dp728
g7
S'd3'
p729
sa(dp730
g5
S'black_pawn'
p731
sg7
S'd4'
p732
sa(dp733
g7
S'd5'
p734
sa(dp735
g7
S'd6'
p736
sa(dp737
g7
S'd7'
p738
sa(dp739
g5
S'black_queen'
p740
sg7
S'd8'
p741
sa(dp742
g5
S'white_king'
p743
sg7
S'e1'
p744
sa(dp745
g7
S'e2'
p746
sa(dp747
g7
S'e3'
p748
sa(dp749
g5
S'white_pawn'
p750
sg7
S'e4'
p751
sa(dp752
g5
S'black_pawn'
p753
sg7
S'e5'
p754
sa(dp755
g7
S'e6'
p756
sa(dp757
g7
S'e7'
p758
sa(dp759
g5
S'black_king'
p760
sg7
S'e8'
p761
sa(dp762
g7
S'f1'
p763
sa(dp764
g5
S'white_pawn'
p765
sg7
S'f2'
p766
sa(dp767
g7
S'f3'
p768
sa(dp769
g5
S'white_knight'
p770
sg7
S'f4'
p771
sa(dp772
g7
S'f5'
p773
sa(dp774
g7
S'f6'
p775
sa(dp776
g5
S'black_pawn'
p777
sg7
S'f7'
p778
sa(dp779
g5
S'black_bishop'
p780
sg7
S'f8'
p781
sa(dp782
g5
S'white_knight'
p783
sg7
S'g1'
p784
sa(dp785
g5
S'white_pawn'
p786
sg7
S'g2'
p787
sa(dp788
g7
S'g3'
p789
sa(dp790
g7
S'g4'
p791
sa(dp792
g7
S'g5'
p793
sa(dp794
g7
S'g6'
p795
sa(dp796
g5
S'black_pawn'
p797
sg7
S'g7'
p798
sa(dp799
g5
S'black_knight'
p800
sg7
S'g8'
p801
sa(dp802
g5
S'white_rook'
p803
sg7
S'h1'
p804
sa(dp805
g5
S'white_pawn'
p806
sg7
S'h2'
p807
sa(dp808
g7
S'h3'
p809
sa(dp810
g7
S'h4'
p811
sa(dp812
g7
S'h5'
p813
sa(dp814
g7
S'h6'
p815
sa(dp816
g5
S'black_pawn'
p817
sg7
S'h7'
p818
sa(dp819
g5
S'black_rook'
p820
sg7
S'h8'
p821
saaV?  I can't tell whether this is a simple 'one-mover' oversight, or a reluctance to move the knight a fourth time.  It were better to have moved the knight a fourth time, and even a fifth - 5.Nh5 g5  6.Ng3.  However 5.Nd3 would have been OK too, threatening to win the e-pawn.
p822
aa(lp823
S'5... Nh6'
p824
a(lp825
(dp826
g5
S'white_rook'
p827
sg7
S'a1'
p828
sa(dp829
g5
S'white_pawn'
p830
sg7
S'a2'
p831
sa(dp832
g7
S'a3'
p833
sa(dp834
g7
S'a4'
p835
sa(dp836
g7
S'a5'
p837
sa(dp838
g7
S'a6'
p839
sa(dp840
g5
S'black_pawn'
p841
sg7
S'a7'
p842
sa(dp843
g5
S'black_rook'
p844
sg7
S'a8'
p845
sa(dp846
g7
S'b1'
p847
sa(dp848
g5
S'white_pawn'
p849
sg7
S'b2'
p850
sa(dp851
g7
S'b3'
p852
sa(dp853
g7
S'b4'
p854
sa(dp855
g7
S'b5'
p856
sa(dp857
g7
S'b6'
p858
sa(dp859
g5
S'black_pawn'
p860
sg7
S'b7'
p861
sa(dp862
g5
S'black_knight'
p863
sg7
S'b8'
p864
sa(dp865
g5
S'white_bishop'
p866
sg7
S'c1'
p867
sa(dp868
g5
S'white_pawn'
p869
sg7
S'c2'
p870
sa(dp871
g7
S'c3'
p872
sa(dp873
g5
S'white_bishop'
p874
sg7
S'c4'
p875
sa(dp876
g7
S'c5'
p877
sa(dp878
g7
S'c6'
p879
sa(dp880
g5
S'black_pawn'
p881
sg7
S'c7'
p882
sa(dp883
g5
S'black_bishop'
p884
sg7
S'c8'
p885
sa(dp886
g5
S'white_queen'
p887
sg7
S'd1'
p888
sa(dp889
g5
S'white_pawn'
p890
sg7
S'd2'
p891
sa(dp892
g7
S'd3'
p893
sa(dp894
g5
S'black_pawn'
p895
sg7
S'd4'
p896
sa(dp897
g7
S'd5'
p898
sa(dp899
g7
S'd6'
p900
sa(dp901
g7
S'd7'
p902
sa(dp903
g5
S'black_queen'
p904
sg7
S'd8'
p905
sa(dp906
g5
S'white_king'
p907
sg7
S'e1'
p908
sa(dp909
g7
S'e2'
p910
sa(dp911
g7
S'e3'
p912
sa(dp913
g5
S'white_pawn'
p914
sg7
S'e4'
p915
sa(dp916
g5
S'black_pawn'
p917
sg7
S'e5'
p918
sa(dp919
g7
S'e6'
p920
sa(dp921
g7
S'e7'
p922
sa(dp923
g5
S'black_king'
p924
sg7
S'e8'
p925
sa(dp926
g7
S'f1'
p927
sa(dp928
g5
S'white_pawn'
p929
sg7
S'f2'
p930
sa(dp931
g7
S'f3'
p932
sa(dp933
g5
S'white_knight'
p934
sg7
S'f4'
p935
sa(dp936
g7
S'f5'
p937
sa(dp938
g7
S'f6'
p939
sa(dp940
g5
S'black_pawn'
p941
sg7
S'f7'
p942
sa(dp943
g5
S'black_bishop'
p944
sg7
S'f8'
p945
sa(dp946
g5
S'white_knight'
p947
sg7
S'g1'
p948
sa(dp949
g5
S'white_pawn'
p950
sg7
S'g2'
p951
sa(dp952
g7
S'g3'
p953
sa(dp954
g7
S'g4'
p955
sa(dp956
g7
S'g5'
p957
sa(dp958
g7
S'g6'
p959
sa(dp960
g5
S'black_pawn'
p961
sg7
S'g7'
p962
sa(dp963
g7
S'g8'
p964
sa(dp965
g5
S'white_rook'
p966
sg7
S'h1'
p967
sa(dp968
g5
S'white_pawn'
p969
sg7
S'h2'
p970
sa(dp971
g7
S'h3'
p972
sa(dp973
g7
S'h4'
p974
sa(dp975
g7
S'h5'
p976
sa(dp977
g5
S'black_knight'
p978
sg7
S'h6'
p979
sa(dp980
g5
S'black_pawn'
p981
sg7
S'h7'
p982
sa(dp983
g5
S'black_rook'
p984
sg7
S'h8'
p985
saaV?  Taking the knight would have been fine for Black.
p986
aa(lp987
S'6. Nd3 Bg4'
p988
a(lp989
(dp990
g5
S'white_rook'
p991
sg7
S'a1'
p992
sa(dp993
g5
S'white_pawn'
p994
sg7
S'a2'
p995
sa(dp996
g7
S'a3'
p997
sa(dp998
g7
S'a4'
p999
sa(dp1000
g7
S'a5'
p1001
sa(dp1002
g7
S'a6'
p1003
sa(dp1004
g5
S'black_pawn'
p1005
sg7
S'a7'
p1006
sa(dp1007
g5
S'black_rook'
p1008
sg7
S'a8'
p1009
sa(dp1010
g7
S'b1'
p1011
sa(dp1012
g5
S'white_pawn'
p1013
sg7
S'b2'
p1014
sa(dp1015
g7
S'b3'
p1016
sa(dp1017
g7
S'b4'
p1018
sa(dp1019
g7
S'b5'
p1020
sa(dp1021
g7
S'b6'
p1022
sa(dp1023
g5
S'black_pawn'
p1024
sg7
S'b7'
p1025
sa(dp1026
g5
S'black_knight'
p1027
sg7
S'b8'
p1028
sa(dp1029
g5
S'white_bishop'
p1030
sg7
S'c1'
p1031
sa(dp1032
g5
S'white_pawn'
p1033
sg7
S'c2'
p1034
sa(dp1035
g7
S'c3'
p1036
sa(dp1037
g5
S'white_bishop'
p1038
sg7
S'c4'
p1039
sa(dp1040
g7
S'c5'
p1041
sa(dp1042
g7
S'c6'
p1043
sa(dp1044
g5
S'black_pawn'
p1045
sg7
S'c7'
p1046
sa(dp1047
g7
S'c8'
p1048
sa(dp1049
g5
S'white_queen'
p1050
sg7
S'd1'
p1051
sa(dp1052
g5
S'white_pawn'
p1053
sg7
S'd2'
p1054
sa(dp1055
g5
S'white_knight'
p1056
sg7
S'd3'
p1057
sa(dp1058
g5
S'black_pawn'
p1059
sg7
S'd4'
p1060
sa(dp1061
g7
S'd5'
p1062
sa(dp1063
g7
S'd6'
p1064
sa(dp1065
g7
S'd7'
p1066
sa(dp1067
g5
S'black_queen'
p1068
sg7
S'd8'
p1069
sa(dp1070
g5
S'white_king'
p1071
sg7
S'e1'
p1072
sa(dp1073
g7
S'e2'
p1074
sa(dp1075
g7
S'e3'
p1076
sa(dp1077
g5
S'white_pawn'
p1078
sg7
S'e4'
p1079
sa(dp1080
g5
S'black_pawn'
p1081
sg7
S'e5'
p1082
sa(dp1083
g7
S'e6'
p1084
sa(dp1085
g7
S'e7'
p1086
sa(dp1087
g5
S'black_king'
p1088
sg7
S'e8'
p1089
sa(dp1090
g7
S'f1'
p1091
sa(dp1092
g5
S'white_pawn'
p1093
sg7
S'f2'
p1094
sa(dp1095
g7
S'f3'
p1096
sa(dp1097
g7
S'f4'
p1098
sa(dp1099
g7
S'f5'
p1100
sa(dp1101
g7
S'f6'
p1102
sa(dp1103
g5
S'black_pawn'
p1104
sg7
S'f7'
p1105
sa(dp1106
g5
S'black_bishop'
p1107
sg7
S'f8'
p1108
sa(dp1109
g5
S'white_knight'
p1110
sg7
S'g1'
p1111
sa(dp1112
g5
S'white_pawn'
p1113
sg7
S'g2'
p1114
sa(dp1115
g7
S'g3'
p1116
sa(dp1117
g5
S'black_bishop'
p1118
sg7
S'g4'
p1119
sa(dp1120
g7
S'g5'
p1121
sa(dp1122
g7
S'g6'
p1123
sa(dp1124
g5
S'black_pawn'
p1125
sg7
S'g7'
p1126
sa(dp1127
g7
S'g8'
p1128
sa(dp1129
g5
S'white_rook'
p1130
sg7
S'h1'
p1131
sa(dp1132
g5
S'white_pawn'
p1133
sg7
S'h2'
p1134
sa(dp1135
g7
S'h3'
p1136
sa(dp1137
g7
S'h4'
p1138
sa(dp1139
g7
S'h5'
p1140
sa(dp1141
g5
S'black_knight'
p1142
sg7
S'h6'
p1143
sa(dp1144
g5
S'black_pawn'
p1145
sg7
S'h7'
p1146
sa(dp1147
g5
S'black_rook'
p1148
sg7
S'h8'
p1149
saaVThis is a mistake, but a bit of calculation is necessary to figure it out.  The sequence isn't deep, but it IS more than two moves.  The problem is that if the bishop's protector, the h6-knight, can be drawn from his post, he can be overwhelmed by numbers, with two pieces attacking the bishop and one defending.  It is a small combination.  See if you can find it.
p1150
aa(lp1151
S'7. Ne2'
p1152
a(lp1153
(dp1154
g5
S'white_rook'
p1155
sg7
S'a1'
p1156
sa(dp1157
g5
S'white_pawn'
p1158
sg7
S'a2'
p1159
sa(dp1160
g7
S'a3'
p1161
sa(dp1162
g7
S'a4'
p1163
sa(dp1164
g7
S'a5'
p1165
sa(dp1166
g7
S'a6'
p1167
sa(dp1168
g5
S'black_pawn'
p1169
sg7
S'a7'
p1170
sa(dp1171
g5
S'black_rook'
p1172
sg7
S'a8'
p1173
sa(dp1174
g7
S'b1'
p1175
sa(dp1176
g5
S'white_pawn'
p1177
sg7
S'b2'
p1178
sa(dp1179
g7
S'b3'
p1180
sa(dp1181
g7
S'b4'
p1182
sa(dp1183
g7
S'b5'
p1184
sa(dp1185
g7
S'b6'
p1186
sa(dp1187
g5
S'black_pawn'
p1188
sg7
S'b7'
p1189
sa(dp1190
g5
S'black_knight'
p1191
sg7
S'b8'
p1192
sa(dp1193
g5
S'white_bishop'
p1194
sg7
S'c1'
p1195
sa(dp1196
g5
S'white_pawn'
p1197
sg7
S'c2'
p1198
sa(dp1199
g7
S'c3'
p1200
sa(dp1201
g5
S'white_bishop'
p1202
sg7
S'c4'
p1203
sa(dp1204
g7
S'c5'
p1205
sa(dp1206
g7
S'c6'
p1207
sa(dp1208
g5
S'black_pawn'
p1209
sg7
S'c7'
p1210
sa(dp1211
g7
S'c8'
p1212
sa(dp1213
g5
S'white_queen'
p1214
sg7
S'd1'
p1215
sa(dp1216
g5
S'white_pawn'
p1217
sg7
S'd2'
p1218
sa(dp1219
g5
S'white_knight'
p1220
sg7
S'd3'
p1221
sa(dp1222
g5
S'black_pawn'
p1223
sg7
S'd4'
p1224
sa(dp1225
g7
S'd5'
p1226
sa(dp1227
g7
S'd6'
p1228
sa(dp1229
g7
S'd7'
p1230
sa(dp1231
g5
S'black_queen'
p1232
sg7
S'd8'
p1233
sa(dp1234
g5
S'white_king'
p1235
sg7
S'e1'
p1236
sa(dp1237
g5
S'white_knight'
p1238
sg7
S'e2'
p1239
sa(dp1240
g7
S'e3'
p1241
sa(dp1242
g5
S'white_pawn'
p1243
sg7
S'e4'
p1244
sa(dp1245
g5
S'black_pawn'
p1246
sg7
S'e5'
p1247
sa(dp1248
g7
S'e6'
p1249
sa(dp1250
g7
S'e7'
p1251
sa(dp1252
g5
S'black_king'
p1253
sg7
S'e8'
p1254
sa(dp1255
g7
S'f1'
p1256
sa(dp1257
g5
S'white_pawn'
p1258
sg7
S'f2'
p1259
sa(dp1260
g7
S'f3'
p1261
sa(dp1262
g7
S'f4'
p1263
sa(dp1264
g7
S'f5'
p1265
sa(dp1266
g7
S'f6'
p1267
sa(dp1268
g5
S'black_pawn'
p1269
sg7
S'f7'
p1270
sa(dp1271
g5
S'black_bishop'
p1272
sg7
S'f8'
p1273
sa(dp1274
g7
S'g1'
p1275
sa(dp1276
g5
S'white_pawn'
p1277
sg7
S'g2'
p1278
sa(dp1279
g7
S'g3'
p1280
sa(dp1281
g5
S'black_bishop'
p1282
sg7
S'g4'
p1283
sa(dp1284
g7
S'g5'
p1285
sa(dp1286
g7
S'g6'
p1287
sa(dp1288
g5
S'black_pawn'
p1289
sg7
S'g7'
p1290
sa(dp1291
g7
S'g8'
p1292
sa(dp1293
g5
S'white_rook'
p1294
sg7
S'h1'
p1295
sa(dp1296
g5
S'white_pawn'
p1297
sg7
S'h2'
p1298
sa(dp1299
g7
S'h3'
p1300
sa(dp1301
g7
S'h4'
p1302
sa(dp1303
g7
S'h5'
p1304
sa(dp1305
g5
S'black_knight'
p1306
sg7
S'h6'
p1307
sa(dp1308
g5
S'black_pawn'
p1309
sg7
S'h7'
p1310
sa(dp1311
g5
S'black_rook'
p1312
sg7
S'h8'
p1313
saaV?  Rather awkward - White pieces are starting to get a bit tangled in the centre.  Recall the opening guideline - don't move a piece twice in the opening, unless there is a tactic.  Earlier, the knight was being hunted; it had to keep on the move.  Now there is a tactic: 7.Bxf7ch! Black has two reasonable replies: 7...Nxf7 8.Qxg4; OR 7...Kxf7 8.Nxe5ch ... (forking King on f7 and Bishop on g4) 8...Ke8 9.Nxg4 ... Either way, White wins a pawn with a slight advantage.
p1314
aa(lp1315
S'7... Bxe2'
p1316
a(lp1317
(dp1318
g5
S'white_rook'
p1319
sg7
S'a1'
p1320
sa(dp1321
g5
S'white_pawn'
p1322
sg7
S'a2'
p1323
sa(dp1324
g7
S'a3'
p1325
sa(dp1326
g7
S'a4'
p1327
sa(dp1328
g7
S'a5'
p1329
sa(dp1330
g7
S'a6'
p1331
sa(dp1332
g5
S'black_pawn'
p1333
sg7
S'a7'
p1334
sa(dp1335
g5
S'black_rook'
p1336
sg7
S'a8'
p1337
sa(dp1338
g7
S'b1'
p1339
sa(dp1340
g5
S'white_pawn'
p1341
sg7
S'b2'
p1342
sa(dp1343
g7
S'b3'
p1344
sa(dp1345
g7
S'b4'
p1346
sa(dp1347
g7
S'b5'
p1348
sa(dp1349
g7
S'b6'
p1350
sa(dp1351
g5
S'black_pawn'
p1352
sg7
S'b7'
p1353
sa(dp1354
g5
S'black_knight'
p1355
sg7
S'b8'
p1356
sa(dp1357
g5
S'white_bishop'
p1358
sg7
S'c1'
p1359
sa(dp1360
g5
S'white_pawn'
p1361
sg7
S'c2'
p1362
sa(dp1363
g7
S'c3'
p1364
sa(dp1365
g5
S'white_bishop'
p1366
sg7
S'c4'
p1367
sa(dp1368
g7
S'c5'
p1369
sa(dp1370
g7
S'c6'
p1371
sa(dp1372
g5
S'black_pawn'
p1373
sg7
S'c7'
p1374
sa(dp1375
g7
S'c8'
p1376
sa(dp1377
g5
S'white_queen'
p1378
sg7
S'd1'
p1379
sa(dp1380
g5
S'white_pawn'
p1381
sg7
S'd2'
p1382
sa(dp1383
g5
S'white_knight'
p1384
sg7
S'd3'
p1385
sa(dp1386
g5
S'black_pawn'
p1387
sg7
S'd4'
p1388
sa(dp1389
g7
S'd5'
p1390
sa(dp1391
g7
S'd6'
p1392
sa(dp1393
g7
S'd7'
p1394
sa(dp1395
g5
S'black_queen'
p1396
sg7
S'd8'
p1397
sa(dp1398
g5
S'white_king'
p1399
sg7
S'e1'
p1400
sa(dp1401
g5
S'black_bishop'
p1402
sg7
S'e2'
p1403
sa(dp1404
g7
S'e3'
p1405
sa(dp1406
g5
S'white_pawn'
p1407
sg7
S'e4'
p1408
sa(dp1409
g5
S'black_pawn'
p1410
sg7
S'e5'
p1411
sa(dp1412
g7
S'e6'
p1413
sa(dp1414
g7
S'e7'
p1415
sa(dp1416
g5
S'black_king'
p1417
sg7
S'e8'
p1418
sa(dp1419
g7
S'f1'
p1420
sa(dp1421
g5
S'white_pawn'
p1422
sg7
S'f2'
p1423
sa(dp1424
g7
S'f3'
p1425
sa(dp1426
g7
S'f4'
p1427
sa(dp1428
g7
S'f5'
p1429
sa(dp1430
g7
S'f6'
p1431
sa(dp1432
g5
S'black_pawn'
p1433
sg7
S'f7'
p1434
sa(dp1435
g5
S'black_bishop'
p1436
sg7
S'f8'
p1437
sa(dp1438
g7
S'g1'
p1439
sa(dp1440
g5
S'white_pawn'
p1441
sg7
S'g2'
p1442
sa(dp1443
g7
S'g3'
p1444
sa(dp1445
g7
S'g4'
p1446
sa(dp1447
g7
S'g5'
p1448
sa(dp1449
g7
S'g6'
p1450
sa(dp1451
g5
S'black_pawn'
p1452
sg7
S'g7'
p1453
sa(dp1454
g7
S'g8'
p1455
sa(dp1456
g5
S'white_rook'
p1457
sg7
S'h1'
p1458
sa(dp1459
g5
S'white_pawn'
p1460
sg7
S'h2'
p1461
sa(dp1462
g7
S'h3'
p1463
sa(dp1464
g7
S'h4'
p1465
sa(dp1466
g7
S'h5'
p1467
sa(dp1468
g5
S'black_knight'
p1469
sg7
S'h6'
p1470
sa(dp1471
g5
S'black_pawn'
p1472
sg7
S'h7'
p1473
sa(dp1474
g5
S'black_rook'
p1475
sg7
S'h8'
p1476
saaVGives up an active piece for one relatively immobile (because it is pinned).  Not usually a good bargain.
p1477
aa(lp1478
S'8. Qxe2 Be7'
p1479
a(lp1480
(dp1481
g5
S'white_rook'
p1482
sg7
S'a1'
p1483
sa(dp1484
g5
S'white_pawn'
p1485
sg7
S'a2'
p1486
sa(dp1487
g7
S'a3'
p1488
sa(dp1489
g7
S'a4'
p1490
sa(dp1491
g7
S'a5'
p1492
sa(dp1493
g7
S'a6'
p1494
sa(dp1495
g5
S'black_pawn'
p1496
sg7
S'a7'
p1497
sa(dp1498
g5
S'black_rook'
p1499
sg7
S'a8'
p1500
sa(dp1501
g7
S'b1'
p1502
sa(dp1503
g5
S'white_pawn'
p1504
sg7
S'b2'
p1505
sa(dp1506
g7
S'b3'
p1507
sa(dp1508
g7
S'b4'
p1509
sa(dp1510
g7
S'b5'
p1511
sa(dp1512
g7
S'b6'
p1513
sa(dp1514
g5
S'black_pawn'
p1515
sg7
S'b7'
p1516
sa(dp1517
g5
S'black_knight'
p1518
sg7
S'b8'
p1519
sa(dp1520
g5
S'white_bishop'
p1521
sg7
S'c1'
p1522
sa(dp1523
g5
S'white_pawn'
p1524
sg7
S'c2'
p1525
sa(dp1526
g7
S'c3'
p1527
sa(dp1528
g5
S'white_bishop'
p1529
sg7
S'c4'
p1530
sa(dp1531
g7
S'c5'
p1532
sa(dp1533
g7
S'c6'
p1534
sa(dp1535
g5
S'black_pawn'
p1536
sg7
S'c7'
p1537
sa(dp1538
g7
S'c8'
p1539
sa(dp1540
g7
S'd1'
p1541
sa(dp1542
g5
S'white_pawn'
p1543
sg7
S'd2'
p1544
sa(dp1545
g5
S'white_knight'
p1546
sg7
S'd3'
p1547
sa(dp1548
g5
S'black_pawn'
p1549
sg7
S'd4'
p1550
sa(dp1551
g7
S'd5'
p1552
sa(dp1553
g7
S'd6'
p1554
sa(dp1555
g7
S'd7'
p1556
sa(dp1557
g5
S'black_queen'
p1558
sg7
S'd8'
p1559
sa(dp1560
g5
S'white_king'
p1561
sg7
S'e1'
p1562
sa(dp1563
g5
S'white_queen'
p1564
sg7
S'e2'
p1565
sa(dp1566
g7
S'e3'
p1567
sa(dp1568
g5
S'white_pawn'
p1569
sg7
S'e4'
p1570
sa(dp1571
g5
S'black_pawn'
p1572
sg7
S'e5'
p1573
sa(dp1574
g7
S'e6'
p1575
sa(dp1576
g5
S'black_bishop'
p1577
sg7
S'e7'
p1578
sa(dp1579
g5
S'black_king'
p1580
sg7
S'e8'
p1581
sa(dp1582
g7
S'f1'
p1583
sa(dp1584
g5
S'white_pawn'
p1585
sg7
S'f2'
p1586
sa(dp1587
g7
S'f3'
p1588
sa(dp1589
g7
S'f4'
p1590
sa(dp1591
g7
S'f5'
p1592
sa(dp1593
g7
S'f6'
p1594
sa(dp1595
g5
S'black_pawn'
p1596
sg7
S'f7'
p1597
sa(dp1598
g7
S'f8'
p1599
sa(dp1600
g7
S'g1'
p1601
sa(dp1602
g5
S'white_pawn'
p1603
sg7
S'g2'
p1604
sa(dp1605
g7
S'g3'
p1606
sa(dp1607
g7
S'g4'
p1608
sa(dp1609
g7
S'g5'
p1610
sa(dp1611
g7
S'g6'
p1612
sa(dp1613
g5
S'black_pawn'
p1614
sg7
S'g7'
p1615
sa(dp1616
g7
S'g8'
p1617
sa(dp1618
g5
S'white_rook'
p1619
sg7
S'h1'
p1620
sa(dp1621
g5
S'white_pawn'
p1622
sg7
S'h2'
p1623
sa(dp1624
g7
S'h3'
p1625
sa(dp1626
g7
S'h4'
p1627
sa(dp1628
g7
S'h5'
p1629
sa(dp1630
g5
S'black_knight'
p1631
sg7
S'h6'
p1632
sa(dp1633
g5
S'black_pawn'
p1634
sg7
S'h7'
p1635
sa(dp1636
g5
S'black_rook'
p1637
sg7
S'h8'
p1638
saaV?  Another 'one mover' oversight that costs Black a pawn.  8...Bd6 or 8...f6 or a move by the b8-knight would have been much better.
p1639
aa(lp1640
S'9. Nxe5'
p1641
a(lp1642
(dp1643
g5
S'white_rook'
p1644
sg7
S'a1'
p1645
sa(dp1646
g5
S'white_pawn'
p1647
sg7
S'a2'
p1648
sa(dp1649
g7
S'a3'
p1650
sa(dp1651
g7
S'a4'
p1652
sa(dp1653
g7
S'a5'
p1654
sa(dp1655
g7
S'a6'
p1656
sa(dp1657
g5
S'black_pawn'
p1658
sg7
S'a7'
p1659
sa(dp1660
g5
S'black_rook'
p1661
sg7
S'a8'
p1662
sa(dp1663
g7
S'b1'
p1664
sa(dp1665
g5
S'white_pawn'
p1666
sg7
S'b2'
p1667
sa(dp1668
g7
S'b3'
p1669
sa(dp1670
g7
S'b4'
p1671
sa(dp1672
g7
S'b5'
p1673
sa(dp1674
g7
S'b6'
p1675
sa(dp1676
g5
S'black_pawn'
p1677
sg7
S'b7'
p1678
sa(dp1679
g5
S'black_knight'
p1680
sg7
S'b8'
p1681
sa(dp1682
g5
S'white_bishop'
p1683
sg7
S'c1'
p1684
sa(dp1685
g5
S'white_pawn'
p1686
sg7
S'c2'
p1687
sa(dp1688
g7
S'c3'
p1689
sa(dp1690
g5
S'white_bishop'
p1691
sg7
S'c4'
p1692
sa(dp1693
g7
S'c5'
p1694
sa(dp1695
g7
S'c6'
p1696
sa(dp1697
g5
S'black_pawn'
p1698
sg7
S'c7'
p1699
sa(dp1700
g7
S'c8'
p1701
sa(dp1702
g7
S'd1'
p1703
sa(dp1704
g5
S'white_pawn'
p1705
sg7
S'd2'
p1706
sa(dp1707
g7
S'd3'
p1708
sa(dp1709
g5
S'black_pawn'
p1710
sg7
S'd4'
p1711
sa(dp1712
g7
S'd5'
p1713
sa(dp1714
g7
S'd6'
p1715
sa(dp1716
g7
S'd7'
p1717
sa(dp1718
g5
S'black_queen'
p1719
sg7
S'd8'
p1720
sa(dp1721
g5
S'white_king'
p1722
sg7
S'e1'
p1723
sa(dp1724
g5
S'white_queen'
p1725
sg7
S'e2'
p1726
sa(dp1727
g7
S'e3'
p1728
sa(dp1729
g5
S'white_pawn'
p1730
sg7
S'e4'
p1731
sa(dp1732
g5
S'white_knight'
p1733
sg7
S'e5'
p1734
sa(dp1735
g7
S'e6'
p1736
sa(dp1737
g5
S'black_bishop'
p1738
sg7
S'e7'
p1739
sa(dp1740
g5
S'black_king'
p1741
sg7
S'e8'
p1742
sa(dp1743
g7
S'f1'
p1744
sa(dp1745
g5
S'white_pawn'
p1746
sg7
S'f2'
p1747
sa(dp1748
g7
S'f3'
p1749
sa(dp1750
g7
S'f4'
p1751
sa(dp1752
g7
S'f5'
p1753
sa(dp1754
g7
S'f6'
p1755
sa(dp1756
g5
S'black_pawn'
p1757
sg7
S'f7'
p1758
sa(dp1759
g7
S'f8'
p1760
sa(dp1761
g7
S'g1'
p1762
sa(dp1763
g5
S'white_pawn'
p1764
sg7
S'g2'
p1765
sa(dp1766
g7
S'g3'
p1767
sa(dp1768
g7
S'g4'
p1769
sa(dp1770
g7
S'g5'
p1771
sa(dp1772
g7
S'g6'
p1773
sa(dp1774
g5
S'black_pawn'
p1775
sg7
S'g7'
p1776
sa(dp1777
g7
S'g8'
p1778
sa(dp1779
g5
S'white_rook'
p1780
sg7
S'h1'
p1781
sa(dp1782
g5
S'white_pawn'
p1783
sg7
S'h2'
p1784
sa(dp1785
g7
S'h3'
p1786
sa(dp1787
g7
S'h4'
p1788
sa(dp1789
g7
S'h5'
p1790
sa(dp1791
g5
S'black_knight'
p1792
sg7
S'h6'
p1793
sa(dp1794
g5
S'black_pawn'
p1795
sg7
S'h7'
p1796
sa(dp1797
g5
S'black_rook'
p1798
sg7
S'h8'
p1799
saaVThe Gameknot engine gives White a 1.88 edge - worth almost 2 pawns - very much the better game.
p1800
aa(lp1801
S'9... Bf6 10. Nd3'
p1802
a(lp1803
(dp1804
g5
S'white_rook'
p1805
sg7
S'a1'
p1806
sa(dp1807
g5
S'white_pawn'
p1808
sg7
S'a2'
p1809
sa(dp1810
g7
S'a3'
p1811
sa(dp1812
g7
S'a4'
p1813
sa(dp1814
g7
S'a5'
p1815
sa(dp1816
g7
S'a6'
p1817
sa(dp1818
g5
S'black_pawn'
p1819
sg7
S'a7'
p1820
sa(dp1821
g5
S'black_rook'
p1822
sg7
S'a8'
p1823
sa(dp1824
g7
S'b1'
p1825
sa(dp1826
g5
S'white_pawn'
p1827
sg7
S'b2'
p1828
sa(dp1829
g7
S'b3'
p1830
sa(dp1831
g7
S'b4'
p1832
sa(dp1833
g7
S'b5'
p1834
sa(dp1835
g7
S'b6'
p1836
sa(dp1837
g5
S'black_pawn'
p1838
sg7
S'b7'
p1839
sa(dp1840
g5
S'black_knight'
p1841
sg7
S'b8'
p1842
sa(dp1843
g5
S'white_bishop'
p1844
sg7
S'c1'
p1845
sa(dp1846
g5
S'white_pawn'
p1847
sg7
S'c2'
p1848
sa(dp1849
g7
S'c3'
p1850
sa(dp1851
g5
S'white_bishop'
p1852
sg7
S'c4'
p1853
sa(dp1854
g7
S'c5'
p1855
sa(dp1856
g7
S'c6'
p1857
sa(dp1858
g5
S'black_pawn'
p1859
sg7
S'c7'
p1860
sa(dp1861
g7
S'c8'
p1862
sa(dp1863
g7
S'd1'
p1864
sa(dp1865
g5
S'white_pawn'
p1866
sg7
S'd2'
p1867
sa(dp1868
g5
S'white_knight'
p1869
sg7
S'd3'
p1870
sa(dp1871
g5
S'black_pawn'
p1872
sg7
S'd4'
p1873
sa(dp1874
g7
S'd5'
p1875
sa(dp1876
g7
S'd6'
p1877
sa(dp1878
g7
S'd7'
p1879
sa(dp1880
g5
S'black_queen'
p1881
sg7
S'd8'
p1882
sa(dp1883
g5
S'white_king'
p1884
sg7
S'e1'
p1885
sa(dp1886
g5
S'white_queen'
p1887
sg7
S'e2'
p1888
sa(dp1889
g7
S'e3'
p1890
sa(dp1891
g5
S'white_pawn'
p1892
sg7
S'e4'
p1893
sa(dp1894
g7
S'e5'
p1895
sa(dp1896
g7
S'e6'
p1897
sa(dp1898
g7
S'e7'
p1899
sa(dp1900
g5
S'black_king'
p1901
sg7
S'e8'
p1902
sa(dp1903
g7
S'f1'
p1904
sa(dp1905
g5
S'white_pawn'
p1906
sg7
S'f2'
p1907
sa(dp1908
g7
S'f3'
p1909
sa(dp1910
g7
S'f4'
p1911
sa(dp1912
g7
S'f5'
p1913
sa(dp1914
g5
S'black_bishop'
p1915
sg7
S'f6'
p1916
sa(dp1917
g5
S'black_pawn'
p1918
sg7
S'f7'
p1919
sa(dp1920
g7
S'f8'
p1921
sa(dp1922
g7
S'g1'
p1923
sa(dp1924
g5
S'white_pawn'
p1925
sg7
S'g2'
p1926
sa(dp1927
g7
S'g3'
p1928
sa(dp1929
g7
S'g4'
p1930
sa(dp1931
g7
S'g5'
p1932
sa(dp1933
g7
S'g6'
p1934
sa(dp1935
g5
S'black_pawn'
p1936
sg7
S'g7'
p1937
sa(dp1938
g7
S'g8'
p1939
sa(dp1940
g5
S'white_rook'
p1941
sg7
S'h1'
p1942
sa(dp1943
g5
S'white_pawn'
p1944
sg7
S'h2'
p1945
sa(dp1946
g7
S'h3'
p1947
sa(dp1948
g7
S'h4'
p1949
sa(dp1950
g7
S'h5'
p1951
sa(dp1952
g5
S'black_knight'
p1953
sg7
S'h6'
p1954
sa(dp1955
g5
S'black_pawn'
p1956
sg7
S'h7'
p1957
sa(dp1958
g5
S'black_rook'
p1959
sg7
S'h8'
p1960
saaVSafe enough.  An alternative idea would have been to invite (force) an exchange of minor pieces by 10.Ng4.  Now that she is a pawn ahead, even (i.e. equal) exchanges are in White's interests, in principle.  That does NOT mean simply blindly exchange, of course, nor should Black avoid them if by so doing he incurs worse, but they can be used to add value to White material advantage.
p1961
aa(lp1962
S'10... O-O 11. e5'
p1963
a(lp1964
(dp1965
g5
S'white_rook'
p1966
sg7
S'a1'
p1967
sa(dp1968
g5
S'white_pawn'
p1969
sg7
S'a2'
p1970
sa(dp1971
g7
S'a3'
p1972
sa(dp1973
g7
S'a4'
p1974
sa(dp1975
g7
S'a5'
p1976
sa(dp1977
g7
S'a6'
p1978
sa(dp1979
g5
S'black_pawn'
p1980
sg7
S'a7'
p1981
sa(dp1982
g5
S'black_rook'
p1983
sg7
S'a8'
p1984
sa(dp1985
g7
S'b1'
p1986
sa(dp1987
g5
S'white_pawn'
p1988
sg7
S'b2'
p1989
sa(dp1990
g7
S'b3'
p1991
sa(dp1992
g7
S'b4'
p1993
sa(dp1994
g7
S'b5'
p1995
sa(dp1996
g7
S'b6'
p1997
sa(dp1998
g5
S'black_pawn'
p1999
sg7
S'b7'
p2000
sa(dp2001
g5
S'black_knight'
p2002
sg7
S'b8'
p2003
sa(dp2004
g5
S'white_bishop'
p2005
sg7
S'c1'
p2006
sa(dp2007
g5
S'white_pawn'
p2008
sg7
S'c2'
p2009
sa(dp2010
g7
S'c3'
p2011
sa(dp2012
g5
S'white_bishop'
p2013
sg7
S'c4'
p2014
sa(dp2015
g7
S'c5'
p2016
sa(dp2017
g7
S'c6'
p2018
sa(dp2019
g5
S'black_pawn'
p2020
sg7
S'c7'
p2021
sa(dp2022
g7
S'c8'
p2023
sa(dp2024
g7
S'd1'
p2025
sa(dp2026
g5
S'white_pawn'
p2027
sg7
S'd2'
p2028
sa(dp2029
g5
S'white_knight'
p2030
sg7
S'd3'
p2031
sa(dp2032
g5
S'black_pawn'
p2033
sg7
S'd4'
p2034
sa(dp2035
g7
S'd5'
p2036
sa(dp2037
g7
S'd6'
p2038
sa(dp2039
g7
S'd7'
p2040
sa(dp2041
g5
S'black_queen'
p2042
sg7
S'd8'
p2043
sa(dp2044
g5
S'white_king'
p2045
sg7
S'e1'
p2046
sa(dp2047
g5
S'white_queen'
p2048
sg7
S'e2'
p2049
sa(dp2050
g7
S'e3'
p2051
sa(dp2052
g7
S'e4'
p2053
sa(dp2054
g5
S'white_pawn'
p2055
sg7
S'e5'
p2056
sa(dp2057
g7
S'e6'
p2058
sa(dp2059
g7
S'e7'
p2060
sa(dp2061
g7
S'e8'
p2062
sa(dp2063
g7
S'f1'
p2064
sa(dp2065
g5
S'white_pawn'
p2066
sg7
S'f2'
p2067
sa(dp2068
g7
S'f3'
p2069
sa(dp2070
g7
S'f4'
p2071
sa(dp2072
g7
S'f5'
p2073
sa(dp2074
g5
S'black_bishop'
p2075
sg7
S'f6'
p2076
sa(dp2077
g5
S'black_pawn'
p2078
sg7
S'f7'
p2079
sa(dp2080
g5
S'black_rook'
p2081
sg7
S'f8'
p2082
sa(dp2083
g7
S'g1'
p2084
sa(dp2085
g5
S'white_pawn'
p2086
sg7
S'g2'
p2087
sa(dp2088
g7
S'g3'
p2089
sa(dp2090
g7
S'g4'
p2091
sa(dp2092
g7
S'g5'
p2093
sa(dp2094
g7
S'g6'
p2095
sa(dp2096
g5
S'black_pawn'
p2097
sg7
S'g7'
p2098
sa(dp2099
g5
S'black_king'
p2100
sg7
S'g8'
p2101
sa(dp2102
g5
S'white_rook'
p2103
sg7
S'h1'
p2104
sa(dp2105
g5
S'white_pawn'
p2106
sg7
S'h2'
p2107
sa(dp2108
g7
S'h3'
p2109
sa(dp2110
g7
S'h4'
p2111
sa(dp2112
g7
S'h5'
p2113
sa(dp2114
g5
S'black_knight'
p2115
sg7
S'h6'
p2116
sa(dp2117
g5
S'black_pawn'
p2118
sg7
S'h7'
p2119
sa(dp2120
g7
S'h8'
p2121
saaV!?  OK, but I think I would have castled, here.  White does have to be somewhat concerned about the tangled situation on the c- and d-files, too, though their unravelling is not yet urgent.
p2122
aa(lp2123
S'11... Be7 12. c3 Nc6 13. e6'
p2124
a(lp2125
(dp2126
g5
S'white_rook'
p2127
sg7
S'a1'
p2128
sa(dp2129
g5
S'white_pawn'
p2130
sg7
S'a2'
p2131
sa(dp2132
g7
S'a3'
p2133
sa(dp2134
g7
S'a4'
p2135
sa(dp2136
g7
S'a5'
p2137
sa(dp2138
g7
S'a6'
p2139
sa(dp2140
g5
S'black_pawn'
p2141
sg7
S'a7'
p2142
sa(dp2143
g5
S'black_rook'
p2144
sg7
S'a8'
p2145
sa(dp2146
g7
S'b1'
p2147
sa(dp2148
g5
S'white_pawn'
p2149
sg7
S'b2'
p2150
sa(dp2151
g7
S'b3'
p2152
sa(dp2153
g7
S'b4'
p2154
sa(dp2155
g7
S'b5'
p2156
sa(dp2157
g7
S'b6'
p2158
sa(dp2159
g5
S'black_pawn'
p2160
sg7
S'b7'
p2161
sa(dp2162
g7
S'b8'
p2163
sa(dp2164
g5
S'white_bishop'
p2165
sg7
S'c1'
p2166
sa(dp2167
g7
S'c2'
p2168
sa(dp2169
g5
S'white_pawn'
p2170
sg7
S'c3'
p2171
sa(dp2172
g5
S'white_bishop'
p2173
sg7
S'c4'
p2174
sa(dp2175
g7
S'c5'
p2176
sa(dp2177
g5
S'black_knight'
p2178
sg7
S'c6'
p2179
sa(dp2180
g5
S'black_pawn'
p2181
sg7
S'c7'
p2182
sa(dp2183
g7
S'c8'
p2184
sa(dp2185
g7
S'd1'
p2186
sa(dp2187
g5
S'white_pawn'
p2188
sg7
S'd2'
p2189
sa(dp2190
g5
S'white_knight'
p2191
sg7
S'd3'
p2192
sa(dp2193
g5
S'black_pawn'
p2194
sg7
S'd4'
p2195
sa(dp2196
g7
S'd5'
p2197
sa(dp2198
g7
S'd6'
p2199
sa(dp2200
g7
S'd7'
p2201
sa(dp2202
g5
S'black_queen'
p2203
sg7
S'd8'
p2204
sa(dp2205
g5
S'white_king'
p2206
sg7
S'e1'
p2207
sa(dp2208
g5
S'white_queen'
p2209
sg7
S'e2'
p2210
sa(dp2211
g7
S'e3'
p2212
sa(dp2213
g7
S'e4'
p2214
sa(dp2215
g7
S'e5'
p2216
sa(dp2217
g5
S'white_pawn'
p2218
sg7
S'e6'
p2219
sa(dp2220
g5
S'black_bishop'
p2221
sg7
S'e7'
p2222
sa(dp2223
g7
S'e8'
p2224
sa(dp2225
g7
S'f1'
p2226
sa(dp2227
g5
S'white_pawn'
p2228
sg7
S'f2'
p2229
sa(dp2230
g7
S'f3'
p2231
sa(dp2232
g7
S'f4'
p2233
sa(dp2234
g7
S'f5'
p2235
sa(dp2236
g7
S'f6'
p2237
sa(dp2238
g5
S'black_pawn'
p2239
sg7
S'f7'
p2240
sa(dp2241
g5
S'black_rook'
p2242
sg7
S'f8'
p2243
sa(dp2244
g7
S'g1'
p2245
sa(dp2246
g5
S'white_pawn'
p2247
sg7
S'g2'
p2248
sa(dp2249
g7
S'g3'
p2250
sa(dp2251
g7
S'g4'
p2252
sa(dp2253
g7
S'g5'
p2254
sa(dp2255
g7
S'g6'
p2256
sa(dp2257
g5
S'black_pawn'
p2258
sg7
S'g7'
p2259
sa(dp2260
g5
S'black_king'
p2261
sg7
S'g8'
p2262
sa(dp2263
g5
S'white_rook'
p2264
sg7
S'h1'
p2265
sa(dp2266
g5
S'white_pawn'
p2267
sg7
S'h2'
p2268
sa(dp2269
g7
S'h3'
p2270
sa(dp2271
g7
S'h4'
p2272
sa(dp2273
g7
S'h5'
p2274
sa(dp2275
g5
S'black_knight'
p2276
sg7
S'h6'
p2277
sa(dp2278
g5
S'black_pawn'
p2279
sg7
S'h7'
p2280
sa(dp2281
g7
S'h8'
p2282
saaV?!  Halves White's advantage according to the GK engine.  But I rather like this move - poking a heavy stick into Black's game.  It's a move I might well have played myself in this situation.
p2283
aa(lp2284
S'13... a5'
p2285
a(lp2286
(dp2287
g5
S'white_rook'
p2288
sg7
S'a1'
p2289
sa(dp2290
g5
S'white_pawn'
p2291
sg7
S'a2'
p2292
sa(dp2293
g7
S'a3'
p2294
sa(dp2295
g7
S'a4'
p2296
sa(dp2297
g5
S'black_pawn'
p2298
sg7
S'a5'
p2299
sa(dp2300
g7
S'a6'
p2301
sa(dp2302
g7
S'a7'
p2303
sa(dp2304
g5
S'black_rook'
p2305
sg7
S'a8'
p2306
sa(dp2307
g7
S'b1'
p2308
sa(dp2309
g5
S'white_pawn'
p2310
sg7
S'b2'
p2311
sa(dp2312
g7
S'b3'
p2313
sa(dp2314
g7
S'b4'
p2315
sa(dp2316
g7
S'b5'
p2317
sa(dp2318
g7
S'b6'
p2319
sa(dp2320
g5
S'black_pawn'
p2321
sg7
S'b7'
p2322
sa(dp2323
g7
S'b8'
p2324
sa(dp2325
g5
S'white_bishop'
p2326
sg7
S'c1'
p2327
sa(dp2328
g7
S'c2'
p2329
sa(dp2330
g5
S'white_pawn'
p2331
sg7
S'c3'
p2332
sa(dp2333
g5
S'white_bishop'
p2334
sg7
S'c4'
p2335
sa(dp2336
g7
S'c5'
p2337
sa(dp2338
g5
S'black_knight'
p2339
sg7
S'c6'
p2340
sa(dp2341
g5
S'black_pawn'
p2342
sg7
S'c7'
p2343
sa(dp2344
g7
S'c8'
p2345
sa(dp2346
g7
S'd1'
p2347
sa(dp2348
g5
S'white_pawn'
p2349
sg7
S'd2'
p2350
sa(dp2351
g5
S'white_knight'
p2352
sg7
S'd3'
p2353
sa(dp2354
g5
S'black_pawn'
p2355
sg7
S'd4'
p2356
sa(dp2357
g7
S'd5'
p2358
sa(dp2359
g7
S'd6'
p2360
sa(dp2361
g7
S'd7'
p2362
sa(dp2363
g5
S'black_queen'
p2364
sg7
S'd8'
p2365
sa(dp2366
g5
S'white_king'
p2367
sg7
S'e1'
p2368
sa(dp2369
g5
S'white_queen'
p2370
sg7
S'e2'
p2371
sa(dp2372
g7
S'e3'
p2373
sa(dp2374
g7
S'e4'
p2375
sa(dp2376
g7
S'e5'
p2377
sa(dp2378
g5
S'white_pawn'
p2379
sg7
S'e6'
p2380
sa(dp2381
g5
S'black_bishop'
p2382
sg7
S'e7'
p2383
sa(dp2384
g7
S'e8'
p2385
sa(dp2386
g7
S'f1'
p2387
sa(dp2388
g5
S'white_pawn'
p2389
sg7
S'f2'
p2390
sa(dp2391
g7
S'f3'
p2392
sa(dp2393
g7
S'f4'
p2394
sa(dp2395
g7
S'f5'
p2396
sa(dp2397
g7
S'f6'
p2398
sa(dp2399
g5
S'black_pawn'
p2400
sg7
S'f7'
p2401
sa(dp2402
g5
S'black_rook'
p2403
sg7
S'f8'
p2404
sa(dp2405
g7
S'g1'
p2406
sa(dp2407
g5
S'white_pawn'
p2408
sg7
S'g2'
p2409
sa(dp2410
g7
S'g3'
p2411
sa(dp2412
g7
S'g4'
p2413
sa(dp2414
g7
S'g5'
p2415
sa(dp2416
g7
S'g6'
p2417
sa(dp2418
g5
S'black_pawn'
p2419
sg7
S'g7'
p2420
sa(dp2421
g5
S'black_king'
p2422
sg7
S'g8'
p2423
sa(dp2424
g5
S'white_rook'
p2425
sg7
S'h1'
p2426
sa(dp2427
g5
S'white_pawn'
p2428
sg7
S'h2'
p2429
sa(dp2430
g7
S'h3'
p2431
sa(dp2432
g7
S'h4'
p2433
sa(dp2434
g7
S'h5'
p2435
sa(dp2436
g5
S'black_knight'
p2437
sg7
S'h6'
p2438
sa(dp2439
g5
S'black_pawn'
p2440
sg7
S'h7'
p2441
sa(dp2442
g7
S'h8'
p2443
saaV?!  The Gameknot engine prefers 13...Bd6, which places the bishop on a well protected and handier location - a more useful diagonal.
p2444
aa(lp2445
S'14. exf7+ Nxf7 15. cxd4'
p2446
a(lp2447
(dp2448
g5
S'white_rook'
p2449
sg7
S'a1'
p2450
sa(dp2451
g5
S'white_pawn'
p2452
sg7
S'a2'
p2453
sa(dp2454
g7
S'a3'
p2455
sa(dp2456
g7
S'a4'
p2457
sa(dp2458
g5
S'black_pawn'
p2459
sg7
S'a5'
p2460
sa(dp2461
g7
S'a6'
p2462
sa(dp2463
g7
S'a7'
p2464
sa(dp2465
g5
S'black_rook'
p2466
sg7
S'a8'
p2467
sa(dp2468
g7
S'b1'
p2469
sa(dp2470
g5
S'white_pawn'
p2471
sg7
S'b2'
p2472
sa(dp2473
g7
S'b3'
p2474
sa(dp2475
g7
S'b4'
p2476
sa(dp2477
g7
S'b5'
p2478
sa(dp2479
g7
S'b6'
p2480
sa(dp2481
g5
S'black_pawn'
p2482
sg7
S'b7'
p2483
sa(dp2484
g7
S'b8'
p2485
sa(dp2486
g5
S'white_bishop'
p2487
sg7
S'c1'
p2488
sa(dp2489
g7
S'c2'
p2490
sa(dp2491
g7
S'c3'
p2492
sa(dp2493
g5
S'white_bishop'
p2494
sg7
S'c4'
p2495
sa(dp2496
g7
S'c5'
p2497
sa(dp2498
g5
S'black_knight'
p2499
sg7
S'c6'
p2500
sa(dp2501
g5
S'black_pawn'
p2502
sg7
S'c7'
p2503
sa(dp2504
g7
S'c8'
p2505
sa(dp2506
g7
S'd1'
p2507
sa(dp2508
g5
S'white_pawn'
p2509
sg7
S'd2'
p2510
sa(dp2511
g5
S'white_knight'
p2512
sg7
S'd3'
p2513
sa(dp2514
g5
S'white_pawn'
p2515
sg7
S'd4'
p2516
sa(dp2517
g7
S'd5'
p2518
sa(dp2519
g7
S'd6'
p2520
sa(dp2521
g7
S'd7'
p2522
sa(dp2523
g5
S'black_queen'
p2524
sg7
S'd8'
p2525
sa(dp2526
g5
S'white_king'
p2527
sg7
S'e1'
p2528
sa(dp2529
g5
S'white_queen'
p2530
sg7
S'e2'
p2531
sa(dp2532
g7
S'e3'
p2533
sa(dp2534
g7
S'e4'
p2535
sa(dp2536
g7
S'e5'
p2537
sa(dp2538
g7
S'e6'
p2539
sa(dp2540
g5
S'black_bishop'
p2541
sg7
S'e7'
p2542
sa(dp2543
g7
S'e8'
p2544
sa(dp2545
g7
S'f1'
p2546
sa(dp2547
g5
S'white_pawn'
p2548
sg7
S'f2'
p2549
sa(dp2550
g7
S'f3'
p2551
sa(dp2552
g7
S'f4'
p2553
sa(dp2554
g7
S'f5'
p2555
sa(dp2556
g7
S'f6'
p2557
sa(dp2558
g5
S'black_knight'
p2559
sg7
S'f7'
p2560
sa(dp2561
g5
S'black_rook'
p2562
sg7
S'f8'
p2563
sa(dp2564
g7
S'g1'
p2565
sa(dp2566
g5
S'white_pawn'
p2567
sg7
S'g2'
p2568
sa(dp2569
g7
S'g3'
p2570
sa(dp2571
g7
S'g4'
p2572
sa(dp2573
g7
S'g5'
p2574
sa(dp2575
g7
S'g6'
p2576
sa(dp2577
g5
S'black_pawn'
p2578
sg7
S'g7'
p2579
sa(dp2580
g5
S'black_king'
p2581
sg7
S'g8'
p2582
sa(dp2583
g5
S'white_rook'
p2584
sg7
S'h1'
p2585
sa(dp2586
g5
S'white_pawn'
p2587
sg7
S'h2'
p2588
sa(dp2589
g7
S'h3'
p2590
sa(dp2591
g7
S'h4'
p2592
sa(dp2593
g7
S'h5'
p2594
sa(dp2595
g7
S'h6'
p2596
sa(dp2597
g5
S'black_pawn'
p2598
sg7
S'h7'
p2599
sa(dp2600
g7
S'h8'
p2601
saaV?  Understandable, given the tangled situation in White's centre, but this puts Black on top.  The recapture will throw White back onto the defensive.  It is not so easy to find a good move, but I might have been inclined to castle, or play 15.Bb3, with a view to relocating to c2, aiming at the h7-square.
p2602
aa(lp2603
S'15... Nxd4 16. Qd1'
p2604
a(lp2605
(dp2606
g5
S'white_rook'
p2607
sg7
S'a1'
p2608
sa(dp2609
g5
S'white_pawn'
p2610
sg7
S'a2'
p2611
sa(dp2612
g7
S'a3'
p2613
sa(dp2614
g7
S'a4'
p2615
sa(dp2616
g5
S'black_pawn'
p2617
sg7
S'a5'
p2618
sa(dp2619
g7
S'a6'
p2620
sa(dp2621
g7
S'a7'
p2622
sa(dp2623
g5
S'black_rook'
p2624
sg7
S'a8'
p2625
sa(dp2626
g7
S'b1'
p2627
sa(dp2628
g5
S'white_pawn'
p2629
sg7
S'b2'
p2630
sa(dp2631
g7
S'b3'
p2632
sa(dp2633
g7
S'b4'
p2634
sa(dp2635
g7
S'b5'
p2636
sa(dp2637
g7
S'b6'
p2638
sa(dp2639
g5
S'black_pawn'
p2640
sg7
S'b7'
p2641
sa(dp2642
g7
S'b8'
p2643
sa(dp2644
g5
S'white_bishop'
p2645
sg7
S'c1'
p2646
sa(dp2647
g7
S'c2'
p2648
sa(dp2649
g7
S'c3'
p2650
sa(dp2651
g5
S'white_bishop'
p2652
sg7
S'c4'
p2653
sa(dp2654
g7
S'c5'
p2655
sa(dp2656
g7
S'c6'
p2657
sa(dp2658
g5
S'black_pawn'
p2659
sg7
S'c7'
p2660
sa(dp2661
g7
S'c8'
p2662
sa(dp2663
g5
S'white_queen'
p2664
sg7
S'd1'
p2665
sa(dp2666
g5
S'white_pawn'
p2667
sg7
S'd2'
p2668
sa(dp2669
g5
S'white_knight'
p2670
sg7
S'd3'
p2671
sa(dp2672
g5
S'black_knight'
p2673
sg7
S'd4'
p2674
sa(dp2675
g7
S'd5'
p2676
sa(dp2677
g7
S'd6'
p2678
sa(dp2679
g7
S'd7'
p2680
sa(dp2681
g5
S'black_queen'
p2682
sg7
S'd8'
p2683
sa(dp2684
g5
S'white_king'
p2685
sg7
S'e1'
p2686
sa(dp2687
g7
S'e2'
p2688
sa(dp2689
g7
S'e3'
p2690
sa(dp2691
g7
S'e4'
p2692
sa(dp2693
g7
S'e5'
p2694
sa(dp2695
g7
S'e6'
p2696
sa(dp2697
g5
S'black_bishop'
p2698
sg7
S'e7'
p2699
sa(dp2700
g7
S'e8'
p2701
sa(dp2702
g7
S'f1'
p2703
sa(dp2704
g5
S'white_pawn'
p2705
sg7
S'f2'
p2706
sa(dp2707
g7
S'f3'
p2708
sa(dp2709
g7
S'f4'
p2710
sa(dp2711
g7
S'f5'
p2712
sa(dp2713
g7
S'f6'
p2714
sa(dp2715
g5
S'black_knight'
p2716
sg7
S'f7'
p2717
sa(dp2718
g5
S'black_rook'
p2719
sg7
S'f8'
p2720
sa(dp2721
g7
S'g1'
p2722
sa(dp2723
g5
S'white_pawn'
p2724
sg7
S'g2'
p2725
sa(dp2726
g7
S'g3'
p2727
sa(dp2728
g7
S'g4'
p2729
sa(dp2730
g7
S'g5'
p2731
sa(dp2732
g7
S'g6'
p2733
sa(dp2734
g5
S'black_pawn'
p2735
sg7
S'g7'
p2736
sa(dp2737
g5
S'black_king'
p2738
sg7
S'g8'
p2739
sa(dp2740
g5
S'white_rook'
p2741
sg7
S'h1'
p2742
sa(dp2743
g5
S'white_pawn'
p2744
sg7
S'h2'
p2745
sa(dp2746
g7
S'h3'
p2747
sa(dp2748
g7
S'h4'
p2749
sa(dp2750
g7
S'h5'
p2751
sa(dp2752
g7
S'h6'
p2753
sa(dp2754
g5
S'black_pawn'
p2755
sg7
S'h7'
p2756
sa(dp2757
g7
S'h8'
p2758
saaVNaturally, there was no good alternative.  Black was attacking the queen, and also c2, where there would have been a knight-fork.  This Queen retreat defends against both threats.
p2759
aa(lp2760
S'16... a4'
p2761
a(lp2762
(dp2763
g5
S'white_rook'
p2764
sg7
S'a1'
p2765
sa(dp2766
g5
S'white_pawn'
p2767
sg7
S'a2'
p2768
sa(dp2769
g7
S'a3'
p2770
sa(dp2771
g5
S'black_pawn'
p2772
sg7
S'a4'
p2773
sa(dp2774
g7
S'a5'
p2775
sa(dp2776
g7
S'a6'
p2777
sa(dp2778
g7
S'a7'
p2779
sa(dp2780
g5
S'black_rook'
p2781
sg7
S'a8'
p2782
sa(dp2783
g7
S'b1'
p2784
sa(dp2785
g5
S'white_pawn'
p2786
sg7
S'b2'
p2787
sa(dp2788
g7
S'b3'
p2789
sa(dp2790
g7
S'b4'
p2791
sa(dp2792
g7
S'b5'
p2793
sa(dp2794
g7
S'b6'
p2795
sa(dp2796
g5
S'black_pawn'
p2797
sg7
S'b7'
p2798
sa(dp2799
g7
S'b8'
p2800
sa(dp2801
g5
S'white_bishop'
p2802
sg7
S'c1'
p2803
sa(dp2804
g7
S'c2'
p2805
sa(dp2806
g7
S'c3'
p2807
sa(dp2808
g5
S'white_bishop'
p2809
sg7
S'c4'
p2810
sa(dp2811
g7
S'c5'
p2812
sa(dp2813
g7
S'c6'
p2814
sa(dp2815
g5
S'black_pawn'
p2816
sg7
S'c7'
p2817
sa(dp2818
g7
S'c8'
p2819
sa(dp2820
g5
S'white_queen'
p2821
sg7
S'd1'
p2822
sa(dp2823
g5
S'white_pawn'
p2824
sg7
S'd2'
p2825
sa(dp2826
g5
S'white_knight'
p2827
sg7
S'd3'
p2828
sa(dp2829
g5
S'black_knight'
p2830
sg7
S'd4'
p2831
sa(dp2832
g7
S'd5'
p2833
sa(dp2834
g7
S'd6'
p2835
sa(dp2836
g7
S'd7'
p2837
sa(dp2838
g5
S'black_queen'
p2839
sg7
S'd8'
p2840
sa(dp2841
g5
S'white_king'
p2842
sg7
S'e1'
p2843
sa(dp2844
g7
S'e2'
p2845
sa(dp2846
g7
S'e3'
p2847
sa(dp2848
g7
S'e4'
p2849
sa(dp2850
g7
S'e5'
p2851
sa(dp2852
g7
S'e6'
p2853
sa(dp2854
g5
S'black_bishop'
p2855
sg7
S'e7'
p2856
sa(dp2857
g7
S'e8'
p2858
sa(dp2859
g7
S'f1'
p2860
sa(dp2861
g5
S'white_pawn'
p2862
sg7
S'f2'
p2863
sa(dp2864
g7
S'f3'
p2865
sa(dp2866
g7
S'f4'
p2867
sa(dp2868
g7
S'f5'
p2869
sa(dp2870
g7
S'f6'
p2871
sa(dp2872
g5
S'black_knight'
p2873
sg7
S'f7'
p2874
sa(dp2875
g5
S'black_rook'
p2876
sg7
S'f8'
p2877
sa(dp2878
g7
S'g1'
p2879
sa(dp2880
g5
S'white_pawn'
p2881
sg7
S'g2'
p2882
sa(dp2883
g7
S'g3'
p2884
sa(dp2885
g7
S'g4'
p2886
sa(dp2887
g7
S'g5'
p2888
sa(dp2889
g7
S'g6'
p2890
sa(dp2891
g5
S'black_pawn'
p2892
sg7
S'g7'
p2893
sa(dp2894
g5
S'black_king'
p2895
sg7
S'g8'
p2896
sa(dp2897
g5
S'white_rook'
p2898
sg7
S'h1'
p2899
sa(dp2900
g5
S'white_pawn'
p2901
sg7
S'h2'
p2902
sa(dp2903
g7
S'h3'
p2904
sa(dp2905
g7
S'h4'
p2906
sa(dp2907
g7
S'h5'
p2908
sa(dp2909
g7
S'h6'
p2910
sa(dp2911
g5
S'black_pawn'
p2912
sg7
S'h7'
p2913
sa(dp2914
g7
S'h8'
p2915
saaVMore forcing - and more worrying for White - would have been 16...b5.  Now White has the opportunity to exploit the pin along the a2-g8 diagonal.  
p2916
aa(lp2917
S'17. O-O'
p2918
a(lp2919
(dp2920
g5
S'white_rook'
p2921
sg7
S'a1'
p2922
sa(dp2923
g5
S'white_pawn'
p2924
sg7
S'a2'
p2925
sa(dp2926
g7
S'a3'
p2927
sa(dp2928
g5
S'black_pawn'
p2929
sg7
S'a4'
p2930
sa(dp2931
g7
S'a5'
p2932
sa(dp2933
g7
S'a6'
p2934
sa(dp2935
g7
S'a7'
p2936
sa(dp2937
g5
S'black_rook'
p2938
sg7
S'a8'
p2939
sa(dp2940
g7
S'b1'
p2941
sa(dp2942
g5
S'white_pawn'
p2943
sg7
S'b2'
p2944
sa(dp2945
g7
S'b3'
p2946
sa(dp2947
g7
S'b4'
p2948
sa(dp2949
g7
S'b5'
p2950
sa(dp2951
g7
S'b6'
p2952
sa(dp2953
g5
S'black_pawn'
p2954
sg7
S'b7'
p2955
sa(dp2956
g7
S'b8'
p2957
sa(dp2958
g5
S'white_bishop'
p2959
sg7
S'c1'
p2960
sa(dp2961
g7
S'c2'
p2962
sa(dp2963
g7
S'c3'
p2964
sa(dp2965
g5
S'white_bishop'
p2966
sg7
S'c4'
p2967
sa(dp2968
g7
S'c5'
p2969
sa(dp2970
g7
S'c6'
p2971
sa(dp2972
g5
S'black_pawn'
p2973
sg7
S'c7'
p2974
sa(dp2975
g7
S'c8'
p2976
sa(dp2977
g5
S'white_queen'
p2978
sg7
S'd1'
p2979
sa(dp2980
g5
S'white_pawn'
p2981
sg7
S'd2'
p2982
sa(dp2983
g5
S'white_knight'
p2984
sg7
S'd3'
p2985
sa(dp2986
g5
S'black_knight'
p2987
sg7
S'd4'
p2988
sa(dp2989
g7
S'd5'
p2990
sa(dp2991
g7
S'd6'
p2992
sa(dp2993
g7
S'd7'
p2994
sa(dp2995
g5
S'black_queen'
p2996
sg7
S'd8'
p2997
sa(dp2998
g7
S'e1'
p2999
sa(dp3000
g7
S'e2'
p3001
sa(dp3002
g7
S'e3'
p3003
sa(dp3004
g7
S'e4'
p3005
sa(dp3006
g7
S'e5'
p3007
sa(dp3008
g7
S'e6'
p3009
sa(dp3010
g5
S'black_bishop'
p3011
sg7
S'e7'
p3012
sa(dp3013
g7
S'e8'
p3014
sa(dp3015
g5
S'white_rook'
p3016
sg7
S'f1'
p3017
sa(dp3018
g5
S'white_pawn'
p3019
sg7
S'f2'
p3020
sa(dp3021
g7
S'f3'
p3022
sa(dp3023
g7
S'f4'
p3024
sa(dp3025
g7
S'f5'
p3026
sa(dp3027
g7
S'f6'
p3028
sa(dp3029
g5
S'black_knight'
p3030
sg7
S'f7'
p3031
sa(dp3032
g5
S'black_rook'
p3033
sg7
S'f8'
p3034
sa(dp3035
g5
S'white_king'
p3036
sg7
S'g1'
p3037
sa(dp3038
g5
S'white_pawn'
p3039
sg7
S'g2'
p3040
sa(dp3041
g7
S'g3'
p3042
sa(dp3043
g7
S'g4'
p3044
sa(dp3045
g7
S'g5'
p3046
sa(dp3047
g7
S'g6'
p3048
sa(dp3049
g5
S'black_pawn'
p3050
sg7
S'g7'
p3051
sa(dp3052
g5
S'black_king'
p3053
sg7
S'g8'
p3054
sa(dp3055
g7
S'h1'
p3056
sa(dp3057
g5
S'white_pawn'
p3058
sg7
S'h2'
p3059
sa(dp3060
g7
S'h3'
p3061
sa(dp3062
g7
S'h4'
p3063
sa(dp3064
g7
S'h5'
p3065
sa(dp3066
g7
S'h6'
p3067
sa(dp3068
g5
S'black_pawn'
p3069
sg7
S'h7'
p3070
sa(dp3071
g7
S'h8'
p3072
saaVAt last, and quite understandable.  There will come times at this level of play in which quite complicated tactical situations can arise.  It is very hard to learn to recognise and take advantage of them without having begun with simpler, less complicated motifs and patterns.  The main thing to note is that the f7-knight is pinned by the bishop against the king.  It is defended by a rook and the king.  Could White heap another attacker against the pinned knight?  Yes she could: 17.Ne5!  Could Black in response find another defender?  Only the Queen.  What that means is that White looks to be winning the exchange after 17.Ne5.   ++++++++++++++  As it transpires, this might have led to a wild tactical melee as follows:  17.Ne5! Bd6!  18.Nxf7 Qe7ch (the reason for the bishop move) 19.Kf1 b4  (A piece and a pawn down, Black fights like a tiger to stay in the game) 20.Nh6ch! ... (As you see, this is well beyond 'one-mover' territory, and would be challenging for an experienced tactician to calculate.  Not 20.Nd6ch?? bxc4  21.Nxc4 Rxf2ch 22.Kxf2 Rf8ch  23.Kg1 Ne2ch and Black wins)  20...Kh8 21.Bd5 e6  22.Nf7ch Kg8  23.Qg4! Ne2 24.Be6 Rxf7  25.Rb1 Raf8  26.Bxf7ch Rxf7.  fen="6k1/4qrpp/2pb4/1p6/p5Q1/8/PPnP1PPP/1RB2K1R w - -" ++++++++++++++++ I would not expect anyone below Master level to calculate this whole line, so complicated it is.  Myself, I would have decided that something like 17.Ne5 b5  18,Bxf7ch Rxf7  19.Nxf7 Kxf7 won the exchange and left it at that.  I might well have been surprised by the tactical fight Black put up by 17...Bd6!  but 'them are the breaks'.   If you don't see a reason NOT to capture a thing, or win some other advantage, go for it.  If it turns out bad, you will learn to recognise the really unsafe captures. 
p3073
aa(lp3074
S'8765432'
p3075
a(lp3076
(dp3077
g7
S'a1'
p3078
sa(dp3079
g5
S'white_pawn'
p3080
sg7
S'a2'
p3081
sa(dp3082
g7
S'a3'
p3083
sa(dp3084
g5
S'black_pawn'
p3085
sg7
S'a4'
p3086
sa(dp3087
g7
S'a5'
p3088
sa(dp3089
g7
S'a6'
p3090
sa(dp3091
g7
S'a7'
p3092
sa(dp3093
g7
S'a8'
p3094
sa(dp3095
g5
S'white_rook'
p3096
sg7
S'b1'
p3097
sa(dp3098
g5
S'white_pawn'
p3099
sg7
S'b2'
p3100
sa(dp3101
g7
S'b3'
p3102
sa(dp3103
g7
S'b4'
p3104
sa(dp3105
g5
S'black_pawn'
p3106
sg7
S'b5'
p3107
sa(dp3108
g7
S'b6'
p3109
sa(dp3110
g7
S'b7'
p3111
sa(dp3112
g7
S'b8'
p3113
sa(dp3114
g5
S'white_bishop'
p3115
sg7
S'c1'
p3116
sa(dp3117
g5
S'black_knight'
p3118
sg7
S'c2'
p3119
sa(dp3120
g7
S'c3'
p3121
sa(dp3122
g7
S'c4'
p3123
sa(dp3124
g7
S'c5'
p3125
sa(dp3126
g5
S'black_pawn'
p3127
sg7
S'c6'
p3128
sa(dp3129
g7
S'c7'
p3130
sa(dp3131
g7
S'c8'
p3132
sa(dp3133
g7
S'd1'
p3134
sa(dp3135
g5
S'white_pawn'
p3136
sg7
S'd2'
p3137
sa(dp3138
g7
S'd3'
p3139
sa(dp3140
g7
S'd4'
p3141
sa(dp3142
g7
S'd5'
p3143
sa(dp3144
g5
S'black_bishop'
p3145
sg7
S'd6'
p3146
sa(dp3147
g7
S'd7'
p3148
sa(dp3149
g7
S'd8'
p3150
sa(dp3151
g7
S'e1'
p3152
sa(dp3153
g7
S'e2'
p3154
sa(dp3155
g7
S'e3'
p3156
sa(dp3157
g7
S'e4'
p3158
sa(dp3159
g7
S'e5'
p3160
sa(dp3161
g7
S'e6'
p3162
sa(dp3163
g5
S'black_queen'
p3164
sg7
S'e7'
p3165
sa(dp3166
g7
S'e8'
p3167
sa(dp3168
g5
S'white_king'
p3169
sg7
S'f1'
p3170
sa(dp3171
g5
S'white_pawn'
p3172
sg7
S'f2'
p3173
sa(dp3174
g7
S'f3'
p3175
sa(dp3176
g7
S'f4'
p3177
sa(dp3178
g7
S'f5'
p3179
sa(dp3180
g7
S'f6'
p3181
sa(dp3182
g5
S'black_rook'
p3183
sg7
S'f7'
p3184
sa(dp3185
g7
S'f8'
p3186
sa(dp3187
g7
S'g1'
p3188
sa(dp3189
g5
S'white_pawn'
p3190
sg7
S'g2'
p3191
sa(dp3192
g7
S'g3'
p3193
sa(dp3194
g5
S'white_queen'
p3195
sg7
S'g4'
p3196
sa(dp3197
g7
S'g5'
p3198
sa(dp3199
g7
S'g6'
p3200
sa(dp3201
g5
S'black_pawn'
p3202
sg7
S'g7'
p3203
sa(dp3204
g5
S'black_king'
p3205
sg7
S'g8'
p3206
sa(dp3207
g5
S'white_rook'
p3208
sg7
S'h1'
p3209
sa(dp3210
g5
S'white_pawn'
p3211
sg7
S'h2'
p3212
sa(dp3213
g7
S'h3'
p3214
sa(dp3215
g7
S'h4'
p3216
sa(dp3217
g7
S'h5'
p3218
sa(dp3219
g7
S'h6'
p3220
sa(dp3221
g5
S'black_pawn'
p3222
sg7
S'h7'
p3223
sa(dp3224
g7
S'h8'
p3225
saaV
p3226
aa(lp3227
S'8765432'
p3228
a(lp3229
(dp3230
g5
S'white_rook'
p3231
sg7
S'a1'
p3232
sa(dp3233
g5
S'white_pawn'
p3234
sg7
S'a2'
p3235
sa(dp3236
g7
S'a3'
p3237
sa(dp3238
g5
S'black_pawn'
p3239
sg7
S'a4'
p3240
sa(dp3241
g5
S'black_rook'
p3242
sg7
S'a5'
p3243
sa(dp3244
g7
S'a6'
p3245
sa(dp3246
g7
S'a7'
p3247
sa(dp3248
g7
S'a8'
p3249
sa(dp3250
g7
S'b1'
p3251
sa(dp3252
g5
S'white_pawn'
p3253
sg7
S'b2'
p3254
sa(dp3255
g7
S'b3'
p3256
sa(dp3257
g7
S'b4'
p3258
sa(dp3259
g7
S'b5'
p3260
sa(dp3261
g7
S'b6'
p3262
sa(dp3263
g5
S'black_pawn'
p3264
sg7
S'b7'
p3265
sa(dp3266
g7
S'b8'
p3267
sa(dp3268
g5
S'white_bishop'
p3269
sg7
S'c1'
p3270
sa(dp3271
g7
S'c2'
p3272
sa(dp3273
g7
S'c3'
p3274
sa(dp3275
g5
S'white_bishop'
p3276
sg7
S'c4'
p3277
sa(dp3278
g7
S'c5'
p3279
sa(dp3280
g7
S'c6'
p3281
sa(dp3282
g5
S'black_pawn'
p3283
sg7
S'c7'
p3284
sa(dp3285
g7
S'c8'
p3286
sa(dp3287
g5
S'white_queen'
p3288
sg7
S'd1'
p3289
sa(dp3290
g5
S'white_pawn'
p3291
sg7
S'd2'
p3292
sa(dp3293
g5
S'white_knight'
p3294
sg7
S'd3'
p3295
sa(dp3296
g5
S'black_knight'
p3297
sg7
S'd4'
p3298
sa(dp3299
g7
S'd5'
p3300
sa(dp3301
g7
S'd6'
p3302
sa(dp3303
g7
S'd7'
p3304
sa(dp3305
g5
S'black_queen'
p3306
sg7
S'd8'
p3307
sa(dp3308
g7
S'e1'
p3309
sa(dp3310
g7
S'e2'
p3311
sa(dp3312
g7
S'e3'
p3313
sa(dp3314
g7
S'e4'
p3315
sa(dp3316
g7
S'e5'
p3317
sa(dp3318
g7
S'e6'
p3319
sa(dp3320
g5
S'black_bishop'
p3321
sg7
S'e7'
p3322
sa(dp3323
g7
S'e8'
p3324
sa(dp3325
g5
S'white_rook'
p3326
sg7
S'f1'
p3327
sa(dp3328
g5
S'white_pawn'
p3329
sg7
S'f2'
p3330
sa(dp3331
g7
S'f3'
p3332
sa(dp3333
g7
S'f4'
p3334
sa(dp3335
g7
S'f5'
p3336
sa(dp3337
g7
S'f6'
p3338
sa(dp3339
g5
S'black_knight'
p3340
sg7
S'f7'
p3341
sa(dp3342
g5
S'black_rook'
p3343
sg7
S'f8'
p3344
sa(dp3345
g5
S'white_king'
p3346
sg7
S'g1'
p3347
sa(dp3348
g5
S'white_pawn'
p3349
sg7
S'g2'
p3350
sa(dp3351
g7
S'g3'
p3352
sa(dp3353
g7
S'g4'
p3354
sa(dp3355
g7
S'g5'
p3356
sa(dp3357
g7
S'g6'
p3358
sa(dp3359
g5
S'black_pawn'
p3360
sg7
S'g7'
p3361
sa(dp3362
g5
S'black_king'
p3363
sg7
S'g8'
p3364
sa(dp3365
g7
S'h1'
p3366
sa(dp3367
g5
S'white_pawn'
p3368
sg7
S'h2'
p3369
sa(dp3370
g7
S'h3'
p3371
sa(dp3372
g7
S'h4'
p3373
sa(dp3374
g7
S'h5'
p3375
sa(dp3376
g7
S'h6'
p3377
sa(dp3378
g5
S'black_pawn'
p3379
sg7
S'h7'
p3380
sa(dp3381
g7
S'h8'
p3382
saag3226
aa.