(lp0
(lp1
S'1. e4 e5 2. Nf3 Nc6 3. Bb5 a6 4. Ba4 Nf6 5. d3'
p2
a(lp3
(dp4
S'piece'
p5
S'white_rook'
p6
sS'location'
p7
S'a1'
p8
sa(dp9
g5
S'white_pawn'
p10
sg7
S'a2'
p11
sa(dp12
g7
S'a3'
p13
sa(dp14
g5
S'white_bishop'
p15
sg7
S'a4'
p16
sa(dp17
g7
S'a5'
p18
sa(dp19
g5
S'black_pawn'
p20
sg7
S'a6'
p21
sa(dp22
g7
S'a7'
p23
sa(dp24
g5
S'black_rook'
p25
sg7
S'a8'
p26
sa(dp27
g5
S'white_knight'
p28
sg7
S'b1'
p29
sa(dp30
g5
S'white_pawn'
p31
sg7
S'b2'
p32
sa(dp33
g7
S'b3'
p34
sa(dp35
g7
S'b4'
p36
sa(dp37
g7
S'b5'
p38
sa(dp39
g7
S'b6'
p40
sa(dp41
g5
S'black_pawn'
p42
sg7
S'b7'
p43
sa(dp44
g7
S'b8'
p45
sa(dp46
g5
S'white_bishop'
p47
sg7
S'c1'
p48
sa(dp49
g5
S'white_pawn'
p50
sg7
S'c2'
p51
sa(dp52
g7
S'c3'
p53
sa(dp54
g7
S'c4'
p55
sa(dp56
g7
S'c5'
p57
sa(dp58
g5
S'black_knight'
p59
sg7
S'c6'
p60
sa(dp61
g5
S'black_pawn'
p62
sg7
S'c7'
p63
sa(dp64
g5
S'black_bishop'
p65
sg7
S'c8'
p66
sa(dp67
g5
S'white_queen'
p68
sg7
S'd1'
p69
sa(dp70
g7
S'd2'
p71
sa(dp72
g5
S'white_pawn'
p73
sg7
S'd3'
p74
sa(dp75
g7
S'd4'
p76
sa(dp77
g7
S'd5'
p78
sa(dp79
g7
S'd6'
p80
sa(dp81
g5
S'black_pawn'
p82
sg7
S'd7'
p83
sa(dp84
g5
S'black_queen'
p85
sg7
S'd8'
p86
sa(dp87
g5
S'white_king'
p88
sg7
S'e1'
p89
sa(dp90
g7
S'e2'
p91
sa(dp92
g7
S'e3'
p93
sa(dp94
g5
S'white_pawn'
p95
sg7
S'e4'
p96
sa(dp97
g5
S'black_pawn'
p98
sg7
S'e5'
p99
sa(dp100
g7
S'e6'
p101
sa(dp102
g7
S'e7'
p103
sa(dp104
g5
S'black_king'
p105
sg7
S'e8'
p106
sa(dp107
g7
S'f1'
p108
sa(dp109
g5
S'white_pawn'
p110
sg7
S'f2'
p111
sa(dp112
g5
S'white_knight'
p113
sg7
S'f3'
p114
sa(dp115
g7
S'f4'
p116
sa(dp117
g7
S'f5'
p118
sa(dp119
g5
S'black_knight'
p120
sg7
S'f6'
p121
sa(dp122
g5
S'black_pawn'
p123
sg7
S'f7'
p124
sa(dp125
g5
S'black_bishop'
p126
sg7
S'f8'
p127
sa(dp128
g7
S'g1'
p129
sa(dp130
g5
S'white_pawn'
p131
sg7
S'g2'
p132
sa(dp133
g7
S'g3'
p134
sa(dp135
g7
S'g4'
p136
sa(dp137
g7
S'g5'
p138
sa(dp139
g7
S'g6'
p140
sa(dp141
g5
S'black_pawn'
p142
sg7
S'g7'
p143
sa(dp144
g7
S'g8'
p145
sa(dp146
g5
S'white_rook'
p147
sg7
S'h1'
p148
sa(dp149
g5
S'white_pawn'
p150
sg7
S'h2'
p151
sa(dp152
g7
S'h3'
p153
sa(dp154
g7
S'h4'
p155
sa(dp156
g7
S'h5'
p157
sa(dp158
g7
S'h6'
p159
sa(dp160
g5
S'black_pawn'
p161
sg7
S'h7'
p162
sa(dp163
g5
S'black_rook'
p164
sg7
S'h8'
p165
saaVin our previous game in this Ruy Lopez, I played the 'modern' 0-0; this move however was conceived in old times by Steinitz, brought again into tournament practice by Fischer...
p166
aa(lp167
S'5... b5 6. Bb3 Bb7 7. Nc3'
p168
a(lp169
(dp170
g5
S'white_rook'
p171
sg7
S'a1'
p172
sa(dp173
g5
S'white_pawn'
p174
sg7
S'a2'
p175
sa(dp176
g7
S'a3'
p177
sa(dp178
g7
S'a4'
p179
sa(dp180
g7
S'a5'
p181
sa(dp182
g5
S'black_pawn'
p183
sg7
S'a6'
p184
sa(dp185
g7
S'a7'
p186
sa(dp187
g5
S'black_rook'
p188
sg7
S'a8'
p189
sa(dp190
g7
S'b1'
p191
sa(dp192
g5
S'white_pawn'
p193
sg7
S'b2'
p194
sa(dp195
g5
S'white_bishop'
p196
sg7
S'b3'
p197
sa(dp198
g7
S'b4'
p199
sa(dp200
g5
S'black_pawn'
p201
sg7
S'b5'
p202
sa(dp203
g7
S'b6'
p204
sa(dp205
g5
S'black_bishop'
p206
sg7
S'b7'
p207
sa(dp208
g7
S'b8'
p209
sa(dp210
g5
S'white_bishop'
p211
sg7
S'c1'
p212
sa(dp213
g5
S'white_pawn'
p214
sg7
S'c2'
p215
sa(dp216
g5
S'white_knight'
p217
sg7
S'c3'
p218
sa(dp219
g7
S'c4'
p220
sa(dp221
g7
S'c5'
p222
sa(dp223
g5
S'black_knight'
p224
sg7
S'c6'
p225
sa(dp226
g5
S'black_pawn'
p227
sg7
S'c7'
p228
sa(dp229
g7
S'c8'
p230
sa(dp231
g5
S'white_queen'
p232
sg7
S'd1'
p233
sa(dp234
g7
S'd2'
p235
sa(dp236
g5
S'white_pawn'
p237
sg7
S'd3'
p238
sa(dp239
g7
S'd4'
p240
sa(dp241
g7
S'd5'
p242
sa(dp243
g7
S'd6'
p244
sa(dp245
g5
S'black_pawn'
p246
sg7
S'd7'
p247
sa(dp248
g5
S'black_queen'
p249
sg7
S'd8'
p250
sa(dp251
g5
S'white_king'
p252
sg7
S'e1'
p253
sa(dp254
g7
S'e2'
p255
sa(dp256
g7
S'e3'
p257
sa(dp258
g5
S'white_pawn'
p259
sg7
S'e4'
p260
sa(dp261
g5
S'black_pawn'
p262
sg7
S'e5'
p263
sa(dp264
g7
S'e6'
p265
sa(dp266
g7
S'e7'
p267
sa(dp268
g5
S'black_king'
p269
sg7
S'e8'
p270
sa(dp271
g7
S'f1'
p272
sa(dp273
g5
S'white_pawn'
p274
sg7
S'f2'
p275
sa(dp276
g5
S'white_knight'
p277
sg7
S'f3'
p278
sa(dp279
g7
S'f4'
p280
sa(dp281
g7
S'f5'
p282
sa(dp283
g5
S'black_knight'
p284
sg7
S'f6'
p285
sa(dp286
g5
S'black_pawn'
p287
sg7
S'f7'
p288
sa(dp289
g5
S'black_bishop'
p290
sg7
S'f8'
p291
sa(dp292
g7
S'g1'
p293
sa(dp294
g5
S'white_pawn'
p295
sg7
S'g2'
p296
sa(dp297
g7
S'g3'
p298
sa(dp299
g7
S'g4'
p300
sa(dp301
g7
S'g5'
p302
sa(dp303
g7
S'g6'
p304
sa(dp305
g5
S'black_pawn'
p306
sg7
S'g7'
p307
sa(dp308
g7
S'g8'
p309
sa(dp310
g5
S'white_rook'
p311
sg7
S'h1'
p312
sa(dp313
g5
S'white_pawn'
p314
sg7
S'h2'
p315
sa(dp316
g7
S'h3'
p317
sa(dp318
g7
S'h4'
p319
sa(dp320
g7
S'h5'
p321
sa(dp322
g7
S'h6'
p323
sa(dp324
g5
S'black_pawn'
p325
sg7
S'h7'
p326
sa(dp327
g5
S'black_rook'
p328
sg7
S'h8'
p329
saaVanother option is a4, to release Bb3; this enforces a4, and prepares an eventual Nd5...
p330
aa(lp331
S'7... Bb4 8. O-O O-O'
p332
a(lp333
(dp334
g5
S'white_rook'
p335
sg7
S'a1'
p336
sa(dp337
g5
S'white_pawn'
p338
sg7
S'a2'
p339
sa(dp340
g7
S'a3'
p341
sa(dp342
g7
S'a4'
p343
sa(dp344
g7
S'a5'
p345
sa(dp346
g5
S'black_pawn'
p347
sg7
S'a6'
p348
sa(dp349
g7
S'a7'
p350
sa(dp351
g5
S'black_rook'
p352
sg7
S'a8'
p353
sa(dp354
g7
S'b1'
p355
sa(dp356
g5
S'white_pawn'
p357
sg7
S'b2'
p358
sa(dp359
g5
S'white_bishop'
p360
sg7
S'b3'
p361
sa(dp362
g5
S'black_bishop'
p363
sg7
S'b4'
p364
sa(dp365
g5
S'black_pawn'
p366
sg7
S'b5'
p367
sa(dp368
g7
S'b6'
p369
sa(dp370
g5
S'black_bishop'
p371
sg7
S'b7'
p372
sa(dp373
g7
S'b8'
p374
sa(dp375
g5
S'white_bishop'
p376
sg7
S'c1'
p377
sa(dp378
g5
S'white_pawn'
p379
sg7
S'c2'
p380
sa(dp381
g5
S'white_knight'
p382
sg7
S'c3'
p383
sa(dp384
g7
S'c4'
p385
sa(dp386
g7
S'c5'
p387
sa(dp388
g5
S'black_knight'
p389
sg7
S'c6'
p390
sa(dp391
g5
S'black_pawn'
p392
sg7
S'c7'
p393
sa(dp394
g7
S'c8'
p395
sa(dp396
g5
S'white_queen'
p397
sg7
S'd1'
p398
sa(dp399
g7
S'd2'
p400
sa(dp401
g5
S'white_pawn'
p402
sg7
S'd3'
p403
sa(dp404
g7
S'd4'
p405
sa(dp406
g7
S'd5'
p407
sa(dp408
g7
S'd6'
p409
sa(dp410
g5
S'black_pawn'
p411
sg7
S'd7'
p412
sa(dp413
g5
S'black_queen'
p414
sg7
S'd8'
p415
sa(dp416
g7
S'e1'
p417
sa(dp418
g7
S'e2'
p419
sa(dp420
g7
S'e3'
p421
sa(dp422
g5
S'white_pawn'
p423
sg7
S'e4'
p424
sa(dp425
g5
S'black_pawn'
p426
sg7
S'e5'
p427
sa(dp428
g7
S'e6'
p429
sa(dp430
g7
S'e7'
p431
sa(dp432
g7
S'e8'
p433
sa(dp434
g5
S'white_rook'
p435
sg7
S'f1'
p436
sa(dp437
g5
S'white_pawn'
p438
sg7
S'f2'
p439
sa(dp440
g5
S'white_knight'
p441
sg7
S'f3'
p442
sa(dp443
g7
S'f4'
p444
sa(dp445
g7
S'f5'
p446
sa(dp447
g5
S'black_knight'
p448
sg7
S'f6'
p449
sa(dp450
g5
S'black_pawn'
p451
sg7
S'f7'
p452
sa(dp453
g5
S'black_rook'
p454
sg7
S'f8'
p455
sa(dp456
g5
S'white_king'
p457
sg7
S'g1'
p458
sa(dp459
g5
S'white_pawn'
p460
sg7
S'g2'
p461
sa(dp462
g7
S'g3'
p463
sa(dp464
g7
S'g4'
p465
sa(dp466
g7
S'g5'
p467
sa(dp468
g7
S'g6'
p469
sa(dp470
g5
S'black_pawn'
p471
sg7
S'g7'
p472
sa(dp473
g5
S'black_king'
p474
sg7
S'g8'
p475
sa(dp476
g7
S'h1'
p477
sa(dp478
g5
S'white_pawn'
p479
sg7
S'h2'
p480
sa(dp481
g7
S'h3'
p482
sa(dp483
g7
S'h4'
p484
sa(dp485
g7
S'h5'
p486
sa(dp487
g7
S'h6'
p488
sa(dp489
g5
S'black_pawn'
p490
sg7
S'h7'
p491
sa(dp492
g7
S'h8'
p493
saaVBxc3, bxc3, d5, would have been wiser here...
p494
aa(lp495
S'9. Nd5 Be7 10. Bd2'
p496
a(lp497
(dp498
g5
S'white_rook'
p499
sg7
S'a1'
p500
sa(dp501
g5
S'white_pawn'
p502
sg7
S'a2'
p503
sa(dp504
g7
S'a3'
p505
sa(dp506
g7
S'a4'
p507
sa(dp508
g7
S'a5'
p509
sa(dp510
g5
S'black_pawn'
p511
sg7
S'a6'
p512
sa(dp513
g7
S'a7'
p514
sa(dp515
g5
S'black_rook'
p516
sg7
S'a8'
p517
sa(dp518
g7
S'b1'
p519
sa(dp520
g5
S'white_pawn'
p521
sg7
S'b2'
p522
sa(dp523
g5
S'white_bishop'
p524
sg7
S'b3'
p525
sa(dp526
g7
S'b4'
p527
sa(dp528
g5
S'black_pawn'
p529
sg7
S'b5'
p530
sa(dp531
g7
S'b6'
p532
sa(dp533
g5
S'black_bishop'
p534
sg7
S'b7'
p535
sa(dp536
g7
S'b8'
p537
sa(dp538
g7
S'c1'
p539
sa(dp540
g5
S'white_pawn'
p541
sg7
S'c2'
p542
sa(dp543
g7
S'c3'
p544
sa(dp545
g7
S'c4'
p546
sa(dp547
g7
S'c5'
p548
sa(dp549
g5
S'black_knight'
p550
sg7
S'c6'
p551
sa(dp552
g5
S'black_pawn'
p553
sg7
S'c7'
p554
sa(dp555
g7
S'c8'
p556
sa(dp557
g5
S'white_queen'
p558
sg7
S'd1'
p559
sa(dp560
g5
S'white_bishop'
p561
sg7
S'd2'
p562
sa(dp563
g5
S'white_pawn'
p564
sg7
S'd3'
p565
sa(dp566
g7
S'd4'
p567
sa(dp568
g5
S'white_knight'
p569
sg7
S'd5'
p570
sa(dp571
g7
S'd6'
p572
sa(dp573
g5
S'black_pawn'
p574
sg7
S'd7'
p575
sa(dp576
g5
S'black_queen'
p577
sg7
S'd8'
p578
sa(dp579
g7
S'e1'
p580
sa(dp581
g7
S'e2'
p582
sa(dp583
g7
S'e3'
p584
sa(dp585
g5
S'white_pawn'
p586
sg7
S'e4'
p587
sa(dp588
g5
S'black_pawn'
p589
sg7
S'e5'
p590
sa(dp591
g7
S'e6'
p592
sa(dp593
g5
S'black_bishop'
p594
sg7
S'e7'
p595
sa(dp596
g7
S'e8'
p597
sa(dp598
g5
S'white_rook'
p599
sg7
S'f1'
p600
sa(dp601
g5
S'white_pawn'
p602
sg7
S'f2'
p603
sa(dp604
g5
S'white_knight'
p605
sg7
S'f3'
p606
sa(dp607
g7
S'f4'
p608
sa(dp609
g7
S'f5'
p610
sa(dp611
g5
S'black_knight'
p612
sg7
S'f6'
p613
sa(dp614
g5
S'black_pawn'
p615
sg7
S'f7'
p616
sa(dp617
g5
S'black_rook'
p618
sg7
S'f8'
p619
sa(dp620
g5
S'white_king'
p621
sg7
S'g1'
p622
sa(dp623
g5
S'white_pawn'
p624
sg7
S'g2'
p625
sa(dp626
g7
S'g3'
p627
sa(dp628
g7
S'g4'
p629
sa(dp630
g7
S'g5'
p631
sa(dp632
g7
S'g6'
p633
sa(dp634
g5
S'black_pawn'
p635
sg7
S'g7'
p636
sa(dp637
g5
S'black_king'
p638
sg7
S'g8'
p639
sa(dp640
g7
S'h1'
p641
sa(dp642
g5
S'white_pawn'
p643
sg7
S'h2'
p644
sa(dp645
g7
S'h3'
p646
sa(dp647
g7
S'h4'
p648
sa(dp649
g7
S'h5'
p650
sa(dp651
g7
S'h6'
p652
sa(dp653
g5
S'black_pawn'
p654
sg7
S'h7'
p655
sa(dp656
g7
S'h8'
p657
saaVkeeping an eye on a5 and b4...
p658
aa(lp659
S'10... Nxd5'
p660
a(lp661
(dp662
g5
S'white_rook'
p663
sg7
S'a1'
p664
sa(dp665
g5
S'white_pawn'
p666
sg7
S'a2'
p667
sa(dp668
g7
S'a3'
p669
sa(dp670
g7
S'a4'
p671
sa(dp672
g7
S'a5'
p673
sa(dp674
g5
S'black_pawn'
p675
sg7
S'a6'
p676
sa(dp677
g7
S'a7'
p678
sa(dp679
g5
S'black_rook'
p680
sg7
S'a8'
p681
sa(dp682
g7
S'b1'
p683
sa(dp684
g5
S'white_pawn'
p685
sg7
S'b2'
p686
sa(dp687
g5
S'white_bishop'
p688
sg7
S'b3'
p689
sa(dp690
g7
S'b4'
p691
sa(dp692
g5
S'black_pawn'
p693
sg7
S'b5'
p694
sa(dp695
g7
S'b6'
p696
sa(dp697
g5
S'black_bishop'
p698
sg7
S'b7'
p699
sa(dp700
g7
S'b8'
p701
sa(dp702
g7
S'c1'
p703
sa(dp704
g5
S'white_pawn'
p705
sg7
S'c2'
p706
sa(dp707
g7
S'c3'
p708
sa(dp709
g7
S'c4'
p710
sa(dp711
g7
S'c5'
p712
sa(dp713
g5
S'black_knight'
p714
sg7
S'c6'
p715
sa(dp716
g5
S'black_pawn'
p717
sg7
S'c7'
p718
sa(dp719
g7
S'c8'
p720
sa(dp721
g5
S'white_queen'
p722
sg7
S'd1'
p723
sa(dp724
g5
S'white_bishop'
p725
sg7
S'd2'
p726
sa(dp727
g5
S'white_pawn'
p728
sg7
S'd3'
p729
sa(dp730
g7
S'd4'
p731
sa(dp732
g5
S'black_knight'
p733
sg7
S'd5'
p734
sa(dp735
g7
S'd6'
p736
sa(dp737
g5
S'black_pawn'
p738
sg7
S'd7'
p739
sa(dp740
g5
S'black_queen'
p741
sg7
S'd8'
p742
sa(dp743
g7
S'e1'
p744
sa(dp745
g7
S'e2'
p746
sa(dp747
g7
S'e3'
p748
sa(dp749
g5
S'white_pawn'
p750
sg7
S'e4'
p751
sa(dp752
g5
S'black_pawn'
p753
sg7
S'e5'
p754
sa(dp755
g7
S'e6'
p756
sa(dp757
g5
S'black_bishop'
p758
sg7
S'e7'
p759
sa(dp760
g7
S'e8'
p761
sa(dp762
g5
S'white_rook'
p763
sg7
S'f1'
p764
sa(dp765
g5
S'white_pawn'
p766
sg7
S'f2'
p767
sa(dp768
g5
S'white_knight'
p769
sg7
S'f3'
p770
sa(dp771
g7
S'f4'
p772
sa(dp773
g7
S'f5'
p774
sa(dp775
g7
S'f6'
p776
sa(dp777
g5
S'black_pawn'
p778
sg7
S'f7'
p779
sa(dp780
g5
S'black_rook'
p781
sg7
S'f8'
p782
sa(dp783
g5
S'white_king'
p784
sg7
S'g1'
p785
sa(dp786
g5
S'white_pawn'
p787
sg7
S'g2'
p788
sa(dp789
g7
S'g3'
p790
sa(dp791
g7
S'g4'
p792
sa(dp793
g7
S'g5'
p794
sa(dp795
g7
S'g6'
p796
sa(dp797
g5
S'black_pawn'
p798
sg7
S'g7'
p799
sa(dp800
g5
S'black_king'
p801
sg7
S'g8'
p802
sa(dp803
g7
S'h1'
p804
sa(dp805
g5
S'white_pawn'
p806
sg7
S'h2'
p807
sa(dp808
g7
S'h3'
p809
sa(dp810
g7
S'h4'
p811
sa(dp812
g7
S'h5'
p813
sa(dp814
g7
S'h6'
p815
sa(dp816
g5
S'black_pawn'
p817
sg7
S'h7'
p818
sa(dp819
g7
S'h8'
p820
saaVmuch safer would have been d6; this will cost Black control over the center...
p821
aa(lp822
S'11. exd5 Nd4 12. Nxd4 exd4 13. Bf4'
p823
a(lp824
(dp825
g5
S'white_rook'
p826
sg7
S'a1'
p827
sa(dp828
g5
S'white_pawn'
p829
sg7
S'a2'
p830
sa(dp831
g7
S'a3'
p832
sa(dp833
g7
S'a4'
p834
sa(dp835
g7
S'a5'
p836
sa(dp837
g5
S'black_pawn'
p838
sg7
S'a6'
p839
sa(dp840
g7
S'a7'
p841
sa(dp842
g5
S'black_rook'
p843
sg7
S'a8'
p844
sa(dp845
g7
S'b1'
p846
sa(dp847
g5
S'white_pawn'
p848
sg7
S'b2'
p849
sa(dp850
g5
S'white_bishop'
p851
sg7
S'b3'
p852
sa(dp853
g7
S'b4'
p854
sa(dp855
g5
S'black_pawn'
p856
sg7
S'b5'
p857
sa(dp858
g7
S'b6'
p859
sa(dp860
g5
S'black_bishop'
p861
sg7
S'b7'
p862
sa(dp863
g7
S'b8'
p864
sa(dp865
g7
S'c1'
p866
sa(dp867
g5
S'white_pawn'
p868
sg7
S'c2'
p869
sa(dp870
g7
S'c3'
p871
sa(dp872
g7
S'c4'
p873
sa(dp874
g7
S'c5'
p875
sa(dp876
g7
S'c6'
p877
sa(dp878
g5
S'black_pawn'
p879
sg7
S'c7'
p880
sa(dp881
g7
S'c8'
p882
sa(dp883
g5
S'white_queen'
p884
sg7
S'd1'
p885
sa(dp886
g7
S'd2'
p887
sa(dp888
g5
S'white_pawn'
p889
sg7
S'd3'
p890
sa(dp891
g5
S'black_pawn'
p892
sg7
S'd4'
p893
sa(dp894
g5
S'white_pawn'
p895
sg7
S'd5'
p896
sa(dp897
g7
S'd6'
p898
sa(dp899
g5
S'black_pawn'
p900
sg7
S'd7'
p901
sa(dp902
g5
S'black_queen'
p903
sg7
S'd8'
p904
sa(dp905
g7
S'e1'
p906
sa(dp907
g7
S'e2'
p908
sa(dp909
g7
S'e3'
p910
sa(dp911
g7
S'e4'
p912
sa(dp913
g7
S'e5'
p914
sa(dp915
g7
S'e6'
p916
sa(dp917
g5
S'black_bishop'
p918
sg7
S'e7'
p919
sa(dp920
g7
S'e8'
p921
sa(dp922
g5
S'white_rook'
p923
sg7
S'f1'
p924
sa(dp925
g5
S'white_pawn'
p926
sg7
S'f2'
p927
sa(dp928
g7
S'f3'
p929
sa(dp930
g5
S'white_bishop'
p931
sg7
S'f4'
p932
sa(dp933
g7
S'f5'
p934
sa(dp935
g7
S'f6'
p936
sa(dp937
g5
S'black_pawn'
p938
sg7
S'f7'
p939
sa(dp940
g5
S'black_rook'
p941
sg7
S'f8'
p942
sa(dp943
g5
S'white_king'
p944
sg7
S'g1'
p945
sa(dp946
g5
S'white_pawn'
p947
sg7
S'g2'
p948
sa(dp949
g7
S'g3'
p950
sa(dp951
g7
S'g4'
p952
sa(dp953
g7
S'g5'
p954
sa(dp955
g7
S'g6'
p956
sa(dp957
g5
S'black_pawn'
p958
sg7
S'g7'
p959
sa(dp960
g5
S'black_king'
p961
sg7
S'g8'
p962
sa(dp963
g7
S'h1'
p964
sa(dp965
g5
S'white_pawn'
p966
sg7
S'h2'
p967
sa(dp968
g7
S'h3'
p969
sa(dp970
g7
S'h4'
p971
sa(dp972
g7
S'h5'
p973
sa(dp974
g7
S'h6'
p975
sa(dp976
g5
S'black_pawn'
p977
sg7
S'h7'
p978
sa(dp979
g7
S'h8'
p980
saaVBlack should be preparing c5; after Qg4, we would force it, so we need to find other ways to get to d4...
p981
aa(lp982
S'13... a5'
p983
a(lp984
(dp985
g5
S'white_rook'
p986
sg7
S'a1'
p987
sa(dp988
g5
S'white_pawn'
p989
sg7
S'a2'
p990
sa(dp991
g7
S'a3'
p992
sa(dp993
g7
S'a4'
p994
sa(dp995
g5
S'black_pawn'
p996
sg7
S'a5'
p997
sa(dp998
g7
S'a6'
p999
sa(dp1000
g7
S'a7'
p1001
sa(dp1002
g5
S'black_rook'
p1003
sg7
S'a8'
p1004
sa(dp1005
g7
S'b1'
p1006
sa(dp1007
g5
S'white_pawn'
p1008
sg7
S'b2'
p1009
sa(dp1010
g5
S'white_bishop'
p1011
sg7
S'b3'
p1012
sa(dp1013
g7
S'b4'
p1014
sa(dp1015
g5
S'black_pawn'
p1016
sg7
S'b5'
p1017
sa(dp1018
g7
S'b6'
p1019
sa(dp1020
g5
S'black_bishop'
p1021
sg7
S'b7'
p1022
sa(dp1023
g7
S'b8'
p1024
sa(dp1025
g7
S'c1'
p1026
sa(dp1027
g5
S'white_pawn'
p1028
sg7
S'c2'
p1029
sa(dp1030
g7
S'c3'
p1031
sa(dp1032
g7
S'c4'
p1033
sa(dp1034
g7
S'c5'
p1035
sa(dp1036
g7
S'c6'
p1037
sa(dp1038
g5
S'black_pawn'
p1039
sg7
S'c7'
p1040
sa(dp1041
g7
S'c8'
p1042
sa(dp1043
g5
S'white_queen'
p1044
sg7
S'd1'
p1045
sa(dp1046
g7
S'd2'
p1047
sa(dp1048
g5
S'white_pawn'
p1049
sg7
S'd3'
p1050
sa(dp1051
g5
S'black_pawn'
p1052
sg7
S'd4'
p1053
sa(dp1054
g5
S'white_pawn'
p1055
sg7
S'd5'
p1056
sa(dp1057
g7
S'd6'
p1058
sa(dp1059
g5
S'black_pawn'
p1060
sg7
S'd7'
p1061
sa(dp1062
g5
S'black_queen'
p1063
sg7
S'd8'
p1064
sa(dp1065
g7
S'e1'
p1066
sa(dp1067
g7
S'e2'
p1068
sa(dp1069
g7
S'e3'
p1070
sa(dp1071
g7
S'e4'
p1072
sa(dp1073
g7
S'e5'
p1074
sa(dp1075
g7
S'e6'
p1076
sa(dp1077
g5
S'black_bishop'
p1078
sg7
S'e7'
p1079
sa(dp1080
g7
S'e8'
p1081
sa(dp1082
g5
S'white_rook'
p1083
sg7
S'f1'
p1084
sa(dp1085
g5
S'white_pawn'
p1086
sg7
S'f2'
p1087
sa(dp1088
g7
S'f3'
p1089
sa(dp1090
g5
S'white_bishop'
p1091
sg7
S'f4'
p1092
sa(dp1093
g7
S'f5'
p1094
sa(dp1095
g7
S'f6'
p1096
sa(dp1097
g5
S'black_pawn'
p1098
sg7
S'f7'
p1099
sa(dp1100
g5
S'black_rook'
p1101
sg7
S'f8'
p1102
sa(dp1103
g5
S'white_king'
p1104
sg7
S'g1'
p1105
sa(dp1106
g5
S'white_pawn'
p1107
sg7
S'g2'
p1108
sa(dp1109
g7
S'g3'
p1110
sa(dp1111
g7
S'g4'
p1112
sa(dp1113
g7
S'g5'
p1114
sa(dp1115
g7
S'g6'
p1116
sa(dp1117
g5
S'black_pawn'
p1118
sg7
S'g7'
p1119
sa(dp1120
g5
S'black_king'
p1121
sg7
S'g8'
p1122
sa(dp1123
g7
S'h1'
p1124
sa(dp1125
g5
S'white_pawn'
p1126
sg7
S'h2'
p1127
sa(dp1128
g7
S'h3'
p1129
sa(dp1130
g7
S'h4'
p1131
sa(dp1132
g7
S'h5'
p1133
sa(dp1134
g7
S'h6'
p1135
sa(dp1136
g5
S'black_pawn'
p1137
sg7
S'h7'
p1138
sa(dp1139
g7
S'h8'
p1140
saaVafter c5, Re1, Rc8, d6; c5, a4, however will not work at the moment... this changes al...
p1141
aa(lp1142
S'14. a4'
p1143
a(lp1144
(dp1145
g5
S'white_rook'
p1146
sg7
S'a1'
p1147
sa(dp1148
g7
S'a2'
p1149
sa(dp1150
g7
S'a3'
p1151
sa(dp1152
g5
S'white_pawn'
p1153
sg7
S'a4'
p1154
sa(dp1155
g5
S'black_pawn'
p1156
sg7
S'a5'
p1157
sa(dp1158
g7
S'a6'
p1159
sa(dp1160
g7
S'a7'
p1161
sa(dp1162
g5
S'black_rook'
p1163
sg7
S'a8'
p1164
sa(dp1165
g7
S'b1'
p1166
sa(dp1167
g5
S'white_pawn'
p1168
sg7
S'b2'
p1169
sa(dp1170
g5
S'white_bishop'
p1171
sg7
S'b3'
p1172
sa(dp1173
g7
S'b4'
p1174
sa(dp1175
g5
S'black_pawn'
p1176
sg7
S'b5'
p1177
sa(dp1178
g7
S'b6'
p1179
sa(dp1180
g5
S'black_bishop'
p1181
sg7
S'b7'
p1182
sa(dp1183
g7
S'b8'
p1184
sa(dp1185
g7
S'c1'
p1186
sa(dp1187
g5
S'white_pawn'
p1188
sg7
S'c2'
p1189
sa(dp1190
g7
S'c3'
p1191
sa(dp1192
g7
S'c4'
p1193
sa(dp1194
g7
S'c5'
p1195
sa(dp1196
g7
S'c6'
p1197
sa(dp1198
g5
S'black_pawn'
p1199
sg7
S'c7'
p1200
sa(dp1201
g7
S'c8'
p1202
sa(dp1203
g5
S'white_queen'
p1204
sg7
S'd1'
p1205
sa(dp1206
g7
S'd2'
p1207
sa(dp1208
g5
S'white_pawn'
p1209
sg7
S'd3'
p1210
sa(dp1211
g5
S'black_pawn'
p1212
sg7
S'd4'
p1213
sa(dp1214
g5
S'white_pawn'
p1215
sg7
S'd5'
p1216
sa(dp1217
g7
S'd6'
p1218
sa(dp1219
g5
S'black_pawn'
p1220
sg7
S'd7'
p1221
sa(dp1222
g5
S'black_queen'
p1223
sg7
S'd8'
p1224
sa(dp1225
g7
S'e1'
p1226
sa(dp1227
g7
S'e2'
p1228
sa(dp1229
g7
S'e3'
p1230
sa(dp1231
g7
S'e4'
p1232
sa(dp1233
g7
S'e5'
p1234
sa(dp1235
g7
S'e6'
p1236
sa(dp1237
g5
S'black_bishop'
p1238
sg7
S'e7'
p1239
sa(dp1240
g7
S'e8'
p1241
sa(dp1242
g5
S'white_rook'
p1243
sg7
S'f1'
p1244
sa(dp1245
g5
S'white_pawn'
p1246
sg7
S'f2'
p1247
sa(dp1248
g7
S'f3'
p1249
sa(dp1250
g5
S'white_bishop'
p1251
sg7
S'f4'
p1252
sa(dp1253
g7
S'f5'
p1254
sa(dp1255
g7
S'f6'
p1256
sa(dp1257
g5
S'black_pawn'
p1258
sg7
S'f7'
p1259
sa(dp1260
g5
S'black_rook'
p1261
sg7
S'f8'
p1262
sa(dp1263
g5
S'white_king'
p1264
sg7
S'g1'
p1265
sa(dp1266
g5
S'white_pawn'
p1267
sg7
S'g2'
p1268
sa(dp1269
g7
S'g3'
p1270
sa(dp1271
g7
S'g4'
p1272
sa(dp1273
g7
S'g5'
p1274
sa(dp1275
g7
S'g6'
p1276
sa(dp1277
g5
S'black_pawn'
p1278
sg7
S'g7'
p1279
sa(dp1280
g5
S'black_king'
p1281
sg7
S'g8'
p1282
sa(dp1283
g7
S'h1'
p1284
sa(dp1285
g5
S'white_pawn'
p1286
sg7
S'h2'
p1287
sa(dp1288
g7
S'h3'
p1289
sa(dp1290
g7
S'h4'
p1291
sa(dp1292
g7
S'h5'
p1293
sa(dp1294
g7
S'h6'
p1295
sa(dp1296
g5
S'black_pawn'
p1297
sg7
S'h7'
p1298
sa(dp1299
g7
S'h8'
p1300
saaVagain, a4 is the move what this variation is all about; bxa4, Rxa4, would render any attempt to deploy c7 useless due to the presence of d5, and probably lose d4...
p1301
aa(lp1302
S'14... b4 15. Qh5 d6 16. Bc4 Ba6'
p1303
a(lp1304
(dp1305
g5
S'white_rook'
p1306
sg7
S'a1'
p1307
sa(dp1308
g7
S'a2'
p1309
sa(dp1310
g7
S'a3'
p1311
sa(dp1312
g5
S'white_pawn'
p1313
sg7
S'a4'
p1314
sa(dp1315
g5
S'black_pawn'
p1316
sg7
S'a5'
p1317
sa(dp1318
g5
S'black_bishop'
p1319
sg7
S'a6'
p1320
sa(dp1321
g7
S'a7'
p1322
sa(dp1323
g5
S'black_rook'
p1324
sg7
S'a8'
p1325
sa(dp1326
g7
S'b1'
p1327
sa(dp1328
g5
S'white_pawn'
p1329
sg7
S'b2'
p1330
sa(dp1331
g7
S'b3'
p1332
sa(dp1333
g5
S'black_pawn'
p1334
sg7
S'b4'
p1335
sa(dp1336
g7
S'b5'
p1337
sa(dp1338
g7
S'b6'
p1339
sa(dp1340
g7
S'b7'
p1341
sa(dp1342
g7
S'b8'
p1343
sa(dp1344
g7
S'c1'
p1345
sa(dp1346
g5
S'white_pawn'
p1347
sg7
S'c2'
p1348
sa(dp1349
g7
S'c3'
p1350
sa(dp1351
g5
S'white_bishop'
p1352
sg7
S'c4'
p1353
sa(dp1354
g7
S'c5'
p1355
sa(dp1356
g7
S'c6'
p1357
sa(dp1358
g5
S'black_pawn'
p1359
sg7
S'c7'
p1360
sa(dp1361
g7
S'c8'
p1362
sa(dp1363
g7
S'd1'
p1364
sa(dp1365
g7
S'd2'
p1366
sa(dp1367
g5
S'white_pawn'
p1368
sg7
S'd3'
p1369
sa(dp1370
g5
S'black_pawn'
p1371
sg7
S'd4'
p1372
sa(dp1373
g5
S'white_pawn'
p1374
sg7
S'd5'
p1375
sa(dp1376
g5
S'black_pawn'
p1377
sg7
S'd6'
p1378
sa(dp1379
g7
S'd7'
p1380
sa(dp1381
g5
S'black_queen'
p1382
sg7
S'd8'
p1383
sa(dp1384
g7
S'e1'
p1385
sa(dp1386
g7
S'e2'
p1387
sa(dp1388
g7
S'e3'
p1389
sa(dp1390
g7
S'e4'
p1391
sa(dp1392
g7
S'e5'
p1393
sa(dp1394
g7
S'e6'
p1395
sa(dp1396
g5
S'black_bishop'
p1397
sg7
S'e7'
p1398
sa(dp1399
g7
S'e8'
p1400
sa(dp1401
g5
S'white_rook'
p1402
sg7
S'f1'
p1403
sa(dp1404
g5
S'white_pawn'
p1405
sg7
S'f2'
p1406
sa(dp1407
g7
S'f3'
p1408
sa(dp1409
g5
S'white_bishop'
p1410
sg7
S'f4'
p1411
sa(dp1412
g7
S'f5'
p1413
sa(dp1414
g7
S'f6'
p1415
sa(dp1416
g5
S'black_pawn'
p1417
sg7
S'f7'
p1418
sa(dp1419
g5
S'black_rook'
p1420
sg7
S'f8'
p1421
sa(dp1422
g5
S'white_king'
p1423
sg7
S'g1'
p1424
sa(dp1425
g5
S'white_pawn'
p1426
sg7
S'g2'
p1427
sa(dp1428
g7
S'g3'
p1429
sa(dp1430
g7
S'g4'
p1431
sa(dp1432
g7
S'g5'
p1433
sa(dp1434
g7
S'g6'
p1435
sa(dp1436
g5
S'black_pawn'
p1437
sg7
S'g7'
p1438
sa(dp1439
g5
S'black_king'
p1440
sg7
S'g8'
p1441
sa(dp1442
g7
S'h1'
p1443
sa(dp1444
g5
S'white_pawn'
p1445
sg7
S'h2'
p1446
sa(dp1447
g7
S'h3'
p1448
sa(dp1449
g7
S'h4'
p1450
sa(dp1451
g5
S'white_queen'
p1452
sg7
S'h5'
p1453
sa(dp1454
g7
S'h6'
p1455
sa(dp1456
g5
S'black_pawn'
p1457
sg7
S'h7'
p1458
sa(dp1459
g7
S'h8'
p1460
saaVtrying to force a way to eliminate d5 and prevent Bb5; best is Bf6, because this will soon end up awkward...
p1461
aa(lp1462
S'17. Bxa6 Rxa6 18. b3 Bf6 19. Rfe1 Re8 20. Qf5 Ra8 21. Kf1 Rxe1+ 22. Rxe1 Qc8'
p1463
a(lp1464
(dp1465
g7
S'a1'
p1466
sa(dp1467
g7
S'a2'
p1468
sa(dp1469
g7
S'a3'
p1470
sa(dp1471
g5
S'white_pawn'
p1472
sg7
S'a4'
p1473
sa(dp1474
g5
S'black_pawn'
p1475
sg7
S'a5'
p1476
sa(dp1477
g7
S'a6'
p1478
sa(dp1479
g7
S'a7'
p1480
sa(dp1481
g5
S'black_rook'
p1482
sg7
S'a8'
p1483
sa(dp1484
g7
S'b1'
p1485
sa(dp1486
g7
S'b2'
p1487
sa(dp1488
g5
S'white_pawn'
p1489
sg7
S'b3'
p1490
sa(dp1491
g5
S'black_pawn'
p1492
sg7
S'b4'
p1493
sa(dp1494
g7
S'b5'
p1495
sa(dp1496
g7
S'b6'
p1497
sa(dp1498
g7
S'b7'
p1499
sa(dp1500
g7
S'b8'
p1501
sa(dp1502
g7
S'c1'
p1503
sa(dp1504
g5
S'white_pawn'
p1505
sg7
S'c2'
p1506
sa(dp1507
g7
S'c3'
p1508
sa(dp1509
g7
S'c4'
p1510
sa(dp1511
g7
S'c5'
p1512
sa(dp1513
g7
S'c6'
p1514
sa(dp1515
g5
S'black_pawn'
p1516
sg7
S'c7'
p1517
sa(dp1518
g5
S'black_queen'
p1519
sg7
S'c8'
p1520
sa(dp1521
g7
S'd1'
p1522
sa(dp1523
g7
S'd2'
p1524
sa(dp1525
g5
S'white_pawn'
p1526
sg7
S'd3'
p1527
sa(dp1528
g5
S'black_pawn'
p1529
sg7
S'd4'
p1530
sa(dp1531
g5
S'white_pawn'
p1532
sg7
S'd5'
p1533
sa(dp1534
g5
S'black_pawn'
p1535
sg7
S'd6'
p1536
sa(dp1537
g7
S'd7'
p1538
sa(dp1539
g7
S'd8'
p1540
sa(dp1541
g5
S'white_rook'
p1542
sg7
S'e1'
p1543
sa(dp1544
g7
S'e2'
p1545
sa(dp1546
g7
S'e3'
p1547
sa(dp1548
g7
S'e4'
p1549
sa(dp1550
g7
S'e5'
p1551
sa(dp1552
g7
S'e6'
p1553
sa(dp1554
g7
S'e7'
p1555
sa(dp1556
g7
S'e8'
p1557
sa(dp1558
g5
S'white_king'
p1559
sg7
S'f1'
p1560
sa(dp1561
g5
S'white_pawn'
p1562
sg7
S'f2'
p1563
sa(dp1564
g7
S'f3'
p1565
sa(dp1566
g5
S'white_bishop'
p1567
sg7
S'f4'
p1568
sa(dp1569
g5
S'white_queen'
p1570
sg7
S'f5'
p1571
sa(dp1572
g5
S'black_bishop'
p1573
sg7
S'f6'
p1574
sa(dp1575
g5
S'black_pawn'
p1576
sg7
S'f7'
p1577
sa(dp1578
g7
S'f8'
p1579
sa(dp1580
g7
S'g1'
p1581
sa(dp1582
g5
S'white_pawn'
p1583
sg7
S'g2'
p1584
sa(dp1585
g7
S'g3'
p1586
sa(dp1587
g7
S'g4'
p1588
sa(dp1589
g7
S'g5'
p1590
sa(dp1591
g7
S'g6'
p1592
sa(dp1593
g5
S'black_pawn'
p1594
sg7
S'g7'
p1595
sa(dp1596
g5
S'black_king'
p1597
sg7
S'g8'
p1598
sa(dp1599
g7
S'h1'
p1600
sa(dp1601
g5
S'white_pawn'
p1602
sg7
S'h2'
p1603
sa(dp1604
g7
S'h3'
p1605
sa(dp1606
g7
S'h4'
p1607
sa(dp1608
g7
S'h5'
p1609
sa(dp1610
g7
S'h6'
p1611
sa(dp1612
g5
S'black_pawn'
p1613
sg7
S'h7'
p1614
sa(dp1615
g7
S'h8'
p1616
saaVanother option was g6...
p1617
aa(lp1618
S'23. Qe4 Qd7 24. Bc1'
p1619
a(lp1620
(dp1621
g7
S'a1'
p1622
sa(dp1623
g7
S'a2'
p1624
sa(dp1625
g7
S'a3'
p1626
sa(dp1627
g5
S'white_pawn'
p1628
sg7
S'a4'
p1629
sa(dp1630
g5
S'black_pawn'
p1631
sg7
S'a5'
p1632
sa(dp1633
g7
S'a6'
p1634
sa(dp1635
g7
S'a7'
p1636
sa(dp1637
g5
S'black_rook'
p1638
sg7
S'a8'
p1639
sa(dp1640
g7
S'b1'
p1641
sa(dp1642
g7
S'b2'
p1643
sa(dp1644
g5
S'white_pawn'
p1645
sg7
S'b3'
p1646
sa(dp1647
g5
S'black_pawn'
p1648
sg7
S'b4'
p1649
sa(dp1650
g7
S'b5'
p1651
sa(dp1652
g7
S'b6'
p1653
sa(dp1654
g7
S'b7'
p1655
sa(dp1656
g7
S'b8'
p1657
sa(dp1658
g5
S'white_bishop'
p1659
sg7
S'c1'
p1660
sa(dp1661
g5
S'white_pawn'
p1662
sg7
S'c2'
p1663
sa(dp1664
g7
S'c3'
p1665
sa(dp1666
g7
S'c4'
p1667
sa(dp1668
g7
S'c5'
p1669
sa(dp1670
g7
S'c6'
p1671
sa(dp1672
g5
S'black_pawn'
p1673
sg7
S'c7'
p1674
sa(dp1675
g7
S'c8'
p1676
sa(dp1677
g7
S'd1'
p1678
sa(dp1679
g7
S'd2'
p1680
sa(dp1681
g5
S'white_pawn'
p1682
sg7
S'd3'
p1683
sa(dp1684
g5
S'black_pawn'
p1685
sg7
S'd4'
p1686
sa(dp1687
g5
S'white_pawn'
p1688
sg7
S'd5'
p1689
sa(dp1690
g5
S'black_pawn'
p1691
sg7
S'd6'
p1692
sa(dp1693
g5
S'black_queen'
p1694
sg7
S'd7'
p1695
sa(dp1696
g7
S'd8'
p1697
sa(dp1698
g5
S'white_rook'
p1699
sg7
S'e1'
p1700
sa(dp1701
g7
S'e2'
p1702
sa(dp1703
g7
S'e3'
p1704
sa(dp1705
g5
S'white_queen'
p1706
sg7
S'e4'
p1707
sa(dp1708
g7
S'e5'
p1709
sa(dp1710
g7
S'e6'
p1711
sa(dp1712
g7
S'e7'
p1713
sa(dp1714
g7
S'e8'
p1715
sa(dp1716
g5
S'white_king'
p1717
sg7
S'f1'
p1718
sa(dp1719
g5
S'white_pawn'
p1720
sg7
S'f2'
p1721
sa(dp1722
g7
S'f3'
p1723
sa(dp1724
g7
S'f4'
p1725
sa(dp1726
g7
S'f5'
p1727
sa(dp1728
g5
S'black_bishop'
p1729
sg7
S'f6'
p1730
sa(dp1731
g5
S'black_pawn'
p1732
sg7
S'f7'
p1733
sa(dp1734
g7
S'f8'
p1735
sa(dp1736
g7
S'g1'
p1737
sa(dp1738
g5
S'white_pawn'
p1739
sg7
S'g2'
p1740
sa(dp1741
g7
S'g3'
p1742
sa(dp1743
g7
S'g4'
p1744
sa(dp1745
g7
S'g5'
p1746
sa(dp1747
g7
S'g6'
p1748
sa(dp1749
g5
S'black_pawn'
p1750
sg7
S'g7'
p1751
sa(dp1752
g5
S'black_king'
p1753
sg7
S'g8'
p1754
sa(dp1755
g7
S'h1'
p1756
sa(dp1757
g5
S'white_pawn'
p1758
sg7
S'h2'
p1759
sa(dp1760
g7
S'h3'
p1761
sa(dp1762
g7
S'h4'
p1763
sa(dp1764
g7
S'h5'
p1765
sa(dp1766
g7
S'h6'
p1767
sa(dp1768
g5
S'black_pawn'
p1769
sg7
S'h7'
p1770
sa(dp1771
g7
S'h8'
p1772
saaVa devious silent move, preparing f4: not Bb2; other moves would encourage h6...
p1773
aa(lp1774
S'24... Be5 25. f4 f5 26. Qe2 Bf6 27. h3'
p1775
a(lp1776
(dp1777
g7
S'a1'
p1778
sa(dp1779
g7
S'a2'
p1780
sa(dp1781
g7
S'a3'
p1782
sa(dp1783
g5
S'white_pawn'
p1784
sg7
S'a4'
p1785
sa(dp1786
g5
S'black_pawn'
p1787
sg7
S'a5'
p1788
sa(dp1789
g7
S'a6'
p1790
sa(dp1791
g7
S'a7'
p1792
sa(dp1793
g5
S'black_rook'
p1794
sg7
S'a8'
p1795
sa(dp1796
g7
S'b1'
p1797
sa(dp1798
g7
S'b2'
p1799
sa(dp1800
g5
S'white_pawn'
p1801
sg7
S'b3'
p1802
sa(dp1803
g5
S'black_pawn'
p1804
sg7
S'b4'
p1805
sa(dp1806
g7
S'b5'
p1807
sa(dp1808
g7
S'b6'
p1809
sa(dp1810
g7
S'b7'
p1811
sa(dp1812
g7
S'b8'
p1813
sa(dp1814
g5
S'white_bishop'
p1815
sg7
S'c1'
p1816
sa(dp1817
g5
S'white_pawn'
p1818
sg7
S'c2'
p1819
sa(dp1820
g7
S'c3'
p1821
sa(dp1822
g7
S'c4'
p1823
sa(dp1824
g7
S'c5'
p1825
sa(dp1826
g7
S'c6'
p1827
sa(dp1828
g5
S'black_pawn'
p1829
sg7
S'c7'
p1830
sa(dp1831
g7
S'c8'
p1832
sa(dp1833
g7
S'd1'
p1834
sa(dp1835
g7
S'd2'
p1836
sa(dp1837
g5
S'white_pawn'
p1838
sg7
S'd3'
p1839
sa(dp1840
g5
S'black_pawn'
p1841
sg7
S'd4'
p1842
sa(dp1843
g5
S'white_pawn'
p1844
sg7
S'd5'
p1845
sa(dp1846
g5
S'black_pawn'
p1847
sg7
S'd6'
p1848
sa(dp1849
g5
S'black_queen'
p1850
sg7
S'd7'
p1851
sa(dp1852
g7
S'd8'
p1853
sa(dp1854
g5
S'white_rook'
p1855
sg7
S'e1'
p1856
sa(dp1857
g5
S'white_queen'
p1858
sg7
S'e2'
p1859
sa(dp1860
g7
S'e3'
p1861
sa(dp1862
g7
S'e4'
p1863
sa(dp1864
g7
S'e5'
p1865
sa(dp1866
g7
S'e6'
p1867
sa(dp1868
g7
S'e7'
p1869
sa(dp1870
g7
S'e8'
p1871
sa(dp1872
g5
S'white_king'
p1873
sg7
S'f1'
p1874
sa(dp1875
g7
S'f2'
p1876
sa(dp1877
g7
S'f3'
p1878
sa(dp1879
g5
S'white_pawn'
p1880
sg7
S'f4'
p1881
sa(dp1882
g5
S'black_pawn'
p1883
sg7
S'f5'
p1884
sa(dp1885
g5
S'black_bishop'
p1886
sg7
S'f6'
p1887
sa(dp1888
g7
S'f7'
p1889
sa(dp1890
g7
S'f8'
p1891
sa(dp1892
g7
S'g1'
p1893
sa(dp1894
g5
S'white_pawn'
p1895
sg7
S'g2'
p1896
sa(dp1897
g7
S'g3'
p1898
sa(dp1899
g7
S'g4'
p1900
sa(dp1901
g7
S'g5'
p1902
sa(dp1903
g7
S'g6'
p1904
sa(dp1905
g5
S'black_pawn'
p1906
sg7
S'g7'
p1907
sa(dp1908
g5
S'black_king'
p1909
sg7
S'g8'
p1910
sa(dp1911
g7
S'h1'
p1912
sa(dp1913
g7
S'h2'
p1914
sa(dp1915
g5
S'white_pawn'
p1916
sg7
S'h3'
p1917
sa(dp1918
g7
S'h4'
p1919
sa(dp1920
g7
S'h5'
p1921
sa(dp1922
g7
S'h6'
p1923
sa(dp1924
g5
S'black_pawn'
p1925
sg7
S'h7'
p1926
sa(dp1927
g7
S'h8'
p1928
saaVat this point, the game is still fairly equal; but Black is starting to suffer a lack of play and safe moves, while White is preparing g4...
p1929
aa(lp1930
S'27... Bh4'
p1931
a(lp1932
(dp1933
g7
S'a1'
p1934
sa(dp1935
g7
S'a2'
p1936
sa(dp1937
g7
S'a3'
p1938
sa(dp1939
g5
S'white_pawn'
p1940
sg7
S'a4'
p1941
sa(dp1942
g5
S'black_pawn'
p1943
sg7
S'a5'
p1944
sa(dp1945
g7
S'a6'
p1946
sa(dp1947
g7
S'a7'
p1948
sa(dp1949
g5
S'black_rook'
p1950
sg7
S'a8'
p1951
sa(dp1952
g7
S'b1'
p1953
sa(dp1954
g7
S'b2'
p1955
sa(dp1956
g5
S'white_pawn'
p1957
sg7
S'b3'
p1958
sa(dp1959
g5
S'black_pawn'
p1960
sg7
S'b4'
p1961
sa(dp1962
g7
S'b5'
p1963
sa(dp1964
g7
S'b6'
p1965
sa(dp1966
g7
S'b7'
p1967
sa(dp1968
g7
S'b8'
p1969
sa(dp1970
g5
S'white_bishop'
p1971
sg7
S'c1'
p1972
sa(dp1973
g5
S'white_pawn'
p1974
sg7
S'c2'
p1975
sa(dp1976
g7
S'c3'
p1977
sa(dp1978
g7
S'c4'
p1979
sa(dp1980
g7
S'c5'
p1981
sa(dp1982
g7
S'c6'
p1983
sa(dp1984
g5
S'black_pawn'
p1985
sg7
S'c7'
p1986
sa(dp1987
g7
S'c8'
p1988
sa(dp1989
g7
S'd1'
p1990
sa(dp1991
g7
S'd2'
p1992
sa(dp1993
g5
S'white_pawn'
p1994
sg7
S'd3'
p1995
sa(dp1996
g5
S'black_pawn'
p1997
sg7
S'd4'
p1998
sa(dp1999
g5
S'white_pawn'
p2000
sg7
S'd5'
p2001
sa(dp2002
g5
S'black_pawn'
p2003
sg7
S'd6'
p2004
sa(dp2005
g5
S'black_queen'
p2006
sg7
S'd7'
p2007
sa(dp2008
g7
S'd8'
p2009
sa(dp2010
g5
S'white_rook'
p2011
sg7
S'e1'
p2012
sa(dp2013
g5
S'white_queen'
p2014
sg7
S'e2'
p2015
sa(dp2016
g7
S'e3'
p2017
sa(dp2018
g7
S'e4'
p2019
sa(dp2020
g7
S'e5'
p2021
sa(dp2022
g7
S'e6'
p2023
sa(dp2024
g7
S'e7'
p2025
sa(dp2026
g7
S'e8'
p2027
sa(dp2028
g5
S'white_king'
p2029
sg7
S'f1'
p2030
sa(dp2031
g7
S'f2'
p2032
sa(dp2033
g7
S'f3'
p2034
sa(dp2035
g5
S'white_pawn'
p2036
sg7
S'f4'
p2037
sa(dp2038
g5
S'black_pawn'
p2039
sg7
S'f5'
p2040
sa(dp2041
g7
S'f6'
p2042
sa(dp2043
g7
S'f7'
p2044
sa(dp2045
g7
S'f8'
p2046
sa(dp2047
g7
S'g1'
p2048
sa(dp2049
g5
S'white_pawn'
p2050
sg7
S'g2'
p2051
sa(dp2052
g7
S'g3'
p2053
sa(dp2054
g7
S'g4'
p2055
sa(dp2056
g7
S'g5'
p2057
sa(dp2058
g7
S'g6'
p2059
sa(dp2060
g5
S'black_pawn'
p2061
sg7
S'g7'
p2062
sa(dp2063
g5
S'black_king'
p2064
sg7
S'g8'
p2065
sa(dp2066
g7
S'h1'
p2067
sa(dp2068
g7
S'h2'
p2069
sa(dp2070
g5
S'white_pawn'
p2071
sg7
S'h3'
p2072
sa(dp2073
g5
S'black_bishop'
p2074
sg7
S'h4'
p2075
sa(dp2076
g7
S'h5'
p2077
sa(dp2078
g7
S'h6'
p2079
sa(dp2080
g5
S'black_pawn'
p2081
sg7
S'h7'
p2082
sa(dp2083
g7
S'h8'
p2084
saaVsearching for play; this will force trading Queens, not to Blacks' advantage... much safer is Qf7 or g6...
p2085
aa(lp2086
S'28. Qe6+ Qxe6 29. Rxe6 Kf7'
p2087
a(lp2088
(dp2089
g7
S'a1'
p2090
sa(dp2091
g7
S'a2'
p2092
sa(dp2093
g7
S'a3'
p2094
sa(dp2095
g5
S'white_pawn'
p2096
sg7
S'a4'
p2097
sa(dp2098
g5
S'black_pawn'
p2099
sg7
S'a5'
p2100
sa(dp2101
g7
S'a6'
p2102
sa(dp2103
g7
S'a7'
p2104
sa(dp2105
g5
S'black_rook'
p2106
sg7
S'a8'
p2107
sa(dp2108
g7
S'b1'
p2109
sa(dp2110
g7
S'b2'
p2111
sa(dp2112
g5
S'white_pawn'
p2113
sg7
S'b3'
p2114
sa(dp2115
g5
S'black_pawn'
p2116
sg7
S'b4'
p2117
sa(dp2118
g7
S'b5'
p2119
sa(dp2120
g7
S'b6'
p2121
sa(dp2122
g7
S'b7'
p2123
sa(dp2124
g7
S'b8'
p2125
sa(dp2126
g5
S'white_bishop'
p2127
sg7
S'c1'
p2128
sa(dp2129
g5
S'white_pawn'
p2130
sg7
S'c2'
p2131
sa(dp2132
g7
S'c3'
p2133
sa(dp2134
g7
S'c4'
p2135
sa(dp2136
g7
S'c5'
p2137
sa(dp2138
g7
S'c6'
p2139
sa(dp2140
g5
S'black_pawn'
p2141
sg7
S'c7'
p2142
sa(dp2143
g7
S'c8'
p2144
sa(dp2145
g7
S'd1'
p2146
sa(dp2147
g7
S'd2'
p2148
sa(dp2149
g5
S'white_pawn'
p2150
sg7
S'd3'
p2151
sa(dp2152
g5
S'black_pawn'
p2153
sg7
S'd4'
p2154
sa(dp2155
g5
S'white_pawn'
p2156
sg7
S'd5'
p2157
sa(dp2158
g5
S'black_pawn'
p2159
sg7
S'd6'
p2160
sa(dp2161
g7
S'd7'
p2162
sa(dp2163
g7
S'd8'
p2164
sa(dp2165
g7
S'e1'
p2166
sa(dp2167
g7
S'e2'
p2168
sa(dp2169
g7
S'e3'
p2170
sa(dp2171
g7
S'e4'
p2172
sa(dp2173
g7
S'e5'
p2174
sa(dp2175
g5
S'white_rook'
p2176
sg7
S'e6'
p2177
sa(dp2178
g7
S'e7'
p2179
sa(dp2180
g7
S'e8'
p2181
sa(dp2182
g5
S'white_king'
p2183
sg7
S'f1'
p2184
sa(dp2185
g7
S'f2'
p2186
sa(dp2187
g7
S'f3'
p2188
sa(dp2189
g5
S'white_pawn'
p2190
sg7
S'f4'
p2191
sa(dp2192
g5
S'black_pawn'
p2193
sg7
S'f5'
p2194
sa(dp2195
g7
S'f6'
p2196
sa(dp2197
g5
S'black_king'
p2198
sg7
S'f7'
p2199
sa(dp2200
g7
S'f8'
p2201
sa(dp2202
g7
S'g1'
p2203
sa(dp2204
g5
S'white_pawn'
p2205
sg7
S'g2'
p2206
sa(dp2207
g7
S'g3'
p2208
sa(dp2209
g7
S'g4'
p2210
sa(dp2211
g7
S'g5'
p2212
sa(dp2213
g7
S'g6'
p2214
sa(dp2215
g5
S'black_pawn'
p2216
sg7
S'g7'
p2217
sa(dp2218
g7
S'g8'
p2219
sa(dp2220
g7
S'h1'
p2221
sa(dp2222
g7
S'h2'
p2223
sa(dp2224
g5
S'white_pawn'
p2225
sg7
S'h3'
p2226
sa(dp2227
g5
S'black_bishop'
p2228
sg7
S'h4'
p2229
sa(dp2230
g7
S'h5'
p2231
sa(dp2232
g7
S'h6'
p2233
sa(dp2234
g5
S'black_pawn'
p2235
sg7
S'h7'
p2236
sa(dp2237
g7
S'h8'
p2238
saaVh5 here, would have saved a lot of trouble...
p2239
aa(lp2240
S'30. g4 fxg4'
p2241
a(lp2242
(dp2243
g7
S'a1'
p2244
sa(dp2245
g7
S'a2'
p2246
sa(dp2247
g7
S'a3'
p2248
sa(dp2249
g5
S'white_pawn'
p2250
sg7
S'a4'
p2251
sa(dp2252
g5
S'black_pawn'
p2253
sg7
S'a5'
p2254
sa(dp2255
g7
S'a6'
p2256
sa(dp2257
g7
S'a7'
p2258
sa(dp2259
g5
S'black_rook'
p2260
sg7
S'a8'
p2261
sa(dp2262
g7
S'b1'
p2263
sa(dp2264
g7
S'b2'
p2265
sa(dp2266
g5
S'white_pawn'
p2267
sg7
S'b3'
p2268
sa(dp2269
g5
S'black_pawn'
p2270
sg7
S'b4'
p2271
sa(dp2272
g7
S'b5'
p2273
sa(dp2274
g7
S'b6'
p2275
sa(dp2276
g7
S'b7'
p2277
sa(dp2278
g7
S'b8'
p2279
sa(dp2280
g5
S'white_bishop'
p2281
sg7
S'c1'
p2282
sa(dp2283
g5
S'white_pawn'
p2284
sg7
S'c2'
p2285
sa(dp2286
g7
S'c3'
p2287
sa(dp2288
g7
S'c4'
p2289
sa(dp2290
g7
S'c5'
p2291
sa(dp2292
g7
S'c6'
p2293
sa(dp2294
g5
S'black_pawn'
p2295
sg7
S'c7'
p2296
sa(dp2297
g7
S'c8'
p2298
sa(dp2299
g7
S'd1'
p2300
sa(dp2301
g7
S'd2'
p2302
sa(dp2303
g5
S'white_pawn'
p2304
sg7
S'd3'
p2305
sa(dp2306
g5
S'black_pawn'
p2307
sg7
S'd4'
p2308
sa(dp2309
g5
S'white_pawn'
p2310
sg7
S'd5'
p2311
sa(dp2312
g5
S'black_pawn'
p2313
sg7
S'd6'
p2314
sa(dp2315
g7
S'd7'
p2316
sa(dp2317
g7
S'd8'
p2318
sa(dp2319
g7
S'e1'
p2320
sa(dp2321
g7
S'e2'
p2322
sa(dp2323
g7
S'e3'
p2324
sa(dp2325
g7
S'e4'
p2326
sa(dp2327
g7
S'e5'
p2328
sa(dp2329
g5
S'white_rook'
p2330
sg7
S'e6'
p2331
sa(dp2332
g7
S'e7'
p2333
sa(dp2334
g7
S'e8'
p2335
sa(dp2336
g5
S'white_king'
p2337
sg7
S'f1'
p2338
sa(dp2339
g7
S'f2'
p2340
sa(dp2341
g7
S'f3'
p2342
sa(dp2343
g5
S'white_pawn'
p2344
sg7
S'f4'
p2345
sa(dp2346
g7
S'f5'
p2347
sa(dp2348
g7
S'f6'
p2349
sa(dp2350
g5
S'black_king'
p2351
sg7
S'f7'
p2352
sa(dp2353
g7
S'f8'
p2354
sa(dp2355
g7
S'g1'
p2356
sa(dp2357
g7
S'g2'
p2358
sa(dp2359
g7
S'g3'
p2360
sa(dp2361
g5
S'black_pawn'
p2362
sg7
S'g4'
p2363
sa(dp2364
g7
S'g5'
p2365
sa(dp2366
g7
S'g6'
p2367
sa(dp2368
g5
S'black_pawn'
p2369
sg7
S'g7'
p2370
sa(dp2371
g7
S'g8'
p2372
sa(dp2373
g7
S'h1'
p2374
sa(dp2375
g7
S'h2'
p2376
sa(dp2377
g5
S'white_pawn'
p2378
sg7
S'h3'
p2379
sa(dp2380
g5
S'black_bishop'
p2381
sg7
S'h4'
p2382
sa(dp2383
g7
S'h5'
p2384
sa(dp2385
g7
S'h6'
p2386
sa(dp2387
g5
S'black_pawn'
p2388
sg7
S'h7'
p2389
sa(dp2390
g7
S'h8'
p2391
saaVwhat else?
p2392
aa(lp2393
S'8765432'
p2394
a(lp2395
(dp2396
g7
S'a1'
p2397
sa(dp2398
g7
S'a2'
p2399
sa(dp2400
g7
S'a3'
p2401
sa(dp2402
g5
S'white_pawn'
p2403
sg7
S'a4'
p2404
sa(dp2405
g5
S'black_pawn'
p2406
sg7
S'a5'
p2407
sa(dp2408
g7
S'a6'
p2409
sa(dp2410
g7
S'a7'
p2411
sa(dp2412
g5
S'black_rook'
p2413
sg7
S'a8'
p2414
sa(dp2415
g7
S'b1'
p2416
sa(dp2417
g7
S'b2'
p2418
sa(dp2419
g5
S'white_pawn'
p2420
sg7
S'b3'
p2421
sa(dp2422
g5
S'black_pawn'
p2423
sg7
S'b4'
p2424
sa(dp2425
g7
S'b5'
p2426
sa(dp2427
g7
S'b6'
p2428
sa(dp2429
g7
S'b7'
p2430
sa(dp2431
g7
S'b8'
p2432
sa(dp2433
g5
S'white_bishop'
p2434
sg7
S'c1'
p2435
sa(dp2436
g5
S'white_pawn'
p2437
sg7
S'c2'
p2438
sa(dp2439
g7
S'c3'
p2440
sa(dp2441
g7
S'c4'
p2442
sa(dp2443
g7
S'c5'
p2444
sa(dp2445
g7
S'c6'
p2446
sa(dp2447
g5
S'black_pawn'
p2448
sg7
S'c7'
p2449
sa(dp2450
g7
S'c8'
p2451
sa(dp2452
g7
S'd1'
p2453
sa(dp2454
g7
S'd2'
p2455
sa(dp2456
g5
S'white_pawn'
p2457
sg7
S'd3'
p2458
sa(dp2459
g5
S'black_pawn'
p2460
sg7
S'd4'
p2461
sa(dp2462
g5
S'white_pawn'
p2463
sg7
S'd5'
p2464
sa(dp2465
g5
S'black_pawn'
p2466
sg7
S'd6'
p2467
sa(dp2468
g7
S'd7'
p2469
sa(dp2470
g7
S'd8'
p2471
sa(dp2472
g7
S'e1'
p2473
sa(dp2474
g7
S'e2'
p2475
sa(dp2476
g7
S'e3'
p2477
sa(dp2478
g7
S'e4'
p2479
sa(dp2480
g7
S'e5'
p2481
sa(dp2482
g7
S'e6'
p2483
sa(dp2484
g7
S'e7'
p2485
sa(dp2486
g7
S'e8'
p2487
sa(dp2488
g5
S'white_king'
p2489
sg7
S'f1'
p2490
sa(dp2491
g7
S'f2'
p2492
sa(dp2493
g7
S'f3'
p2494
sa(dp2495
g5
S'white_pawn'
p2496
sg7
S'f4'
p2497
sa(dp2498
g5
S'black_pawn'
p2499
sg7
S'f5'
p2500
sa(dp2501
g5
S'black_bishop'
p2502
sg7
S'f6'
p2503
sa(dp2504
g5
S'black_king'
p2505
sg7
S'f7'
p2506
sa(dp2507
g7
S'f8'
p2508
sa(dp2509
g7
S'g1'
p2510
sa(dp2511
g7
S'g2'
p2512
sa(dp2513
g7
S'g3'
p2514
sa(dp2515
g7
S'g4'
p2516
sa(dp2517
g7
S'g5'
p2518
sa(dp2519
g7
S'g6'
p2520
sa(dp2521
g7
S'g7'
p2522
sa(dp2523
g7
S'g8'
p2524
sa(dp2525
g7
S'h1'
p2526
sa(dp2527
g7
S'h2'
p2528
sa(dp2529
g5
S'white_pawn'
p2530
sg7
S'h3'
p2531
sa(dp2532
g7
S'h4'
p2533
sa(dp2534
g5
S'white_rook'
p2535
sg7
S'h5'
p2536
sa(dp2537
g7
S'h6'
p2538
sa(dp2539
g7
S'h7'
p2540
sa(dp2541
g7
S'h8'
p2542
saaV
p2543
aa(lp2544
S'8765432'
p2545
a(lp2546
(dp2547
g7
S'a1'
p2548
sa(dp2549
g7
S'a2'
p2550
sa(dp2551
g7
S'a3'
p2552
sa(dp2553
g5
S'white_pawn'
p2554
sg7
S'a4'
p2555
sa(dp2556
g5
S'black_pawn'
p2557
sg7
S'a5'
p2558
sa(dp2559
g7
S'a6'
p2560
sa(dp2561
g7
S'a7'
p2562
sa(dp2563
g5
S'black_rook'
p2564
sg7
S'a8'
p2565
sa(dp2566
g7
S'b1'
p2567
sa(dp2568
g7
S'b2'
p2569
sa(dp2570
g5
S'white_pawn'
p2571
sg7
S'b3'
p2572
sa(dp2573
g5
S'black_pawn'
p2574
sg7
S'b4'
p2575
sa(dp2576
g7
S'b5'
p2577
sa(dp2578
g7
S'b6'
p2579
sa(dp2580
g7
S'b7'
p2581
sa(dp2582
g7
S'b8'
p2583
sa(dp2584
g5
S'white_bishop'
p2585
sg7
S'c1'
p2586
sa(dp2587
g5
S'white_pawn'
p2588
sg7
S'c2'
p2589
sa(dp2590
g7
S'c3'
p2591
sa(dp2592
g7
S'c4'
p2593
sa(dp2594
g7
S'c5'
p2595
sa(dp2596
g7
S'c6'
p2597
sa(dp2598
g5
S'black_pawn'
p2599
sg7
S'c7'
p2600
sa(dp2601
g7
S'c8'
p2602
sa(dp2603
g7
S'd1'
p2604
sa(dp2605
g7
S'd2'
p2606
sa(dp2607
g5
S'white_pawn'
p2608
sg7
S'd3'
p2609
sa(dp2610
g5
S'black_pawn'
p2611
sg7
S'd4'
p2612
sa(dp2613
g5
S'white_pawn'
p2614
sg7
S'd5'
p2615
sa(dp2616
g5
S'black_pawn'
p2617
sg7
S'd6'
p2618
sa(dp2619
g7
S'd7'
p2620
sa(dp2621
g7
S'd8'
p2622
sa(dp2623
g7
S'e1'
p2624
sa(dp2625
g7
S'e2'
p2626
sa(dp2627
g7
S'e3'
p2628
sa(dp2629
g7
S'e4'
p2630
sa(dp2631
g7
S'e5'
p2632
sa(dp2633
g5
S'white_rook'
p2634
sg7
S'e6'
p2635
sa(dp2636
g7
S'e7'
p2637
sa(dp2638
g7
S'e8'
p2639
sa(dp2640
g5
S'white_king'
p2641
sg7
S'f1'
p2642
sa(dp2643
g7
S'f2'
p2644
sa(dp2645
g7
S'f3'
p2646
sa(dp2647
g5
S'white_pawn'
p2648
sg7
S'f4'
p2649
sa(dp2650
g7
S'f5'
p2651
sa(dp2652
g7
S'f6'
p2653
sa(dp2654
g5
S'black_king'
p2655
sg7
S'f7'
p2656
sa(dp2657
g7
S'f8'
p2658
sa(dp2659
g7
S'g1'
p2660
sa(dp2661
g7
S'g2'
p2662
sa(dp2663
g7
S'g3'
p2664
sa(dp2665
g5
S'white_pawn'
p2666
sg7
S'g4'
p2667
sa(dp2668
g7
S'g5'
p2669
sa(dp2670
g7
S'g6'
p2671
sa(dp2672
g5
S'black_pawn'
p2673
sg7
S'g7'
p2674
sa(dp2675
g7
S'g8'
p2676
sa(dp2677
g7
S'h1'
p2678
sa(dp2679
g7
S'h2'
p2680
sa(dp2681
g7
S'h3'
p2682
sa(dp2683
g5
S'black_bishop'
p2684
sg7
S'h4'
p2685
sa(dp2686
g7
S'h5'
p2687
sa(dp2688
g5
S'black_pawn'
p2689
sg7
S'h6'
p2690
sa(dp2691
g7
S'h7'
p2692
sa(dp2693
g7
S'h8'
p2694
saag2543
aa(lp2695
S'8765432'
p2696
a(lp2697
(dp2698
g7
S'a1'
p2699
sa(dp2700
g7
S'a2'
p2701
sa(dp2702
g7
S'a3'
p2703
sa(dp2704
g5
S'white_pawn'
p2705
sg7
S'a4'
p2706
sa(dp2707
g5
S'black_pawn'
p2708
sg7
S'a5'
p2709
sa(dp2710
g7
S'a6'
p2711
sa(dp2712
g7
S'a7'
p2713
sa(dp2714
g7
S'a8'
p2715
sa(dp2716
g7
S'b1'
p2717
sa(dp2718
g7
S'b2'
p2719
sa(dp2720
g5
S'white_pawn'
p2721
sg7
S'b3'
p2722
sa(dp2723
g5
S'black_pawn'
p2724
sg7
S'b4'
p2725
sa(dp2726
g7
S'b5'
p2727
sa(dp2728
g7
S'b6'
p2729
sa(dp2730
g7
S'b7'
p2731
sa(dp2732
g7
S'b8'
p2733
sa(dp2734
g5
S'white_bishop'
p2735
sg7
S'c1'
p2736
sa(dp2737
g5
S'white_pawn'
p2738
sg7
S'c2'
p2739
sa(dp2740
g7
S'c3'
p2741
sa(dp2742
g7
S'c4'
p2743
sa(dp2744
g7
S'c5'
p2745
sa(dp2746
g7
S'c6'
p2747
sa(dp2748
g5
S'black_pawn'
p2749
sg7
S'c7'
p2750
sa(dp2751
g7
S'c8'
p2752
sa(dp2753
g7
S'd1'
p2754
sa(dp2755
g7
S'd2'
p2756
sa(dp2757
g5
S'white_pawn'
p2758
sg7
S'd3'
p2759
sa(dp2760
g5
S'black_pawn'
p2761
sg7
S'd4'
p2762
sa(dp2763
g5
S'white_pawn'
p2764
sg7
S'd5'
p2765
sa(dp2766
g5
S'black_pawn'
p2767
sg7
S'd6'
p2768
sa(dp2769
g7
S'd7'
p2770
sa(dp2771
g5
S'black_rook'
p2772
sg7
S'd8'
p2773
sa(dp2774
g7
S'e1'
p2775
sa(dp2776
g7
S'e2'
p2777
sa(dp2778
g7
S'e3'
p2779
sa(dp2780
g7
S'e4'
p2781
sa(dp2782
g7
S'e5'
p2783
sa(dp2784
g5
S'white_rook'
p2785
sg7
S'e6'
p2786
sa(dp2787
g7
S'e7'
p2788
sa(dp2789
g7
S'e8'
p2790
sa(dp2791
g7
S'f1'
p2792
sa(dp2793
g7
S'f2'
p2794
sa(dp2795
g7
S'f3'
p2796
sa(dp2797
g5
S'white_pawn'
p2798
sg7
S'f4'
p2799
sa(dp2800
g7
S'f5'
p2801
sa(dp2802
g7
S'f6'
p2803
sa(dp2804
g5
S'black_king'
p2805
sg7
S'f7'
p2806
sa(dp2807
g7
S'f8'
p2808
sa(dp2809
g7
S'g1'
p2810
sa(dp2811
g5
S'white_king'
p2812
sg7
S'g2'
p2813
sa(dp2814
g7
S'g3'
p2815
sa(dp2816
g5
S'white_pawn'
p2817
sg7
S'g4'
p2818
sa(dp2819
g7
S'g5'
p2820
sa(dp2821
g7
S'g6'
p2822
sa(dp2823
g5
S'black_pawn'
p2824
sg7
S'g7'
p2825
sa(dp2826
g7
S'g8'
p2827
sa(dp2828
g7
S'h1'
p2829
sa(dp2830
g7
S'h2'
p2831
sa(dp2832
g7
S'h3'
p2833
sa(dp2834
g5
S'black_bishop'
p2835
sg7
S'h4'
p2836
sa(dp2837
g7
S'h5'
p2838
sa(dp2839
g5
S'black_pawn'
p2840
sg7
S'h6'
p2841
sa(dp2842
g7
S'h7'
p2843
sa(dp2844
g7
S'h8'
p2845
saag2543
aa(lp2846
S'8765432'
p2847
a(lp2848
(dp2849
g7
S'a1'
p2850
sa(dp2851
g7
S'a2'
p2852
sa(dp2853
g7
S'a3'
p2854
sa(dp2855
g5
S'white_pawn'
p2856
sg7
S'a4'
p2857
sa(dp2858
g5
S'black_pawn'
p2859
sg7
S'a5'
p2860
sa(dp2861
g7
S'a6'
p2862
sa(dp2863
g7
S'a7'
p2864
sa(dp2865
g7
S'a8'
p2866
sa(dp2867
g7
S'b1'
p2868
sa(dp2869
g7
S'b2'
p2870
sa(dp2871
g5
S'white_pawn'
p2872
sg7
S'b3'
p2873
sa(dp2874
g5
S'black_pawn'
p2875
sg7
S'b4'
p2876
sa(dp2877
g7
S'b5'
p2878
sa(dp2879
g7
S'b6'
p2880
sa(dp2881
g7
S'b7'
p2882
sa(dp2883
g7
S'b8'
p2884
sa(dp2885
g5
S'white_bishop'
p2886
sg7
S'c1'
p2887
sa(dp2888
g5
S'white_pawn'
p2889
sg7
S'c2'
p2890
sa(dp2891
g7
S'c3'
p2892
sa(dp2893
g7
S'c4'
p2894
sa(dp2895
g7
S'c5'
p2896
sa(dp2897
g7
S'c6'
p2898
sa(dp2899
g5
S'black_pawn'
p2900
sg7
S'c7'
p2901
sa(dp2902
g7
S'c8'
p2903
sa(dp2904
g7
S'd1'
p2905
sa(dp2906
g7
S'd2'
p2907
sa(dp2908
g5
S'white_pawn'
p2909
sg7
S'd3'
p2910
sa(dp2911
g5
S'black_pawn'
p2912
sg7
S'd4'
p2913
sa(dp2914
g5
S'white_pawn'
p2915
sg7
S'd5'
p2916
sa(dp2917
g5
S'black_pawn'
p2918
sg7
S'd6'
p2919
sa(dp2920
g7
S'd7'
p2921
sa(dp2922
g5
S'black_rook'
p2923
sg7
S'd8'
p2924
sa(dp2925
g7
S'e1'
p2926
sa(dp2927
g7
S'e2'
p2928
sa(dp2929
g7
S'e3'
p2930
sa(dp2931
g7
S'e4'
p2932
sa(dp2933
g7
S'e5'
p2934
sa(dp2935
g5
S'white_rook'
p2936
sg7
S'e6'
p2937
sa(dp2938
g7
S'e7'
p2939
sa(dp2940
g7
S'e8'
p2941
sa(dp2942
g7
S'f1'
p2943
sa(dp2944
g7
S'f2'
p2945
sa(dp2946
g5
S'white_king'
p2947
sg7
S'f3'
p2948
sa(dp2949
g5
S'white_pawn'
p2950
sg7
S'f4'
p2951
sa(dp2952
g7
S'f5'
p2953
sa(dp2954
g7
S'f6'
p2955
sa(dp2956
g5
S'black_king'
p2957
sg7
S'f7'
p2958
sa(dp2959
g7
S'f8'
p2960
sa(dp2961
g7
S'g1'
p2962
sa(dp2963
g7
S'g2'
p2964
sa(dp2965
g7
S'g3'
p2966
sa(dp2967
g5
S'white_pawn'
p2968
sg7
S'g4'
p2969
sa(dp2970
g7
S'g5'
p2971
sa(dp2972
g7
S'g6'
p2973
sa(dp2974
g5
S'black_pawn'
p2975
sg7
S'g7'
p2976
sa(dp2977
g7
S'g8'
p2978
sa(dp2979
g7
S'h1'
p2980
sa(dp2981
g7
S'h2'
p2982
sa(dp2983
g7
S'h3'
p2984
sa(dp2985
g5
S'black_bishop'
p2986
sg7
S'h4'
p2987
sa(dp2988
g7
S'h5'
p2989
sa(dp2990
g5
S'black_pawn'
p2991
sg7
S'h6'
p2992
sa(dp2993
g7
S'h7'
p2994
sa(dp2995
g7
S'h8'
p2996
saag2543
aa(lp2997
S'8765432'
p2998
a(lp2999
(dp3000
g7
S'a1'
p3001
sa(dp3002
g7
S'a2'
p3003
sa(dp3004
g7
S'a3'
p3005
sa(dp3006
g5
S'white_pawn'
p3007
sg7
S'a4'
p3008
sa(dp3009
g5
S'black_pawn'
p3010
sg7
S'a5'
p3011
sa(dp3012
g7
S'a6'
p3013
sa(dp3014
g7
S'a7'
p3015
sa(dp3016
g7
S'a8'
p3017
sa(dp3018
g7
S'b1'
p3019
sa(dp3020
g7
S'b2'
p3021
sa(dp3022
g5
S'white_pawn'
p3023
sg7
S'b3'
p3024
sa(dp3025
g5
S'black_pawn'
p3026
sg7
S'b4'
p3027
sa(dp3028
g7
S'b5'
p3029
sa(dp3030
g7
S'b6'
p3031
sa(dp3032
g7
S'b7'
p3033
sa(dp3034
g7
S'b8'
p3035
sa(dp3036
g5
S'white_bishop'
p3037
sg7
S'c1'
p3038
sa(dp3039
g5
S'white_pawn'
p3040
sg7
S'c2'
p3041
sa(dp3042
g7
S'c3'
p3043
sa(dp3044
g7
S'c4'
p3045
sa(dp3046
g7
S'c5'
p3047
sa(dp3048
g5
S'black_pawn'
p3049
sg7
S'c6'
p3050
sa(dp3051
g7
S'c7'
p3052
sa(dp3053
g5
S'black_rook'
p3054
sg7
S'c8'
p3055
sa(dp3056
g7
S'd1'
p3057
sa(dp3058
g7
S'd2'
p3059
sa(dp3060
g5
S'white_pawn'
p3061
sg7
S'd3'
p3062
sa(dp3063
g5
S'black_pawn'
p3064
sg7
S'd4'
p3065
sa(dp3066
g5
S'white_pawn'
p3067
sg7
S'd5'
p3068
sa(dp3069
g5
S'black_pawn'
p3070
sg7
S'd6'
p3071
sa(dp3072
g7
S'd7'
p3073
sa(dp3074
g7
S'd8'
p3075
sa(dp3076
g7
S'e1'
p3077
sa(dp3078
g7
S'e2'
p3079
sa(dp3080
g7
S'e3'
p3081
sa(dp3082
g5
S'white_king'
p3083
sg7
S'e4'
p3084
sa(dp3085
g7
S'e5'
p3086
sa(dp3087
g5
S'white_rook'
p3088
sg7
S'e6'
p3089
sa(dp3090
g7
S'e7'
p3091
sa(dp3092
g7
S'e8'
p3093
sa(dp3094
g7
S'f1'
p3095
sa(dp3096
g7
S'f2'
p3097
sa(dp3098
g7
S'f3'
p3099
sa(dp3100
g5
S'white_pawn'
p3101
sg7
S'f4'
p3102
sa(dp3103
g7
S'f5'
p3104
sa(dp3105
g7
S'f6'
p3106
sa(dp3107
g5
S'black_king'
p3108
sg7
S'f7'
p3109
sa(dp3110
g7
S'f8'
p3111
sa(dp3112
g7
S'g1'
p3113
sa(dp3114
g7
S'g2'
p3115
sa(dp3116
g7
S'g3'
p3117
sa(dp3118
g5
S'white_pawn'
p3119
sg7
S'g4'
p3120
sa(dp3121
g7
S'g5'
p3122
sa(dp3123
g7
S'g6'
p3124
sa(dp3125
g5
S'black_pawn'
p3126
sg7
S'g7'
p3127
sa(dp3128
g7
S'g8'
p3129
sa(dp3130
g7
S'h1'
p3131
sa(dp3132
g7
S'h2'
p3133
sa(dp3134
g7
S'h3'
p3135
sa(dp3136
g5
S'black_bishop'
p3137
sg7
S'h4'
p3138
sa(dp3139
g7
S'h5'
p3140
sa(dp3141
g5
S'black_pawn'
p3142
sg7
S'h6'
p3143
sa(dp3144
g7
S'h7'
p3145
sa(dp3146
g7
S'h8'
p3147
saag2543
aa(lp3148
S'8765432'
p3149
a(lp3150
(dp3151
g7
S'a1'
p3152
sa(dp3153
g7
S'a2'
p3154
sa(dp3155
g7
S'a3'
p3156
sa(dp3157
g5
S'white_pawn'
p3158
sg7
S'a4'
p3159
sa(dp3160
g5
S'black_pawn'
p3161
sg7
S'a5'
p3162
sa(dp3163
g7
S'a6'
p3164
sa(dp3165
g7
S'a7'
p3166
sa(dp3167
g7
S'a8'
p3168
sa(dp3169
g7
S'b1'
p3170
sa(dp3171
g7
S'b2'
p3172
sa(dp3173
g5
S'white_pawn'
p3174
sg7
S'b3'
p3175
sa(dp3176
g5
S'black_pawn'
p3177
sg7
S'b4'
p3178
sa(dp3179
g7
S'b5'
p3180
sa(dp3181
g7
S'b6'
p3182
sa(dp3183
g7
S'b7'
p3184
sa(dp3185
g7
S'b8'
p3186
sa(dp3187
g5
S'white_bishop'
p3188
sg7
S'c1'
p3189
sa(dp3190
g5
S'white_pawn'
p3191
sg7
S'c2'
p3192
sa(dp3193
g7
S'c3'
p3194
sa(dp3195
g7
S'c4'
p3196
sa(dp3197
g7
S'c5'
p3198
sa(dp3199
g7
S'c6'
p3200
sa(dp3201
g7
S'c7'
p3202
sa(dp3203
g5
S'black_rook'
p3204
sg7
S'c8'
p3205
sa(dp3206
g7
S'd1'
p3207
sa(dp3208
g7
S'd2'
p3209
sa(dp3210
g5
S'white_pawn'
p3211
sg7
S'd3'
p3212
sa(dp3213
g5
S'white_king'
p3214
sg7
S'd4'
p3215
sa(dp3216
g5
S'black_pawn'
p3217
sg7
S'd5'
p3218
sa(dp3219
g5
S'white_rook'
p3220
sg7
S'd6'
p3221
sa(dp3222
g7
S'd7'
p3223
sa(dp3224
g7
S'd8'
p3225
sa(dp3226
g7
S'e1'
p3227
sa(dp3228
g7
S'e2'
p3229
sa(dp3230
g7
S'e3'
p3231
sa(dp3232
g7
S'e4'
p3233
sa(dp3234
g7
S'e5'
p3235
sa(dp3236
g7
S'e6'
p3237
sa(dp3238
g7
S'e7'
p3239
sa(dp3240
g7
S'e8'
p3241
sa(dp3242
g7
S'f1'
p3243
sa(dp3244
g7
S'f2'
p3245
sa(dp3246
g7
S'f3'
p3247
sa(dp3248
g5
S'white_pawn'
p3249
sg7
S'f4'
p3250
sa(dp3251
g7
S'f5'
p3252
sa(dp3253
g7
S'f6'
p3254
sa(dp3255
g5
S'black_king'
p3256
sg7
S'f7'
p3257
sa(dp3258
g7
S'f8'
p3259
sa(dp3260
g7
S'g1'
p3261
sa(dp3262
g7
S'g2'
p3263
sa(dp3264
g7
S'g3'
p3265
sa(dp3266
g5
S'white_pawn'
p3267
sg7
S'g4'
p3268
sa(dp3269
g7
S'g5'
p3270
sa(dp3271
g7
S'g6'
p3272
sa(dp3273
g5
S'black_pawn'
p3274
sg7
S'g7'
p3275
sa(dp3276
g7
S'g8'
p3277
sa(dp3278
g7
S'h1'
p3279
sa(dp3280
g7
S'h2'
p3281
sa(dp3282
g7
S'h3'
p3283
sa(dp3284
g5
S'black_bishop'
p3285
sg7
S'h4'
p3286
sa(dp3287
g7
S'h5'
p3288
sa(dp3289
g5
S'black_pawn'
p3290
sg7
S'h6'
p3291
sa(dp3292
g7
S'h7'
p3293
sa(dp3294
g7
S'h8'
p3295
saag2543
aa.