(lp0
(lp1
S'1. e4 Nf6'
p2
a(lp3
(dp4
S'piece'
p5
S'white_rook'
p6
sS'location'
p7
S'a1'
p8
sa(dp9
g5
S'white_pawn'
p10
sg7
S'a2'
p11
sa(dp12
g7
S'a3'
p13
sa(dp14
g7
S'a4'
p15
sa(dp16
g7
S'a5'
p17
sa(dp18
g7
S'a6'
p19
sa(dp20
g5
S'black_pawn'
p21
sg7
S'a7'
p22
sa(dp23
g5
S'black_rook'
p24
sg7
S'a8'
p25
sa(dp26
g5
S'white_knight'
p27
sg7
S'b1'
p28
sa(dp29
g5
S'white_pawn'
p30
sg7
S'b2'
p31
sa(dp32
g7
S'b3'
p33
sa(dp34
g7
S'b4'
p35
sa(dp36
g7
S'b5'
p37
sa(dp38
g7
S'b6'
p39
sa(dp40
g5
S'black_pawn'
p41
sg7
S'b7'
p42
sa(dp43
g5
S'black_knight'
p44
sg7
S'b8'
p45
sa(dp46
g5
S'white_bishop'
p47
sg7
S'c1'
p48
sa(dp49
g5
S'white_pawn'
p50
sg7
S'c2'
p51
sa(dp52
g7
S'c3'
p53
sa(dp54
g7
S'c4'
p55
sa(dp56
g7
S'c5'
p57
sa(dp58
g7
S'c6'
p59
sa(dp60
g5
S'black_pawn'
p61
sg7
S'c7'
p62
sa(dp63
g5
S'black_bishop'
p64
sg7
S'c8'
p65
sa(dp66
g5
S'white_queen'
p67
sg7
S'd1'
p68
sa(dp69
g5
S'white_pawn'
p70
sg7
S'd2'
p71
sa(dp72
g7
S'd3'
p73
sa(dp74
g7
S'd4'
p75
sa(dp76
g7
S'd5'
p77
sa(dp78
g7
S'd6'
p79
sa(dp80
g5
S'black_pawn'
p81
sg7
S'd7'
p82
sa(dp83
g5
S'black_queen'
p84
sg7
S'd8'
p85
sa(dp86
g5
S'white_king'
p87
sg7
S'e1'
p88
sa(dp89
g7
S'e2'
p90
sa(dp91
g7
S'e3'
p92
sa(dp93
g5
S'white_pawn'
p94
sg7
S'e4'
p95
sa(dp96
g7
S'e5'
p97
sa(dp98
g7
S'e6'
p99
sa(dp100
g5
S'black_pawn'
p101
sg7
S'e7'
p102
sa(dp103
g5
S'black_king'
p104
sg7
S'e8'
p105
sa(dp106
g5
S'white_bishop'
p107
sg7
S'f1'
p108
sa(dp109
g5
S'white_pawn'
p110
sg7
S'f2'
p111
sa(dp112
g7
S'f3'
p113
sa(dp114
g7
S'f4'
p115
sa(dp116
g7
S'f5'
p117
sa(dp118
g5
S'black_knight'
p119
sg7
S'f6'
p120
sa(dp121
g5
S'black_pawn'
p122
sg7
S'f7'
p123
sa(dp124
g5
S'black_bishop'
p125
sg7
S'f8'
p126
sa(dp127
g5
S'white_knight'
p128
sg7
S'g1'
p129
sa(dp130
g5
S'white_pawn'
p131
sg7
S'g2'
p132
sa(dp133
g7
S'g3'
p134
sa(dp135
g7
S'g4'
p136
sa(dp137
g7
S'g5'
p138
sa(dp139
g7
S'g6'
p140
sa(dp141
g5
S'black_pawn'
p142
sg7
S'g7'
p143
sa(dp144
g7
S'g8'
p145
sa(dp146
g5
S'white_rook'
p147
sg7
S'h1'
p148
sa(dp149
g5
S'white_pawn'
p150
sg7
S'h2'
p151
sa(dp152
g7
S'h3'
p153
sa(dp154
g7
S'h4'
p155
sa(dp156
g7
S'h5'
p157
sa(dp158
g7
S'h6'
p159
sa(dp160
g5
S'black_pawn'
p161
sg7
S'h7'
p162
sa(dp163
g5
S'black_rook'
p164
sg7
S'h8'
p165
saaVnot surprisingly, this is evaluated as the strongest reply to e4, without thinking too much ahead; attack the pawn... the Alekhine defense...
p166
aa(lp167
S'2. e5'
p168
a(lp169
(dp170
g5
S'white_rook'
p171
sg7
S'a1'
p172
sa(dp173
g5
S'white_pawn'
p174
sg7
S'a2'
p175
sa(dp176
g7
S'a3'
p177
sa(dp178
g7
S'a4'
p179
sa(dp180
g7
S'a5'
p181
sa(dp182
g7
S'a6'
p183
sa(dp184
g5
S'black_pawn'
p185
sg7
S'a7'
p186
sa(dp187
g5
S'black_rook'
p188
sg7
S'a8'
p189
sa(dp190
g5
S'white_knight'
p191
sg7
S'b1'
p192
sa(dp193
g5
S'white_pawn'
p194
sg7
S'b2'
p195
sa(dp196
g7
S'b3'
p197
sa(dp198
g7
S'b4'
p199
sa(dp200
g7
S'b5'
p201
sa(dp202
g7
S'b6'
p203
sa(dp204
g5
S'black_pawn'
p205
sg7
S'b7'
p206
sa(dp207
g5
S'black_knight'
p208
sg7
S'b8'
p209
sa(dp210
g5
S'white_bishop'
p211
sg7
S'c1'
p212
sa(dp213
g5
S'white_pawn'
p214
sg7
S'c2'
p215
sa(dp216
g7
S'c3'
p217
sa(dp218
g7
S'c4'
p219
sa(dp220
g7
S'c5'
p221
sa(dp222
g7
S'c6'
p223
sa(dp224
g5
S'black_pawn'
p225
sg7
S'c7'
p226
sa(dp227
g5
S'black_bishop'
p228
sg7
S'c8'
p229
sa(dp230
g5
S'white_queen'
p231
sg7
S'd1'
p232
sa(dp233
g5
S'white_pawn'
p234
sg7
S'd2'
p235
sa(dp236
g7
S'd3'
p237
sa(dp238
g7
S'd4'
p239
sa(dp240
g7
S'd5'
p241
sa(dp242
g7
S'd6'
p243
sa(dp244
g5
S'black_pawn'
p245
sg7
S'd7'
p246
sa(dp247
g5
S'black_queen'
p248
sg7
S'd8'
p249
sa(dp250
g5
S'white_king'
p251
sg7
S'e1'
p252
sa(dp253
g7
S'e2'
p254
sa(dp255
g7
S'e3'
p256
sa(dp257
g7
S'e4'
p258
sa(dp259
g5
S'white_pawn'
p260
sg7
S'e5'
p261
sa(dp262
g7
S'e6'
p263
sa(dp264
g5
S'black_pawn'
p265
sg7
S'e7'
p266
sa(dp267
g5
S'black_king'
p268
sg7
S'e8'
p269
sa(dp270
g5
S'white_bishop'
p271
sg7
S'f1'
p272
sa(dp273
g5
S'white_pawn'
p274
sg7
S'f2'
p275
sa(dp276
g7
S'f3'
p277
sa(dp278
g7
S'f4'
p279
sa(dp280
g7
S'f5'
p281
sa(dp282
g5
S'black_knight'
p283
sg7
S'f6'
p284
sa(dp285
g5
S'black_pawn'
p286
sg7
S'f7'
p287
sa(dp288
g5
S'black_bishop'
p289
sg7
S'f8'
p290
sa(dp291
g5
S'white_knight'
p292
sg7
S'g1'
p293
sa(dp294
g5
S'white_pawn'
p295
sg7
S'g2'
p296
sa(dp297
g7
S'g3'
p298
sa(dp299
g7
S'g4'
p300
sa(dp301
g7
S'g5'
p302
sa(dp303
g7
S'g6'
p304
sa(dp305
g5
S'black_pawn'
p306
sg7
S'g7'
p307
sa(dp308
g7
S'g8'
p309
sa(dp310
g5
S'white_rook'
p311
sg7
S'h1'
p312
sa(dp313
g5
S'white_pawn'
p314
sg7
S'h2'
p315
sa(dp316
g7
S'h3'
p317
sa(dp318
g7
S'h4'
p319
sa(dp320
g7
S'h5'
p321
sa(dp322
g7
S'h6'
p323
sa(dp324
g5
S'black_pawn'
p325
sg7
S'h7'
p326
sa(dp327
g5
S'black_rook'
p328
sg7
S'h8'
p329
saaVthe idea behind the Alekhine defense, is to lure Whites' center pawns forward in order to be able to attack them more easily...
p330
aa(lp331
S'2... Nd5 3. d4 Nc6'
p332
a(lp333
(dp334
g5
S'white_rook'
p335
sg7
S'a1'
p336
sa(dp337
g5
S'white_pawn'
p338
sg7
S'a2'
p339
sa(dp340
g7
S'a3'
p341
sa(dp342
g7
S'a4'
p343
sa(dp344
g7
S'a5'
p345
sa(dp346
g7
S'a6'
p347
sa(dp348
g5
S'black_pawn'
p349
sg7
S'a7'
p350
sa(dp351
g5
S'black_rook'
p352
sg7
S'a8'
p353
sa(dp354
g5
S'white_knight'
p355
sg7
S'b1'
p356
sa(dp357
g5
S'white_pawn'
p358
sg7
S'b2'
p359
sa(dp360
g7
S'b3'
p361
sa(dp362
g7
S'b4'
p363
sa(dp364
g7
S'b5'
p365
sa(dp366
g7
S'b6'
p367
sa(dp368
g5
S'black_pawn'
p369
sg7
S'b7'
p370
sa(dp371
g7
S'b8'
p372
sa(dp373
g5
S'white_bishop'
p374
sg7
S'c1'
p375
sa(dp376
g5
S'white_pawn'
p377
sg7
S'c2'
p378
sa(dp379
g7
S'c3'
p380
sa(dp381
g7
S'c4'
p382
sa(dp383
g7
S'c5'
p384
sa(dp385
g5
S'black_knight'
p386
sg7
S'c6'
p387
sa(dp388
g5
S'black_pawn'
p389
sg7
S'c7'
p390
sa(dp391
g5
S'black_bishop'
p392
sg7
S'c8'
p393
sa(dp394
g5
S'white_queen'
p395
sg7
S'd1'
p396
sa(dp397
g7
S'd2'
p398
sa(dp399
g7
S'd3'
p400
sa(dp401
g5
S'white_pawn'
p402
sg7
S'd4'
p403
sa(dp404
g5
S'black_knight'
p405
sg7
S'd5'
p406
sa(dp407
g7
S'd6'
p408
sa(dp409
g5
S'black_pawn'
p410
sg7
S'd7'
p411
sa(dp412
g5
S'black_queen'
p413
sg7
S'd8'
p414
sa(dp415
g5
S'white_king'
p416
sg7
S'e1'
p417
sa(dp418
g7
S'e2'
p419
sa(dp420
g7
S'e3'
p421
sa(dp422
g7
S'e4'
p423
sa(dp424
g5
S'white_pawn'
p425
sg7
S'e5'
p426
sa(dp427
g7
S'e6'
p428
sa(dp429
g5
S'black_pawn'
p430
sg7
S'e7'
p431
sa(dp432
g5
S'black_king'
p433
sg7
S'e8'
p434
sa(dp435
g5
S'white_bishop'
p436
sg7
S'f1'
p437
sa(dp438
g5
S'white_pawn'
p439
sg7
S'f2'
p440
sa(dp441
g7
S'f3'
p442
sa(dp443
g7
S'f4'
p444
sa(dp445
g7
S'f5'
p446
sa(dp447
g7
S'f6'
p448
sa(dp449
g5
S'black_pawn'
p450
sg7
S'f7'
p451
sa(dp452
g5
S'black_bishop'
p453
sg7
S'f8'
p454
sa(dp455
g5
S'white_knight'
p456
sg7
S'g1'
p457
sa(dp458
g5
S'white_pawn'
p459
sg7
S'g2'
p460
sa(dp461
g7
S'g3'
p462
sa(dp463
g7
S'g4'
p464
sa(dp465
g7
S'g5'
p466
sa(dp467
g7
S'g6'
p468
sa(dp469
g5
S'black_pawn'
p470
sg7
S'g7'
p471
sa(dp472
g7
S'g8'
p473
sa(dp474
g5
S'white_rook'
p475
sg7
S'h1'
p476
sa(dp477
g5
S'white_pawn'
p478
sg7
S'h2'
p479
sa(dp480
g7
S'h3'
p481
sa(dp482
g7
S'h4'
p483
sa(dp484
g7
S'h5'
p485
sa(dp486
g7
S'h6'
p487
sa(dp488
g5
S'black_pawn'
p489
sg7
S'h7'
p490
sa(dp491
g5
S'black_rook'
p492
sg7
S'h8'
p493
saaVor straightaway d6...
p494
aa(lp495
S'4. Nf3'
p496
a(lp497
(dp498
g5
S'white_rook'
p499
sg7
S'a1'
p500
sa(dp501
g5
S'white_pawn'
p502
sg7
S'a2'
p503
sa(dp504
g7
S'a3'
p505
sa(dp506
g7
S'a4'
p507
sa(dp508
g7
S'a5'
p509
sa(dp510
g7
S'a6'
p511
sa(dp512
g5
S'black_pawn'
p513
sg7
S'a7'
p514
sa(dp515
g5
S'black_rook'
p516
sg7
S'a8'
p517
sa(dp518
g5
S'white_knight'
p519
sg7
S'b1'
p520
sa(dp521
g5
S'white_pawn'
p522
sg7
S'b2'
p523
sa(dp524
g7
S'b3'
p525
sa(dp526
g7
S'b4'
p527
sa(dp528
g7
S'b5'
p529
sa(dp530
g7
S'b6'
p531
sa(dp532
g5
S'black_pawn'
p533
sg7
S'b7'
p534
sa(dp535
g7
S'b8'
p536
sa(dp537
g5
S'white_bishop'
p538
sg7
S'c1'
p539
sa(dp540
g5
S'white_pawn'
p541
sg7
S'c2'
p542
sa(dp543
g7
S'c3'
p544
sa(dp545
g7
S'c4'
p546
sa(dp547
g7
S'c5'
p548
sa(dp549
g5
S'black_knight'
p550
sg7
S'c6'
p551
sa(dp552
g5
S'black_pawn'
p553
sg7
S'c7'
p554
sa(dp555
g5
S'black_bishop'
p556
sg7
S'c8'
p557
sa(dp558
g5
S'white_queen'
p559
sg7
S'd1'
p560
sa(dp561
g7
S'd2'
p562
sa(dp563
g7
S'd3'
p564
sa(dp565
g5
S'white_pawn'
p566
sg7
S'd4'
p567
sa(dp568
g5
S'black_knight'
p569
sg7
S'd5'
p570
sa(dp571
g7
S'd6'
p572
sa(dp573
g5
S'black_pawn'
p574
sg7
S'd7'
p575
sa(dp576
g5
S'black_queen'
p577
sg7
S'd8'
p578
sa(dp579
g5
S'white_king'
p580
sg7
S'e1'
p581
sa(dp582
g7
S'e2'
p583
sa(dp584
g7
S'e3'
p585
sa(dp586
g7
S'e4'
p587
sa(dp588
g5
S'white_pawn'
p589
sg7
S'e5'
p590
sa(dp591
g7
S'e6'
p592
sa(dp593
g5
S'black_pawn'
p594
sg7
S'e7'
p595
sa(dp596
g5
S'black_king'
p597
sg7
S'e8'
p598
sa(dp599
g5
S'white_bishop'
p600
sg7
S'f1'
p601
sa(dp602
g5
S'white_pawn'
p603
sg7
S'f2'
p604
sa(dp605
g5
S'white_knight'
p606
sg7
S'f3'
p607
sa(dp608
g7
S'f4'
p609
sa(dp610
g7
S'f5'
p611
sa(dp612
g7
S'f6'
p613
sa(dp614
g5
S'black_pawn'
p615
sg7
S'f7'
p616
sa(dp617
g5
S'black_bishop'
p618
sg7
S'f8'
p619
sa(dp620
g7
S'g1'
p621
sa(dp622
g5
S'white_pawn'
p623
sg7
S'g2'
p624
sa(dp625
g7
S'g3'
p626
sa(dp627
g7
S'g4'
p628
sa(dp629
g7
S'g5'
p630
sa(dp631
g7
S'g6'
p632
sa(dp633
g5
S'black_pawn'
p634
sg7
S'g7'
p635
sa(dp636
g7
S'g8'
p637
sa(dp638
g5
S'white_rook'
p639
sg7
S'h1'
p640
sa(dp641
g5
S'white_pawn'
p642
sg7
S'h2'
p643
sa(dp644
g7
S'h3'
p645
sa(dp646
g7
S'h4'
p647
sa(dp648
g7
S'h5'
p649
sa(dp650
g7
S'h6'
p651
sa(dp652
g5
S'black_pawn'
p653
sg7
S'h7'
p654
sa(dp655
g5
S'black_rook'
p656
sg7
S'h8'
p657
saaVthe Flohr approach...
p658
aa(lp659
S'4... e6'
p660
a(lp661
(dp662
g5
S'white_rook'
p663
sg7
S'a1'
p664
sa(dp665
g5
S'white_pawn'
p666
sg7
S'a2'
p667
sa(dp668
g7
S'a3'
p669
sa(dp670
g7
S'a4'
p671
sa(dp672
g7
S'a5'
p673
sa(dp674
g7
S'a6'
p675
sa(dp676
g5
S'black_pawn'
p677
sg7
S'a7'
p678
sa(dp679
g5
S'black_rook'
p680
sg7
S'a8'
p681
sa(dp682
g5
S'white_knight'
p683
sg7
S'b1'
p684
sa(dp685
g5
S'white_pawn'
p686
sg7
S'b2'
p687
sa(dp688
g7
S'b3'
p689
sa(dp690
g7
S'b4'
p691
sa(dp692
g7
S'b5'
p693
sa(dp694
g7
S'b6'
p695
sa(dp696
g5
S'black_pawn'
p697
sg7
S'b7'
p698
sa(dp699
g7
S'b8'
p700
sa(dp701
g5
S'white_bishop'
p702
sg7
S'c1'
p703
sa(dp704
g5
S'white_pawn'
p705
sg7
S'c2'
p706
sa(dp707
g7
S'c3'
p708
sa(dp709
g7
S'c4'
p710
sa(dp711
g7
S'c5'
p712
sa(dp713
g5
S'black_knight'
p714
sg7
S'c6'
p715
sa(dp716
g5
S'black_pawn'
p717
sg7
S'c7'
p718
sa(dp719
g5
S'black_bishop'
p720
sg7
S'c8'
p721
sa(dp722
g5
S'white_queen'
p723
sg7
S'd1'
p724
sa(dp725
g7
S'd2'
p726
sa(dp727
g7
S'd3'
p728
sa(dp729
g5
S'white_pawn'
p730
sg7
S'd4'
p731
sa(dp732
g5
S'black_knight'
p733
sg7
S'd5'
p734
sa(dp735
g7
S'd6'
p736
sa(dp737
g5
S'black_pawn'
p738
sg7
S'd7'
p739
sa(dp740
g5
S'black_queen'
p741
sg7
S'd8'
p742
sa(dp743
g5
S'white_king'
p744
sg7
S'e1'
p745
sa(dp746
g7
S'e2'
p747
sa(dp748
g7
S'e3'
p749
sa(dp750
g7
S'e4'
p751
sa(dp752
g5
S'white_pawn'
p753
sg7
S'e5'
p754
sa(dp755
g5
S'black_pawn'
p756
sg7
S'e6'
p757
sa(dp758
g7
S'e7'
p759
sa(dp760
g5
S'black_king'
p761
sg7
S'e8'
p762
sa(dp763
g5
S'white_bishop'
p764
sg7
S'f1'
p765
sa(dp766
g5
S'white_pawn'
p767
sg7
S'f2'
p768
sa(dp769
g5
S'white_knight'
p770
sg7
S'f3'
p771
sa(dp772
g7
S'f4'
p773
sa(dp774
g7
S'f5'
p775
sa(dp776
g7
S'f6'
p777
sa(dp778
g5
S'black_pawn'
p779
sg7
S'f7'
p780
sa(dp781
g5
S'black_bishop'
p782
sg7
S'f8'
p783
sa(dp784
g7
S'g1'
p785
sa(dp786
g5
S'white_pawn'
p787
sg7
S'g2'
p788
sa(dp789
g7
S'g3'
p790
sa(dp791
g7
S'g4'
p792
sa(dp793
g7
S'g5'
p794
sa(dp795
g7
S'g6'
p796
sa(dp797
g5
S'black_pawn'
p798
sg7
S'g7'
p799
sa(dp800
g7
S'g8'
p801
sa(dp802
g5
S'white_rook'
p803
sg7
S'h1'
p804
sa(dp805
g5
S'white_pawn'
p806
sg7
S'h2'
p807
sa(dp808
g7
S'h3'
p809
sa(dp810
g7
S'h4'
p811
sa(dp812
g7
S'h5'
p813
sa(dp814
g7
S'h6'
p815
sa(dp816
g5
S'black_pawn'
p817
sg7
S'h7'
p818
sa(dp819
g5
S'black_rook'
p820
sg7
S'h8'
p821
saaVpreparing Bb4+ and a possible attack supported by both Knights; much sounder is d6, to open a diagonal for Bc8 and prepare Bg4... this will bury Bc8 for a very long time...
p822
aa(lp823
S'5. c4'
p824
a(lp825
(dp826
g5
S'white_rook'
p827
sg7
S'a1'
p828
sa(dp829
g5
S'white_pawn'
p830
sg7
S'a2'
p831
sa(dp832
g7
S'a3'
p833
sa(dp834
g7
S'a4'
p835
sa(dp836
g7
S'a5'
p837
sa(dp838
g7
S'a6'
p839
sa(dp840
g5
S'black_pawn'
p841
sg7
S'a7'
p842
sa(dp843
g5
S'black_rook'
p844
sg7
S'a8'
p845
sa(dp846
g5
S'white_knight'
p847
sg7
S'b1'
p848
sa(dp849
g5
S'white_pawn'
p850
sg7
S'b2'
p851
sa(dp852
g7
S'b3'
p853
sa(dp854
g7
S'b4'
p855
sa(dp856
g7
S'b5'
p857
sa(dp858
g7
S'b6'
p859
sa(dp860
g5
S'black_pawn'
p861
sg7
S'b7'
p862
sa(dp863
g7
S'b8'
p864
sa(dp865
g5
S'white_bishop'
p866
sg7
S'c1'
p867
sa(dp868
g7
S'c2'
p869
sa(dp870
g7
S'c3'
p871
sa(dp872
g5
S'white_pawn'
p873
sg7
S'c4'
p874
sa(dp875
g7
S'c5'
p876
sa(dp877
g5
S'black_knight'
p878
sg7
S'c6'
p879
sa(dp880
g5
S'black_pawn'
p881
sg7
S'c7'
p882
sa(dp883
g5
S'black_bishop'
p884
sg7
S'c8'
p885
sa(dp886
g5
S'white_queen'
p887
sg7
S'd1'
p888
sa(dp889
g7
S'd2'
p890
sa(dp891
g7
S'd3'
p892
sa(dp893
g5
S'white_pawn'
p894
sg7
S'd4'
p895
sa(dp896
g5
S'black_knight'
p897
sg7
S'd5'
p898
sa(dp899
g7
S'd6'
p900
sa(dp901
g5
S'black_pawn'
p902
sg7
S'd7'
p903
sa(dp904
g5
S'black_queen'
p905
sg7
S'd8'
p906
sa(dp907
g5
S'white_king'
p908
sg7
S'e1'
p909
sa(dp910
g7
S'e2'
p911
sa(dp912
g7
S'e3'
p913
sa(dp914
g7
S'e4'
p915
sa(dp916
g5
S'white_pawn'
p917
sg7
S'e5'
p918
sa(dp919
g5
S'black_pawn'
p920
sg7
S'e6'
p921
sa(dp922
g7
S'e7'
p923
sa(dp924
g5
S'black_king'
p925
sg7
S'e8'
p926
sa(dp927
g5
S'white_bishop'
p928
sg7
S'f1'
p929
sa(dp930
g5
S'white_pawn'
p931
sg7
S'f2'
p932
sa(dp933
g5
S'white_knight'
p934
sg7
S'f3'
p935
sa(dp936
g7
S'f4'
p937
sa(dp938
g7
S'f5'
p939
sa(dp940
g7
S'f6'
p941
sa(dp942
g5
S'black_pawn'
p943
sg7
S'f7'
p944
sa(dp945
g5
S'black_bishop'
p946
sg7
S'f8'
p947
sa(dp948
g7
S'g1'
p949
sa(dp950
g5
S'white_pawn'
p951
sg7
S'g2'
p952
sa(dp953
g7
S'g3'
p954
sa(dp955
g7
S'g4'
p956
sa(dp957
g7
S'g5'
p958
sa(dp959
g7
S'g6'
p960
sa(dp961
g5
S'black_pawn'
p962
sg7
S'g7'
p963
sa(dp964
g7
S'g8'
p965
sa(dp966
g5
S'white_rook'
p967
sg7
S'h1'
p968
sa(dp969
g5
S'white_pawn'
p970
sg7
S'h2'
p971
sa(dp972
g7
S'h3'
p973
sa(dp974
g7
S'h4'
p975
sa(dp976
g7
S'h5'
p977
sa(dp978
g7
S'h6'
p979
sa(dp980
g5
S'black_pawn'
p981
sg7
S'h7'
p982
sa(dp983
g5
S'black_rook'
p984
sg7
S'h8'
p985
saaValso a3 would have been an option first, to rule out Nb4 of Bb4; but this works much better...
p986
aa(lp987
S'5... Bb4+'
p988
a(lp989
(dp990
g5
S'white_rook'
p991
sg7
S'a1'
p992
sa(dp993
g5
S'white_pawn'
p994
sg7
S'a2'
p995
sa(dp996
g7
S'a3'
p997
sa(dp998
g7
S'a4'
p999
sa(dp1000
g7
S'a5'
p1001
sa(dp1002
g7
S'a6'
p1003
sa(dp1004
g5
S'black_pawn'
p1005
sg7
S'a7'
p1006
sa(dp1007
g5
S'black_rook'
p1008
sg7
S'a8'
p1009
sa(dp1010
g5
S'white_knight'
p1011
sg7
S'b1'
p1012
sa(dp1013
g5
S'white_pawn'
p1014
sg7
S'b2'
p1015
sa(dp1016
g7
S'b3'
p1017
sa(dp1018
g5
S'black_bishop'
p1019
sg7
S'b4'
p1020
sa(dp1021
g7
S'b5'
p1022
sa(dp1023
g7
S'b6'
p1024
sa(dp1025
g5
S'black_pawn'
p1026
sg7
S'b7'
p1027
sa(dp1028
g7
S'b8'
p1029
sa(dp1030
g5
S'white_bishop'
p1031
sg7
S'c1'
p1032
sa(dp1033
g7
S'c2'
p1034
sa(dp1035
g7
S'c3'
p1036
sa(dp1037
g5
S'white_pawn'
p1038
sg7
S'c4'
p1039
sa(dp1040
g7
S'c5'
p1041
sa(dp1042
g5
S'black_knight'
p1043
sg7
S'c6'
p1044
sa(dp1045
g5
S'black_pawn'
p1046
sg7
S'c7'
p1047
sa(dp1048
g5
S'black_bishop'
p1049
sg7
S'c8'
p1050
sa(dp1051
g5
S'white_queen'
p1052
sg7
S'd1'
p1053
sa(dp1054
g7
S'd2'
p1055
sa(dp1056
g7
S'd3'
p1057
sa(dp1058
g5
S'white_pawn'
p1059
sg7
S'd4'
p1060
sa(dp1061
g5
S'black_knight'
p1062
sg7
S'd5'
p1063
sa(dp1064
g7
S'd6'
p1065
sa(dp1066
g5
S'black_pawn'
p1067
sg7
S'd7'
p1068
sa(dp1069
g5
S'black_queen'
p1070
sg7
S'd8'
p1071
sa(dp1072
g5
S'white_king'
p1073
sg7
S'e1'
p1074
sa(dp1075
g7
S'e2'
p1076
sa(dp1077
g7
S'e3'
p1078
sa(dp1079
g7
S'e4'
p1080
sa(dp1081
g5
S'white_pawn'
p1082
sg7
S'e5'
p1083
sa(dp1084
g5
S'black_pawn'
p1085
sg7
S'e6'
p1086
sa(dp1087
g7
S'e7'
p1088
sa(dp1089
g5
S'black_king'
p1090
sg7
S'e8'
p1091
sa(dp1092
g5
S'white_bishop'
p1093
sg7
S'f1'
p1094
sa(dp1095
g5
S'white_pawn'
p1096
sg7
S'f2'
p1097
sa(dp1098
g5
S'white_knight'
p1099
sg7
S'f3'
p1100
sa(dp1101
g7
S'f4'
p1102
sa(dp1103
g7
S'f5'
p1104
sa(dp1105
g7
S'f6'
p1106
sa(dp1107
g5
S'black_pawn'
p1108
sg7
S'f7'
p1109
sa(dp1110
g7
S'f8'
p1111
sa(dp1112
g7
S'g1'
p1113
sa(dp1114
g5
S'white_pawn'
p1115
sg7
S'g2'
p1116
sa(dp1117
g7
S'g3'
p1118
sa(dp1119
g7
S'g4'
p1120
sa(dp1121
g7
S'g5'
p1122
sa(dp1123
g7
S'g6'
p1124
sa(dp1125
g5
S'black_pawn'
p1126
sg7
S'g7'
p1127
sa(dp1128
g7
S'g8'
p1129
sa(dp1130
g5
S'white_rook'
p1131
sg7
S'h1'
p1132
sa(dp1133
g5
S'white_pawn'
p1134
sg7
S'h2'
p1135
sa(dp1136
g7
S'h3'
p1137
sa(dp1138
g7
S'h4'
p1139
sa(dp1140
g7
S'h5'
p1141
sa(dp1142
g7
S'h6'
p1143
sa(dp1144
g5
S'black_pawn'
p1145
sg7
S'h7'
p1146
sa(dp1147
g5
S'black_rook'
p1148
sg7
S'h8'
p1149
saaVafter Nb6, d5, exd5, cxd5, Bb4+, Nc3, Ne7, d6, cxd6, exd6, Ned5, Qe2+, Kf8 is not nice; but better than this...
p1150
aa(lp1151
S'6. Bd2 Bxd2+'
p1152
a(lp1153
(dp1154
g5
S'white_rook'
p1155
sg7
S'a1'
p1156
sa(dp1157
g5
S'white_pawn'
p1158
sg7
S'a2'
p1159
sa(dp1160
g7
S'a3'
p1161
sa(dp1162
g7
S'a4'
p1163
sa(dp1164
g7
S'a5'
p1165
sa(dp1166
g7
S'a6'
p1167
sa(dp1168
g5
S'black_pawn'
p1169
sg7
S'a7'
p1170
sa(dp1171
g5
S'black_rook'
p1172
sg7
S'a8'
p1173
sa(dp1174
g5
S'white_knight'
p1175
sg7
S'b1'
p1176
sa(dp1177
g5
S'white_pawn'
p1178
sg7
S'b2'
p1179
sa(dp1180
g7
S'b3'
p1181
sa(dp1182
g7
S'b4'
p1183
sa(dp1184
g7
S'b5'
p1185
sa(dp1186
g7
S'b6'
p1187
sa(dp1188
g5
S'black_pawn'
p1189
sg7
S'b7'
p1190
sa(dp1191
g7
S'b8'
p1192
sa(dp1193
g7
S'c1'
p1194
sa(dp1195
g7
S'c2'
p1196
sa(dp1197
g7
S'c3'
p1198
sa(dp1199
g5
S'white_pawn'
p1200
sg7
S'c4'
p1201
sa(dp1202
g7
S'c5'
p1203
sa(dp1204
g5
S'black_knight'
p1205
sg7
S'c6'
p1206
sa(dp1207
g5
S'black_pawn'
p1208
sg7
S'c7'
p1209
sa(dp1210
g5
S'black_bishop'
p1211
sg7
S'c8'
p1212
sa(dp1213
g5
S'white_queen'
p1214
sg7
S'd1'
p1215
sa(dp1216
g5
S'black_bishop'
p1217
sg7
S'd2'
p1218
sa(dp1219
g7
S'd3'
p1220
sa(dp1221
g5
S'white_pawn'
p1222
sg7
S'd4'
p1223
sa(dp1224
g5
S'black_knight'
p1225
sg7
S'd5'
p1226
sa(dp1227
g7
S'd6'
p1228
sa(dp1229
g5
S'black_pawn'
p1230
sg7
S'd7'
p1231
sa(dp1232
g5
S'black_queen'
p1233
sg7
S'd8'
p1234
sa(dp1235
g5
S'white_king'
p1236
sg7
S'e1'
p1237
sa(dp1238
g7
S'e2'
p1239
sa(dp1240
g7
S'e3'
p1241
sa(dp1242
g7
S'e4'
p1243
sa(dp1244
g5
S'white_pawn'
p1245
sg7
S'e5'
p1246
sa(dp1247
g5
S'black_pawn'
p1248
sg7
S'e6'
p1249
sa(dp1250
g7
S'e7'
p1251
sa(dp1252
g5
S'black_king'
p1253
sg7
S'e8'
p1254
sa(dp1255
g5
S'white_bishop'
p1256
sg7
S'f1'
p1257
sa(dp1258
g5
S'white_pawn'
p1259
sg7
S'f2'
p1260
sa(dp1261
g5
S'white_knight'
p1262
sg7
S'f3'
p1263
sa(dp1264
g7
S'f4'
p1265
sa(dp1266
g7
S'f5'
p1267
sa(dp1268
g7
S'f6'
p1269
sa(dp1270
g5
S'black_pawn'
p1271
sg7
S'f7'
p1272
sa(dp1273
g7
S'f8'
p1274
sa(dp1275
g7
S'g1'
p1276
sa(dp1277
g5
S'white_pawn'
p1278
sg7
S'g2'
p1279
sa(dp1280
g7
S'g3'
p1281
sa(dp1282
g7
S'g4'
p1283
sa(dp1284
g7
S'g5'
p1285
sa(dp1286
g7
S'g6'
p1287
sa(dp1288
g5
S'black_pawn'
p1289
sg7
S'g7'
p1290
sa(dp1291
g7
S'g8'
p1292
sa(dp1293
g5
S'white_rook'
p1294
sg7
S'h1'
p1295
sa(dp1296
g5
S'white_pawn'
p1297
sg7
S'h2'
p1298
sa(dp1299
g7
S'h3'
p1300
sa(dp1301
g7
S'h4'
p1302
sa(dp1303
g7
S'h5'
p1304
sa(dp1305
g7
S'h6'
p1306
sa(dp1307
g5
S'black_pawn'
p1308
sg7
S'h7'
p1309
sa(dp1310
g5
S'black_rook'
p1311
sg7
S'h8'
p1312
saaVbetter is Nde7, d5, exd5, Bxb4, Nxb4, a3, Na6, cxd5, 0-0...
p1313
aa(lp1314
S'7. Nbxd2'
p1315
a(lp1316
(dp1317
g5
S'white_rook'
p1318
sg7
S'a1'
p1319
sa(dp1320
g5
S'white_pawn'
p1321
sg7
S'a2'
p1322
sa(dp1323
g7
S'a3'
p1324
sa(dp1325
g7
S'a4'
p1326
sa(dp1327
g7
S'a5'
p1328
sa(dp1329
g7
S'a6'
p1330
sa(dp1331
g5
S'black_pawn'
p1332
sg7
S'a7'
p1333
sa(dp1334
g5
S'black_rook'
p1335
sg7
S'a8'
p1336
sa(dp1337
g7
S'b1'
p1338
sa(dp1339
g5
S'white_pawn'
p1340
sg7
S'b2'
p1341
sa(dp1342
g7
S'b3'
p1343
sa(dp1344
g7
S'b4'
p1345
sa(dp1346
g7
S'b5'
p1347
sa(dp1348
g7
S'b6'
p1349
sa(dp1350
g5
S'black_pawn'
p1351
sg7
S'b7'
p1352
sa(dp1353
g7
S'b8'
p1354
sa(dp1355
g7
S'c1'
p1356
sa(dp1357
g7
S'c2'
p1358
sa(dp1359
g7
S'c3'
p1360
sa(dp1361
g5
S'white_pawn'
p1362
sg7
S'c4'
p1363
sa(dp1364
g7
S'c5'
p1365
sa(dp1366
g5
S'black_knight'
p1367
sg7
S'c6'
p1368
sa(dp1369
g5
S'black_pawn'
p1370
sg7
S'c7'
p1371
sa(dp1372
g5
S'black_bishop'
p1373
sg7
S'c8'
p1374
sa(dp1375
g5
S'white_queen'
p1376
sg7
S'd1'
p1377
sa(dp1378
g5
S'white_knight'
p1379
sg7
S'd2'
p1380
sa(dp1381
g7
S'd3'
p1382
sa(dp1383
g5
S'white_pawn'
p1384
sg7
S'd4'
p1385
sa(dp1386
g5
S'black_knight'
p1387
sg7
S'd5'
p1388
sa(dp1389
g7
S'd6'
p1390
sa(dp1391
g5
S'black_pawn'
p1392
sg7
S'd7'
p1393
sa(dp1394
g5
S'black_queen'
p1395
sg7
S'd8'
p1396
sa(dp1397
g5
S'white_king'
p1398
sg7
S'e1'
p1399
sa(dp1400
g7
S'e2'
p1401
sa(dp1402
g7
S'e3'
p1403
sa(dp1404
g7
S'e4'
p1405
sa(dp1406
g5
S'white_pawn'
p1407
sg7
S'e5'
p1408
sa(dp1409
g5
S'black_pawn'
p1410
sg7
S'e6'
p1411
sa(dp1412
g7
S'e7'
p1413
sa(dp1414
g5
S'black_king'
p1415
sg7
S'e8'
p1416
sa(dp1417
g5
S'white_bishop'
p1418
sg7
S'f1'
p1419
sa(dp1420
g5
S'white_pawn'
p1421
sg7
S'f2'
p1422
sa(dp1423
g5
S'white_knight'
p1424
sg7
S'f3'
p1425
sa(dp1426
g7
S'f4'
p1427
sa(dp1428
g7
S'f5'
p1429
sa(dp1430
g7
S'f6'
p1431
sa(dp1432
g5
S'black_pawn'
p1433
sg7
S'f7'
p1434
sa(dp1435
g7
S'f8'
p1436
sa(dp1437
g7
S'g1'
p1438
sa(dp1439
g5
S'white_pawn'
p1440
sg7
S'g2'
p1441
sa(dp1442
g7
S'g3'
p1443
sa(dp1444
g7
S'g4'
p1445
sa(dp1446
g7
S'g5'
p1447
sa(dp1448
g7
S'g6'
p1449
sa(dp1450
g5
S'black_pawn'
p1451
sg7
S'g7'
p1452
sa(dp1453
g7
S'g8'
p1454
sa(dp1455
g5
S'white_rook'
p1456
sg7
S'h1'
p1457
sa(dp1458
g5
S'white_pawn'
p1459
sg7
S'h2'
p1460
sa(dp1461
g7
S'h3'
p1462
sa(dp1463
g7
S'h4'
p1464
sa(dp1465
g7
S'h5'
p1466
sa(dp1467
g7
S'h6'
p1468
sa(dp1469
g5
S'black_pawn'
p1470
sg7
S'h7'
p1471
sa(dp1472
g5
S'black_rook'
p1473
sg7
S'h8'
p1474
saaVobjectively stronger is Qxd2, Nb6, d5, Ne7, d6, cxd6, exd6, Nc6, Nc3, 0-0, Bd3; but we have a better plan... it is always a good idea, to complicate matters against a chess machine...
p1475
aa(lp1476
S'7... Nb6'
p1477
a(lp1478
(dp1479
g5
S'white_rook'
p1480
sg7
S'a1'
p1481
sa(dp1482
g5
S'white_pawn'
p1483
sg7
S'a2'
p1484
sa(dp1485
g7
S'a3'
p1486
sa(dp1487
g7
S'a4'
p1488
sa(dp1489
g7
S'a5'
p1490
sa(dp1491
g7
S'a6'
p1492
sa(dp1493
g5
S'black_pawn'
p1494
sg7
S'a7'
p1495
sa(dp1496
g5
S'black_rook'
p1497
sg7
S'a8'
p1498
sa(dp1499
g7
S'b1'
p1500
sa(dp1501
g5
S'white_pawn'
p1502
sg7
S'b2'
p1503
sa(dp1504
g7
S'b3'
p1505
sa(dp1506
g7
S'b4'
p1507
sa(dp1508
g7
S'b5'
p1509
sa(dp1510
g5
S'black_knight'
p1511
sg7
S'b6'
p1512
sa(dp1513
g5
S'black_pawn'
p1514
sg7
S'b7'
p1515
sa(dp1516
g7
S'b8'
p1517
sa(dp1518
g7
S'c1'
p1519
sa(dp1520
g7
S'c2'
p1521
sa(dp1522
g7
S'c3'
p1523
sa(dp1524
g5
S'white_pawn'
p1525
sg7
S'c4'
p1526
sa(dp1527
g7
S'c5'
p1528
sa(dp1529
g5
S'black_knight'
p1530
sg7
S'c6'
p1531
sa(dp1532
g5
S'black_pawn'
p1533
sg7
S'c7'
p1534
sa(dp1535
g5
S'black_bishop'
p1536
sg7
S'c8'
p1537
sa(dp1538
g5
S'white_queen'
p1539
sg7
S'd1'
p1540
sa(dp1541
g5
S'white_knight'
p1542
sg7
S'd2'
p1543
sa(dp1544
g7
S'd3'
p1545
sa(dp1546
g5
S'white_pawn'
p1547
sg7
S'd4'
p1548
sa(dp1549
g7
S'd5'
p1550
sa(dp1551
g7
S'd6'
p1552
sa(dp1553
g5
S'black_pawn'
p1554
sg7
S'd7'
p1555
sa(dp1556
g5
S'black_queen'
p1557
sg7
S'd8'
p1558
sa(dp1559
g5
S'white_king'
p1560
sg7
S'e1'
p1561
sa(dp1562
g7
S'e2'
p1563
sa(dp1564
g7
S'e3'
p1565
sa(dp1566
g7
S'e4'
p1567
sa(dp1568
g5
S'white_pawn'
p1569
sg7
S'e5'
p1570
sa(dp1571
g5
S'black_pawn'
p1572
sg7
S'e6'
p1573
sa(dp1574
g7
S'e7'
p1575
sa(dp1576
g5
S'black_king'
p1577
sg7
S'e8'
p1578
sa(dp1579
g5
S'white_bishop'
p1580
sg7
S'f1'
p1581
sa(dp1582
g5
S'white_pawn'
p1583
sg7
S'f2'
p1584
sa(dp1585
g5
S'white_knight'
p1586
sg7
S'f3'
p1587
sa(dp1588
g7
S'f4'
p1589
sa(dp1590
g7
S'f5'
p1591
sa(dp1592
g7
S'f6'
p1593
sa(dp1594
g5
S'black_pawn'
p1595
sg7
S'f7'
p1596
sa(dp1597
g7
S'f8'
p1598
sa(dp1599
g7
S'g1'
p1600
sa(dp1601
g5
S'white_pawn'
p1602
sg7
S'g2'
p1603
sa(dp1604
g7
S'g3'
p1605
sa(dp1606
g7
S'g4'
p1607
sa(dp1608
g7
S'g5'
p1609
sa(dp1610
g7
S'g6'
p1611
sa(dp1612
g5
S'black_pawn'
p1613
sg7
S'g7'
p1614
sa(dp1615
g7
S'g8'
p1616
sa(dp1617
g5
S'white_rook'
p1618
sg7
S'h1'
p1619
sa(dp1620
g5
S'white_pawn'
p1621
sg7
S'h2'
p1622
sa(dp1623
g7
S'h3'
p1624
sa(dp1625
g7
S'h4'
p1626
sa(dp1627
g7
S'h5'
p1628
sa(dp1629
g7
S'h6'
p1630
sa(dp1631
g5
S'black_pawn'
p1632
sg7
S'h7'
p1633
sa(dp1634
g5
S'black_rook'
p1635
sg7
S'h8'
p1636
saaVor Nde7, Bd3, d6, Qb3, 0-0...
p1637
aa(lp1638
S'8. a3'
p1639
a(lp1640
(dp1641
g5
S'white_rook'
p1642
sg7
S'a1'
p1643
sa(dp1644
g7
S'a2'
p1645
sa(dp1646
g5
S'white_pawn'
p1647
sg7
S'a3'
p1648
sa(dp1649
g7
S'a4'
p1650
sa(dp1651
g7
S'a5'
p1652
sa(dp1653
g7
S'a6'
p1654
sa(dp1655
g5
S'black_pawn'
p1656
sg7
S'a7'
p1657
sa(dp1658
g5
S'black_rook'
p1659
sg7
S'a8'
p1660
sa(dp1661
g7
S'b1'
p1662
sa(dp1663
g5
S'white_pawn'
p1664
sg7
S'b2'
p1665
sa(dp1666
g7
S'b3'
p1667
sa(dp1668
g7
S'b4'
p1669
sa(dp1670
g7
S'b5'
p1671
sa(dp1672
g5
S'black_knight'
p1673
sg7
S'b6'
p1674
sa(dp1675
g5
S'black_pawn'
p1676
sg7
S'b7'
p1677
sa(dp1678
g7
S'b8'
p1679
sa(dp1680
g7
S'c1'
p1681
sa(dp1682
g7
S'c2'
p1683
sa(dp1684
g7
S'c3'
p1685
sa(dp1686
g5
S'white_pawn'
p1687
sg7
S'c4'
p1688
sa(dp1689
g7
S'c5'
p1690
sa(dp1691
g5
S'black_knight'
p1692
sg7
S'c6'
p1693
sa(dp1694
g5
S'black_pawn'
p1695
sg7
S'c7'
p1696
sa(dp1697
g5
S'black_bishop'
p1698
sg7
S'c8'
p1699
sa(dp1700
g5
S'white_queen'
p1701
sg7
S'd1'
p1702
sa(dp1703
g5
S'white_knight'
p1704
sg7
S'd2'
p1705
sa(dp1706
g7
S'd3'
p1707
sa(dp1708
g5
S'white_pawn'
p1709
sg7
S'd4'
p1710
sa(dp1711
g7
S'd5'
p1712
sa(dp1713
g7
S'd6'
p1714
sa(dp1715
g5
S'black_pawn'
p1716
sg7
S'd7'
p1717
sa(dp1718
g5
S'black_queen'
p1719
sg7
S'd8'
p1720
sa(dp1721
g5
S'white_king'
p1722
sg7
S'e1'
p1723
sa(dp1724
g7
S'e2'
p1725
sa(dp1726
g7
S'e3'
p1727
sa(dp1728
g7
S'e4'
p1729
sa(dp1730
g5
S'white_pawn'
p1731
sg7
S'e5'
p1732
sa(dp1733
g5
S'black_pawn'
p1734
sg7
S'e6'
p1735
sa(dp1736
g7
S'e7'
p1737
sa(dp1738
g5
S'black_king'
p1739
sg7
S'e8'
p1740
sa(dp1741
g5
S'white_bishop'
p1742
sg7
S'f1'
p1743
sa(dp1744
g5
S'white_pawn'
p1745
sg7
S'f2'
p1746
sa(dp1747
g5
S'white_knight'
p1748
sg7
S'f3'
p1749
sa(dp1750
g7
S'f4'
p1751
sa(dp1752
g7
S'f5'
p1753
sa(dp1754
g7
S'f6'
p1755
sa(dp1756
g5
S'black_pawn'
p1757
sg7
S'f7'
p1758
sa(dp1759
g7
S'f8'
p1760
sa(dp1761
g7
S'g1'
p1762
sa(dp1763
g5
S'white_pawn'
p1764
sg7
S'g2'
p1765
sa(dp1766
g7
S'g3'
p1767
sa(dp1768
g7
S'g4'
p1769
sa(dp1770
g7
S'g5'
p1771
sa(dp1772
g7
S'g6'
p1773
sa(dp1774
g5
S'black_pawn'
p1775
sg7
S'g7'
p1776
sa(dp1777
g7
S'g8'
p1778
sa(dp1779
g5
S'white_rook'
p1780
sg7
S'h1'
p1781
sa(dp1782
g5
S'white_pawn'
p1783
sg7
S'h2'
p1784
sa(dp1785
g7
S'h3'
p1786
sa(dp1787
g7
S'h4'
p1788
sa(dp1789
g7
S'h5'
p1790
sa(dp1791
g7
S'h6'
p1792
sa(dp1793
g5
S'black_pawn'
p1794
sg7
S'h7'
p1795
sa(dp1796
g5
S'black_rook'
p1797
sg7
S'h8'
p1798
saaVpreparing b4 somewhere in the future, while preventing Nb4; as long as Black has not played d6, we can virtualy play anything...
p1799
aa(lp1800
S'8... O-O'
p1801
a(lp1802
(dp1803
g5
S'white_rook'
p1804
sg7
S'a1'
p1805
sa(dp1806
g7
S'a2'
p1807
sa(dp1808
g5
S'white_pawn'
p1809
sg7
S'a3'
p1810
sa(dp1811
g7
S'a4'
p1812
sa(dp1813
g7
S'a5'
p1814
sa(dp1815
g7
S'a6'
p1816
sa(dp1817
g5
S'black_pawn'
p1818
sg7
S'a7'
p1819
sa(dp1820
g5
S'black_rook'
p1821
sg7
S'a8'
p1822
sa(dp1823
g7
S'b1'
p1824
sa(dp1825
g5
S'white_pawn'
p1826
sg7
S'b2'
p1827
sa(dp1828
g7
S'b3'
p1829
sa(dp1830
g7
S'b4'
p1831
sa(dp1832
g7
S'b5'
p1833
sa(dp1834
g5
S'black_knight'
p1835
sg7
S'b6'
p1836
sa(dp1837
g5
S'black_pawn'
p1838
sg7
S'b7'
p1839
sa(dp1840
g7
S'b8'
p1841
sa(dp1842
g7
S'c1'
p1843
sa(dp1844
g7
S'c2'
p1845
sa(dp1846
g7
S'c3'
p1847
sa(dp1848
g5
S'white_pawn'
p1849
sg7
S'c4'
p1850
sa(dp1851
g7
S'c5'
p1852
sa(dp1853
g5
S'black_knight'
p1854
sg7
S'c6'
p1855
sa(dp1856
g5
S'black_pawn'
p1857
sg7
S'c7'
p1858
sa(dp1859
g5
S'black_bishop'
p1860
sg7
S'c8'
p1861
sa(dp1862
g5
S'white_queen'
p1863
sg7
S'd1'
p1864
sa(dp1865
g5
S'white_knight'
p1866
sg7
S'd2'
p1867
sa(dp1868
g7
S'd3'
p1869
sa(dp1870
g5
S'white_pawn'
p1871
sg7
S'd4'
p1872
sa(dp1873
g7
S'd5'
p1874
sa(dp1875
g7
S'd6'
p1876
sa(dp1877
g5
S'black_pawn'
p1878
sg7
S'd7'
p1879
sa(dp1880
g5
S'black_queen'
p1881
sg7
S'd8'
p1882
sa(dp1883
g5
S'white_king'
p1884
sg7
S'e1'
p1885
sa(dp1886
g7
S'e2'
p1887
sa(dp1888
g7
S'e3'
p1889
sa(dp1890
g7
S'e4'
p1891
sa(dp1892
g5
S'white_pawn'
p1893
sg7
S'e5'
p1894
sa(dp1895
g5
S'black_pawn'
p1896
sg7
S'e6'
p1897
sa(dp1898
g7
S'e7'
p1899
sa(dp1900
g7
S'e8'
p1901
sa(dp1902
g5
S'white_bishop'
p1903
sg7
S'f1'
p1904
sa(dp1905
g5
S'white_pawn'
p1906
sg7
S'f2'
p1907
sa(dp1908
g5
S'white_knight'
p1909
sg7
S'f3'
p1910
sa(dp1911
g7
S'f4'
p1912
sa(dp1913
g7
S'f5'
p1914
sa(dp1915
g7
S'f6'
p1916
sa(dp1917
g5
S'black_pawn'
p1918
sg7
S'f7'
p1919
sa(dp1920
g5
S'black_rook'
p1921
sg7
S'f8'
p1922
sa(dp1923
g7
S'g1'
p1924
sa(dp1925
g5
S'white_pawn'
p1926
sg7
S'g2'
p1927
sa(dp1928
g7
S'g3'
p1929
sa(dp1930
g7
S'g4'
p1931
sa(dp1932
g7
S'g5'
p1933
sa(dp1934
g7
S'g6'
p1935
sa(dp1936
g5
S'black_pawn'
p1937
sg7
S'g7'
p1938
sa(dp1939
g5
S'black_king'
p1940
sg7
S'g8'
p1941
sa(dp1942
g5
S'white_rook'
p1943
sg7
S'h1'
p1944
sa(dp1945
g5
S'white_pawn'
p1946
sg7
S'h2'
p1947
sa(dp1948
g7
S'h3'
p1949
sa(dp1950
g7
S'h4'
p1951
sa(dp1952
g7
S'h5'
p1953
sa(dp1954
g7
S'h6'
p1955
sa(dp1956
g5
S'black_pawn'
p1957
sg7
S'h7'
p1958
sa(dp1959
g7
S'h8'
p1960
saaVd6, c5, dxc5, dxc5, Nd5 was still an option here...
p1961
aa(lp1962
S'9. Bd3 d5'
p1963
a(lp1964
(dp1965
g5
S'white_rook'
p1966
sg7
S'a1'
p1967
sa(dp1968
g7
S'a2'
p1969
sa(dp1970
g5
S'white_pawn'
p1971
sg7
S'a3'
p1972
sa(dp1973
g7
S'a4'
p1974
sa(dp1975
g7
S'a5'
p1976
sa(dp1977
g7
S'a6'
p1978
sa(dp1979
g5
S'black_pawn'
p1980
sg7
S'a7'
p1981
sa(dp1982
g5
S'black_rook'
p1983
sg7
S'a8'
p1984
sa(dp1985
g7
S'b1'
p1986
sa(dp1987
g5
S'white_pawn'
p1988
sg7
S'b2'
p1989
sa(dp1990
g7
S'b3'
p1991
sa(dp1992
g7
S'b4'
p1993
sa(dp1994
g7
S'b5'
p1995
sa(dp1996
g5
S'black_knight'
p1997
sg7
S'b6'
p1998
sa(dp1999
g5
S'black_pawn'
p2000
sg7
S'b7'
p2001
sa(dp2002
g7
S'b8'
p2003
sa(dp2004
g7
S'c1'
p2005
sa(dp2006
g7
S'c2'
p2007
sa(dp2008
g7
S'c3'
p2009
sa(dp2010
g5
S'white_pawn'
p2011
sg7
S'c4'
p2012
sa(dp2013
g7
S'c5'
p2014
sa(dp2015
g5
S'black_knight'
p2016
sg7
S'c6'
p2017
sa(dp2018
g5
S'black_pawn'
p2019
sg7
S'c7'
p2020
sa(dp2021
g5
S'black_bishop'
p2022
sg7
S'c8'
p2023
sa(dp2024
g5
S'white_queen'
p2025
sg7
S'd1'
p2026
sa(dp2027
g5
S'white_knight'
p2028
sg7
S'd2'
p2029
sa(dp2030
g5
S'white_bishop'
p2031
sg7
S'd3'
p2032
sa(dp2033
g5
S'white_pawn'
p2034
sg7
S'd4'
p2035
sa(dp2036
g5
S'black_pawn'
p2037
sg7
S'd5'
p2038
sa(dp2039
g7
S'd6'
p2040
sa(dp2041
g7
S'd7'
p2042
sa(dp2043
g5
S'black_queen'
p2044
sg7
S'd8'
p2045
sa(dp2046
g5
S'white_king'
p2047
sg7
S'e1'
p2048
sa(dp2049
g7
S'e2'
p2050
sa(dp2051
g7
S'e3'
p2052
sa(dp2053
g7
S'e4'
p2054
sa(dp2055
g5
S'white_pawn'
p2056
sg7
S'e5'
p2057
sa(dp2058
g5
S'black_pawn'
p2059
sg7
S'e6'
p2060
sa(dp2061
g7
S'e7'
p2062
sa(dp2063
g7
S'e8'
p2064
sa(dp2065
g7
S'f1'
p2066
sa(dp2067
g5
S'white_pawn'
p2068
sg7
S'f2'
p2069
sa(dp2070
g5
S'white_knight'
p2071
sg7
S'f3'
p2072
sa(dp2073
g7
S'f4'
p2074
sa(dp2075
g7
S'f5'
p2076
sa(dp2077
g7
S'f6'
p2078
sa(dp2079
g5
S'black_pawn'
p2080
sg7
S'f7'
p2081
sa(dp2082
g5
S'black_rook'
p2083
sg7
S'f8'
p2084
sa(dp2085
g7
S'g1'
p2086
sa(dp2087
g5
S'white_pawn'
p2088
sg7
S'g2'
p2089
sa(dp2090
g7
S'g3'
p2091
sa(dp2092
g7
S'g4'
p2093
sa(dp2094
g7
S'g5'
p2095
sa(dp2096
g7
S'g6'
p2097
sa(dp2098
g5
S'black_pawn'
p2099
sg7
S'g7'
p2100
sa(dp2101
g5
S'black_king'
p2102
sg7
S'g8'
p2103
sa(dp2104
g5
S'white_rook'
p2105
sg7
S'h1'
p2106
sa(dp2107
g5
S'white_pawn'
p2108
sg7
S'h2'
p2109
sa(dp2110
g7
S'h3'
p2111
sa(dp2112
g7
S'h4'
p2113
sa(dp2114
g7
S'h5'
p2115
sa(dp2116
g7
S'h6'
p2117
sa(dp2118
g5
S'black_pawn'
p2119
sg7
S'h7'
p2120
sa(dp2121
g7
S'h8'
p2122
saaVthe last chance to play d6 has gone by: Bc8 is a lost piece; furthermore, this robs Black of the possibility to play Nd5...
p2123
aa(lp2124
S'10. c5 Nd7 11. b4'
p2125
a(lp2126
(dp2127
g5
S'white_rook'
p2128
sg7
S'a1'
p2129
sa(dp2130
g7
S'a2'
p2131
sa(dp2132
g5
S'white_pawn'
p2133
sg7
S'a3'
p2134
sa(dp2135
g7
S'a4'
p2136
sa(dp2137
g7
S'a5'
p2138
sa(dp2139
g7
S'a6'
p2140
sa(dp2141
g5
S'black_pawn'
p2142
sg7
S'a7'
p2143
sa(dp2144
g5
S'black_rook'
p2145
sg7
S'a8'
p2146
sa(dp2147
g7
S'b1'
p2148
sa(dp2149
g7
S'b2'
p2150
sa(dp2151
g7
S'b3'
p2152
sa(dp2153
g5
S'white_pawn'
p2154
sg7
S'b4'
p2155
sa(dp2156
g7
S'b5'
p2157
sa(dp2158
g7
S'b6'
p2159
sa(dp2160
g5
S'black_pawn'
p2161
sg7
S'b7'
p2162
sa(dp2163
g7
S'b8'
p2164
sa(dp2165
g7
S'c1'
p2166
sa(dp2167
g7
S'c2'
p2168
sa(dp2169
g7
S'c3'
p2170
sa(dp2171
g7
S'c4'
p2172
sa(dp2173
g5
S'white_pawn'
p2174
sg7
S'c5'
p2175
sa(dp2176
g5
S'black_knight'
p2177
sg7
S'c6'
p2178
sa(dp2179
g5
S'black_pawn'
p2180
sg7
S'c7'
p2181
sa(dp2182
g5
S'black_bishop'
p2183
sg7
S'c8'
p2184
sa(dp2185
g5
S'white_queen'
p2186
sg7
S'd1'
p2187
sa(dp2188
g5
S'white_knight'
p2189
sg7
S'd2'
p2190
sa(dp2191
g5
S'white_bishop'
p2192
sg7
S'd3'
p2193
sa(dp2194
g5
S'white_pawn'
p2195
sg7
S'd4'
p2196
sa(dp2197
g5
S'black_pawn'
p2198
sg7
S'd5'
p2199
sa(dp2200
g7
S'd6'
p2201
sa(dp2202
g5
S'black_knight'
p2203
sg7
S'd7'
p2204
sa(dp2205
g5
S'black_queen'
p2206
sg7
S'd8'
p2207
sa(dp2208
g5
S'white_king'
p2209
sg7
S'e1'
p2210
sa(dp2211
g7
S'e2'
p2212
sa(dp2213
g7
S'e3'
p2214
sa(dp2215
g7
S'e4'
p2216
sa(dp2217
g5
S'white_pawn'
p2218
sg7
S'e5'
p2219
sa(dp2220
g5
S'black_pawn'
p2221
sg7
S'e6'
p2222
sa(dp2223
g7
S'e7'
p2224
sa(dp2225
g7
S'e8'
p2226
sa(dp2227
g7
S'f1'
p2228
sa(dp2229
g5
S'white_pawn'
p2230
sg7
S'f2'
p2231
sa(dp2232
g5
S'white_knight'
p2233
sg7
S'f3'
p2234
sa(dp2235
g7
S'f4'
p2236
sa(dp2237
g7
S'f5'
p2238
sa(dp2239
g7
S'f6'
p2240
sa(dp2241
g5
S'black_pawn'
p2242
sg7
S'f7'
p2243
sa(dp2244
g5
S'black_rook'
p2245
sg7
S'f8'
p2246
sa(dp2247
g7
S'g1'
p2248
sa(dp2249
g5
S'white_pawn'
p2250
sg7
S'g2'
p2251
sa(dp2252
g7
S'g3'
p2253
sa(dp2254
g7
S'g4'
p2255
sa(dp2256
g7
S'g5'
p2257
sa(dp2258
g7
S'g6'
p2259
sa(dp2260
g5
S'black_pawn'
p2261
sg7
S'g7'
p2262
sa(dp2263
g5
S'black_king'
p2264
sg7
S'g8'
p2265
sa(dp2266
g5
S'white_rook'
p2267
sg7
S'h1'
p2268
sa(dp2269
g5
S'white_pawn'
p2270
sg7
S'h2'
p2271
sa(dp2272
g7
S'h3'
p2273
sa(dp2274
g7
S'h4'
p2275
sa(dp2276
g7
S'h5'
p2277
sa(dp2278
g7
S'h6'
p2279
sa(dp2280
g5
S'black_pawn'
p2281
sg7
S'h7'
p2282
sa(dp2283
g7
S'h8'
p2284
saaVgetting ready to harass the other Knight; we keep piling up complications...
p2285
aa(lp2286
S'11... Qe7'
p2287
a(lp2288
(dp2289
g5
S'white_rook'
p2290
sg7
S'a1'
p2291
sa(dp2292
g7
S'a2'
p2293
sa(dp2294
g5
S'white_pawn'
p2295
sg7
S'a3'
p2296
sa(dp2297
g7
S'a4'
p2298
sa(dp2299
g7
S'a5'
p2300
sa(dp2301
g7
S'a6'
p2302
sa(dp2303
g5
S'black_pawn'
p2304
sg7
S'a7'
p2305
sa(dp2306
g5
S'black_rook'
p2307
sg7
S'a8'
p2308
sa(dp2309
g7
S'b1'
p2310
sa(dp2311
g7
S'b2'
p2312
sa(dp2313
g7
S'b3'
p2314
sa(dp2315
g5
S'white_pawn'
p2316
sg7
S'b4'
p2317
sa(dp2318
g7
S'b5'
p2319
sa(dp2320
g7
S'b6'
p2321
sa(dp2322
g5
S'black_pawn'
p2323
sg7
S'b7'
p2324
sa(dp2325
g7
S'b8'
p2326
sa(dp2327
g7
S'c1'
p2328
sa(dp2329
g7
S'c2'
p2330
sa(dp2331
g7
S'c3'
p2332
sa(dp2333
g7
S'c4'
p2334
sa(dp2335
g5
S'white_pawn'
p2336
sg7
S'c5'
p2337
sa(dp2338
g5
S'black_knight'
p2339
sg7
S'c6'
p2340
sa(dp2341
g5
S'black_pawn'
p2342
sg7
S'c7'
p2343
sa(dp2344
g5
S'black_bishop'
p2345
sg7
S'c8'
p2346
sa(dp2347
g5
S'white_queen'
p2348
sg7
S'd1'
p2349
sa(dp2350
g5
S'white_knight'
p2351
sg7
S'd2'
p2352
sa(dp2353
g5
S'white_bishop'
p2354
sg7
S'd3'
p2355
sa(dp2356
g5
S'white_pawn'
p2357
sg7
S'd4'
p2358
sa(dp2359
g5
S'black_pawn'
p2360
sg7
S'd5'
p2361
sa(dp2362
g7
S'd6'
p2363
sa(dp2364
g5
S'black_knight'
p2365
sg7
S'd7'
p2366
sa(dp2367
g7
S'd8'
p2368
sa(dp2369
g5
S'white_king'
p2370
sg7
S'e1'
p2371
sa(dp2372
g7
S'e2'
p2373
sa(dp2374
g7
S'e3'
p2375
sa(dp2376
g7
S'e4'
p2377
sa(dp2378
g5
S'white_pawn'
p2379
sg7
S'e5'
p2380
sa(dp2381
g5
S'black_pawn'
p2382
sg7
S'e6'
p2383
sa(dp2384
g5
S'black_queen'
p2385
sg7
S'e7'
p2386
sa(dp2387
g7
S'e8'
p2388
sa(dp2389
g7
S'f1'
p2390
sa(dp2391
g5
S'white_pawn'
p2392
sg7
S'f2'
p2393
sa(dp2394
g5
S'white_knight'
p2395
sg7
S'f3'
p2396
sa(dp2397
g7
S'f4'
p2398
sa(dp2399
g7
S'f5'
p2400
sa(dp2401
g7
S'f6'
p2402
sa(dp2403
g5
S'black_pawn'
p2404
sg7
S'f7'
p2405
sa(dp2406
g5
S'black_rook'
p2407
sg7
S'f8'
p2408
sa(dp2409
g7
S'g1'
p2410
sa(dp2411
g5
S'white_pawn'
p2412
sg7
S'g2'
p2413
sa(dp2414
g7
S'g3'
p2415
sa(dp2416
g7
S'g4'
p2417
sa(dp2418
g7
S'g5'
p2419
sa(dp2420
g7
S'g6'
p2421
sa(dp2422
g5
S'black_pawn'
p2423
sg7
S'g7'
p2424
sa(dp2425
g5
S'black_king'
p2426
sg7
S'g8'
p2427
sa(dp2428
g5
S'white_rook'
p2429
sg7
S'h1'
p2430
sa(dp2431
g5
S'white_pawn'
p2432
sg7
S'h2'
p2433
sa(dp2434
g7
S'h3'
p2435
sa(dp2436
g7
S'h4'
p2437
sa(dp2438
g7
S'h5'
p2439
sa(dp2440
g7
S'h6'
p2441
sa(dp2442
g5
S'black_pawn'
p2443
sg7
S'h7'
p2444
sa(dp2445
g7
S'h8'
p2446
saaVthe Thinking Machine works in mysterious ways; better a6, to prevent more mayhem... Black is preparing Nd8, after b5...
p2447
aa(lp2448
S'12. Qc2'
p2449
a(lp2450
(dp2451
g5
S'white_rook'
p2452
sg7
S'a1'
p2453
sa(dp2454
g7
S'a2'
p2455
sa(dp2456
g5
S'white_pawn'
p2457
sg7
S'a3'
p2458
sa(dp2459
g7
S'a4'
p2460
sa(dp2461
g7
S'a5'
p2462
sa(dp2463
g7
S'a6'
p2464
sa(dp2465
g5
S'black_pawn'
p2466
sg7
S'a7'
p2467
sa(dp2468
g5
S'black_rook'
p2469
sg7
S'a8'
p2470
sa(dp2471
g7
S'b1'
p2472
sa(dp2473
g7
S'b2'
p2474
sa(dp2475
g7
S'b3'
p2476
sa(dp2477
g5
S'white_pawn'
p2478
sg7
S'b4'
p2479
sa(dp2480
g7
S'b5'
p2481
sa(dp2482
g7
S'b6'
p2483
sa(dp2484
g5
S'black_pawn'
p2485
sg7
S'b7'
p2486
sa(dp2487
g7
S'b8'
p2488
sa(dp2489
g7
S'c1'
p2490
sa(dp2491
g5
S'white_queen'
p2492
sg7
S'c2'
p2493
sa(dp2494
g7
S'c3'
p2495
sa(dp2496
g7
S'c4'
p2497
sa(dp2498
g5
S'white_pawn'
p2499
sg7
S'c5'
p2500
sa(dp2501
g5
S'black_knight'
p2502
sg7
S'c6'
p2503
sa(dp2504
g5
S'black_pawn'
p2505
sg7
S'c7'
p2506
sa(dp2507
g5
S'black_bishop'
p2508
sg7
S'c8'
p2509
sa(dp2510
g7
S'd1'
p2511
sa(dp2512
g5
S'white_knight'
p2513
sg7
S'd2'
p2514
sa(dp2515
g5
S'white_bishop'
p2516
sg7
S'd3'
p2517
sa(dp2518
g5
S'white_pawn'
p2519
sg7
S'd4'
p2520
sa(dp2521
g5
S'black_pawn'
p2522
sg7
S'd5'
p2523
sa(dp2524
g7
S'd6'
p2525
sa(dp2526
g5
S'black_knight'
p2527
sg7
S'd7'
p2528
sa(dp2529
g7
S'd8'
p2530
sa(dp2531
g5
S'white_king'
p2532
sg7
S'e1'
p2533
sa(dp2534
g7
S'e2'
p2535
sa(dp2536
g7
S'e3'
p2537
sa(dp2538
g7
S'e4'
p2539
sa(dp2540
g5
S'white_pawn'
p2541
sg7
S'e5'
p2542
sa(dp2543
g5
S'black_pawn'
p2544
sg7
S'e6'
p2545
sa(dp2546
g5
S'black_queen'
p2547
sg7
S'e7'
p2548
sa(dp2549
g7
S'e8'
p2550
sa(dp2551
g7
S'f1'
p2552
sa(dp2553
g5
S'white_pawn'
p2554
sg7
S'f2'
p2555
sa(dp2556
g5
S'white_knight'
p2557
sg7
S'f3'
p2558
sa(dp2559
g7
S'f4'
p2560
sa(dp2561
g7
S'f5'
p2562
sa(dp2563
g7
S'f6'
p2564
sa(dp2565
g5
S'black_pawn'
p2566
sg7
S'f7'
p2567
sa(dp2568
g5
S'black_rook'
p2569
sg7
S'f8'
p2570
sa(dp2571
g7
S'g1'
p2572
sa(dp2573
g5
S'white_pawn'
p2574
sg7
S'g2'
p2575
sa(dp2576
g7
S'g3'
p2577
sa(dp2578
g7
S'g4'
p2579
sa(dp2580
g7
S'g5'
p2581
sa(dp2582
g7
S'g6'
p2583
sa(dp2584
g5
S'black_pawn'
p2585
sg7
S'g7'
p2586
sa(dp2587
g5
S'black_king'
p2588
sg7
S'g8'
p2589
sa(dp2590
g5
S'white_rook'
p2591
sg7
S'h1'
p2592
sa(dp2593
g5
S'white_pawn'
p2594
sg7
S'h2'
p2595
sa(dp2596
g7
S'h3'
p2597
sa(dp2598
g7
S'h4'
p2599
sa(dp2600
g7
S'h5'
p2601
sa(dp2602
g7
S'h6'
p2603
sa(dp2604
g5
S'black_pawn'
p2605
sg7
S'h7'
p2606
sa(dp2607
g7
S'h8'
p2608
saaVI liked this better than b5, Nd8, 0-0, f5; this is practically forcing f5...
p2609
aa(lp2610
S'12... g6'
p2611
a(lp2612
(dp2613
g5
S'white_rook'
p2614
sg7
S'a1'
p2615
sa(dp2616
g7
S'a2'
p2617
sa(dp2618
g5
S'white_pawn'
p2619
sg7
S'a3'
p2620
sa(dp2621
g7
S'a4'
p2622
sa(dp2623
g7
S'a5'
p2624
sa(dp2625
g7
S'a6'
p2626
sa(dp2627
g5
S'black_pawn'
p2628
sg7
S'a7'
p2629
sa(dp2630
g5
S'black_rook'
p2631
sg7
S'a8'
p2632
sa(dp2633
g7
S'b1'
p2634
sa(dp2635
g7
S'b2'
p2636
sa(dp2637
g7
S'b3'
p2638
sa(dp2639
g5
S'white_pawn'
p2640
sg7
S'b4'
p2641
sa(dp2642
g7
S'b5'
p2643
sa(dp2644
g7
S'b6'
p2645
sa(dp2646
g5
S'black_pawn'
p2647
sg7
S'b7'
p2648
sa(dp2649
g7
S'b8'
p2650
sa(dp2651
g7
S'c1'
p2652
sa(dp2653
g5
S'white_queen'
p2654
sg7
S'c2'
p2655
sa(dp2656
g7
S'c3'
p2657
sa(dp2658
g7
S'c4'
p2659
sa(dp2660
g5
S'white_pawn'
p2661
sg7
S'c5'
p2662
sa(dp2663
g5
S'black_knight'
p2664
sg7
S'c6'
p2665
sa(dp2666
g5
S'black_pawn'
p2667
sg7
S'c7'
p2668
sa(dp2669
g5
S'black_bishop'
p2670
sg7
S'c8'
p2671
sa(dp2672
g7
S'd1'
p2673
sa(dp2674
g5
S'white_knight'
p2675
sg7
S'd2'
p2676
sa(dp2677
g5
S'white_bishop'
p2678
sg7
S'd3'
p2679
sa(dp2680
g5
S'white_pawn'
p2681
sg7
S'd4'
p2682
sa(dp2683
g5
S'black_pawn'
p2684
sg7
S'd5'
p2685
sa(dp2686
g7
S'd6'
p2687
sa(dp2688
g5
S'black_knight'
p2689
sg7
S'd7'
p2690
sa(dp2691
g7
S'd8'
p2692
sa(dp2693
g5
S'white_king'
p2694
sg7
S'e1'
p2695
sa(dp2696
g7
S'e2'
p2697
sa(dp2698
g7
S'e3'
p2699
sa(dp2700
g7
S'e4'
p2701
sa(dp2702
g5
S'white_pawn'
p2703
sg7
S'e5'
p2704
sa(dp2705
g5
S'black_pawn'
p2706
sg7
S'e6'
p2707
sa(dp2708
g5
S'black_queen'
p2709
sg7
S'e7'
p2710
sa(dp2711
g7
S'e8'
p2712
sa(dp2713
g7
S'f1'
p2714
sa(dp2715
g5
S'white_pawn'
p2716
sg7
S'f2'
p2717
sa(dp2718
g5
S'white_knight'
p2719
sg7
S'f3'
p2720
sa(dp2721
g7
S'f4'
p2722
sa(dp2723
g7
S'f5'
p2724
sa(dp2725
g7
S'f6'
p2726
sa(dp2727
g5
S'black_pawn'
p2728
sg7
S'f7'
p2729
sa(dp2730
g5
S'black_rook'
p2731
sg7
S'f8'
p2732
sa(dp2733
g7
S'g1'
p2734
sa(dp2735
g5
S'white_pawn'
p2736
sg7
S'g2'
p2737
sa(dp2738
g7
S'g3'
p2739
sa(dp2740
g7
S'g4'
p2741
sa(dp2742
g7
S'g5'
p2743
sa(dp2744
g5
S'black_pawn'
p2745
sg7
S'g6'
p2746
sa(dp2747
g7
S'g7'
p2748
sa(dp2749
g5
S'black_king'
p2750
sg7
S'g8'
p2751
sa(dp2752
g5
S'white_rook'
p2753
sg7
S'h1'
p2754
sa(dp2755
g5
S'white_pawn'
p2756
sg7
S'h2'
p2757
sa(dp2758
g7
S'h3'
p2759
sa(dp2760
g7
S'h4'
p2761
sa(dp2762
g7
S'h5'
p2763
sa(dp2764
g7
S'h6'
p2765
sa(dp2766
g5
S'black_pawn'
p2767
sg7
S'h7'
p2768
sa(dp2769
g7
S'h8'
p2770
saaVafter f5, b5, Nd8, 0-0, Qe8, a4, White has a strong edge; but not more than that... this will get Black into trouble...
p2771
aa(lp2772
S'13. h4'
p2773
a(lp2774
(dp2775
g5
S'white_rook'
p2776
sg7
S'a1'
p2777
sa(dp2778
g7
S'a2'
p2779
sa(dp2780
g5
S'white_pawn'
p2781
sg7
S'a3'
p2782
sa(dp2783
g7
S'a4'
p2784
sa(dp2785
g7
S'a5'
p2786
sa(dp2787
g7
S'a6'
p2788
sa(dp2789
g5
S'black_pawn'
p2790
sg7
S'a7'
p2791
sa(dp2792
g5
S'black_rook'
p2793
sg7
S'a8'
p2794
sa(dp2795
g7
S'b1'
p2796
sa(dp2797
g7
S'b2'
p2798
sa(dp2799
g7
S'b3'
p2800
sa(dp2801
g5
S'white_pawn'
p2802
sg7
S'b4'
p2803
sa(dp2804
g7
S'b5'
p2805
sa(dp2806
g7
S'b6'
p2807
sa(dp2808
g5
S'black_pawn'
p2809
sg7
S'b7'
p2810
sa(dp2811
g7
S'b8'
p2812
sa(dp2813
g7
S'c1'
p2814
sa(dp2815
g5
S'white_queen'
p2816
sg7
S'c2'
p2817
sa(dp2818
g7
S'c3'
p2819
sa(dp2820
g7
S'c4'
p2821
sa(dp2822
g5
S'white_pawn'
p2823
sg7
S'c5'
p2824
sa(dp2825
g5
S'black_knight'
p2826
sg7
S'c6'
p2827
sa(dp2828
g5
S'black_pawn'
p2829
sg7
S'c7'
p2830
sa(dp2831
g5
S'black_bishop'
p2832
sg7
S'c8'
p2833
sa(dp2834
g7
S'd1'
p2835
sa(dp2836
g5
S'white_knight'
p2837
sg7
S'd2'
p2838
sa(dp2839
g5
S'white_bishop'
p2840
sg7
S'd3'
p2841
sa(dp2842
g5
S'white_pawn'
p2843
sg7
S'd4'
p2844
sa(dp2845
g5
S'black_pawn'
p2846
sg7
S'd5'
p2847
sa(dp2848
g7
S'd6'
p2849
sa(dp2850
g5
S'black_knight'
p2851
sg7
S'd7'
p2852
sa(dp2853
g7
S'd8'
p2854
sa(dp2855
g5
S'white_king'
p2856
sg7
S'e1'
p2857
sa(dp2858
g7
S'e2'
p2859
sa(dp2860
g7
S'e3'
p2861
sa(dp2862
g7
S'e4'
p2863
sa(dp2864
g5
S'white_pawn'
p2865
sg7
S'e5'
p2866
sa(dp2867
g5
S'black_pawn'
p2868
sg7
S'e6'
p2869
sa(dp2870
g5
S'black_queen'
p2871
sg7
S'e7'
p2872
sa(dp2873
g7
S'e8'
p2874
sa(dp2875
g7
S'f1'
p2876
sa(dp2877
g5
S'white_pawn'
p2878
sg7
S'f2'
p2879
sa(dp2880
g5
S'white_knight'
p2881
sg7
S'f3'
p2882
sa(dp2883
g7
S'f4'
p2884
sa(dp2885
g7
S'f5'
p2886
sa(dp2887
g7
S'f6'
p2888
sa(dp2889
g5
S'black_pawn'
p2890
sg7
S'f7'
p2891
sa(dp2892
g5
S'black_rook'
p2893
sg7
S'f8'
p2894
sa(dp2895
g7
S'g1'
p2896
sa(dp2897
g5
S'white_pawn'
p2898
sg7
S'g2'
p2899
sa(dp2900
g7
S'g3'
p2901
sa(dp2902
g7
S'g4'
p2903
sa(dp2904
g7
S'g5'
p2905
sa(dp2906
g5
S'black_pawn'
p2907
sg7
S'g6'
p2908
sa(dp2909
g7
S'g7'
p2910
sa(dp2911
g5
S'black_king'
p2912
sg7
S'g8'
p2913
sa(dp2914
g5
S'white_rook'
p2915
sg7
S'h1'
p2916
sa(dp2917
g7
S'h2'
p2918
sa(dp2919
g7
S'h3'
p2920
sa(dp2921
g5
S'white_pawn'
p2922
sg7
S'h4'
p2923
sa(dp2924
g7
S'h5'
p2925
sa(dp2926
g7
S'h6'
p2927
sa(dp2928
g5
S'black_pawn'
p2929
sg7
S'h7'
p2930
sa(dp2931
g7
S'h8'
p2932
saaVopening a full scale attack on Blacks' Kings wing; also preparing Ng5...
p2933
aa(lp2934
S'13... Kh8'
p2935
a(lp2936
(dp2937
g5
S'white_rook'
p2938
sg7
S'a1'
p2939
sa(dp2940
g7
S'a2'
p2941
sa(dp2942
g5
S'white_pawn'
p2943
sg7
S'a3'
p2944
sa(dp2945
g7
S'a4'
p2946
sa(dp2947
g7
S'a5'
p2948
sa(dp2949
g7
S'a6'
p2950
sa(dp2951
g5
S'black_pawn'
p2952
sg7
S'a7'
p2953
sa(dp2954
g5
S'black_rook'
p2955
sg7
S'a8'
p2956
sa(dp2957
g7
S'b1'
p2958
sa(dp2959
g7
S'b2'
p2960
sa(dp2961
g7
S'b3'
p2962
sa(dp2963
g5
S'white_pawn'
p2964
sg7
S'b4'
p2965
sa(dp2966
g7
S'b5'
p2967
sa(dp2968
g7
S'b6'
p2969
sa(dp2970
g5
S'black_pawn'
p2971
sg7
S'b7'
p2972
sa(dp2973
g7
S'b8'
p2974
sa(dp2975
g7
S'c1'
p2976
sa(dp2977
g5
S'white_queen'
p2978
sg7
S'c2'
p2979
sa(dp2980
g7
S'c3'
p2981
sa(dp2982
g7
S'c4'
p2983
sa(dp2984
g5
S'white_pawn'
p2985
sg7
S'c5'
p2986
sa(dp2987
g5
S'black_knight'
p2988
sg7
S'c6'
p2989
sa(dp2990
g5
S'black_pawn'
p2991
sg7
S'c7'
p2992
sa(dp2993
g5
S'black_bishop'
p2994
sg7
S'c8'
p2995
sa(dp2996
g7
S'd1'
p2997
sa(dp2998
g5
S'white_knight'
p2999
sg7
S'd2'
p3000
sa(dp3001
g5
S'white_bishop'
p3002
sg7
S'd3'
p3003
sa(dp3004
g5
S'white_pawn'
p3005
sg7
S'd4'
p3006
sa(dp3007
g5
S'black_pawn'
p3008
sg7
S'd5'
p3009
sa(dp3010
g7
S'd6'
p3011
sa(dp3012
g5
S'black_knight'
p3013
sg7
S'd7'
p3014
sa(dp3015
g7
S'd8'
p3016
sa(dp3017
g5
S'white_king'
p3018
sg7
S'e1'
p3019
sa(dp3020
g7
S'e2'
p3021
sa(dp3022
g7
S'e3'
p3023
sa(dp3024
g7
S'e4'
p3025
sa(dp3026
g5
S'white_pawn'
p3027
sg7
S'e5'
p3028
sa(dp3029
g5
S'black_pawn'
p3030
sg7
S'e6'
p3031
sa(dp3032
g5
S'black_queen'
p3033
sg7
S'e7'
p3034
sa(dp3035
g7
S'e8'
p3036
sa(dp3037
g7
S'f1'
p3038
sa(dp3039
g5
S'white_pawn'
p3040
sg7
S'f2'
p3041
sa(dp3042
g5
S'white_knight'
p3043
sg7
S'f3'
p3044
sa(dp3045
g7
S'f4'
p3046
sa(dp3047
g7
S'f5'
p3048
sa(dp3049
g7
S'f6'
p3050
sa(dp3051
g5
S'black_pawn'
p3052
sg7
S'f7'
p3053
sa(dp3054
g5
S'black_rook'
p3055
sg7
S'f8'
p3056
sa(dp3057
g7
S'g1'
p3058
sa(dp3059
g5
S'white_pawn'
p3060
sg7
S'g2'
p3061
sa(dp3062
g7
S'g3'
p3063
sa(dp3064
g7
S'g4'
p3065
sa(dp3066
g7
S'g5'
p3067
sa(dp3068
g5
S'black_pawn'
p3069
sg7
S'g6'
p3070
sa(dp3071
g7
S'g7'
p3072
sa(dp3073
g7
S'g8'
p3074
sa(dp3075
g5
S'white_rook'
p3076
sg7
S'h1'
p3077
sa(dp3078
g7
S'h2'
p3079
sa(dp3080
g7
S'h3'
p3081
sa(dp3082
g5
S'white_pawn'
p3083
sg7
S'h4'
p3084
sa(dp3085
g7
S'h5'
p3086
sa(dp3087
g7
S'h6'
p3088
sa(dp3089
g5
S'black_pawn'
p3090
sg7
S'h7'
p3091
sa(dp3092
g5
S'black_king'
p3093
sg7
S'h8'
p3094
saaVnever argue with a chess machine; but f5, b5, Nd8, a4, Nb8, 0-0, Bd7 was much to be preferred over this... finally Bc8 would have had a purpose...
p3095
aa(lp3096
S'14. Rb1'
p3097
a(lp3098
(dp3099
g7
S'a1'
p3100
sa(dp3101
g7
S'a2'
p3102
sa(dp3103
g5
S'white_pawn'
p3104
sg7
S'a3'
p3105
sa(dp3106
g7
S'a4'
p3107
sa(dp3108
g7
S'a5'
p3109
sa(dp3110
g7
S'a6'
p3111
sa(dp3112
g5
S'black_pawn'
p3113
sg7
S'a7'
p3114
sa(dp3115
g5
S'black_rook'
p3116
sg7
S'a8'
p3117
sa(dp3118
g5
S'white_rook'
p3119
sg7
S'b1'
p3120
sa(dp3121
g7
S'b2'
p3122
sa(dp3123
g7
S'b3'
p3124
sa(dp3125
g5
S'white_pawn'
p3126
sg7
S'b4'
p3127
sa(dp3128
g7
S'b5'
p3129
sa(dp3130
g7
S'b6'
p3131
sa(dp3132
g5
S'black_pawn'
p3133
sg7
S'b7'
p3134
sa(dp3135
g7
S'b8'
p3136
sa(dp3137
g7
S'c1'
p3138
sa(dp3139
g5
S'white_queen'
p3140
sg7
S'c2'
p3141
sa(dp3142
g7
S'c3'
p3143
sa(dp3144
g7
S'c4'
p3145
sa(dp3146
g5
S'white_pawn'
p3147
sg7
S'c5'
p3148
sa(dp3149
g5
S'black_knight'
p3150
sg7
S'c6'
p3151
sa(dp3152
g5
S'black_pawn'
p3153
sg7
S'c7'
p3154
sa(dp3155
g5
S'black_bishop'
p3156
sg7
S'c8'
p3157
sa(dp3158
g7
S'd1'
p3159
sa(dp3160
g5
S'white_knight'
p3161
sg7
S'd2'
p3162
sa(dp3163
g5
S'white_bishop'
p3164
sg7
S'd3'
p3165
sa(dp3166
g5
S'white_pawn'
p3167
sg7
S'd4'
p3168
sa(dp3169
g5
S'black_pawn'
p3170
sg7
S'd5'
p3171
sa(dp3172
g7
S'd6'
p3173
sa(dp3174
g5
S'black_knight'
p3175
sg7
S'd7'
p3176
sa(dp3177
g7
S'd8'
p3178
sa(dp3179
g5
S'white_king'
p3180
sg7
S'e1'
p3181
sa(dp3182
g7
S'e2'
p3183
sa(dp3184
g7
S'e3'
p3185
sa(dp3186
g7
S'e4'
p3187
sa(dp3188
g5
S'white_pawn'
p3189
sg7
S'e5'
p3190
sa(dp3191
g5
S'black_pawn'
p3192
sg7
S'e6'
p3193
sa(dp3194
g5
S'black_queen'
p3195
sg7
S'e7'
p3196
sa(dp3197
g7
S'e8'
p3198
sa(dp3199
g7
S'f1'
p3200
sa(dp3201
g5
S'white_pawn'
p3202
sg7
S'f2'
p3203
sa(dp3204
g5
S'white_knight'
p3205
sg7
S'f3'
p3206
sa(dp3207
g7
S'f4'
p3208
sa(dp3209
g7
S'f5'
p3210
sa(dp3211
g7
S'f6'
p3212
sa(dp3213
g5
S'black_pawn'
p3214
sg7
S'f7'
p3215
sa(dp3216
g5
S'black_rook'
p3217
sg7
S'f8'
p3218
sa(dp3219
g7
S'g1'
p3220
sa(dp3221
g5
S'white_pawn'
p3222
sg7
S'g2'
p3223
sa(dp3224
g7
S'g3'
p3225
sa(dp3226
g7
S'g4'
p3227
sa(dp3228
g7
S'g5'
p3229
sa(dp3230
g5
S'black_pawn'
p3231
sg7
S'g6'
p3232
sa(dp3233
g7
S'g7'
p3234
sa(dp3235
g7
S'g8'
p3236
sa(dp3237
g5
S'white_rook'
p3238
sg7
S'h1'
p3239
sa(dp3240
g7
S'h2'
p3241
sa(dp3242
g7
S'h3'
p3243
sa(dp3244
g5
S'white_pawn'
p3245
sg7
S'h4'
p3246
sa(dp3247
g7
S'h5'
p3248
sa(dp3249
g7
S'h6'
p3250
sa(dp3251
g5
S'black_pawn'
p3252
sg7
S'h7'
p3253
sa(dp3254
g5
S'black_king'
p3255
sg7
S'h8'
p3256
saaVmaybe taking things too easy, in preparing a blunt a4, followed by b5 and c6, and crack open Blacks' Queens wing with something like Qxc7: straightaway h5, g5, b5, looks more promising; but Black has nothing...
p3257
aa.