(lp0
(lp1
S'31. d3'
p2
a(lp3
(dp4
S'location'
p5
S'a1'
p6
sa(dp7
S'piece'
p8
S'white_pawn'
p9
sg5
S'a2'
p10
sa(dp11
g5
S'a3'
p12
sa(dp13
g5
S'a4'
p14
sa(dp15
g5
S'a5'
p16
sa(dp17
g8
S'black_pawn'
p18
sg5
S'a6'
p19
sa(dp20
g5
S'a7'
p21
sa(dp22
g5
S'a8'
p23
sa(dp24
g5
S'b1'
p25
sa(dp26
g5
S'b2'
p27
sa(dp28
g8
S'white_pawn'
p29
sg5
S'b3'
p30
sa(dp31
g5
S'b4'
p32
sa(dp33
g8
S'black_pawn'
p34
sg5
S'b5'
p35
sa(dp36
g5
S'b6'
p37
sa(dp38
g5
S'b7'
p39
sa(dp40
g5
S'b8'
p41
sa(dp42
g8
S'white_rook'
p43
sg5
S'c1'
p44
sa(dp45
g5
S'c2'
p46
sa(dp47
g5
S'c3'
p48
sa(dp49
g5
S'c4'
p50
sa(dp51
g5
S'c5'
p52
sa(dp53
g5
S'c6'
p54
sa(dp55
g5
S'c7'
p56
sa(dp57
g5
S'c8'
p58
sa(dp59
g5
S'd1'
p60
sa(dp61
g5
S'd2'
p62
sa(dp63
g8
S'white_pawn'
p64
sg5
S'd3'
p65
sa(dp66
g8
S'black_knight'
p67
sg5
S'd4'
p68
sa(dp69
g5
S'd5'
p70
sa(dp71
g8
S'black_rook'
p72
sg5
S'd6'
p73
sa(dp74
g8
S'black_king'
p75
sg5
S'd7'
p76
sa(dp77
g5
S'd8'
p78
sa(dp79
g5
S'e1'
p80
sa(dp81
g5
S'e2'
p82
sa(dp83
g8
S'white_knight'
p84
sg5
S'e3'
p85
sa(dp86
g8
S'black_pawn'
p87
sg5
S'e4'
p88
sa(dp89
g5
S'e5'
p90
sa(dp91
g5
S'e6'
p92
sa(dp93
g5
S'e7'
p94
sa(dp95
g5
S'e8'
p96
sa(dp97
g5
S'f1'
p98
sa(dp99
g8
S'white_pawn'
p100
sg5
S'f2'
p101
sa(dp102
g5
S'f3'
p103
sa(dp104
g5
S'f4'
p105
sa(dp106
g5
S'f5'
p107
sa(dp108
g8
S'black_pawn'
p109
sg5
S'f6'
p110
sa(dp111
g5
S'f7'
p112
sa(dp113
g5
S'f8'
p114
sa(dp115
g5
S'g1'
p116
sa(dp117
g8
S'white_king'
p118
sg5
S'g2'
p119
sa(dp120
g8
S'white_pawn'
p121
sg5
S'g3'
p122
sa(dp123
g5
S'g4'
p124
sa(dp125
g5
S'g5'
p126
sa(dp127
g5
S'g6'
p128
sa(dp129
g8
S'black_pawn'
p130
sg5
S'g7'
p131
sa(dp132
g5
S'g8'
p133
sa(dp134
g5
S'h1'
p135
sa(dp136
g8
S'white_pawn'
p137
sg5
S'h2'
p138
sa(dp139
g5
S'h3'
p140
sa(dp141
g5
S'h4'
p142
sa(dp143
g5
S'h5'
p144
sa(dp145
g5
S'h6'
p146
sa(dp147
g8
S'black_pawn'
p148
sg5
S'h7'
p149
sa(dp150
g5
S'h8'
p151
saaVHe can't keep hold of this pawn without completely tying up his pieces.
p152
aa(lp153
S'31... Ne2'
p154
a(lp155
(dp156
g5
S'a1'
p157
sa(dp158
g8
S'white_pawn'
p159
sg5
S'a2'
p160
sa(dp161
g5
S'a3'
p162
sa(dp163
g5
S'a4'
p164
sa(dp165
g5
S'a5'
p166
sa(dp167
g8
S'black_pawn'
p168
sg5
S'a6'
p169
sa(dp170
g5
S'a7'
p171
sa(dp172
g5
S'a8'
p173
sa(dp174
g5
S'b1'
p175
sa(dp176
g5
S'b2'
p177
sa(dp178
g8
S'white_pawn'
p179
sg5
S'b3'
p180
sa(dp181
g5
S'b4'
p182
sa(dp183
g8
S'black_pawn'
p184
sg5
S'b5'
p185
sa(dp186
g5
S'b6'
p187
sa(dp188
g5
S'b7'
p189
sa(dp190
g5
S'b8'
p191
sa(dp192
g8
S'white_rook'
p193
sg5
S'c1'
p194
sa(dp195
g5
S'c2'
p196
sa(dp197
g5
S'c3'
p198
sa(dp199
g5
S'c4'
p200
sa(dp201
g5
S'c5'
p202
sa(dp203
g5
S'c6'
p204
sa(dp205
g5
S'c7'
p206
sa(dp207
g5
S'c8'
p208
sa(dp209
g5
S'd1'
p210
sa(dp211
g5
S'd2'
p212
sa(dp213
g8
S'white_pawn'
p214
sg5
S'd3'
p215
sa(dp216
g5
S'd4'
p217
sa(dp218
g5
S'd5'
p219
sa(dp220
g8
S'black_rook'
p221
sg5
S'd6'
p222
sa(dp223
g8
S'black_king'
p224
sg5
S'd7'
p225
sa(dp226
g5
S'd8'
p227
sa(dp228
g5
S'e1'
p229
sa(dp230
g8
S'black_knight'
p231
sg5
S'e2'
p232
sa(dp233
g8
S'white_knight'
p234
sg5
S'e3'
p235
sa(dp236
g8
S'black_pawn'
p237
sg5
S'e4'
p238
sa(dp239
g5
S'e5'
p240
sa(dp241
g5
S'e6'
p242
sa(dp243
g5
S'e7'
p244
sa(dp245
g5
S'e8'
p246
sa(dp247
g5
S'f1'
p248
sa(dp249
g8
S'white_pawn'
p250
sg5
S'f2'
p251
sa(dp252
g5
S'f3'
p253
sa(dp254
g5
S'f4'
p255
sa(dp256
g5
S'f5'
p257
sa(dp258
g8
S'black_pawn'
p259
sg5
S'f6'
p260
sa(dp261
g5
S'f7'
p262
sa(dp263
g5
S'f8'
p264
sa(dp265
g5
S'g1'
p266
sa(dp267
g8
S'white_king'
p268
sg5
S'g2'
p269
sa(dp270
g8
S'white_pawn'
p271
sg5
S'g3'
p272
sa(dp273
g5
S'g4'
p274
sa(dp275
g5
S'g5'
p276
sa(dp277
g5
S'g6'
p278
sa(dp279
g8
S'black_pawn'
p280
sg5
S'g7'
p281
sa(dp282
g5
S'g8'
p283
sa(dp284
g5
S'h1'
p285
sa(dp286
g8
S'white_pawn'
p287
sg5
S'h2'
p288
sa(dp289
g5
S'h3'
p290
sa(dp291
g5
S'h4'
p292
sa(dp293
g5
S'h5'
p294
sa(dp295
g5
S'h6'
p296
sa(dp297
g8
S'black_pawn'
p298
sg5
S'h7'
p299
sa(dp300
g5
S'h8'
p301
saaVI hit his rook.
p302
aa(lp303
S'32. Rd1'
p304
a(lp305
(dp306
g5
S'a1'
p307
sa(dp308
g8
S'white_pawn'
p309
sg5
S'a2'
p310
sa(dp311
g5
S'a3'
p312
sa(dp313
g5
S'a4'
p314
sa(dp315
g5
S'a5'
p316
sa(dp317
g8
S'black_pawn'
p318
sg5
S'a6'
p319
sa(dp320
g5
S'a7'
p321
sa(dp322
g5
S'a8'
p323
sa(dp324
g5
S'b1'
p325
sa(dp326
g5
S'b2'
p327
sa(dp328
g8
S'white_pawn'
p329
sg5
S'b3'
p330
sa(dp331
g5
S'b4'
p332
sa(dp333
g8
S'black_pawn'
p334
sg5
S'b5'
p335
sa(dp336
g5
S'b6'
p337
sa(dp338
g5
S'b7'
p339
sa(dp340
g5
S'b8'
p341
sa(dp342
g5
S'c1'
p343
sa(dp344
g5
S'c2'
p345
sa(dp346
g5
S'c3'
p347
sa(dp348
g5
S'c4'
p349
sa(dp350
g5
S'c5'
p351
sa(dp352
g5
S'c6'
p353
sa(dp354
g5
S'c7'
p355
sa(dp356
g5
S'c8'
p357
sa(dp358
g8
S'white_rook'
p359
sg5
S'd1'
p360
sa(dp361
g5
S'd2'
p362
sa(dp363
g8
S'white_pawn'
p364
sg5
S'd3'
p365
sa(dp366
g5
S'd4'
p367
sa(dp368
g5
S'd5'
p369
sa(dp370
g8
S'black_rook'
p371
sg5
S'd6'
p372
sa(dp373
g8
S'black_king'
p374
sg5
S'd7'
p375
sa(dp376
g5
S'd8'
p377
sa(dp378
g5
S'e1'
p379
sa(dp380
g8
S'black_knight'
p381
sg5
S'e2'
p382
sa(dp383
g8
S'white_knight'
p384
sg5
S'e3'
p385
sa(dp386
g8
S'black_pawn'
p387
sg5
S'e4'
p388
sa(dp389
g5
S'e5'
p390
sa(dp391
g5
S'e6'
p392
sa(dp393
g5
S'e7'
p394
sa(dp395
g5
S'e8'
p396
sa(dp397
g5
S'f1'
p398
sa(dp399
g8
S'white_pawn'
p400
sg5
S'f2'
p401
sa(dp402
g5
S'f3'
p403
sa(dp404
g5
S'f4'
p405
sa(dp406
g5
S'f5'
p407
sa(dp408
g8
S'black_pawn'
p409
sg5
S'f6'
p410
sa(dp411
g5
S'f7'
p412
sa(dp413
g5
S'f8'
p414
sa(dp415
g5
S'g1'
p416
sa(dp417
g8
S'white_king'
p418
sg5
S'g2'
p419
sa(dp420
g8
S'white_pawn'
p421
sg5
S'g3'
p422
sa(dp423
g5
S'g4'
p424
sa(dp425
g5
S'g5'
p426
sa(dp427
g5
S'g6'
p428
sa(dp429
g8
S'black_pawn'
p430
sg5
S'g7'
p431
sa(dp432
g5
S'g8'
p433
sa(dp434
g5
S'h1'
p435
sa(dp436
g8
S'white_pawn'
p437
sg5
S'h2'
p438
sa(dp439
g5
S'h3'
p440
sa(dp441
g5
S'h4'
p442
sa(dp443
g5
S'h5'
p444
sa(dp445
g5
S'h6'
p446
sa(dp447
g8
S'black_pawn'
p448
sg5
S'h7'
p449
sa(dp450
g5
S'h8'
p451
saaVRook moves.
p452
aa(lp453
S'32... Rxd3'
p454
a(lp455
(dp456
g5
S'a1'
p457
sa(dp458
g8
S'white_pawn'
p459
sg5
S'a2'
p460
sa(dp461
g5
S'a3'
p462
sa(dp463
g5
S'a4'
p464
sa(dp465
g5
S'a5'
p466
sa(dp467
g8
S'black_pawn'
p468
sg5
S'a6'
p469
sa(dp470
g5
S'a7'
p471
sa(dp472
g5
S'a8'
p473
sa(dp474
g5
S'b1'
p475
sa(dp476
g5
S'b2'
p477
sa(dp478
g8
S'white_pawn'
p479
sg5
S'b3'
p480
sa(dp481
g5
S'b4'
p482
sa(dp483
g8
S'black_pawn'
p484
sg5
S'b5'
p485
sa(dp486
g5
S'b6'
p487
sa(dp488
g5
S'b7'
p489
sa(dp490
g5
S'b8'
p491
sa(dp492
g5
S'c1'
p493
sa(dp494
g5
S'c2'
p495
sa(dp496
g5
S'c3'
p497
sa(dp498
g5
S'c4'
p499
sa(dp500
g5
S'c5'
p501
sa(dp502
g5
S'c6'
p503
sa(dp504
g5
S'c7'
p505
sa(dp506
g5
S'c8'
p507
sa(dp508
g8
S'white_rook'
p509
sg5
S'd1'
p510
sa(dp511
g5
S'd2'
p512
sa(dp513
g8
S'black_rook'
p514
sg5
S'd3'
p515
sa(dp516
g5
S'd4'
p517
sa(dp518
g5
S'd5'
p519
sa(dp520
g5
S'd6'
p521
sa(dp522
g8
S'black_king'
p523
sg5
S'd7'
p524
sa(dp525
g5
S'd8'
p526
sa(dp527
g5
S'e1'
p528
sa(dp529
g8
S'black_knight'
p530
sg5
S'e2'
p531
sa(dp532
g8
S'white_knight'
p533
sg5
S'e3'
p534
sa(dp535
g8
S'black_pawn'
p536
sg5
S'e4'
p537
sa(dp538
g5
S'e5'
p539
sa(dp540
g5
S'e6'
p541
sa(dp542
g5
S'e7'
p543
sa(dp544
g5
S'e8'
p545
sa(dp546
g5
S'f1'
p547
sa(dp548
g8
S'white_pawn'
p549
sg5
S'f2'
p550
sa(dp551
g5
S'f3'
p552
sa(dp553
g5
S'f4'
p554
sa(dp555
g5
S'f5'
p556
sa(dp557
g8
S'black_pawn'
p558
sg5
S'f6'
p559
sa(dp560
g5
S'f7'
p561
sa(dp562
g5
S'f8'
p563
sa(dp564
g5
S'g1'
p565
sa(dp566
g8
S'white_king'
p567
sg5
S'g2'
p568
sa(dp569
g8
S'white_pawn'
p570
sg5
S'g3'
p571
sa(dp572
g5
S'g4'
p573
sa(dp574
g5
S'g5'
p575
sa(dp576
g5
S'g6'
p577
sa(dp578
g8
S'black_pawn'
p579
sg5
S'g7'
p580
sa(dp581
g5
S'g8'
p582
sa(dp583
g5
S'h1'
p584
sa(dp585
g8
S'white_pawn'
p586
sg5
S'h2'
p587
sa(dp588
g5
S'h3'
p589
sa(dp590
g5
S'h4'
p591
sa(dp592
g5
S'h5'
p593
sa(dp594
g5
S'h6'
p595
sa(dp596
g8
S'black_pawn'
p597
sg5
S'h7'
p598
sa(dp599
g5
S'h8'
p600
saaVI take.
p601
aa(lp602
S'33. Rxd3+'
p603
a(lp604
(dp605
g5
S'a1'
p606
sa(dp607
g8
S'white_pawn'
p608
sg5
S'a2'
p609
sa(dp610
g5
S'a3'
p611
sa(dp612
g5
S'a4'
p613
sa(dp614
g5
S'a5'
p615
sa(dp616
g8
S'black_pawn'
p617
sg5
S'a6'
p618
sa(dp619
g5
S'a7'
p620
sa(dp621
g5
S'a8'
p622
sa(dp623
g5
S'b1'
p624
sa(dp625
g5
S'b2'
p626
sa(dp627
g8
S'white_pawn'
p628
sg5
S'b3'
p629
sa(dp630
g5
S'b4'
p631
sa(dp632
g8
S'black_pawn'
p633
sg5
S'b5'
p634
sa(dp635
g5
S'b6'
p636
sa(dp637
g5
S'b7'
p638
sa(dp639
g5
S'b8'
p640
sa(dp641
g5
S'c1'
p642
sa(dp643
g5
S'c2'
p644
sa(dp645
g5
S'c3'
p646
sa(dp647
g5
S'c4'
p648
sa(dp649
g5
S'c5'
p650
sa(dp651
g5
S'c6'
p652
sa(dp653
g5
S'c7'
p654
sa(dp655
g5
S'c8'
p656
sa(dp657
g5
S'd1'
p658
sa(dp659
g5
S'd2'
p660
sa(dp661
g8
S'white_rook'
p662
sg5
S'd3'
p663
sa(dp664
g5
S'd4'
p665
sa(dp666
g5
S'd5'
p667
sa(dp668
g5
S'd6'
p669
sa(dp670
g8
S'black_king'
p671
sg5
S'd7'
p672
sa(dp673
g5
S'd8'
p674
sa(dp675
g5
S'e1'
p676
sa(dp677
g8
S'black_knight'
p678
sg5
S'e2'
p679
sa(dp680
g8
S'white_knight'
p681
sg5
S'e3'
p682
sa(dp683
g8
S'black_pawn'
p684
sg5
S'e4'
p685
sa(dp686
g5
S'e5'
p687
sa(dp688
g5
S'e6'
p689
sa(dp690
g5
S'e7'
p691
sa(dp692
g5
S'e8'
p693
sa(dp694
g5
S'f1'
p695
sa(dp696
g8
S'white_pawn'
p697
sg5
S'f2'
p698
sa(dp699
g5
S'f3'
p700
sa(dp701
g5
S'f4'
p702
sa(dp703
g5
S'f5'
p704
sa(dp705
g8
S'black_pawn'
p706
sg5
S'f6'
p707
sa(dp708
g5
S'f7'
p709
sa(dp710
g5
S'f8'
p711
sa(dp712
g5
S'g1'
p713
sa(dp714
g8
S'white_king'
p715
sg5
S'g2'
p716
sa(dp717
g8
S'white_pawn'
p718
sg5
S'g3'
p719
sa(dp720
g5
S'g4'
p721
sa(dp722
g5
S'g5'
p723
sa(dp724
g5
S'g6'
p725
sa(dp726
g8
S'black_pawn'
p727
sg5
S'g7'
p728
sa(dp729
g5
S'g8'
p730
sa(dp731
g5
S'h1'
p732
sa(dp733
g8
S'white_pawn'
p734
sg5
S'h2'
p735
sa(dp736
g5
S'h3'
p737
sa(dp738
g5
S'h4'
p739
sa(dp740
g5
S'h5'
p741
sa(dp742
g5
S'h6'
p743
sa(dp744
g8
S'black_pawn'
p745
sg5
S'h7'
p746
sa(dp747
g5
S'h8'
p748
saaVHe takes back.
p749
aa(lp750
S'33... exd3'
p751
a(lp752
(dp753
g5
S'a1'
p754
sa(dp755
g8
S'white_pawn'
p756
sg5
S'a2'
p757
sa(dp758
g5
S'a3'
p759
sa(dp760
g5
S'a4'
p761
sa(dp762
g5
S'a5'
p763
sa(dp764
g8
S'black_pawn'
p765
sg5
S'a6'
p766
sa(dp767
g5
S'a7'
p768
sa(dp769
g5
S'a8'
p770
sa(dp771
g5
S'b1'
p772
sa(dp773
g5
S'b2'
p774
sa(dp775
g8
S'white_pawn'
p776
sg5
S'b3'
p777
sa(dp778
g5
S'b4'
p779
sa(dp780
g8
S'black_pawn'
p781
sg5
S'b5'
p782
sa(dp783
g5
S'b6'
p784
sa(dp785
g5
S'b7'
p786
sa(dp787
g5
S'b8'
p788
sa(dp789
g5
S'c1'
p790
sa(dp791
g5
S'c2'
p792
sa(dp793
g5
S'c3'
p794
sa(dp795
g5
S'c4'
p796
sa(dp797
g5
S'c5'
p798
sa(dp799
g5
S'c6'
p800
sa(dp801
g5
S'c7'
p802
sa(dp803
g5
S'c8'
p804
sa(dp805
g5
S'd1'
p806
sa(dp807
g5
S'd2'
p808
sa(dp809
g8
S'black_pawn'
p810
sg5
S'd3'
p811
sa(dp812
g5
S'd4'
p813
sa(dp814
g5
S'd5'
p815
sa(dp816
g5
S'd6'
p817
sa(dp818
g8
S'black_king'
p819
sg5
S'd7'
p820
sa(dp821
g5
S'd8'
p822
sa(dp823
g5
S'e1'
p824
sa(dp825
g8
S'black_knight'
p826
sg5
S'e2'
p827
sa(dp828
g8
S'white_knight'
p829
sg5
S'e3'
p830
sa(dp831
g5
S'e4'
p832
sa(dp833
g5
S'e5'
p834
sa(dp835
g5
S'e6'
p836
sa(dp837
g5
S'e7'
p838
sa(dp839
g5
S'e8'
p840
sa(dp841
g5
S'f1'
p842
sa(dp843
g8
S'white_pawn'
p844
sg5
S'f2'
p845
sa(dp846
g5
S'f3'
p847
sa(dp848
g5
S'f4'
p849
sa(dp850
g5
S'f5'
p851
sa(dp852
g8
S'black_pawn'
p853
sg5
S'f6'
p854
sa(dp855
g5
S'f7'
p856
sa(dp857
g5
S'f8'
p858
sa(dp859
g5
S'g1'
p860
sa(dp861
g8
S'white_king'
p862
sg5
S'g2'
p863
sa(dp864
g8
S'white_pawn'
p865
sg5
S'g3'
p866
sa(dp867
g5
S'g4'
p868
sa(dp869
g5
S'g5'
p870
sa(dp871
g5
S'g6'
p872
sa(dp873
g8
S'black_pawn'
p874
sg5
S'g7'
p875
sa(dp876
g5
S'g8'
p877
sa(dp878
g5
S'h1'
p879
sa(dp880
g8
S'white_pawn'
p881
sg5
S'h2'
p882
sa(dp883
g5
S'h3'
p884
sa(dp885
g5
S'h4'
p886
sa(dp887
g5
S'h5'
p888
sa(dp889
g5
S'h6'
p890
sa(dp891
g8
S'black_pawn'
p892
sg5
S'h7'
p893
sa(dp894
g5
S'h8'
p895
saaVI take.
p896
aa(lp897
S'34. Nd1'
p898
a(lp899
(dp900
g5
S'a1'
p901
sa(dp902
g8
S'white_pawn'
p903
sg5
S'a2'
p904
sa(dp905
g5
S'a3'
p906
sa(dp907
g5
S'a4'
p908
sa(dp909
g5
S'a5'
p910
sa(dp911
g8
S'black_pawn'
p912
sg5
S'a6'
p913
sa(dp914
g5
S'a7'
p915
sa(dp916
g5
S'a8'
p917
sa(dp918
g5
S'b1'
p919
sa(dp920
g5
S'b2'
p921
sa(dp922
g8
S'white_pawn'
p923
sg5
S'b3'
p924
sa(dp925
g5
S'b4'
p926
sa(dp927
g8
S'black_pawn'
p928
sg5
S'b5'
p929
sa(dp930
g5
S'b6'
p931
sa(dp932
g5
S'b7'
p933
sa(dp934
g5
S'b8'
p935
sa(dp936
g5
S'c1'
p937
sa(dp938
g5
S'c2'
p939
sa(dp940
g5
S'c3'
p941
sa(dp942
g5
S'c4'
p943
sa(dp944
g5
S'c5'
p945
sa(dp946
g5
S'c6'
p947
sa(dp948
g5
S'c7'
p949
sa(dp950
g5
S'c8'
p951
sa(dp952
g8
S'white_knight'
p953
sg5
S'd1'
p954
sa(dp955
g5
S'd2'
p956
sa(dp957
g8
S'black_pawn'
p958
sg5
S'd3'
p959
sa(dp960
g5
S'd4'
p961
sa(dp962
g5
S'd5'
p963
sa(dp964
g5
S'd6'
p965
sa(dp966
g8
S'black_king'
p967
sg5
S'd7'
p968
sa(dp969
g5
S'd8'
p970
sa(dp971
g5
S'e1'
p972
sa(dp973
g8
S'black_knight'
p974
sg5
S'e2'
p975
sa(dp976
g5
S'e3'
p977
sa(dp978
g5
S'e4'
p979
sa(dp980
g5
S'e5'
p981
sa(dp982
g5
S'e6'
p983
sa(dp984
g5
S'e7'
p985
sa(dp986
g5
S'e8'
p987
sa(dp988
g5
S'f1'
p989
sa(dp990
g8
S'white_pawn'
p991
sg5
S'f2'
p992
sa(dp993
g5
S'f3'
p994
sa(dp995
g5
S'f4'
p996
sa(dp997
g5
S'f5'
p998
sa(dp999
g8
S'black_pawn'
p1000
sg5
S'f6'
p1001
sa(dp1002
g5
S'f7'
p1003
sa(dp1004
g5
S'f8'
p1005
sa(dp1006
g5
S'g1'
p1007
sa(dp1008
g8
S'white_king'
p1009
sg5
S'g2'
p1010
sa(dp1011
g8
S'white_pawn'
p1012
sg5
S'g3'
p1013
sa(dp1014
g5
S'g4'
p1015
sa(dp1016
g5
S'g5'
p1017
sa(dp1018
g5
S'g6'
p1019
sa(dp1020
g8
S'black_pawn'
p1021
sg5
S'g7'
p1022
sa(dp1023
g5
S'g8'
p1024
sa(dp1025
g5
S'h1'
p1026
sa(dp1027
g8
S'white_pawn'
p1028
sg5
S'h2'
p1029
sa(dp1030
g5
S'h3'
p1031
sa(dp1032
g5
S'h4'
p1033
sa(dp1034
g5
S'h5'
p1035
sa(dp1036
g5
S'h6'
p1037
sa(dp1038
g8
S'black_pawn'
p1039
sg5
S'h7'
p1040
sa(dp1041
g5
S'h8'
p1042
saaVHe blocks the pawn with his knight.
p1043
aa(lp1044
S'34... b4'
p1045
a(lp1046
(dp1047
g5
S'a1'
p1048
sa(dp1049
g8
S'white_pawn'
p1050
sg5
S'a2'
p1051
sa(dp1052
g5
S'a3'
p1053
sa(dp1054
g5
S'a4'
p1055
sa(dp1056
g5
S'a5'
p1057
sa(dp1058
g8
S'black_pawn'
p1059
sg5
S'a6'
p1060
sa(dp1061
g5
S'a7'
p1062
sa(dp1063
g5
S'a8'
p1064
sa(dp1065
g5
S'b1'
p1066
sa(dp1067
g5
S'b2'
p1068
sa(dp1069
g8
S'white_pawn'
p1070
sg5
S'b3'
p1071
sa(dp1072
g8
S'black_pawn'
p1073
sg5
S'b4'
p1074
sa(dp1075
g5
S'b5'
p1076
sa(dp1077
g5
S'b6'
p1078
sa(dp1079
g5
S'b7'
p1080
sa(dp1081
g5
S'b8'
p1082
sa(dp1083
g5
S'c1'
p1084
sa(dp1085
g5
S'c2'
p1086
sa(dp1087
g5
S'c3'
p1088
sa(dp1089
g5
S'c4'
p1090
sa(dp1091
g5
S'c5'
p1092
sa(dp1093
g5
S'c6'
p1094
sa(dp1095
g5
S'c7'
p1096
sa(dp1097
g5
S'c8'
p1098
sa(dp1099
g8
S'white_knight'
p1100
sg5
S'd1'
p1101
sa(dp1102
g5
S'd2'
p1103
sa(dp1104
g8
S'black_pawn'
p1105
sg5
S'd3'
p1106
sa(dp1107
g5
S'd4'
p1108
sa(dp1109
g5
S'd5'
p1110
sa(dp1111
g5
S'd6'
p1112
sa(dp1113
g8
S'black_king'
p1114
sg5
S'd7'
p1115
sa(dp1116
g5
S'd8'
p1117
sa(dp1118
g5
S'e1'
p1119
sa(dp1120
g8
S'black_knight'
p1121
sg5
S'e2'
p1122
sa(dp1123
g5
S'e3'
p1124
sa(dp1125
g5
S'e4'
p1126
sa(dp1127
g5
S'e5'
p1128
sa(dp1129
g5
S'e6'
p1130
sa(dp1131
g5
S'e7'
p1132
sa(dp1133
g5
S'e8'
p1134
sa(dp1135
g5
S'f1'
p1136
sa(dp1137
g8
S'white_pawn'
p1138
sg5
S'f2'
p1139
sa(dp1140
g5
S'f3'
p1141
sa(dp1142
g5
S'f4'
p1143
sa(dp1144
g5
S'f5'
p1145
sa(dp1146
g8
S'black_pawn'
p1147
sg5
S'f6'
p1148
sa(dp1149
g5
S'f7'
p1150
sa(dp1151
g5
S'f8'
p1152
sa(dp1153
g5
S'g1'
p1154
sa(dp1155
g8
S'white_king'
p1156
sg5
S'g2'
p1157
sa(dp1158
g8
S'white_pawn'
p1159
sg5
S'g3'
p1160
sa(dp1161
g5
S'g4'
p1162
sa(dp1163
g5
S'g5'
p1164
sa(dp1165
g5
S'g6'
p1166
sa(dp1167
g8
S'black_pawn'
p1168
sg5
S'g7'
p1169
sa(dp1170
g5
S'g8'
p1171
sa(dp1172
g5
S'h1'
p1173
sa(dp1174
g8
S'white_pawn'
p1175
sg5
S'h2'
p1176
sa(dp1177
g5
S'h3'
p1178
sa(dp1179
g5
S'h4'
p1180
sa(dp1181
g5
S'h5'
p1182
sa(dp1183
g5
S'h6'
p1184
sa(dp1185
g8
S'black_pawn'
p1186
sg5
S'h7'
p1187
sa(dp1188
g5
S'h8'
p1189
saaVI tie down his queen-side pawns.
p1190
aa(lp1191
S'35. Kf3'
p1192
a(lp1193
(dp1194
g5
S'a1'
p1195
sa(dp1196
g8
S'white_pawn'
p1197
sg5
S'a2'
p1198
sa(dp1199
g5
S'a3'
p1200
sa(dp1201
g5
S'a4'
p1202
sa(dp1203
g5
S'a5'
p1204
sa(dp1205
g8
S'black_pawn'
p1206
sg5
S'a6'
p1207
sa(dp1208
g5
S'a7'
p1209
sa(dp1210
g5
S'a8'
p1211
sa(dp1212
g5
S'b1'
p1213
sa(dp1214
g5
S'b2'
p1215
sa(dp1216
g8
S'white_pawn'
p1217
sg5
S'b3'
p1218
sa(dp1219
g8
S'black_pawn'
p1220
sg5
S'b4'
p1221
sa(dp1222
g5
S'b5'
p1223
sa(dp1224
g5
S'b6'
p1225
sa(dp1226
g5
S'b7'
p1227
sa(dp1228
g5
S'b8'
p1229
sa(dp1230
g5
S'c1'
p1231
sa(dp1232
g5
S'c2'
p1233
sa(dp1234
g5
S'c3'
p1235
sa(dp1236
g5
S'c4'
p1237
sa(dp1238
g5
S'c5'
p1239
sa(dp1240
g5
S'c6'
p1241
sa(dp1242
g5
S'c7'
p1243
sa(dp1244
g5
S'c8'
p1245
sa(dp1246
g8
S'white_knight'
p1247
sg5
S'd1'
p1248
sa(dp1249
g5
S'd2'
p1250
sa(dp1251
g8
S'black_pawn'
p1252
sg5
S'd3'
p1253
sa(dp1254
g5
S'd4'
p1255
sa(dp1256
g5
S'd5'
p1257
sa(dp1258
g5
S'd6'
p1259
sa(dp1260
g8
S'black_king'
p1261
sg5
S'd7'
p1262
sa(dp1263
g5
S'd8'
p1264
sa(dp1265
g5
S'e1'
p1266
sa(dp1267
g8
S'black_knight'
p1268
sg5
S'e2'
p1269
sa(dp1270
g5
S'e3'
p1271
sa(dp1272
g5
S'e4'
p1273
sa(dp1274
g5
S'e5'
p1275
sa(dp1276
g5
S'e6'
p1277
sa(dp1278
g5
S'e7'
p1279
sa(dp1280
g5
S'e8'
p1281
sa(dp1282
g5
S'f1'
p1283
sa(dp1284
g8
S'white_pawn'
p1285
sg5
S'f2'
p1286
sa(dp1287
g8
S'white_king'
p1288
sg5
S'f3'
p1289
sa(dp1290
g5
S'f4'
p1291
sa(dp1292
g5
S'f5'
p1293
sa(dp1294
g8
S'black_pawn'
p1295
sg5
S'f6'
p1296
sa(dp1297
g5
S'f7'
p1298
sa(dp1299
g5
S'f8'
p1300
sa(dp1301
g5
S'g1'
p1302
sa(dp1303
g5
S'g2'
p1304
sa(dp1305
g8
S'white_pawn'
p1306
sg5
S'g3'
p1307
sa(dp1308
g5
S'g4'
p1309
sa(dp1310
g5
S'g5'
p1311
sa(dp1312
g5
S'g6'
p1313
sa(dp1314
g8
S'black_pawn'
p1315
sg5
S'g7'
p1316
sa(dp1317
g5
S'g8'
p1318
sa(dp1319
g5
S'h1'
p1320
sa(dp1321
g8
S'white_pawn'
p1322
sg5
S'h2'
p1323
sa(dp1324
g5
S'h3'
p1325
sa(dp1326
g5
S'h4'
p1327
sa(dp1328
g5
S'h5'
p1329
sa(dp1330
g5
S'h6'
p1331
sa(dp1332
g8
S'black_pawn'
p1333
sg5
S'h7'
p1334
sa(dp1335
g5
S'h8'
p1336
saaVHis king comes across to help.
p1337
aa(lp1338
S'35... Nc3'
p1339
a(lp1340
(dp1341
g5
S'a1'
p1342
sa(dp1343
g8
S'white_pawn'
p1344
sg5
S'a2'
p1345
sa(dp1346
g5
S'a3'
p1347
sa(dp1348
g5
S'a4'
p1349
sa(dp1350
g5
S'a5'
p1351
sa(dp1352
g8
S'black_pawn'
p1353
sg5
S'a6'
p1354
sa(dp1355
g5
S'a7'
p1356
sa(dp1357
g5
S'a8'
p1358
sa(dp1359
g5
S'b1'
p1360
sa(dp1361
g5
S'b2'
p1362
sa(dp1363
g8
S'white_pawn'
p1364
sg5
S'b3'
p1365
sa(dp1366
g8
S'black_pawn'
p1367
sg5
S'b4'
p1368
sa(dp1369
g5
S'b5'
p1370
sa(dp1371
g5
S'b6'
p1372
sa(dp1373
g5
S'b7'
p1374
sa(dp1375
g5
S'b8'
p1376
sa(dp1377
g5
S'c1'
p1378
sa(dp1379
g5
S'c2'
p1380
sa(dp1381
g8
S'black_knight'
p1382
sg5
S'c3'
p1383
sa(dp1384
g5
S'c4'
p1385
sa(dp1386
g5
S'c5'
p1387
sa(dp1388
g5
S'c6'
p1389
sa(dp1390
g5
S'c7'
p1391
sa(dp1392
g5
S'c8'
p1393
sa(dp1394
g8
S'white_knight'
p1395
sg5
S'd1'
p1396
sa(dp1397
g5
S'd2'
p1398
sa(dp1399
g8
S'black_pawn'
p1400
sg5
S'd3'
p1401
sa(dp1402
g5
S'd4'
p1403
sa(dp1404
g5
S'd5'
p1405
sa(dp1406
g5
S'd6'
p1407
sa(dp1408
g8
S'black_king'
p1409
sg5
S'd7'
p1410
sa(dp1411
g5
S'd8'
p1412
sa(dp1413
g5
S'e1'
p1414
sa(dp1415
g5
S'e2'
p1416
sa(dp1417
g5
S'e3'
p1418
sa(dp1419
g5
S'e4'
p1420
sa(dp1421
g5
S'e5'
p1422
sa(dp1423
g5
S'e6'
p1424
sa(dp1425
g5
S'e7'
p1426
sa(dp1427
g5
S'e8'
p1428
sa(dp1429
g5
S'f1'
p1430
sa(dp1431
g8
S'white_pawn'
p1432
sg5
S'f2'
p1433
sa(dp1434
g8
S'white_king'
p1435
sg5
S'f3'
p1436
sa(dp1437
g5
S'f4'
p1438
sa(dp1439
g5
S'f5'
p1440
sa(dp1441
g8
S'black_pawn'
p1442
sg5
S'f6'
p1443
sa(dp1444
g5
S'f7'
p1445
sa(dp1446
g5
S'f8'
p1447
sa(dp1448
g5
S'g1'
p1449
sa(dp1450
g5
S'g2'
p1451
sa(dp1452
g8
S'white_pawn'
p1453
sg5
S'g3'
p1454
sa(dp1455
g5
S'g4'
p1456
sa(dp1457
g5
S'g5'
p1458
sa(dp1459
g5
S'g6'
p1460
sa(dp1461
g8
S'black_pawn'
p1462
sg5
S'g7'
p1463
sa(dp1464
g5
S'g8'
p1465
sa(dp1466
g5
S'h1'
p1467
sa(dp1468
g8
S'white_pawn'
p1469
sg5
S'h2'
p1470
sa(dp1471
g5
S'h3'
p1472
sa(dp1473
g5
S'h4'
p1474
sa(dp1475
g5
S'h5'
p1476
sa(dp1477
g5
S'h6'
p1478
sa(dp1479
g8
S'black_pawn'
p1480
sg5
S'h7'
p1481
sa(dp1482
g5
S'h8'
p1483
saaVHe resigns. Many thanks for reading this annotation, please rate it on the star system and leave a comment or two to let me know how I am doing. Until next time dear reader!
p1484
aa.