(lp0
(lp1
S'1. e4'
p2
a(lp3
(dp4
S'piece'
p5
S'white_rook'
p6
sS'location'
p7
S'a1'
p8
sa(dp9
g5
S'white_pawn'
p10
sg7
S'a2'
p11
sa(dp12
g7
S'a3'
p13
sa(dp14
g7
S'a4'
p15
sa(dp16
g7
S'a5'
p17
sa(dp18
g7
S'a6'
p19
sa(dp20
g5
S'black_pawn'
p21
sg7
S'a7'
p22
sa(dp23
g5
S'black_rook'
p24
sg7
S'a8'
p25
sa(dp26
g5
S'white_knight'
p27
sg7
S'b1'
p28
sa(dp29
g5
S'white_pawn'
p30
sg7
S'b2'
p31
sa(dp32
g7
S'b3'
p33
sa(dp34
g7
S'b4'
p35
sa(dp36
g7
S'b5'
p37
sa(dp38
g7
S'b6'
p39
sa(dp40
g5
S'black_pawn'
p41
sg7
S'b7'
p42
sa(dp43
g5
S'black_knight'
p44
sg7
S'b8'
p45
sa(dp46
g5
S'white_bishop'
p47
sg7
S'c1'
p48
sa(dp49
g5
S'white_pawn'
p50
sg7
S'c2'
p51
sa(dp52
g7
S'c3'
p53
sa(dp54
g7
S'c4'
p55
sa(dp56
g7
S'c5'
p57
sa(dp58
g7
S'c6'
p59
sa(dp60
g5
S'black_pawn'
p61
sg7
S'c7'
p62
sa(dp63
g5
S'black_bishop'
p64
sg7
S'c8'
p65
sa(dp66
g5
S'white_queen'
p67
sg7
S'd1'
p68
sa(dp69
g5
S'white_pawn'
p70
sg7
S'd2'
p71
sa(dp72
g7
S'd3'
p73
sa(dp74
g7
S'd4'
p75
sa(dp76
g7
S'd5'
p77
sa(dp78
g7
S'd6'
p79
sa(dp80
g5
S'black_pawn'
p81
sg7
S'd7'
p82
sa(dp83
g5
S'black_queen'
p84
sg7
S'd8'
p85
sa(dp86
g5
S'white_king'
p87
sg7
S'e1'
p88
sa(dp89
g7
S'e2'
p90
sa(dp91
g7
S'e3'
p92
sa(dp93
g5
S'white_pawn'
p94
sg7
S'e4'
p95
sa(dp96
g7
S'e5'
p97
sa(dp98
g7
S'e6'
p99
sa(dp100
g5
S'black_pawn'
p101
sg7
S'e7'
p102
sa(dp103
g5
S'black_king'
p104
sg7
S'e8'
p105
sa(dp106
g5
S'white_bishop'
p107
sg7
S'f1'
p108
sa(dp109
g5
S'white_pawn'
p110
sg7
S'f2'
p111
sa(dp112
g7
S'f3'
p113
sa(dp114
g7
S'f4'
p115
sa(dp116
g7
S'f5'
p117
sa(dp118
g7
S'f6'
p119
sa(dp120
g5
S'black_pawn'
p121
sg7
S'f7'
p122
sa(dp123
g5
S'black_bishop'
p124
sg7
S'f8'
p125
sa(dp126
g5
S'white_knight'
p127
sg7
S'g1'
p128
sa(dp129
g5
S'white_pawn'
p130
sg7
S'g2'
p131
sa(dp132
g7
S'g3'
p133
sa(dp134
g7
S'g4'
p135
sa(dp136
g7
S'g5'
p137
sa(dp138
g7
S'g6'
p139
sa(dp140
g5
S'black_pawn'
p141
sg7
S'g7'
p142
sa(dp143
g5
S'black_knight'
p144
sg7
S'g8'
p145
sa(dp146
g5
S'white_rook'
p147
sg7
S'h1'
p148
sa(dp149
g5
S'white_pawn'
p150
sg7
S'h2'
p151
sa(dp152
g7
S'h3'
p153
sa(dp154
g7
S'h4'
p155
sa(dp156
g7
S'h5'
p157
sa(dp158
g7
S'h6'
p159
sa(dp160
g5
S'black_pawn'
p161
sg7
S'h7'
p162
sa(dp163
g5
S'black_rook'
p164
sg7
S'h8'
p165
saaVI start off with my usual.
p166
aa(lp167
S'1... e5'
p168
a(lp169
(dp170
g5
S'white_rook'
p171
sg7
S'a1'
p172
sa(dp173
g5
S'white_pawn'
p174
sg7
S'a2'
p175
sa(dp176
g7
S'a3'
p177
sa(dp178
g7
S'a4'
p179
sa(dp180
g7
S'a5'
p181
sa(dp182
g7
S'a6'
p183
sa(dp184
g5
S'black_pawn'
p185
sg7
S'a7'
p186
sa(dp187
g5
S'black_rook'
p188
sg7
S'a8'
p189
sa(dp190
g5
S'white_knight'
p191
sg7
S'b1'
p192
sa(dp193
g5
S'white_pawn'
p194
sg7
S'b2'
p195
sa(dp196
g7
S'b3'
p197
sa(dp198
g7
S'b4'
p199
sa(dp200
g7
S'b5'
p201
sa(dp202
g7
S'b6'
p203
sa(dp204
g5
S'black_pawn'
p205
sg7
S'b7'
p206
sa(dp207
g5
S'black_knight'
p208
sg7
S'b8'
p209
sa(dp210
g5
S'white_bishop'
p211
sg7
S'c1'
p212
sa(dp213
g5
S'white_pawn'
p214
sg7
S'c2'
p215
sa(dp216
g7
S'c3'
p217
sa(dp218
g7
S'c4'
p219
sa(dp220
g7
S'c5'
p221
sa(dp222
g7
S'c6'
p223
sa(dp224
g5
S'black_pawn'
p225
sg7
S'c7'
p226
sa(dp227
g5
S'black_bishop'
p228
sg7
S'c8'
p229
sa(dp230
g5
S'white_queen'
p231
sg7
S'd1'
p232
sa(dp233
g5
S'white_pawn'
p234
sg7
S'd2'
p235
sa(dp236
g7
S'd3'
p237
sa(dp238
g7
S'd4'
p239
sa(dp240
g7
S'd5'
p241
sa(dp242
g7
S'd6'
p243
sa(dp244
g5
S'black_pawn'
p245
sg7
S'd7'
p246
sa(dp247
g5
S'black_queen'
p248
sg7
S'd8'
p249
sa(dp250
g5
S'white_king'
p251
sg7
S'e1'
p252
sa(dp253
g7
S'e2'
p254
sa(dp255
g7
S'e3'
p256
sa(dp257
g5
S'white_pawn'
p258
sg7
S'e4'
p259
sa(dp260
g5
S'black_pawn'
p261
sg7
S'e5'
p262
sa(dp263
g7
S'e6'
p264
sa(dp265
g7
S'e7'
p266
sa(dp267
g5
S'black_king'
p268
sg7
S'e8'
p269
sa(dp270
g5
S'white_bishop'
p271
sg7
S'f1'
p272
sa(dp273
g5
S'white_pawn'
p274
sg7
S'f2'
p275
sa(dp276
g7
S'f3'
p277
sa(dp278
g7
S'f4'
p279
sa(dp280
g7
S'f5'
p281
sa(dp282
g7
S'f6'
p283
sa(dp284
g5
S'black_pawn'
p285
sg7
S'f7'
p286
sa(dp287
g5
S'black_bishop'
p288
sg7
S'f8'
p289
sa(dp290
g5
S'white_knight'
p291
sg7
S'g1'
p292
sa(dp293
g5
S'white_pawn'
p294
sg7
S'g2'
p295
sa(dp296
g7
S'g3'
p297
sa(dp298
g7
S'g4'
p299
sa(dp300
g7
S'g5'
p301
sa(dp302
g7
S'g6'
p303
sa(dp304
g5
S'black_pawn'
p305
sg7
S'g7'
p306
sa(dp307
g5
S'black_knight'
p308
sg7
S'g8'
p309
sa(dp310
g5
S'white_rook'
p311
sg7
S'h1'
p312
sa(dp313
g5
S'white_pawn'
p314
sg7
S'h2'
p315
sa(dp316
g7
S'h3'
p317
sa(dp318
g7
S'h4'
p319
sa(dp320
g7
S'h5'
p321
sa(dp322
g7
S'h6'
p323
sa(dp324
g5
S'black_pawn'
p325
sg7
S'h7'
p326
sa(dp327
g5
S'black_rook'
p328
sg7
S'h8'
p329
saaVAs does Tom.  Of course, this is going to become the Spanish Opening.  Just like with fiercequeen, this is my favorite as white.
p330
aa(lp331
S'2. Nf3 Nc6 3. Bb5 a6 4. Bxc6'
p332
a(lp333
(dp334
g5
S'white_rook'
p335
sg7
S'a1'
p336
sa(dp337
g5
S'white_pawn'
p338
sg7
S'a2'
p339
sa(dp340
g7
S'a3'
p341
sa(dp342
g7
S'a4'
p343
sa(dp344
g7
S'a5'
p345
sa(dp346
g5
S'black_pawn'
p347
sg7
S'a6'
p348
sa(dp349
g7
S'a7'
p350
sa(dp351
g5
S'black_rook'
p352
sg7
S'a8'
p353
sa(dp354
g5
S'white_knight'
p355
sg7
S'b1'
p356
sa(dp357
g5
S'white_pawn'
p358
sg7
S'b2'
p359
sa(dp360
g7
S'b3'
p361
sa(dp362
g7
S'b4'
p363
sa(dp364
g7
S'b5'
p365
sa(dp366
g7
S'b6'
p367
sa(dp368
g5
S'black_pawn'
p369
sg7
S'b7'
p370
sa(dp371
g7
S'b8'
p372
sa(dp373
g5
S'white_bishop'
p374
sg7
S'c1'
p375
sa(dp376
g5
S'white_pawn'
p377
sg7
S'c2'
p378
sa(dp379
g7
S'c3'
p380
sa(dp381
g7
S'c4'
p382
sa(dp383
g7
S'c5'
p384
sa(dp385
g5
S'white_bishop'
p386
sg7
S'c6'
p387
sa(dp388
g5
S'black_pawn'
p389
sg7
S'c7'
p390
sa(dp391
g5
S'black_bishop'
p392
sg7
S'c8'
p393
sa(dp394
g5
S'white_queen'
p395
sg7
S'd1'
p396
sa(dp397
g5
S'white_pawn'
p398
sg7
S'd2'
p399
sa(dp400
g7
S'd3'
p401
sa(dp402
g7
S'd4'
p403
sa(dp404
g7
S'd5'
p405
sa(dp406
g7
S'd6'
p407
sa(dp408
g5
S'black_pawn'
p409
sg7
S'd7'
p410
sa(dp411
g5
S'black_queen'
p412
sg7
S'd8'
p413
sa(dp414
g5
S'white_king'
p415
sg7
S'e1'
p416
sa(dp417
g7
S'e2'
p418
sa(dp419
g7
S'e3'
p420
sa(dp421
g5
S'white_pawn'
p422
sg7
S'e4'
p423
sa(dp424
g5
S'black_pawn'
p425
sg7
S'e5'
p426
sa(dp427
g7
S'e6'
p428
sa(dp429
g7
S'e7'
p430
sa(dp431
g5
S'black_king'
p432
sg7
S'e8'
p433
sa(dp434
g7
S'f1'
p435
sa(dp436
g5
S'white_pawn'
p437
sg7
S'f2'
p438
sa(dp439
g5
S'white_knight'
p440
sg7
S'f3'
p441
sa(dp442
g7
S'f4'
p443
sa(dp444
g7
S'f5'
p445
sa(dp446
g7
S'f6'
p447
sa(dp448
g5
S'black_pawn'
p449
sg7
S'f7'
p450
sa(dp451
g5
S'black_bishop'
p452
sg7
S'f8'
p453
sa(dp454
g7
S'g1'
p455
sa(dp456
g5
S'white_pawn'
p457
sg7
S'g2'
p458
sa(dp459
g7
S'g3'
p460
sa(dp461
g7
S'g4'
p462
sa(dp463
g7
S'g5'
p464
sa(dp465
g7
S'g6'
p466
sa(dp467
g5
S'black_pawn'
p468
sg7
S'g7'
p469
sa(dp470
g5
S'black_knight'
p471
sg7
S'g8'
p472
sa(dp473
g5
S'white_rook'
p474
sg7
S'h1'
p475
sa(dp476
g5
S'white_pawn'
p477
sg7
S'h2'
p478
sa(dp479
g7
S'h3'
p480
sa(dp481
g7
S'h4'
p482
sa(dp483
g7
S'h5'
p484
sa(dp485
g7
S'h6'
p486
sa(dp487
g5
S'black_pawn'
p488
sg7
S'h7'
p489
sa(dp490
g5
S'black_rook'
p491
sg7
S'h8'
p492
saaVInstead of retreating, I decided to exchange right away.  And, it wasn't just because I could exchange.  I like to hold off.  But, had I retreated with 4.Ba4 then would come something like 4...b5 5.Bb3, and after 5...Na5, I'm forced to exchange.  I'd rather exchange now then at that point.  That's because unlike the doubled pawns that Tom will wind up with, I don't want to allow doubled pawns on my side along the b file.  As that would be of an asset.  And, I didn't want to play 4.Bd3 as that blocks my center pawn.  In fact, I told my student, reachforgoals that it's not a good idea.  However, there's one move that I failed to consider.  So, instead of exchanging, I think that best would've been 4.Be2  As I also considered Bc4 and asked myself what would happen is Tom attacks 4...c6.  4.Bf1 also came into consideration, but I didn't want to undevelop my LSB which would make it difficult to castle.  So, had I given it a little more thought, 4.Be2 is what I would've played, instead.
p493
aa(lp494
S'4... bxc6 5. Nc3'
p495
a(lp496
(dp497
g5
S'white_rook'
p498
sg7
S'a1'
p499
sa(dp500
g5
S'white_pawn'
p501
sg7
S'a2'
p502
sa(dp503
g7
S'a3'
p504
sa(dp505
g7
S'a4'
p506
sa(dp507
g7
S'a5'
p508
sa(dp509
g5
S'black_pawn'
p510
sg7
S'a6'
p511
sa(dp512
g7
S'a7'
p513
sa(dp514
g5
S'black_rook'
p515
sg7
S'a8'
p516
sa(dp517
g7
S'b1'
p518
sa(dp519
g5
S'white_pawn'
p520
sg7
S'b2'
p521
sa(dp522
g7
S'b3'
p523
sa(dp524
g7
S'b4'
p525
sa(dp526
g7
S'b5'
p527
sa(dp528
g7
S'b6'
p529
sa(dp530
g7
S'b7'
p531
sa(dp532
g7
S'b8'
p533
sa(dp534
g5
S'white_bishop'
p535
sg7
S'c1'
p536
sa(dp537
g5
S'white_pawn'
p538
sg7
S'c2'
p539
sa(dp540
g5
S'white_knight'
p541
sg7
S'c3'
p542
sa(dp543
g7
S'c4'
p544
sa(dp545
g7
S'c5'
p546
sa(dp547
g5
S'black_pawn'
p548
sg7
S'c6'
p549
sa(dp550
g5
S'black_pawn'
p551
sg7
S'c7'
p552
sa(dp553
g5
S'black_bishop'
p554
sg7
S'c8'
p555
sa(dp556
g5
S'white_queen'
p557
sg7
S'd1'
p558
sa(dp559
g5
S'white_pawn'
p560
sg7
S'd2'
p561
sa(dp562
g7
S'd3'
p563
sa(dp564
g7
S'd4'
p565
sa(dp566
g7
S'd5'
p567
sa(dp568
g7
S'd6'
p569
sa(dp570
g5
S'black_pawn'
p571
sg7
S'd7'
p572
sa(dp573
g5
S'black_queen'
p574
sg7
S'd8'
p575
sa(dp576
g5
S'white_king'
p577
sg7
S'e1'
p578
sa(dp579
g7
S'e2'
p580
sa(dp581
g7
S'e3'
p582
sa(dp583
g5
S'white_pawn'
p584
sg7
S'e4'
p585
sa(dp586
g5
S'black_pawn'
p587
sg7
S'e5'
p588
sa(dp589
g7
S'e6'
p590
sa(dp591
g7
S'e7'
p592
sa(dp593
g5
S'black_king'
p594
sg7
S'e8'
p595
sa(dp596
g7
S'f1'
p597
sa(dp598
g5
S'white_pawn'
p599
sg7
S'f2'
p600
sa(dp601
g5
S'white_knight'
p602
sg7
S'f3'
p603
sa(dp604
g7
S'f4'
p605
sa(dp606
g7
S'f5'
p607
sa(dp608
g7
S'f6'
p609
sa(dp610
g5
S'black_pawn'
p611
sg7
S'f7'
p612
sa(dp613
g5
S'black_bishop'
p614
sg7
S'f8'
p615
sa(dp616
g7
S'g1'
p617
sa(dp618
g5
S'white_pawn'
p619
sg7
S'g2'
p620
sa(dp621
g7
S'g3'
p622
sa(dp623
g7
S'g4'
p624
sa(dp625
g7
S'g5'
p626
sa(dp627
g7
S'g6'
p628
sa(dp629
g5
S'black_pawn'
p630
sg7
S'g7'
p631
sa(dp632
g5
S'black_knight'
p633
sg7
S'g8'
p634
sa(dp635
g5
S'white_rook'
p636
sg7
S'h1'
p637
sa(dp638
g5
S'white_pawn'
p639
sg7
S'h2'
p640
sa(dp641
g7
S'h3'
p642
sa(dp643
g7
S'h4'
p644
sa(dp645
g7
S'h5'
p646
sa(dp647
g7
S'h6'
p648
sa(dp649
g5
S'black_pawn'
p650
sg7
S'h7'
p651
sa(dp652
g5
S'black_rook'
p653
sg7
S'h8'
p654
saaVBecause Tom did not play the Berlin Defense, I, for the first time in a while, thought about tipsyjouneyman told me in the Ruy Lopez.  So, I decided to hold off on castling for one move by developing another piece.  This is a transposition of what I had considered and what's normally done.  As I usually play 5.0-0, followed by 6.Nc3, in this position.  But, the reverse happened here.
p655
aa(lp656
S'5... Bd6'
p657
a(lp658
(dp659
g5
S'white_rook'
p660
sg7
S'a1'
p661
sa(dp662
g5
S'white_pawn'
p663
sg7
S'a2'
p664
sa(dp665
g7
S'a3'
p666
sa(dp667
g7
S'a4'
p668
sa(dp669
g7
S'a5'
p670
sa(dp671
g5
S'black_pawn'
p672
sg7
S'a6'
p673
sa(dp674
g7
S'a7'
p675
sa(dp676
g5
S'black_rook'
p677
sg7
S'a8'
p678
sa(dp679
g7
S'b1'
p680
sa(dp681
g5
S'white_pawn'
p682
sg7
S'b2'
p683
sa(dp684
g7
S'b3'
p685
sa(dp686
g7
S'b4'
p687
sa(dp688
g7
S'b5'
p689
sa(dp690
g7
S'b6'
p691
sa(dp692
g7
S'b7'
p693
sa(dp694
g7
S'b8'
p695
sa(dp696
g5
S'white_bishop'
p697
sg7
S'c1'
p698
sa(dp699
g5
S'white_pawn'
p700
sg7
S'c2'
p701
sa(dp702
g5
S'white_knight'
p703
sg7
S'c3'
p704
sa(dp705
g7
S'c4'
p706
sa(dp707
g7
S'c5'
p708
sa(dp709
g5
S'black_pawn'
p710
sg7
S'c6'
p711
sa(dp712
g5
S'black_pawn'
p713
sg7
S'c7'
p714
sa(dp715
g5
S'black_bishop'
p716
sg7
S'c8'
p717
sa(dp718
g5
S'white_queen'
p719
sg7
S'd1'
p720
sa(dp721
g5
S'white_pawn'
p722
sg7
S'd2'
p723
sa(dp724
g7
S'd3'
p725
sa(dp726
g7
S'd4'
p727
sa(dp728
g7
S'd5'
p729
sa(dp730
g5
S'black_bishop'
p731
sg7
S'd6'
p732
sa(dp733
g5
S'black_pawn'
p734
sg7
S'd7'
p735
sa(dp736
g5
S'black_queen'
p737
sg7
S'd8'
p738
sa(dp739
g5
S'white_king'
p740
sg7
S'e1'
p741
sa(dp742
g7
S'e2'
p743
sa(dp744
g7
S'e3'
p745
sa(dp746
g5
S'white_pawn'
p747
sg7
S'e4'
p748
sa(dp749
g5
S'black_pawn'
p750
sg7
S'e5'
p751
sa(dp752
g7
S'e6'
p753
sa(dp754
g7
S'e7'
p755
sa(dp756
g5
S'black_king'
p757
sg7
S'e8'
p758
sa(dp759
g7
S'f1'
p760
sa(dp761
g5
S'white_pawn'
p762
sg7
S'f2'
p763
sa(dp764
g5
S'white_knight'
p765
sg7
S'f3'
p766
sa(dp767
g7
S'f4'
p768
sa(dp769
g7
S'f5'
p770
sa(dp771
g7
S'f6'
p772
sa(dp773
g5
S'black_pawn'
p774
sg7
S'f7'
p775
sa(dp776
g7
S'f8'
p777
sa(dp778
g7
S'g1'
p779
sa(dp780
g5
S'white_pawn'
p781
sg7
S'g2'
p782
sa(dp783
g7
S'g3'
p784
sa(dp785
g7
S'g4'
p786
sa(dp787
g7
S'g5'
p788
sa(dp789
g7
S'g6'
p790
sa(dp791
g5
S'black_pawn'
p792
sg7
S'g7'
p793
sa(dp794
g5
S'black_knight'
p795
sg7
S'g8'
p796
sa(dp797
g5
S'white_rook'
p798
sg7
S'h1'
p799
sa(dp800
g5
S'white_pawn'
p801
sg7
S'h2'
p802
sa(dp803
g7
S'h3'
p804
sa(dp805
g7
S'h4'
p806
sa(dp807
g7
S'h5'
p808
sa(dp809
g7
S'h6'
p810
sa(dp811
g5
S'black_pawn'
p812
sg7
S'h7'
p813
sa(dp814
g5
S'black_rook'
p815
sg7
S'h8'
p816
saaVProtecting his e5 pawn.  But, I was not about to take it because he would be able to answer with 5...Qe7 winning it back.  Afterwhich, despite it being even, black would have an advantage, as I learned from Coach Stockel.  That's similar to what you see in the Berlin Defense, after 4.0-0 Nxe5 5.Re1 which white wins back the pawn and gets the advantage, so it's the same idea.  
p817
aa(lp818
S'6. O-O'
p819
a(lp820
(dp821
g5
S'white_rook'
p822
sg7
S'a1'
p823
sa(dp824
g5
S'white_pawn'
p825
sg7
S'a2'
p826
sa(dp827
g7
S'a3'
p828
sa(dp829
g7
S'a4'
p830
sa(dp831
g7
S'a5'
p832
sa(dp833
g5
S'black_pawn'
p834
sg7
S'a6'
p835
sa(dp836
g7
S'a7'
p837
sa(dp838
g5
S'black_rook'
p839
sg7
S'a8'
p840
sa(dp841
g7
S'b1'
p842
sa(dp843
g5
S'white_pawn'
p844
sg7
S'b2'
p845
sa(dp846
g7
S'b3'
p847
sa(dp848
g7
S'b4'
p849
sa(dp850
g7
S'b5'
p851
sa(dp852
g7
S'b6'
p853
sa(dp854
g7
S'b7'
p855
sa(dp856
g7
S'b8'
p857
sa(dp858
g5
S'white_bishop'
p859
sg7
S'c1'
p860
sa(dp861
g5
S'white_pawn'
p862
sg7
S'c2'
p863
sa(dp864
g5
S'white_knight'
p865
sg7
S'c3'
p866
sa(dp867
g7
S'c4'
p868
sa(dp869
g7
S'c5'
p870
sa(dp871
g5
S'black_pawn'
p872
sg7
S'c6'
p873
sa(dp874
g5
S'black_pawn'
p875
sg7
S'c7'
p876
sa(dp877
g5
S'black_bishop'
p878
sg7
S'c8'
p879
sa(dp880
g5
S'white_queen'
p881
sg7
S'd1'
p882
sa(dp883
g5
S'white_pawn'
p884
sg7
S'd2'
p885
sa(dp886
g7
S'd3'
p887
sa(dp888
g7
S'd4'
p889
sa(dp890
g7
S'd5'
p891
sa(dp892
g5
S'black_bishop'
p893
sg7
S'd6'
p894
sa(dp895
g5
S'black_pawn'
p896
sg7
S'd7'
p897
sa(dp898
g5
S'black_queen'
p899
sg7
S'd8'
p900
sa(dp901
g7
S'e1'
p902
sa(dp903
g7
S'e2'
p904
sa(dp905
g7
S'e3'
p906
sa(dp907
g5
S'white_pawn'
p908
sg7
S'e4'
p909
sa(dp910
g5
S'black_pawn'
p911
sg7
S'e5'
p912
sa(dp913
g7
S'e6'
p914
sa(dp915
g7
S'e7'
p916
sa(dp917
g5
S'black_king'
p918
sg7
S'e8'
p919
sa(dp920
g5
S'white_rook'
p921
sg7
S'f1'
p922
sa(dp923
g5
S'white_pawn'
p924
sg7
S'f2'
p925
sa(dp926
g5
S'white_knight'
p927
sg7
S'f3'
p928
sa(dp929
g7
S'f4'
p930
sa(dp931
g7
S'f5'
p932
sa(dp933
g7
S'f6'
p934
sa(dp935
g5
S'black_pawn'
p936
sg7
S'f7'
p937
sa(dp938
g7
S'f8'
p939
sa(dp940
g5
S'white_king'
p941
sg7
S'g1'
p942
sa(dp943
g5
S'white_pawn'
p944
sg7
S'g2'
p945
sa(dp946
g7
S'g3'
p947
sa(dp948
g7
S'g4'
p949
sa(dp950
g7
S'g5'
p951
sa(dp952
g7
S'g6'
p953
sa(dp954
g5
S'black_pawn'
p955
sg7
S'g7'
p956
sa(dp957
g5
S'black_knight'
p958
sg7
S'g8'
p959
sa(dp960
g7
S'h1'
p961
sa(dp962
g5
S'white_pawn'
p963
sg7
S'h2'
p964
sa(dp965
g7
S'h3'
p966
sa(dp967
g7
S'h4'
p968
sa(dp969
g7
S'h5'
p970
sa(dp971
g7
S'h6'
p972
sa(dp973
g5
S'black_pawn'
p974
sg7
S'h7'
p975
sa(dp976
g5
S'black_rook'
p977
sg7
S'h8'
p978
saaVAs noted, this is what I had in mind after 5.Nc3 since this is a transposition of my general play here.
p979
aa(lp980
S'6... Bb7'
p981
a(lp982
(dp983
g5
S'white_rook'
p984
sg7
S'a1'
p985
sa(dp986
g5
S'white_pawn'
p987
sg7
S'a2'
p988
sa(dp989
g7
S'a3'
p990
sa(dp991
g7
S'a4'
p992
sa(dp993
g7
S'a5'
p994
sa(dp995
g5
S'black_pawn'
p996
sg7
S'a6'
p997
sa(dp998
g7
S'a7'
p999
sa(dp1000
g5
S'black_rook'
p1001
sg7
S'a8'
p1002
sa(dp1003
g7
S'b1'
p1004
sa(dp1005
g5
S'white_pawn'
p1006
sg7
S'b2'
p1007
sa(dp1008
g7
S'b3'
p1009
sa(dp1010
g7
S'b4'
p1011
sa(dp1012
g7
S'b5'
p1013
sa(dp1014
g7
S'b6'
p1015
sa(dp1016
g5
S'black_bishop'
p1017
sg7
S'b7'
p1018
sa(dp1019
g7
S'b8'
p1020
sa(dp1021
g5
S'white_bishop'
p1022
sg7
S'c1'
p1023
sa(dp1024
g5
S'white_pawn'
p1025
sg7
S'c2'
p1026
sa(dp1027
g5
S'white_knight'
p1028
sg7
S'c3'
p1029
sa(dp1030
g7
S'c4'
p1031
sa(dp1032
g7
S'c5'
p1033
sa(dp1034
g5
S'black_pawn'
p1035
sg7
S'c6'
p1036
sa(dp1037
g5
S'black_pawn'
p1038
sg7
S'c7'
p1039
sa(dp1040
g7
S'c8'
p1041
sa(dp1042
g5
S'white_queen'
p1043
sg7
S'd1'
p1044
sa(dp1045
g5
S'white_pawn'
p1046
sg7
S'd2'
p1047
sa(dp1048
g7
S'd3'
p1049
sa(dp1050
g7
S'd4'
p1051
sa(dp1052
g7
S'd5'
p1053
sa(dp1054
g5
S'black_bishop'
p1055
sg7
S'd6'
p1056
sa(dp1057
g5
S'black_pawn'
p1058
sg7
S'd7'
p1059
sa(dp1060
g5
S'black_queen'
p1061
sg7
S'd8'
p1062
sa(dp1063
g7
S'e1'
p1064
sa(dp1065
g7
S'e2'
p1066
sa(dp1067
g7
S'e3'
p1068
sa(dp1069
g5
S'white_pawn'
p1070
sg7
S'e4'
p1071
sa(dp1072
g5
S'black_pawn'
p1073
sg7
S'e5'
p1074
sa(dp1075
g7
S'e6'
p1076
sa(dp1077
g7
S'e7'
p1078
sa(dp1079
g5
S'black_king'
p1080
sg7
S'e8'
p1081
sa(dp1082
g5
S'white_rook'
p1083
sg7
S'f1'
p1084
sa(dp1085
g5
S'white_pawn'
p1086
sg7
S'f2'
p1087
sa(dp1088
g5
S'white_knight'
p1089
sg7
S'f3'
p1090
sa(dp1091
g7
S'f4'
p1092
sa(dp1093
g7
S'f5'
p1094
sa(dp1095
g7
S'f6'
p1096
sa(dp1097
g5
S'black_pawn'
p1098
sg7
S'f7'
p1099
sa(dp1100
g7
S'f8'
p1101
sa(dp1102
g5
S'white_king'
p1103
sg7
S'g1'
p1104
sa(dp1105
g5
S'white_pawn'
p1106
sg7
S'g2'
p1107
sa(dp1108
g7
S'g3'
p1109
sa(dp1110
g7
S'g4'
p1111
sa(dp1112
g7
S'g5'
p1113
sa(dp1114
g7
S'g6'
p1115
sa(dp1116
g5
S'black_pawn'
p1117
sg7
S'g7'
p1118
sa(dp1119
g5
S'black_knight'
p1120
sg7
S'g8'
p1121
sa(dp1122
g7
S'h1'
p1123
sa(dp1124
g5
S'white_pawn'
p1125
sg7
S'h2'
p1126
sa(dp1127
g7
S'h3'
p1128
sa(dp1129
g7
S'h4'
p1130
sa(dp1131
g7
S'h5'
p1132
sa(dp1133
g7
S'h6'
p1134
sa(dp1135
g5
S'black_pawn'
p1136
sg7
S'h7'
p1137
sa(dp1138
g5
S'black_rook'
p1139
sg7
S'h8'
p1140
saaVCompleting his development.
p1141
aa(lp1142
S'7. d3'
p1143
a(lp1144
(dp1145
g5
S'white_rook'
p1146
sg7
S'a1'
p1147
sa(dp1148
g5
S'white_pawn'
p1149
sg7
S'a2'
p1150
sa(dp1151
g7
S'a3'
p1152
sa(dp1153
g7
S'a4'
p1154
sa(dp1155
g7
S'a5'
p1156
sa(dp1157
g5
S'black_pawn'
p1158
sg7
S'a6'
p1159
sa(dp1160
g7
S'a7'
p1161
sa(dp1162
g5
S'black_rook'
p1163
sg7
S'a8'
p1164
sa(dp1165
g7
S'b1'
p1166
sa(dp1167
g5
S'white_pawn'
p1168
sg7
S'b2'
p1169
sa(dp1170
g7
S'b3'
p1171
sa(dp1172
g7
S'b4'
p1173
sa(dp1174
g7
S'b5'
p1175
sa(dp1176
g7
S'b6'
p1177
sa(dp1178
g5
S'black_bishop'
p1179
sg7
S'b7'
p1180
sa(dp1181
g7
S'b8'
p1182
sa(dp1183
g5
S'white_bishop'
p1184
sg7
S'c1'
p1185
sa(dp1186
g5
S'white_pawn'
p1187
sg7
S'c2'
p1188
sa(dp1189
g5
S'white_knight'
p1190
sg7
S'c3'
p1191
sa(dp1192
g7
S'c4'
p1193
sa(dp1194
g7
S'c5'
p1195
sa(dp1196
g5
S'black_pawn'
p1197
sg7
S'c6'
p1198
sa(dp1199
g5
S'black_pawn'
p1200
sg7
S'c7'
p1201
sa(dp1202
g7
S'c8'
p1203
sa(dp1204
g5
S'white_queen'
p1205
sg7
S'd1'
p1206
sa(dp1207
g7
S'd2'
p1208
sa(dp1209
g5
S'white_pawn'
p1210
sg7
S'd3'
p1211
sa(dp1212
g7
S'd4'
p1213
sa(dp1214
g7
S'd5'
p1215
sa(dp1216
g5
S'black_bishop'
p1217
sg7
S'd6'
p1218
sa(dp1219
g5
S'black_pawn'
p1220
sg7
S'd7'
p1221
sa(dp1222
g5
S'black_queen'
p1223
sg7
S'd8'
p1224
sa(dp1225
g7
S'e1'
p1226
sa(dp1227
g7
S'e2'
p1228
sa(dp1229
g7
S'e3'
p1230
sa(dp1231
g5
S'white_pawn'
p1232
sg7
S'e4'
p1233
sa(dp1234
g5
S'black_pawn'
p1235
sg7
S'e5'
p1236
sa(dp1237
g7
S'e6'
p1238
sa(dp1239
g7
S'e7'
p1240
sa(dp1241
g5
S'black_king'
p1242
sg7
S'e8'
p1243
sa(dp1244
g5
S'white_rook'
p1245
sg7
S'f1'
p1246
sa(dp1247
g5
S'white_pawn'
p1248
sg7
S'f2'
p1249
sa(dp1250
g5
S'white_knight'
p1251
sg7
S'f3'
p1252
sa(dp1253
g7
S'f4'
p1254
sa(dp1255
g7
S'f5'
p1256
sa(dp1257
g7
S'f6'
p1258
sa(dp1259
g5
S'black_pawn'
p1260
sg7
S'f7'
p1261
sa(dp1262
g7
S'f8'
p1263
sa(dp1264
g5
S'white_king'
p1265
sg7
S'g1'
p1266
sa(dp1267
g5
S'white_pawn'
p1268
sg7
S'g2'
p1269
sa(dp1270
g7
S'g3'
p1271
sa(dp1272
g7
S'g4'
p1273
sa(dp1274
g7
S'g5'
p1275
sa(dp1276
g7
S'g6'
p1277
sa(dp1278
g5
S'black_pawn'
p1279
sg7
S'g7'
p1280
sa(dp1281
g5
S'black_knight'
p1282
sg7
S'g8'
p1283
sa(dp1284
g7
S'h1'
p1285
sa(dp1286
g5
S'white_pawn'
p1287
sg7
S'h2'
p1288
sa(dp1289
g7
S'h3'
p1290
sa(dp1291
g7
S'h4'
p1292
sa(dp1293
g7
S'h5'
p1294
sa(dp1295
g7
S'h6'
p1296
sa(dp1297
g5
S'black_pawn'
p1298
sg7
S'h7'
p1299
sa(dp1300
g5
S'black_rook'
p1301
sg7
S'h8'
p1302
saaVI was very tempted to play 7.d4 but wanted to avoid falling into the Noah's Ark Trap.
p1303
aa(lp1304
S'7... Nf6'
p1305
a(lp1306
(dp1307
g5
S'white_rook'
p1308
sg7
S'a1'
p1309
sa(dp1310
g5
S'white_pawn'
p1311
sg7
S'a2'
p1312
sa(dp1313
g7
S'a3'
p1314
sa(dp1315
g7
S'a4'
p1316
sa(dp1317
g7
S'a5'
p1318
sa(dp1319
g5
S'black_pawn'
p1320
sg7
S'a6'
p1321
sa(dp1322
g7
S'a7'
p1323
sa(dp1324
g5
S'black_rook'
p1325
sg7
S'a8'
p1326
sa(dp1327
g7
S'b1'
p1328
sa(dp1329
g5
S'white_pawn'
p1330
sg7
S'b2'
p1331
sa(dp1332
g7
S'b3'
p1333
sa(dp1334
g7
S'b4'
p1335
sa(dp1336
g7
S'b5'
p1337
sa(dp1338
g7
S'b6'
p1339
sa(dp1340
g5
S'black_bishop'
p1341
sg7
S'b7'
p1342
sa(dp1343
g7
S'b8'
p1344
sa(dp1345
g5
S'white_bishop'
p1346
sg7
S'c1'
p1347
sa(dp1348
g5
S'white_pawn'
p1349
sg7
S'c2'
p1350
sa(dp1351
g5
S'white_knight'
p1352
sg7
S'c3'
p1353
sa(dp1354
g7
S'c4'
p1355
sa(dp1356
g7
S'c5'
p1357
sa(dp1358
g5
S'black_pawn'
p1359
sg7
S'c6'
p1360
sa(dp1361
g5
S'black_pawn'
p1362
sg7
S'c7'
p1363
sa(dp1364
g7
S'c8'
p1365
sa(dp1366
g5
S'white_queen'
p1367
sg7
S'd1'
p1368
sa(dp1369
g7
S'd2'
p1370
sa(dp1371
g5
S'white_pawn'
p1372
sg7
S'd3'
p1373
sa(dp1374
g7
S'd4'
p1375
sa(dp1376
g7
S'd5'
p1377
sa(dp1378
g5
S'black_bishop'
p1379
sg7
S'd6'
p1380
sa(dp1381
g5
S'black_pawn'
p1382
sg7
S'd7'
p1383
sa(dp1384
g5
S'black_queen'
p1385
sg7
S'd8'
p1386
sa(dp1387
g7
S'e1'
p1388
sa(dp1389
g7
S'e2'
p1390
sa(dp1391
g7
S'e3'
p1392
sa(dp1393
g5
S'white_pawn'
p1394
sg7
S'e4'
p1395
sa(dp1396
g5
S'black_pawn'
p1397
sg7
S'e5'
p1398
sa(dp1399
g7
S'e6'
p1400
sa(dp1401
g7
S'e7'
p1402
sa(dp1403
g5
S'black_king'
p1404
sg7
S'e8'
p1405
sa(dp1406
g5
S'white_rook'
p1407
sg7
S'f1'
p1408
sa(dp1409
g5
S'white_pawn'
p1410
sg7
S'f2'
p1411
sa(dp1412
g5
S'white_knight'
p1413
sg7
S'f3'
p1414
sa(dp1415
g7
S'f4'
p1416
sa(dp1417
g7
S'f5'
p1418
sa(dp1419
g5
S'black_knight'
p1420
sg7
S'f6'
p1421
sa(dp1422
g5
S'black_pawn'
p1423
sg7
S'f7'
p1424
sa(dp1425
g7
S'f8'
p1426
sa(dp1427
g5
S'white_king'
p1428
sg7
S'g1'
p1429
sa(dp1430
g5
S'white_pawn'
p1431
sg7
S'g2'
p1432
sa(dp1433
g7
S'g3'
p1434
sa(dp1435
g7
S'g4'
p1436
sa(dp1437
g7
S'g5'
p1438
sa(dp1439
g7
S'g6'
p1440
sa(dp1441
g5
S'black_pawn'
p1442
sg7
S'g7'
p1443
sa(dp1444
g7
S'g8'
p1445
sa(dp1446
g7
S'h1'
p1447
sa(dp1448
g5
S'white_pawn'
p1449
sg7
S'h2'
p1450
sa(dp1451
g7
S'h3'
p1452
sa(dp1453
g7
S'h4'
p1454
sa(dp1455
g7
S'h5'
p1456
sa(dp1457
g7
S'h6'
p1458
sa(dp1459
g5
S'black_pawn'
p1460
sg7
S'h7'
p1461
sa(dp1462
g5
S'black_rook'
p1463
sg7
S'h8'
p1464
saaVMeanwhile, Tom continues with his development.
p1465
aa(lp1466
S'8. Bg5'
p1467
a(lp1468
(dp1469
g5
S'white_rook'
p1470
sg7
S'a1'
p1471
sa(dp1472
g5
S'white_pawn'
p1473
sg7
S'a2'
p1474
sa(dp1475
g7
S'a3'
p1476
sa(dp1477
g7
S'a4'
p1478
sa(dp1479
g7
S'a5'
p1480
sa(dp1481
g5
S'black_pawn'
p1482
sg7
S'a6'
p1483
sa(dp1484
g7
S'a7'
p1485
sa(dp1486
g5
S'black_rook'
p1487
sg7
S'a8'
p1488
sa(dp1489
g7
S'b1'
p1490
sa(dp1491
g5
S'white_pawn'
p1492
sg7
S'b2'
p1493
sa(dp1494
g7
S'b3'
p1495
sa(dp1496
g7
S'b4'
p1497
sa(dp1498
g7
S'b5'
p1499
sa(dp1500
g7
S'b6'
p1501
sa(dp1502
g5
S'black_bishop'
p1503
sg7
S'b7'
p1504
sa(dp1505
g7
S'b8'
p1506
sa(dp1507
g7
S'c1'
p1508
sa(dp1509
g5
S'white_pawn'
p1510
sg7
S'c2'
p1511
sa(dp1512
g5
S'white_knight'
p1513
sg7
S'c3'
p1514
sa(dp1515
g7
S'c4'
p1516
sa(dp1517
g7
S'c5'
p1518
sa(dp1519
g5
S'black_pawn'
p1520
sg7
S'c6'
p1521
sa(dp1522
g5
S'black_pawn'
p1523
sg7
S'c7'
p1524
sa(dp1525
g7
S'c8'
p1526
sa(dp1527
g5
S'white_queen'
p1528
sg7
S'd1'
p1529
sa(dp1530
g7
S'd2'
p1531
sa(dp1532
g5
S'white_pawn'
p1533
sg7
S'd3'
p1534
sa(dp1535
g7
S'd4'
p1536
sa(dp1537
g7
S'd5'
p1538
sa(dp1539
g5
S'black_bishop'
p1540
sg7
S'd6'
p1541
sa(dp1542
g5
S'black_pawn'
p1543
sg7
S'd7'
p1544
sa(dp1545
g5
S'black_queen'
p1546
sg7
S'd8'
p1547
sa(dp1548
g7
S'e1'
p1549
sa(dp1550
g7
S'e2'
p1551
sa(dp1552
g7
S'e3'
p1553
sa(dp1554
g5
S'white_pawn'
p1555
sg7
S'e4'
p1556
sa(dp1557
g5
S'black_pawn'
p1558
sg7
S'e5'
p1559
sa(dp1560
g7
S'e6'
p1561
sa(dp1562
g7
S'e7'
p1563
sa(dp1564
g5
S'black_king'
p1565
sg7
S'e8'
p1566
sa(dp1567
g5
S'white_rook'
p1568
sg7
S'f1'
p1569
sa(dp1570
g5
S'white_pawn'
p1571
sg7
S'f2'
p1572
sa(dp1573
g5
S'white_knight'
p1574
sg7
S'f3'
p1575
sa(dp1576
g7
S'f4'
p1577
sa(dp1578
g7
S'f5'
p1579
sa(dp1580
g5
S'black_knight'
p1581
sg7
S'f6'
p1582
sa(dp1583
g5
S'black_pawn'
p1584
sg7
S'f7'
p1585
sa(dp1586
g7
S'f8'
p1587
sa(dp1588
g5
S'white_king'
p1589
sg7
S'g1'
p1590
sa(dp1591
g5
S'white_pawn'
p1592
sg7
S'g2'
p1593
sa(dp1594
g7
S'g3'
p1595
sa(dp1596
g7
S'g4'
p1597
sa(dp1598
g5
S'white_bishop'
p1599
sg7
S'g5'
p1600
sa(dp1601
g7
S'g6'
p1602
sa(dp1603
g5
S'black_pawn'
p1604
sg7
S'g7'
p1605
sa(dp1606
g7
S'g8'
p1607
sa(dp1608
g7
S'h1'
p1609
sa(dp1610
g5
S'white_pawn'
p1611
sg7
S'h2'
p1612
sa(dp1613
g7
S'h3'
p1614
sa(dp1615
g7
S'h4'
p1616
sa(dp1617
g7
S'h5'
p1618
sa(dp1619
g7
S'h6'
p1620
sa(dp1621
g5
S'black_pawn'
p1622
sg7
S'h7'
p1623
sa(dp1624
g5
S'black_rook'
p1625
sg7
S'h8'
p1626
saaVAnd, I pin that N.
p1627
aa(lp1628
S'8... h6'
p1629
a(lp1630
(dp1631
g5
S'white_rook'
p1632
sg7
S'a1'
p1633
sa(dp1634
g5
S'white_pawn'
p1635
sg7
S'a2'
p1636
sa(dp1637
g7
S'a3'
p1638
sa(dp1639
g7
S'a4'
p1640
sa(dp1641
g7
S'a5'
p1642
sa(dp1643
g5
S'black_pawn'
p1644
sg7
S'a6'
p1645
sa(dp1646
g7
S'a7'
p1647
sa(dp1648
g5
S'black_rook'
p1649
sg7
S'a8'
p1650
sa(dp1651
g7
S'b1'
p1652
sa(dp1653
g5
S'white_pawn'
p1654
sg7
S'b2'
p1655
sa(dp1656
g7
S'b3'
p1657
sa(dp1658
g7
S'b4'
p1659
sa(dp1660
g7
S'b5'
p1661
sa(dp1662
g7
S'b6'
p1663
sa(dp1664
g5
S'black_bishop'
p1665
sg7
S'b7'
p1666
sa(dp1667
g7
S'b8'
p1668
sa(dp1669
g7
S'c1'
p1670
sa(dp1671
g5
S'white_pawn'
p1672
sg7
S'c2'
p1673
sa(dp1674
g5
S'white_knight'
p1675
sg7
S'c3'
p1676
sa(dp1677
g7
S'c4'
p1678
sa(dp1679
g7
S'c5'
p1680
sa(dp1681
g5
S'black_pawn'
p1682
sg7
S'c6'
p1683
sa(dp1684
g5
S'black_pawn'
p1685
sg7
S'c7'
p1686
sa(dp1687
g7
S'c8'
p1688
sa(dp1689
g5
S'white_queen'
p1690
sg7
S'd1'
p1691
sa(dp1692
g7
S'd2'
p1693
sa(dp1694
g5
S'white_pawn'
p1695
sg7
S'd3'
p1696
sa(dp1697
g7
S'd4'
p1698
sa(dp1699
g7
S'd5'
p1700
sa(dp1701
g5
S'black_bishop'
p1702
sg7
S'd6'
p1703
sa(dp1704
g5
S'black_pawn'
p1705
sg7
S'd7'
p1706
sa(dp1707
g5
S'black_queen'
p1708
sg7
S'd8'
p1709
sa(dp1710
g7
S'e1'
p1711
sa(dp1712
g7
S'e2'
p1713
sa(dp1714
g7
S'e3'
p1715
sa(dp1716
g5
S'white_pawn'
p1717
sg7
S'e4'
p1718
sa(dp1719
g5
S'black_pawn'
p1720
sg7
S'e5'
p1721
sa(dp1722
g7
S'e6'
p1723
sa(dp1724
g7
S'e7'
p1725
sa(dp1726
g5
S'black_king'
p1727
sg7
S'e8'
p1728
sa(dp1729
g5
S'white_rook'
p1730
sg7
S'f1'
p1731
sa(dp1732
g5
S'white_pawn'
p1733
sg7
S'f2'
p1734
sa(dp1735
g5
S'white_knight'
p1736
sg7
S'f3'
p1737
sa(dp1738
g7
S'f4'
p1739
sa(dp1740
g7
S'f5'
p1741
sa(dp1742
g5
S'black_knight'
p1743
sg7
S'f6'
p1744
sa(dp1745
g5
S'black_pawn'
p1746
sg7
S'f7'
p1747
sa(dp1748
g7
S'f8'
p1749
sa(dp1750
g5
S'white_king'
p1751
sg7
S'g1'
p1752
sa(dp1753
g5
S'white_pawn'
p1754
sg7
S'g2'
p1755
sa(dp1756
g7
S'g3'
p1757
sa(dp1758
g7
S'g4'
p1759
sa(dp1760
g5
S'white_bishop'
p1761
sg7
S'g5'
p1762
sa(dp1763
g7
S'g6'
p1764
sa(dp1765
g5
S'black_pawn'
p1766
sg7
S'g7'
p1767
sa(dp1768
g7
S'g8'
p1769
sa(dp1770
g7
S'h1'
p1771
sa(dp1772
g5
S'white_pawn'
p1773
sg7
S'h2'
p1774
sa(dp1775
g7
S'h3'
p1776
sa(dp1777
g7
S'h4'
p1778
sa(dp1779
g7
S'h5'
p1780
sa(dp1781
g5
S'black_pawn'
p1782
sg7
S'h6'
p1783
sa(dp1784
g7
S'h7'
p1785
sa(dp1786
g5
S'black_rook'
p1787
sg7
S'h8'
p1788
saaVI had expected 8...Be7 as that's how I normally answer and would do it, were I playing as black.  But, Tom broke the pin this way.
p1789
aa(lp1790
S'9. Be3'
p1791
a(lp1792
(dp1793
g5
S'white_rook'
p1794
sg7
S'a1'
p1795
sa(dp1796
g5
S'white_pawn'
p1797
sg7
S'a2'
p1798
sa(dp1799
g7
S'a3'
p1800
sa(dp1801
g7
S'a4'
p1802
sa(dp1803
g7
S'a5'
p1804
sa(dp1805
g5
S'black_pawn'
p1806
sg7
S'a6'
p1807
sa(dp1808
g7
S'a7'
p1809
sa(dp1810
g5
S'black_rook'
p1811
sg7
S'a8'
p1812
sa(dp1813
g7
S'b1'
p1814
sa(dp1815
g5
S'white_pawn'
p1816
sg7
S'b2'
p1817
sa(dp1818
g7
S'b3'
p1819
sa(dp1820
g7
S'b4'
p1821
sa(dp1822
g7
S'b5'
p1823
sa(dp1824
g7
S'b6'
p1825
sa(dp1826
g5
S'black_bishop'
p1827
sg7
S'b7'
p1828
sa(dp1829
g7
S'b8'
p1830
sa(dp1831
g7
S'c1'
p1832
sa(dp1833
g5
S'white_pawn'
p1834
sg7
S'c2'
p1835
sa(dp1836
g5
S'white_knight'
p1837
sg7
S'c3'
p1838
sa(dp1839
g7
S'c4'
p1840
sa(dp1841
g7
S'c5'
p1842
sa(dp1843
g5
S'black_pawn'
p1844
sg7
S'c6'
p1845
sa(dp1846
g5
S'black_pawn'
p1847
sg7
S'c7'
p1848
sa(dp1849
g7
S'c8'
p1850
sa(dp1851
g5
S'white_queen'
p1852
sg7
S'd1'
p1853
sa(dp1854
g7
S'd2'
p1855
sa(dp1856
g5
S'white_pawn'
p1857
sg7
S'd3'
p1858
sa(dp1859
g7
S'd4'
p1860
sa(dp1861
g7
S'd5'
p1862
sa(dp1863
g5
S'black_bishop'
p1864
sg7
S'd6'
p1865
sa(dp1866
g5
S'black_pawn'
p1867
sg7
S'd7'
p1868
sa(dp1869
g5
S'black_queen'
p1870
sg7
S'd8'
p1871
sa(dp1872
g7
S'e1'
p1873
sa(dp1874
g7
S'e2'
p1875
sa(dp1876
g5
S'white_bishop'
p1877
sg7
S'e3'
p1878
sa(dp1879
g5
S'white_pawn'
p1880
sg7
S'e4'
p1881
sa(dp1882
g5
S'black_pawn'
p1883
sg7
S'e5'
p1884
sa(dp1885
g7
S'e6'
p1886
sa(dp1887
g7
S'e7'
p1888
sa(dp1889
g5
S'black_king'
p1890
sg7
S'e8'
p1891
sa(dp1892
g5
S'white_rook'
p1893
sg7
S'f1'
p1894
sa(dp1895
g5
S'white_pawn'
p1896
sg7
S'f2'
p1897
sa(dp1898
g5
S'white_knight'
p1899
sg7
S'f3'
p1900
sa(dp1901
g7
S'f4'
p1902
sa(dp1903
g7
S'f5'
p1904
sa(dp1905
g5
S'black_knight'
p1906
sg7
S'f6'
p1907
sa(dp1908
g5
S'black_pawn'
p1909
sg7
S'f7'
p1910
sa(dp1911
g7
S'f8'
p1912
sa(dp1913
g5
S'white_king'
p1914
sg7
S'g1'
p1915
sa(dp1916
g5
S'white_pawn'
p1917
sg7
S'g2'
p1918
sa(dp1919
g7
S'g3'
p1920
sa(dp1921
g7
S'g4'
p1922
sa(dp1923
g7
S'g5'
p1924
sa(dp1925
g7
S'g6'
p1926
sa(dp1927
g5
S'black_pawn'
p1928
sg7
S'g7'
p1929
sa(dp1930
g7
S'g8'
p1931
sa(dp1932
g7
S'h1'
p1933
sa(dp1934
g5
S'white_pawn'
p1935
sg7
S'h2'
p1936
sa(dp1937
g7
S'h3'
p1938
sa(dp1939
g7
S'h4'
p1940
sa(dp1941
g7
S'h5'
p1942
sa(dp1943
g5
S'black_pawn'
p1944
sg7
S'h6'
p1945
sa(dp1946
g7
S'h7'
p1947
sa(dp1948
g5
S'black_rook'
p1949
sg7
S'h8'
p1950
saaVSince I didn't feel a need, I refrain from exchanging.  Afterall, I'm keeping in mind the dream that I had and what GM Susan Polgar mentioned about when to exchange.  Now, if Tom was forced to recapture with the K, it would be a whole different story as we'd be talking about his K side pawn structure, but that's not the case here.  So, there would not be an immediate advantage to playing 9.Bxf6, instead.
p1951
aa(lp1952
S'9... Ng4'
p1953
a(lp1954
(dp1955
g5
S'white_rook'
p1956
sg7
S'a1'
p1957
sa(dp1958
g5
S'white_pawn'
p1959
sg7
S'a2'
p1960
sa(dp1961
g7
S'a3'
p1962
sa(dp1963
g7
S'a4'
p1964
sa(dp1965
g7
S'a5'
p1966
sa(dp1967
g5
S'black_pawn'
p1968
sg7
S'a6'
p1969
sa(dp1970
g7
S'a7'
p1971
sa(dp1972
g5
S'black_rook'
p1973
sg7
S'a8'
p1974
sa(dp1975
g7
S'b1'
p1976
sa(dp1977
g5
S'white_pawn'
p1978
sg7
S'b2'
p1979
sa(dp1980
g7
S'b3'
p1981
sa(dp1982
g7
S'b4'
p1983
sa(dp1984
g7
S'b5'
p1985
sa(dp1986
g7
S'b6'
p1987
sa(dp1988
g5
S'black_bishop'
p1989
sg7
S'b7'
p1990
sa(dp1991
g7
S'b8'
p1992
sa(dp1993
g7
S'c1'
p1994
sa(dp1995
g5
S'white_pawn'
p1996
sg7
S'c2'
p1997
sa(dp1998
g5
S'white_knight'
p1999
sg7
S'c3'
p2000
sa(dp2001
g7
S'c4'
p2002
sa(dp2003
g7
S'c5'
p2004
sa(dp2005
g5
S'black_pawn'
p2006
sg7
S'c6'
p2007
sa(dp2008
g5
S'black_pawn'
p2009
sg7
S'c7'
p2010
sa(dp2011
g7
S'c8'
p2012
sa(dp2013
g5
S'white_queen'
p2014
sg7
S'd1'
p2015
sa(dp2016
g7
S'd2'
p2017
sa(dp2018
g5
S'white_pawn'
p2019
sg7
S'd3'
p2020
sa(dp2021
g7
S'd4'
p2022
sa(dp2023
g7
S'd5'
p2024
sa(dp2025
g5
S'black_bishop'
p2026
sg7
S'd6'
p2027
sa(dp2028
g5
S'black_pawn'
p2029
sg7
S'd7'
p2030
sa(dp2031
g5
S'black_queen'
p2032
sg7
S'd8'
p2033
sa(dp2034
g7
S'e1'
p2035
sa(dp2036
g7
S'e2'
p2037
sa(dp2038
g5
S'white_bishop'
p2039
sg7
S'e3'
p2040
sa(dp2041
g5
S'white_pawn'
p2042
sg7
S'e4'
p2043
sa(dp2044
g5
S'black_pawn'
p2045
sg7
S'e5'
p2046
sa(dp2047
g7
S'e6'
p2048
sa(dp2049
g7
S'e7'
p2050
sa(dp2051
g5
S'black_king'
p2052
sg7
S'e8'
p2053
sa(dp2054
g5
S'white_rook'
p2055
sg7
S'f1'
p2056
sa(dp2057
g5
S'white_pawn'
p2058
sg7
S'f2'
p2059
sa(dp2060
g5
S'white_knight'
p2061
sg7
S'f3'
p2062
sa(dp2063
g7
S'f4'
p2064
sa(dp2065
g7
S'f5'
p2066
sa(dp2067
g7
S'f6'
p2068
sa(dp2069
g5
S'black_pawn'
p2070
sg7
S'f7'
p2071
sa(dp2072
g7
S'f8'
p2073
sa(dp2074
g5
S'white_king'
p2075
sg7
S'g1'
p2076
sa(dp2077
g5
S'white_pawn'
p2078
sg7
S'g2'
p2079
sa(dp2080
g7
S'g3'
p2081
sa(dp2082
g5
S'black_knight'
p2083
sg7
S'g4'
p2084
sa(dp2085
g7
S'g5'
p2086
sa(dp2087
g7
S'g6'
p2088
sa(dp2089
g5
S'black_pawn'
p2090
sg7
S'g7'
p2091
sa(dp2092
g7
S'g8'
p2093
sa(dp2094
g7
S'h1'
p2095
sa(dp2096
g5
S'white_pawn'
p2097
sg7
S'h2'
p2098
sa(dp2099
g7
S'h3'
p2100
sa(dp2101
g7
S'h4'
p2102
sa(dp2103
g7
S'h5'
p2104
sa(dp2105
g5
S'black_pawn'
p2106
sg7
S'h6'
p2107
sa(dp2108
g7
S'h7'
p2109
sa(dp2110
g5
S'black_rook'
p2111
sg7
S'h8'
p2112
saaVI don't see the point behind this move.  Mate is not threatened here.  Now, his Queen was on h4, and my N was not on f3, it would be a different story.  As 10.h3 would be forced.  But, I have nothing to worry about, in this position.  Thus, I ask the important of what Tom wants?  Sure enough, it's to exchange on e3.
p2113
aa(lp2114
S'10. Bd2'
p2115
a(lp2116
(dp2117
g5
S'white_rook'
p2118
sg7
S'a1'
p2119
sa(dp2120
g5
S'white_pawn'
p2121
sg7
S'a2'
p2122
sa(dp2123
g7
S'a3'
p2124
sa(dp2125
g7
S'a4'
p2126
sa(dp2127
g7
S'a5'
p2128
sa(dp2129
g5
S'black_pawn'
p2130
sg7
S'a6'
p2131
sa(dp2132
g7
S'a7'
p2133
sa(dp2134
g5
S'black_rook'
p2135
sg7
S'a8'
p2136
sa(dp2137
g7
S'b1'
p2138
sa(dp2139
g5
S'white_pawn'
p2140
sg7
S'b2'
p2141
sa(dp2142
g7
S'b3'
p2143
sa(dp2144
g7
S'b4'
p2145
sa(dp2146
g7
S'b5'
p2147
sa(dp2148
g7
S'b6'
p2149
sa(dp2150
g5
S'black_bishop'
p2151
sg7
S'b7'
p2152
sa(dp2153
g7
S'b8'
p2154
sa(dp2155
g7
S'c1'
p2156
sa(dp2157
g5
S'white_pawn'
p2158
sg7
S'c2'
p2159
sa(dp2160
g5
S'white_knight'
p2161
sg7
S'c3'
p2162
sa(dp2163
g7
S'c4'
p2164
sa(dp2165
g7
S'c5'
p2166
sa(dp2167
g5
S'black_pawn'
p2168
sg7
S'c6'
p2169
sa(dp2170
g5
S'black_pawn'
p2171
sg7
S'c7'
p2172
sa(dp2173
g7
S'c8'
p2174
sa(dp2175
g5
S'white_queen'
p2176
sg7
S'd1'
p2177
sa(dp2178
g5
S'white_bishop'
p2179
sg7
S'd2'
p2180
sa(dp2181
g5
S'white_pawn'
p2182
sg7
S'd3'
p2183
sa(dp2184
g7
S'd4'
p2185
sa(dp2186
g7
S'd5'
p2187
sa(dp2188
g5
S'black_bishop'
p2189
sg7
S'd6'
p2190
sa(dp2191
g5
S'black_pawn'
p2192
sg7
S'd7'
p2193
sa(dp2194
g5
S'black_queen'
p2195
sg7
S'd8'
p2196
sa(dp2197
g7
S'e1'
p2198
sa(dp2199
g7
S'e2'
p2200
sa(dp2201
g7
S'e3'
p2202
sa(dp2203
g5
S'white_pawn'
p2204
sg7
S'e4'
p2205
sa(dp2206
g5
S'black_pawn'
p2207
sg7
S'e5'
p2208
sa(dp2209
g7
S'e6'
p2210
sa(dp2211
g7
S'e7'
p2212
sa(dp2213
g5
S'black_king'
p2214
sg7
S'e8'
p2215
sa(dp2216
g5
S'white_rook'
p2217
sg7
S'f1'
p2218
sa(dp2219
g5
S'white_pawn'
p2220
sg7
S'f2'
p2221
sa(dp2222
g5
S'white_knight'
p2223
sg7
S'f3'
p2224
sa(dp2225
g7
S'f4'
p2226
sa(dp2227
g7
S'f5'
p2228
sa(dp2229
g7
S'f6'
p2230
sa(dp2231
g5
S'black_pawn'
p2232
sg7
S'f7'
p2233
sa(dp2234
g7
S'f8'
p2235
sa(dp2236
g5
S'white_king'
p2237
sg7
S'g1'
p2238
sa(dp2239
g5
S'white_pawn'
p2240
sg7
S'g2'
p2241
sa(dp2242
g7
S'g3'
p2243
sa(dp2244
g5
S'black_knight'
p2245
sg7
S'g4'
p2246
sa(dp2247
g7
S'g5'
p2248
sa(dp2249
g7
S'g6'
p2250
sa(dp2251
g5
S'black_pawn'
p2252
sg7
S'g7'
p2253
sa(dp2254
g7
S'g8'
p2255
sa(dp2256
g7
S'h1'
p2257
sa(dp2258
g5
S'white_pawn'
p2259
sg7
S'h2'
p2260
sa(dp2261
g7
S'h3'
p2262
sa(dp2263
g7
S'h4'
p2264
sa(dp2265
g7
S'h5'
p2266
sa(dp2267
g5
S'black_pawn'
p2268
sg7
S'h6'
p2269
sa(dp2270
g7
S'h7'
p2271
sa(dp2272
g5
S'black_rook'
p2273
sg7
S'h8'
p2274
saaVFor the same reason that I noted with the pin, I refuse, just as Kenneth_fiore_3 refused to exchange in our first game and won that way.  It was after declining combined with the coaching why Tom wanted it.  He had to have felt pressure, and thus, exchanging would relieve that.  But, as Ken said during that game, "The pressure stays on."
p2275
aa(lp2276
S'10... Nxh2'
p2277
a(lp2278
(dp2279
g5
S'white_rook'
p2280
sg7
S'a1'
p2281
sa(dp2282
g5
S'white_pawn'
p2283
sg7
S'a2'
p2284
sa(dp2285
g7
S'a3'
p2286
sa(dp2287
g7
S'a4'
p2288
sa(dp2289
g7
S'a5'
p2290
sa(dp2291
g5
S'black_pawn'
p2292
sg7
S'a6'
p2293
sa(dp2294
g7
S'a7'
p2295
sa(dp2296
g5
S'black_rook'
p2297
sg7
S'a8'
p2298
sa(dp2299
g7
S'b1'
p2300
sa(dp2301
g5
S'white_pawn'
p2302
sg7
S'b2'
p2303
sa(dp2304
g7
S'b3'
p2305
sa(dp2306
g7
S'b4'
p2307
sa(dp2308
g7
S'b5'
p2309
sa(dp2310
g7
S'b6'
p2311
sa(dp2312
g5
S'black_bishop'
p2313
sg7
S'b7'
p2314
sa(dp2315
g7
S'b8'
p2316
sa(dp2317
g7
S'c1'
p2318
sa(dp2319
g5
S'white_pawn'
p2320
sg7
S'c2'
p2321
sa(dp2322
g5
S'white_knight'
p2323
sg7
S'c3'
p2324
sa(dp2325
g7
S'c4'
p2326
sa(dp2327
g7
S'c5'
p2328
sa(dp2329
g5
S'black_pawn'
p2330
sg7
S'c6'
p2331
sa(dp2332
g5
S'black_pawn'
p2333
sg7
S'c7'
p2334
sa(dp2335
g7
S'c8'
p2336
sa(dp2337
g5
S'white_queen'
p2338
sg7
S'd1'
p2339
sa(dp2340
g5
S'white_bishop'
p2341
sg7
S'd2'
p2342
sa(dp2343
g5
S'white_pawn'
p2344
sg7
S'd3'
p2345
sa(dp2346
g7
S'd4'
p2347
sa(dp2348
g7
S'd5'
p2349
sa(dp2350
g5
S'black_bishop'
p2351
sg7
S'd6'
p2352
sa(dp2353
g5
S'black_pawn'
p2354
sg7
S'd7'
p2355
sa(dp2356
g5
S'black_queen'
p2357
sg7
S'd8'
p2358
sa(dp2359
g7
S'e1'
p2360
sa(dp2361
g7
S'e2'
p2362
sa(dp2363
g7
S'e3'
p2364
sa(dp2365
g5
S'white_pawn'
p2366
sg7
S'e4'
p2367
sa(dp2368
g5
S'black_pawn'
p2369
sg7
S'e5'
p2370
sa(dp2371
g7
S'e6'
p2372
sa(dp2373
g7
S'e7'
p2374
sa(dp2375
g5
S'black_king'
p2376
sg7
S'e8'
p2377
sa(dp2378
g5
S'white_rook'
p2379
sg7
S'f1'
p2380
sa(dp2381
g5
S'white_pawn'
p2382
sg7
S'f2'
p2383
sa(dp2384
g5
S'white_knight'
p2385
sg7
S'f3'
p2386
sa(dp2387
g7
S'f4'
p2388
sa(dp2389
g7
S'f5'
p2390
sa(dp2391
g7
S'f6'
p2392
sa(dp2393
g5
S'black_pawn'
p2394
sg7
S'f7'
p2395
sa(dp2396
g7
S'f8'
p2397
sa(dp2398
g5
S'white_king'
p2399
sg7
S'g1'
p2400
sa(dp2401
g5
S'white_pawn'
p2402
sg7
S'g2'
p2403
sa(dp2404
g7
S'g3'
p2405
sa(dp2406
g7
S'g4'
p2407
sa(dp2408
g7
S'g5'
p2409
sa(dp2410
g7
S'g6'
p2411
sa(dp2412
g5
S'black_pawn'
p2413
sg7
S'g7'
p2414
sa(dp2415
g7
S'g8'
p2416
sa(dp2417
g7
S'h1'
p2418
sa(dp2419
g5
S'black_knight'
p2420
sg7
S'h2'
p2421
sa(dp2422
g7
S'h3'
p2423
sa(dp2424
g7
S'h4'
p2425
sa(dp2426
g7
S'h5'
p2427
sa(dp2428
g5
S'black_pawn'
p2429
sg7
S'h6'
p2430
sa(dp2431
g7
S'h7'
p2432
sa(dp2433
g5
S'black_rook'
p2434
sg7
S'h8'
p2435
saaV?? Thinking that this would take it away and, assuming there was Ghost Vision, he assumed that this would take care of the problem.  He probably thought that this was a piece here, with which, it's an even exchange.  But, he took a pawn.  So, by doing this, I am going to win the N, in return.
p2436
aa(lp2437
S'11. Nxh2 a5'
p2438
a(lp2439
(dp2440
g5
S'white_rook'
p2441
sg7
S'a1'
p2442
sa(dp2443
g5
S'white_pawn'
p2444
sg7
S'a2'
p2445
sa(dp2446
g7
S'a3'
p2447
sa(dp2448
g7
S'a4'
p2449
sa(dp2450
g5
S'black_pawn'
p2451
sg7
S'a5'
p2452
sa(dp2453
g7
S'a6'
p2454
sa(dp2455
g7
S'a7'
p2456
sa(dp2457
g5
S'black_rook'
p2458
sg7
S'a8'
p2459
sa(dp2460
g7
S'b1'
p2461
sa(dp2462
g5
S'white_pawn'
p2463
sg7
S'b2'
p2464
sa(dp2465
g7
S'b3'
p2466
sa(dp2467
g7
S'b4'
p2468
sa(dp2469
g7
S'b5'
p2470
sa(dp2471
g7
S'b6'
p2472
sa(dp2473
g5
S'black_bishop'
p2474
sg7
S'b7'
p2475
sa(dp2476
g7
S'b8'
p2477
sa(dp2478
g7
S'c1'
p2479
sa(dp2480
g5
S'white_pawn'
p2481
sg7
S'c2'
p2482
sa(dp2483
g5
S'white_knight'
p2484
sg7
S'c3'
p2485
sa(dp2486
g7
S'c4'
p2487
sa(dp2488
g7
S'c5'
p2489
sa(dp2490
g5
S'black_pawn'
p2491
sg7
S'c6'
p2492
sa(dp2493
g5
S'black_pawn'
p2494
sg7
S'c7'
p2495
sa(dp2496
g7
S'c8'
p2497
sa(dp2498
g5
S'white_queen'
p2499
sg7
S'd1'
p2500
sa(dp2501
g5
S'white_bishop'
p2502
sg7
S'd2'
p2503
sa(dp2504
g5
S'white_pawn'
p2505
sg7
S'd3'
p2506
sa(dp2507
g7
S'd4'
p2508
sa(dp2509
g7
S'd5'
p2510
sa(dp2511
g5
S'black_bishop'
p2512
sg7
S'd6'
p2513
sa(dp2514
g5
S'black_pawn'
p2515
sg7
S'd7'
p2516
sa(dp2517
g5
S'black_queen'
p2518
sg7
S'd8'
p2519
sa(dp2520
g7
S'e1'
p2521
sa(dp2522
g7
S'e2'
p2523
sa(dp2524
g7
S'e3'
p2525
sa(dp2526
g5
S'white_pawn'
p2527
sg7
S'e4'
p2528
sa(dp2529
g5
S'black_pawn'
p2530
sg7
S'e5'
p2531
sa(dp2532
g7
S'e6'
p2533
sa(dp2534
g7
S'e7'
p2535
sa(dp2536
g5
S'black_king'
p2537
sg7
S'e8'
p2538
sa(dp2539
g5
S'white_rook'
p2540
sg7
S'f1'
p2541
sa(dp2542
g5
S'white_pawn'
p2543
sg7
S'f2'
p2544
sa(dp2545
g7
S'f3'
p2546
sa(dp2547
g7
S'f4'
p2548
sa(dp2549
g7
S'f5'
p2550
sa(dp2551
g7
S'f6'
p2552
sa(dp2553
g5
S'black_pawn'
p2554
sg7
S'f7'
p2555
sa(dp2556
g7
S'f8'
p2557
sa(dp2558
g5
S'white_king'
p2559
sg7
S'g1'
p2560
sa(dp2561
g5
S'white_pawn'
p2562
sg7
S'g2'
p2563
sa(dp2564
g7
S'g3'
p2565
sa(dp2566
g7
S'g4'
p2567
sa(dp2568
g7
S'g5'
p2569
sa(dp2570
g7
S'g6'
p2571
sa(dp2572
g5
S'black_pawn'
p2573
sg7
S'g7'
p2574
sa(dp2575
g7
S'g8'
p2576
sa(dp2577
g7
S'h1'
p2578
sa(dp2579
g5
S'white_knight'
p2580
sg7
S'h2'
p2581
sa(dp2582
g7
S'h3'
p2583
sa(dp2584
g7
S'h4'
p2585
sa(dp2586
g7
S'h5'
p2587
sa(dp2588
g5
S'black_pawn'
p2589
sg7
S'h6'
p2590
sa(dp2591
g7
S'h7'
p2592
sa(dp2593
g5
S'black_rook'
p2594
sg7
S'h8'
p2595
saaVTrying to mobilize his R.  It was more limited before, but now, it can move an extra square.  So, it's a semi open file.
p2596
aa(lp2597
S'12. Qf3'
p2598
a(lp2599
(dp2600
g5
S'white_rook'
p2601
sg7
S'a1'
p2602
sa(dp2603
g5
S'white_pawn'
p2604
sg7
S'a2'
p2605
sa(dp2606
g7
S'a3'
p2607
sa(dp2608
g7
S'a4'
p2609
sa(dp2610
g5
S'black_pawn'
p2611
sg7
S'a5'
p2612
sa(dp2613
g7
S'a6'
p2614
sa(dp2615
g7
S'a7'
p2616
sa(dp2617
g5
S'black_rook'
p2618
sg7
S'a8'
p2619
sa(dp2620
g7
S'b1'
p2621
sa(dp2622
g5
S'white_pawn'
p2623
sg7
S'b2'
p2624
sa(dp2625
g7
S'b3'
p2626
sa(dp2627
g7
S'b4'
p2628
sa(dp2629
g7
S'b5'
p2630
sa(dp2631
g7
S'b6'
p2632
sa(dp2633
g5
S'black_bishop'
p2634
sg7
S'b7'
p2635
sa(dp2636
g7
S'b8'
p2637
sa(dp2638
g7
S'c1'
p2639
sa(dp2640
g5
S'white_pawn'
p2641
sg7
S'c2'
p2642
sa(dp2643
g5
S'white_knight'
p2644
sg7
S'c3'
p2645
sa(dp2646
g7
S'c4'
p2647
sa(dp2648
g7
S'c5'
p2649
sa(dp2650
g5
S'black_pawn'
p2651
sg7
S'c6'
p2652
sa(dp2653
g5
S'black_pawn'
p2654
sg7
S'c7'
p2655
sa(dp2656
g7
S'c8'
p2657
sa(dp2658
g7
S'd1'
p2659
sa(dp2660
g5
S'white_bishop'
p2661
sg7
S'd2'
p2662
sa(dp2663
g5
S'white_pawn'
p2664
sg7
S'd3'
p2665
sa(dp2666
g7
S'd4'
p2667
sa(dp2668
g7
S'd5'
p2669
sa(dp2670
g5
S'black_bishop'
p2671
sg7
S'd6'
p2672
sa(dp2673
g5
S'black_pawn'
p2674
sg7
S'd7'
p2675
sa(dp2676
g5
S'black_queen'
p2677
sg7
S'd8'
p2678
sa(dp2679
g7
S'e1'
p2680
sa(dp2681
g7
S'e2'
p2682
sa(dp2683
g7
S'e3'
p2684
sa(dp2685
g5
S'white_pawn'
p2686
sg7
S'e4'
p2687
sa(dp2688
g5
S'black_pawn'
p2689
sg7
S'e5'
p2690
sa(dp2691
g7
S'e6'
p2692
sa(dp2693
g7
S'e7'
p2694
sa(dp2695
g5
S'black_king'
p2696
sg7
S'e8'
p2697
sa(dp2698
g5
S'white_rook'
p2699
sg7
S'f1'
p2700
sa(dp2701
g5
S'white_pawn'
p2702
sg7
S'f2'
p2703
sa(dp2704
g5
S'white_queen'
p2705
sg7
S'f3'
p2706
sa(dp2707
g7
S'f4'
p2708
sa(dp2709
g7
S'f5'
p2710
sa(dp2711
g7
S'f6'
p2712
sa(dp2713
g5
S'black_pawn'
p2714
sg7
S'f7'
p2715
sa(dp2716
g7
S'f8'
p2717
sa(dp2718
g5
S'white_king'
p2719
sg7
S'g1'
p2720
sa(dp2721
g5
S'white_pawn'
p2722
sg7
S'g2'
p2723
sa(dp2724
g7
S'g3'
p2725
sa(dp2726
g7
S'g4'
p2727
sa(dp2728
g7
S'g5'
p2729
sa(dp2730
g7
S'g6'
p2731
sa(dp2732
g5
S'black_pawn'
p2733
sg7
S'g7'
p2734
sa(dp2735
g7
S'g8'
p2736
sa(dp2737
g7
S'h1'
p2738
sa(dp2739
g5
S'white_knight'
p2740
sg7
S'h2'
p2741
sa(dp2742
g7
S'h3'
p2743
sa(dp2744
g7
S'h4'
p2745
sa(dp2746
g7
S'h5'
p2747
sa(dp2748
g5
S'black_pawn'
p2749
sg7
S'h6'
p2750
sa(dp2751
g7
S'h7'
p2752
sa(dp2753
g5
S'black_rook'
p2754
sg7
S'h8'
p2755
saaVI ignore and try to put a bit of pressure against his K.  I start analyzing a line which I thought might be effective until later on.  But, it continues even with my next move.  I am, however, having a small amount of Tunnel Vision, but it's not quite enough to effect my play.
p2756
aa(lp2757
S'12... Ba6 13. Ng4'
p2758
a(lp2759
(dp2760
g5
S'white_rook'
p2761
sg7
S'a1'
p2762
sa(dp2763
g5
S'white_pawn'
p2764
sg7
S'a2'
p2765
sa(dp2766
g7
S'a3'
p2767
sa(dp2768
g7
S'a4'
p2769
sa(dp2770
g5
S'black_pawn'
p2771
sg7
S'a5'
p2772
sa(dp2773
g5
S'black_bishop'
p2774
sg7
S'a6'
p2775
sa(dp2776
g7
S'a7'
p2777
sa(dp2778
g5
S'black_rook'
p2779
sg7
S'a8'
p2780
sa(dp2781
g7
S'b1'
p2782
sa(dp2783
g5
S'white_pawn'
p2784
sg7
S'b2'
p2785
sa(dp2786
g7
S'b3'
p2787
sa(dp2788
g7
S'b4'
p2789
sa(dp2790
g7
S'b5'
p2791
sa(dp2792
g7
S'b6'
p2793
sa(dp2794
g7
S'b7'
p2795
sa(dp2796
g7
S'b8'
p2797
sa(dp2798
g7
S'c1'
p2799
sa(dp2800
g5
S'white_pawn'
p2801
sg7
S'c2'
p2802
sa(dp2803
g5
S'white_knight'
p2804
sg7
S'c3'
p2805
sa(dp2806
g7
S'c4'
p2807
sa(dp2808
g7
S'c5'
p2809
sa(dp2810
g5
S'black_pawn'
p2811
sg7
S'c6'
p2812
sa(dp2813
g5
S'black_pawn'
p2814
sg7
S'c7'
p2815
sa(dp2816
g7
S'c8'
p2817
sa(dp2818
g7
S'd1'
p2819
sa(dp2820
g5
S'white_bishop'
p2821
sg7
S'd2'
p2822
sa(dp2823
g5
S'white_pawn'
p2824
sg7
S'd3'
p2825
sa(dp2826
g7
S'd4'
p2827
sa(dp2828
g7
S'd5'
p2829
sa(dp2830
g5
S'black_bishop'
p2831
sg7
S'd6'
p2832
sa(dp2833
g5
S'black_pawn'
p2834
sg7
S'd7'
p2835
sa(dp2836
g5
S'black_queen'
p2837
sg7
S'd8'
p2838
sa(dp2839
g7
S'e1'
p2840
sa(dp2841
g7
S'e2'
p2842
sa(dp2843
g7
S'e3'
p2844
sa(dp2845
g5
S'white_pawn'
p2846
sg7
S'e4'
p2847
sa(dp2848
g5
S'black_pawn'
p2849
sg7
S'e5'
p2850
sa(dp2851
g7
S'e6'
p2852
sa(dp2853
g7
S'e7'
p2854
sa(dp2855
g5
S'black_king'
p2856
sg7
S'e8'
p2857
sa(dp2858
g5
S'white_rook'
p2859
sg7
S'f1'
p2860
sa(dp2861
g5
S'white_pawn'
p2862
sg7
S'f2'
p2863
sa(dp2864
g5
S'white_queen'
p2865
sg7
S'f3'
p2866
sa(dp2867
g7
S'f4'
p2868
sa(dp2869
g7
S'f5'
p2870
sa(dp2871
g7
S'f6'
p2872
sa(dp2873
g5
S'black_pawn'
p2874
sg7
S'f7'
p2875
sa(dp2876
g7
S'f8'
p2877
sa(dp2878
g5
S'white_king'
p2879
sg7
S'g1'
p2880
sa(dp2881
g5
S'white_pawn'
p2882
sg7
S'g2'
p2883
sa(dp2884
g7
S'g3'
p2885
sa(dp2886
g5
S'white_knight'
p2887
sg7
S'g4'
p2888
sa(dp2889
g7
S'g5'
p2890
sa(dp2891
g7
S'g6'
p2892
sa(dp2893
g5
S'black_pawn'
p2894
sg7
S'g7'
p2895
sa(dp2896
g7
S'g8'
p2897
sa(dp2898
g7
S'h1'
p2899
sa(dp2900
g7
S'h2'
p2901
sa(dp2902
g7
S'h3'
p2903
sa(dp2904
g7
S'h4'
p2905
sa(dp2906
g7
S'h5'
p2907
sa(dp2908
g5
S'black_pawn'
p2909
sg7
S'h6'
p2910
sa(dp2911
g7
S'h7'
p2912
sa(dp2913
g5
S'black_rook'
p2914
sg7
S'h8'
p2915
saaVThe whole idea behind this move, and 12.Qf3 was because it looked like white was threatening a checkmate.  But, that's where I figured out that it was Tunnel Vision because of where the N is now placed, in contrast to, where I thought it was placed.  So, hyperfocus right on the f7 square which is why it's Tunnel Vision.  As I thought that I might have a mating sequence.  This would, however, be true if the N were on g5, and he didn't have the pan h6.  So, in disguise, it was a good thing that this Tunnel Vision was there, as otherwise, he might have compensated, and even wound up the equivalent to a pawn up as this would have been a free N.  
p2916
aa(lp2917
S'13... Rb8'
p2918
a(lp2919
(dp2920
g5
S'white_rook'
p2921
sg7
S'a1'
p2922
sa(dp2923
g5
S'white_pawn'
p2924
sg7
S'a2'
p2925
sa(dp2926
g7
S'a3'
p2927
sa(dp2928
g7
S'a4'
p2929
sa(dp2930
g5
S'black_pawn'
p2931
sg7
S'a5'
p2932
sa(dp2933
g5
S'black_bishop'
p2934
sg7
S'a6'
p2935
sa(dp2936
g7
S'a7'
p2937
sa(dp2938
g7
S'a8'
p2939
sa(dp2940
g7
S'b1'
p2941
sa(dp2942
g5
S'white_pawn'
p2943
sg7
S'b2'
p2944
sa(dp2945
g7
S'b3'
p2946
sa(dp2947
g7
S'b4'
p2948
sa(dp2949
g7
S'b5'
p2950
sa(dp2951
g7
S'b6'
p2952
sa(dp2953
g7
S'b7'
p2954
sa(dp2955
g5
S'black_rook'
p2956
sg7
S'b8'
p2957
sa(dp2958
g7
S'c1'
p2959
sa(dp2960
g5
S'white_pawn'
p2961
sg7
S'c2'
p2962
sa(dp2963
g5
S'white_knight'
p2964
sg7
S'c3'
p2965
sa(dp2966
g7
S'c4'
p2967
sa(dp2968
g7
S'c5'
p2969
sa(dp2970
g5
S'black_pawn'
p2971
sg7
S'c6'
p2972
sa(dp2973
g5
S'black_pawn'
p2974
sg7
S'c7'
p2975
sa(dp2976
g7
S'c8'
p2977
sa(dp2978
g7
S'd1'
p2979
sa(dp2980
g5
S'white_bishop'
p2981
sg7
S'd2'
p2982
sa(dp2983
g5
S'white_pawn'
p2984
sg7
S'd3'
p2985
sa(dp2986
g7
S'd4'
p2987
sa(dp2988
g7
S'd5'
p2989
sa(dp2990
g5
S'black_bishop'
p2991
sg7
S'd6'
p2992
sa(dp2993
g5
S'black_pawn'
p2994
sg7
S'd7'
p2995
sa(dp2996
g5
S'black_queen'
p2997
sg7
S'd8'
p2998
sa(dp2999
g7
S'e1'
p3000
sa(dp3001
g7
S'e2'
p3002
sa(dp3003
g7
S'e3'
p3004
sa(dp3005
g5
S'white_pawn'
p3006
sg7
S'e4'
p3007
sa(dp3008
g5
S'black_pawn'
p3009
sg7
S'e5'
p3010
sa(dp3011
g7
S'e6'
p3012
sa(dp3013
g7
S'e7'
p3014
sa(dp3015
g5
S'black_king'
p3016
sg7
S'e8'
p3017
sa(dp3018
g5
S'white_rook'
p3019
sg7
S'f1'
p3020
sa(dp3021
g5
S'white_pawn'
p3022
sg7
S'f2'
p3023
sa(dp3024
g5
S'white_queen'
p3025
sg7
S'f3'
p3026
sa(dp3027
g7
S'f4'
p3028
sa(dp3029
g7
S'f5'
p3030
sa(dp3031
g7
S'f6'
p3032
sa(dp3033
g5
S'black_pawn'
p3034
sg7
S'f7'
p3035
sa(dp3036
g7
S'f8'
p3037
sa(dp3038
g5
S'white_king'
p3039
sg7
S'g1'
p3040
sa(dp3041
g5
S'white_pawn'
p3042
sg7
S'g2'
p3043
sa(dp3044
g7
S'g3'
p3045
sa(dp3046
g5
S'white_knight'
p3047
sg7
S'g4'
p3048
sa(dp3049
g7
S'g5'
p3050
sa(dp3051
g7
S'g6'
p3052
sa(dp3053
g5
S'black_pawn'
p3054
sg7
S'g7'
p3055
sa(dp3056
g7
S'g8'
p3057
sa(dp3058
g7
S'h1'
p3059
sa(dp3060
g7
S'h2'
p3061
sa(dp3062
g7
S'h3'
p3063
sa(dp3064
g7
S'h4'
p3065
sa(dp3066
g7
S'h5'
p3067
sa(dp3068
g5
S'black_pawn'
p3069
sg7
S'h6'
p3070
sa(dp3071
g7
S'h7'
p3072
sa(dp3073
g5
S'black_rook'
p3074
sg7
S'h8'
p3075
saaVFeeling some pressure and trying to compensate, Tom attacks b2.
p3076
aa(lp3077
S'14. Rab1'
p3078
a(lp3079
(dp3080
g7
S'a1'
p3081
sa(dp3082
g5
S'white_pawn'
p3083
sg7
S'a2'
p3084
sa(dp3085
g7
S'a3'
p3086
sa(dp3087
g7
S'a4'
p3088
sa(dp3089
g5
S'black_pawn'
p3090
sg7
S'a5'
p3091
sa(dp3092
g5
S'black_bishop'
p3093
sg7
S'a6'
p3094
sa(dp3095
g7
S'a7'
p3096
sa(dp3097
g7
S'a8'
p3098
sa(dp3099
g5
S'white_rook'
p3100
sg7
S'b1'
p3101
sa(dp3102
g5
S'white_pawn'
p3103
sg7
S'b2'
p3104
sa(dp3105
g7
S'b3'
p3106
sa(dp3107
g7
S'b4'
p3108
sa(dp3109
g7
S'b5'
p3110
sa(dp3111
g7
S'b6'
p3112
sa(dp3113
g7
S'b7'
p3114
sa(dp3115
g5
S'black_rook'
p3116
sg7
S'b8'
p3117
sa(dp3118
g7
S'c1'
p3119
sa(dp3120
g5
S'white_pawn'
p3121
sg7
S'c2'
p3122
sa(dp3123
g5
S'white_knight'
p3124
sg7
S'c3'
p3125
sa(dp3126
g7
S'c4'
p3127
sa(dp3128
g7
S'c5'
p3129
sa(dp3130
g5
S'black_pawn'
p3131
sg7
S'c6'
p3132
sa(dp3133
g5
S'black_pawn'
p3134
sg7
S'c7'
p3135
sa(dp3136
g7
S'c8'
p3137
sa(dp3138
g7
S'd1'
p3139
sa(dp3140
g5
S'white_bishop'
p3141
sg7
S'd2'
p3142
sa(dp3143
g5
S'white_pawn'
p3144
sg7
S'd3'
p3145
sa(dp3146
g7
S'd4'
p3147
sa(dp3148
g7
S'd5'
p3149
sa(dp3150
g5
S'black_bishop'
p3151
sg7
S'd6'
p3152
sa(dp3153
g5
S'black_pawn'
p3154
sg7
S'd7'
p3155
sa(dp3156
g5
S'black_queen'
p3157
sg7
S'd8'
p3158
sa(dp3159
g7
S'e1'
p3160
sa(dp3161
g7
S'e2'
p3162
sa(dp3163
g7
S'e3'
p3164
sa(dp3165
g5
S'white_pawn'
p3166
sg7
S'e4'
p3167
sa(dp3168
g5
S'black_pawn'
p3169
sg7
S'e5'
p3170
sa(dp3171
g7
S'e6'
p3172
sa(dp3173
g7
S'e7'
p3174
sa(dp3175
g5
S'black_king'
p3176
sg7
S'e8'
p3177
sa(dp3178
g5
S'white_rook'
p3179
sg7
S'f1'
p3180
sa(dp3181
g5
S'white_pawn'
p3182
sg7
S'f2'
p3183
sa(dp3184
g5
S'white_queen'
p3185
sg7
S'f3'
p3186
sa(dp3187
g7
S'f4'
p3188
sa(dp3189
g7
S'f5'
p3190
sa(dp3191
g7
S'f6'
p3192
sa(dp3193
g5
S'black_pawn'
p3194
sg7
S'f7'
p3195
sa(dp3196
g7
S'f8'
p3197
sa(dp3198
g5
S'white_king'
p3199
sg7
S'g1'
p3200
sa(dp3201
g5
S'white_pawn'
p3202
sg7
S'g2'
p3203
sa(dp3204
g7
S'g3'
p3205
sa(dp3206
g5
S'white_knight'
p3207
sg7
S'g4'
p3208
sa(dp3209
g7
S'g5'
p3210
sa(dp3211
g7
S'g6'
p3212
sa(dp3213
g5
S'black_pawn'
p3214
sg7
S'g7'
p3215
sa(dp3216
g7
S'g8'
p3217
sa(dp3218
g7
S'h1'
p3219
sa(dp3220
g7
S'h2'
p3221
sa(dp3222
g7
S'h3'
p3223
sa(dp3224
g7
S'h4'
p3225
sa(dp3226
g7
S'h5'
p3227
sa(dp3228
g5
S'black_pawn'
p3229
sg7
S'h6'
p3230
sa(dp3231
g7
S'h7'
p3232
sa(dp3233
g5
S'black_rook'
p3234
sg7
S'h8'
p3235
saaVAnd, I defend.
p3236
aa.