(lp0
(lp1
S'14... O-O'
p2
a(lp3
(dp4
S'location'
p5
S'a1'
p6
sa(dp7
S'piece'
p8
S'white_pawn'
p9
sg5
S'a2'
p10
sa(dp11
g5
S'a3'
p12
sa(dp13
g5
S'a4'
p14
sa(dp15
g8
S'black_pawn'
p16
sg5
S'a5'
p17
sa(dp18
g8
S'black_bishop'
p19
sg5
S'a6'
p20
sa(dp21
g5
S'a7'
p22
sa(dp23
g5
S'a8'
p24
sa(dp25
g8
S'white_rook'
p26
sg5
S'b1'
p27
sa(dp28
g8
S'white_pawn'
p29
sg5
S'b2'
p30
sa(dp31
g5
S'b3'
p32
sa(dp33
g5
S'b4'
p34
sa(dp35
g5
S'b5'
p36
sa(dp37
g5
S'b6'
p38
sa(dp39
g5
S'b7'
p40
sa(dp41
g8
S'black_rook'
p42
sg5
S'b8'
p43
sa(dp44
g5
S'c1'
p45
sa(dp46
g8
S'white_pawn'
p47
sg5
S'c2'
p48
sa(dp49
g8
S'white_knight'
p50
sg5
S'c3'
p51
sa(dp52
g5
S'c4'
p53
sa(dp54
g5
S'c5'
p55
sa(dp56
g8
S'black_pawn'
p57
sg5
S'c6'
p58
sa(dp59
g8
S'black_pawn'
p60
sg5
S'c7'
p61
sa(dp62
g5
S'c8'
p63
sa(dp64
g5
S'd1'
p65
sa(dp66
g8
S'white_bishop'
p67
sg5
S'd2'
p68
sa(dp69
g8
S'white_pawn'
p70
sg5
S'd3'
p71
sa(dp72
g5
S'd4'
p73
sa(dp74
g5
S'd5'
p75
sa(dp76
g8
S'black_bishop'
p77
sg5
S'd6'
p78
sa(dp79
g8
S'black_pawn'
p80
sg5
S'd7'
p81
sa(dp82
g8
S'black_queen'
p83
sg5
S'd8'
p84
sa(dp85
g5
S'e1'
p86
sa(dp87
g5
S'e2'
p88
sa(dp89
g5
S'e3'
p90
sa(dp91
g8
S'white_pawn'
p92
sg5
S'e4'
p93
sa(dp94
g8
S'black_pawn'
p95
sg5
S'e5'
p96
sa(dp97
g5
S'e6'
p98
sa(dp99
g5
S'e7'
p100
sa(dp101
g5
S'e8'
p102
sa(dp103
g8
S'white_rook'
p104
sg5
S'f1'
p105
sa(dp106
g8
S'white_pawn'
p107
sg5
S'f2'
p108
sa(dp109
g8
S'white_queen'
p110
sg5
S'f3'
p111
sa(dp112
g5
S'f4'
p113
sa(dp114
g5
S'f5'
p115
sa(dp116
g5
S'f6'
p117
sa(dp118
g8
S'black_pawn'
p119
sg5
S'f7'
p120
sa(dp121
g8
S'black_rook'
p122
sg5
S'f8'
p123
sa(dp124
g8
S'white_king'
p125
sg5
S'g1'
p126
sa(dp127
g8
S'white_pawn'
p128
sg5
S'g2'
p129
sa(dp130
g5
S'g3'
p131
sa(dp132
g8
S'white_knight'
p133
sg5
S'g4'
p134
sa(dp135
g5
S'g5'
p136
sa(dp137
g5
S'g6'
p138
sa(dp139
g8
S'black_pawn'
p140
sg5
S'g7'
p141
sa(dp142
g8
S'black_king'
p143
sg5
S'g8'
p144
sa(dp145
g5
S'h1'
p146
sa(dp147
g5
S'h2'
p148
sa(dp149
g5
S'h3'
p150
sa(dp151
g5
S'h4'
p152
sa(dp153
g5
S'h5'
p154
sa(dp155
g8
S'black_pawn'
p156
sg5
S'h6'
p157
sa(dp158
g5
S'h7'
p159
sa(dp160
g5
S'h8'
p161
saaVOnce he castles, that's when I start following through on my plan.
p162
aa(lp163
S'15. Bxh6'
p164
a(lp165
(dp166
g5
S'a1'
p167
sa(dp168
g8
S'white_pawn'
p169
sg5
S'a2'
p170
sa(dp171
g5
S'a3'
p172
sa(dp173
g5
S'a4'
p174
sa(dp175
g8
S'black_pawn'
p176
sg5
S'a5'
p177
sa(dp178
g8
S'black_bishop'
p179
sg5
S'a6'
p180
sa(dp181
g5
S'a7'
p182
sa(dp183
g5
S'a8'
p184
sa(dp185
g8
S'white_rook'
p186
sg5
S'b1'
p187
sa(dp188
g8
S'white_pawn'
p189
sg5
S'b2'
p190
sa(dp191
g5
S'b3'
p192
sa(dp193
g5
S'b4'
p194
sa(dp195
g5
S'b5'
p196
sa(dp197
g5
S'b6'
p198
sa(dp199
g5
S'b7'
p200
sa(dp201
g8
S'black_rook'
p202
sg5
S'b8'
p203
sa(dp204
g5
S'c1'
p205
sa(dp206
g8
S'white_pawn'
p207
sg5
S'c2'
p208
sa(dp209
g8
S'white_knight'
p210
sg5
S'c3'
p211
sa(dp212
g5
S'c4'
p213
sa(dp214
g5
S'c5'
p215
sa(dp216
g8
S'black_pawn'
p217
sg5
S'c6'
p218
sa(dp219
g8
S'black_pawn'
p220
sg5
S'c7'
p221
sa(dp222
g5
S'c8'
p223
sa(dp224
g5
S'd1'
p225
sa(dp226
g5
S'd2'
p227
sa(dp228
g8
S'white_pawn'
p229
sg5
S'd3'
p230
sa(dp231
g5
S'd4'
p232
sa(dp233
g5
S'd5'
p234
sa(dp235
g8
S'black_bishop'
p236
sg5
S'd6'
p237
sa(dp238
g8
S'black_pawn'
p239
sg5
S'd7'
p240
sa(dp241
g8
S'black_queen'
p242
sg5
S'd8'
p243
sa(dp244
g5
S'e1'
p245
sa(dp246
g5
S'e2'
p247
sa(dp248
g5
S'e3'
p249
sa(dp250
g8
S'white_pawn'
p251
sg5
S'e4'
p252
sa(dp253
g8
S'black_pawn'
p254
sg5
S'e5'
p255
sa(dp256
g5
S'e6'
p257
sa(dp258
g5
S'e7'
p259
sa(dp260
g5
S'e8'
p261
sa(dp262
g8
S'white_rook'
p263
sg5
S'f1'
p264
sa(dp265
g8
S'white_pawn'
p266
sg5
S'f2'
p267
sa(dp268
g8
S'white_queen'
p269
sg5
S'f3'
p270
sa(dp271
g5
S'f4'
p272
sa(dp273
g5
S'f5'
p274
sa(dp275
g5
S'f6'
p276
sa(dp277
g8
S'black_pawn'
p278
sg5
S'f7'
p279
sa(dp280
g8
S'black_rook'
p281
sg5
S'f8'
p282
sa(dp283
g8
S'white_king'
p284
sg5
S'g1'
p285
sa(dp286
g8
S'white_pawn'
p287
sg5
S'g2'
p288
sa(dp289
g5
S'g3'
p290
sa(dp291
g8
S'white_knight'
p292
sg5
S'g4'
p293
sa(dp294
g5
S'g5'
p295
sa(dp296
g5
S'g6'
p297
sa(dp298
g8
S'black_pawn'
p299
sg5
S'g7'
p300
sa(dp301
g8
S'black_king'
p302
sg5
S'g8'
p303
sa(dp304
g5
S'h1'
p305
sa(dp306
g5
S'h2'
p307
sa(dp308
g5
S'h3'
p309
sa(dp310
g5
S'h4'
p311
sa(dp312
g5
S'h5'
p313
sa(dp314
g8
S'white_bishop'
p315
sg5
S'h6'
p316
sa(dp317
g5
S'h7'
p318
sa(dp319
g5
S'h8'
p320
saaVAnd, it's with this move.  Now, I had considered 15.Nxh6 with the same idea.  But, after 15...gxh6, 16.Bxh6 Re8, I don't know what white can do.  It looks like it, but there certainly isn't a mate.  That all came into consideration for which to take.  As this does work.  Unlike the previous variation, if black plays 15...gxh6, I have 16.Nxh6+ and mate would not be far off.  There are variations that would prevent it immediately, but checkmate would come sooner then later.
p321
aa(lp322
S'15... Qh4'
p323
a(lp324
(dp325
g5
S'a1'
p326
sa(dp327
g8
S'white_pawn'
p328
sg5
S'a2'
p329
sa(dp330
g5
S'a3'
p331
sa(dp332
g5
S'a4'
p333
sa(dp334
g8
S'black_pawn'
p335
sg5
S'a5'
p336
sa(dp337
g8
S'black_bishop'
p338
sg5
S'a6'
p339
sa(dp340
g5
S'a7'
p341
sa(dp342
g5
S'a8'
p343
sa(dp344
g8
S'white_rook'
p345
sg5
S'b1'
p346
sa(dp347
g8
S'white_pawn'
p348
sg5
S'b2'
p349
sa(dp350
g5
S'b3'
p351
sa(dp352
g5
S'b4'
p353
sa(dp354
g5
S'b5'
p355
sa(dp356
g5
S'b6'
p357
sa(dp358
g5
S'b7'
p359
sa(dp360
g8
S'black_rook'
p361
sg5
S'b8'
p362
sa(dp363
g5
S'c1'
p364
sa(dp365
g8
S'white_pawn'
p366
sg5
S'c2'
p367
sa(dp368
g8
S'white_knight'
p369
sg5
S'c3'
p370
sa(dp371
g5
S'c4'
p372
sa(dp373
g5
S'c5'
p374
sa(dp375
g8
S'black_pawn'
p376
sg5
S'c6'
p377
sa(dp378
g8
S'black_pawn'
p379
sg5
S'c7'
p380
sa(dp381
g5
S'c8'
p382
sa(dp383
g5
S'd1'
p384
sa(dp385
g5
S'd2'
p386
sa(dp387
g8
S'white_pawn'
p388
sg5
S'd3'
p389
sa(dp390
g5
S'd4'
p391
sa(dp392
g5
S'd5'
p393
sa(dp394
g8
S'black_bishop'
p395
sg5
S'd6'
p396
sa(dp397
g8
S'black_pawn'
p398
sg5
S'd7'
p399
sa(dp400
g5
S'd8'
p401
sa(dp402
g5
S'e1'
p403
sa(dp404
g5
S'e2'
p405
sa(dp406
g5
S'e3'
p407
sa(dp408
g8
S'white_pawn'
p409
sg5
S'e4'
p410
sa(dp411
g8
S'black_pawn'
p412
sg5
S'e5'
p413
sa(dp414
g5
S'e6'
p415
sa(dp416
g5
S'e7'
p417
sa(dp418
g5
S'e8'
p419
sa(dp420
g8
S'white_rook'
p421
sg5
S'f1'
p422
sa(dp423
g8
S'white_pawn'
p424
sg5
S'f2'
p425
sa(dp426
g8
S'white_queen'
p427
sg5
S'f3'
p428
sa(dp429
g5
S'f4'
p430
sa(dp431
g5
S'f5'
p432
sa(dp433
g5
S'f6'
p434
sa(dp435
g8
S'black_pawn'
p436
sg5
S'f7'
p437
sa(dp438
g8
S'black_rook'
p439
sg5
S'f8'
p440
sa(dp441
g8
S'white_king'
p442
sg5
S'g1'
p443
sa(dp444
g8
S'white_pawn'
p445
sg5
S'g2'
p446
sa(dp447
g5
S'g3'
p448
sa(dp449
g8
S'white_knight'
p450
sg5
S'g4'
p451
sa(dp452
g5
S'g5'
p453
sa(dp454
g5
S'g6'
p455
sa(dp456
g8
S'black_pawn'
p457
sg5
S'g7'
p458
sa(dp459
g8
S'black_king'
p460
sg5
S'g8'
p461
sa(dp462
g5
S'h1'
p463
sa(dp464
g5
S'h2'
p465
sa(dp466
g5
S'h3'
p467
sa(dp468
g8
S'black_queen'
p469
sg5
S'h4'
p470
sa(dp471
g5
S'h5'
p472
sa(dp473
g8
S'white_bishop'
p474
sg5
S'h6'
p475
sa(dp476
g5
S'h7'
p477
sa(dp478
g5
S'h8'
p479
saaVHowever, the plan does not work, as Tom plays this to prevent that.
p480
aa(lp481
S'16. Be3'
p482
a(lp483
(dp484
g5
S'a1'
p485
sa(dp486
g8
S'white_pawn'
p487
sg5
S'a2'
p488
sa(dp489
g5
S'a3'
p490
sa(dp491
g5
S'a4'
p492
sa(dp493
g8
S'black_pawn'
p494
sg5
S'a5'
p495
sa(dp496
g8
S'black_bishop'
p497
sg5
S'a6'
p498
sa(dp499
g5
S'a7'
p500
sa(dp501
g5
S'a8'
p502
sa(dp503
g8
S'white_rook'
p504
sg5
S'b1'
p505
sa(dp506
g8
S'white_pawn'
p507
sg5
S'b2'
p508
sa(dp509
g5
S'b3'
p510
sa(dp511
g5
S'b4'
p512
sa(dp513
g5
S'b5'
p514
sa(dp515
g5
S'b6'
p516
sa(dp517
g5
S'b7'
p518
sa(dp519
g8
S'black_rook'
p520
sg5
S'b8'
p521
sa(dp522
g5
S'c1'
p523
sa(dp524
g8
S'white_pawn'
p525
sg5
S'c2'
p526
sa(dp527
g8
S'white_knight'
p528
sg5
S'c3'
p529
sa(dp530
g5
S'c4'
p531
sa(dp532
g5
S'c5'
p533
sa(dp534
g8
S'black_pawn'
p535
sg5
S'c6'
p536
sa(dp537
g8
S'black_pawn'
p538
sg5
S'c7'
p539
sa(dp540
g5
S'c8'
p541
sa(dp542
g5
S'd1'
p543
sa(dp544
g5
S'd2'
p545
sa(dp546
g8
S'white_pawn'
p547
sg5
S'd3'
p548
sa(dp549
g5
S'd4'
p550
sa(dp551
g5
S'd5'
p552
sa(dp553
g8
S'black_bishop'
p554
sg5
S'd6'
p555
sa(dp556
g8
S'black_pawn'
p557
sg5
S'd7'
p558
sa(dp559
g5
S'd8'
p560
sa(dp561
g5
S'e1'
p562
sa(dp563
g5
S'e2'
p564
sa(dp565
g8
S'white_bishop'
p566
sg5
S'e3'
p567
sa(dp568
g8
S'white_pawn'
p569
sg5
S'e4'
p570
sa(dp571
g8
S'black_pawn'
p572
sg5
S'e5'
p573
sa(dp574
g5
S'e6'
p575
sa(dp576
g5
S'e7'
p577
sa(dp578
g5
S'e8'
p579
sa(dp580
g8
S'white_rook'
p581
sg5
S'f1'
p582
sa(dp583
g8
S'white_pawn'
p584
sg5
S'f2'
p585
sa(dp586
g8
S'white_queen'
p587
sg5
S'f3'
p588
sa(dp589
g5
S'f4'
p590
sa(dp591
g5
S'f5'
p592
sa(dp593
g5
S'f6'
p594
sa(dp595
g8
S'black_pawn'
p596
sg5
S'f7'
p597
sa(dp598
g8
S'black_rook'
p599
sg5
S'f8'
p600
sa(dp601
g8
S'white_king'
p602
sg5
S'g1'
p603
sa(dp604
g8
S'white_pawn'
p605
sg5
S'g2'
p606
sa(dp607
g5
S'g3'
p608
sa(dp609
g8
S'white_knight'
p610
sg5
S'g4'
p611
sa(dp612
g5
S'g5'
p613
sa(dp614
g5
S'g6'
p615
sa(dp616
g8
S'black_pawn'
p617
sg5
S'g7'
p618
sa(dp619
g8
S'black_king'
p620
sg5
S'g8'
p621
sa(dp622
g5
S'h1'
p623
sa(dp624
g5
S'h2'
p625
sa(dp626
g5
S'h3'
p627
sa(dp628
g8
S'black_queen'
p629
sg5
S'h4'
p630
sa(dp631
g5
S'h5'
p632
sa(dp633
g5
S'h6'
p634
sa(dp635
g5
S'h7'
p636
sa(dp637
g5
S'h8'
p638
saaVWhich left my DSB en-prise for real.  So, I defend.
p639
aa(lp640
S'16... Bb4'
p641
a(lp642
(dp643
g5
S'a1'
p644
sa(dp645
g8
S'white_pawn'
p646
sg5
S'a2'
p647
sa(dp648
g5
S'a3'
p649
sa(dp650
g5
S'a4'
p651
sa(dp652
g8
S'black_pawn'
p653
sg5
S'a5'
p654
sa(dp655
g8
S'black_bishop'
p656
sg5
S'a6'
p657
sa(dp658
g5
S'a7'
p659
sa(dp660
g5
S'a8'
p661
sa(dp662
g8
S'white_rook'
p663
sg5
S'b1'
p664
sa(dp665
g8
S'white_pawn'
p666
sg5
S'b2'
p667
sa(dp668
g5
S'b3'
p669
sa(dp670
g8
S'black_bishop'
p671
sg5
S'b4'
p672
sa(dp673
g5
S'b5'
p674
sa(dp675
g5
S'b6'
p676
sa(dp677
g5
S'b7'
p678
sa(dp679
g8
S'black_rook'
p680
sg5
S'b8'
p681
sa(dp682
g5
S'c1'
p683
sa(dp684
g8
S'white_pawn'
p685
sg5
S'c2'
p686
sa(dp687
g8
S'white_knight'
p688
sg5
S'c3'
p689
sa(dp690
g5
S'c4'
p691
sa(dp692
g5
S'c5'
p693
sa(dp694
g8
S'black_pawn'
p695
sg5
S'c6'
p696
sa(dp697
g8
S'black_pawn'
p698
sg5
S'c7'
p699
sa(dp700
g5
S'c8'
p701
sa(dp702
g5
S'd1'
p703
sa(dp704
g5
S'd2'
p705
sa(dp706
g8
S'white_pawn'
p707
sg5
S'd3'
p708
sa(dp709
g5
S'd4'
p710
sa(dp711
g5
S'd5'
p712
sa(dp713
g5
S'd6'
p714
sa(dp715
g8
S'black_pawn'
p716
sg5
S'd7'
p717
sa(dp718
g5
S'd8'
p719
sa(dp720
g5
S'e1'
p721
sa(dp722
g5
S'e2'
p723
sa(dp724
g8
S'white_bishop'
p725
sg5
S'e3'
p726
sa(dp727
g8
S'white_pawn'
p728
sg5
S'e4'
p729
sa(dp730
g8
S'black_pawn'
p731
sg5
S'e5'
p732
sa(dp733
g5
S'e6'
p734
sa(dp735
g5
S'e7'
p736
sa(dp737
g5
S'e8'
p738
sa(dp739
g8
S'white_rook'
p740
sg5
S'f1'
p741
sa(dp742
g8
S'white_pawn'
p743
sg5
S'f2'
p744
sa(dp745
g8
S'white_queen'
p746
sg5
S'f3'
p747
sa(dp748
g5
S'f4'
p749
sa(dp750
g5
S'f5'
p751
sa(dp752
g5
S'f6'
p753
sa(dp754
g8
S'black_pawn'
p755
sg5
S'f7'
p756
sa(dp757
g8
S'black_rook'
p758
sg5
S'f8'
p759
sa(dp760
g8
S'white_king'
p761
sg5
S'g1'
p762
sa(dp763
g8
S'white_pawn'
p764
sg5
S'g2'
p765
sa(dp766
g5
S'g3'
p767
sa(dp768
g8
S'white_knight'
p769
sg5
S'g4'
p770
sa(dp771
g5
S'g5'
p772
sa(dp773
g5
S'g6'
p774
sa(dp775
g8
S'black_pawn'
p776
sg5
S'g7'
p777
sa(dp778
g8
S'black_king'
p779
sg5
S'g8'
p780
sa(dp781
g5
S'h1'
p782
sa(dp783
g5
S'h2'
p784
sa(dp785
g5
S'h3'
p786
sa(dp787
g8
S'black_queen'
p788
sg5
S'h4'
p789
sa(dp790
g5
S'h5'
p791
sa(dp792
g5
S'h6'
p793
sa(dp794
g5
S'h7'
p795
sa(dp796
g5
S'h8'
p797
saaVTom wants to exchange.
p798
aa(lp799
S'17. g3'
p800
a(lp801
(dp802
g5
S'a1'
p803
sa(dp804
g8
S'white_pawn'
p805
sg5
S'a2'
p806
sa(dp807
g5
S'a3'
p808
sa(dp809
g5
S'a4'
p810
sa(dp811
g8
S'black_pawn'
p812
sg5
S'a5'
p813
sa(dp814
g8
S'black_bishop'
p815
sg5
S'a6'
p816
sa(dp817
g5
S'a7'
p818
sa(dp819
g5
S'a8'
p820
sa(dp821
g8
S'white_rook'
p822
sg5
S'b1'
p823
sa(dp824
g8
S'white_pawn'
p825
sg5
S'b2'
p826
sa(dp827
g5
S'b3'
p828
sa(dp829
g8
S'black_bishop'
p830
sg5
S'b4'
p831
sa(dp832
g5
S'b5'
p833
sa(dp834
g5
S'b6'
p835
sa(dp836
g5
S'b7'
p837
sa(dp838
g8
S'black_rook'
p839
sg5
S'b8'
p840
sa(dp841
g5
S'c1'
p842
sa(dp843
g8
S'white_pawn'
p844
sg5
S'c2'
p845
sa(dp846
g8
S'white_knight'
p847
sg5
S'c3'
p848
sa(dp849
g5
S'c4'
p850
sa(dp851
g5
S'c5'
p852
sa(dp853
g8
S'black_pawn'
p854
sg5
S'c6'
p855
sa(dp856
g8
S'black_pawn'
p857
sg5
S'c7'
p858
sa(dp859
g5
S'c8'
p860
sa(dp861
g5
S'd1'
p862
sa(dp863
g5
S'd2'
p864
sa(dp865
g8
S'white_pawn'
p866
sg5
S'd3'
p867
sa(dp868
g5
S'd4'
p869
sa(dp870
g5
S'd5'
p871
sa(dp872
g5
S'd6'
p873
sa(dp874
g8
S'black_pawn'
p875
sg5
S'd7'
p876
sa(dp877
g5
S'd8'
p878
sa(dp879
g5
S'e1'
p880
sa(dp881
g5
S'e2'
p882
sa(dp883
g8
S'white_bishop'
p884
sg5
S'e3'
p885
sa(dp886
g8
S'white_pawn'
p887
sg5
S'e4'
p888
sa(dp889
g8
S'black_pawn'
p890
sg5
S'e5'
p891
sa(dp892
g5
S'e6'
p893
sa(dp894
g5
S'e7'
p895
sa(dp896
g5
S'e8'
p897
sa(dp898
g8
S'white_rook'
p899
sg5
S'f1'
p900
sa(dp901
g8
S'white_pawn'
p902
sg5
S'f2'
p903
sa(dp904
g8
S'white_queen'
p905
sg5
S'f3'
p906
sa(dp907
g5
S'f4'
p908
sa(dp909
g5
S'f5'
p910
sa(dp911
g5
S'f6'
p912
sa(dp913
g8
S'black_pawn'
p914
sg5
S'f7'
p915
sa(dp916
g8
S'black_rook'
p917
sg5
S'f8'
p918
sa(dp919
g8
S'white_king'
p920
sg5
S'g1'
p921
sa(dp922
g5
S'g2'
p923
sa(dp924
g8
S'white_pawn'
p925
sg5
S'g3'
p926
sa(dp927
g8
S'white_knight'
p928
sg5
S'g4'
p929
sa(dp930
g5
S'g5'
p931
sa(dp932
g5
S'g6'
p933
sa(dp934
g8
S'black_pawn'
p935
sg5
S'g7'
p936
sa(dp937
g8
S'black_king'
p938
sg5
S'g8'
p939
sa(dp940
g5
S'h1'
p941
sa(dp942
g5
S'h2'
p943
sa(dp944
g5
S'h3'
p945
sa(dp946
g8
S'black_queen'
p947
sg5
S'h4'
p948
sa(dp949
g5
S'h5'
p950
sa(dp951
g5
S'h6'
p952
sa(dp953
g5
S'h7'
p954
sa(dp955
g5
S'h8'
p956
saaVBut, trying to trick Tom into getting his Queen away from the h file, where a similar plan could work, I attack it.
p957
aa(lp958
S'17... Qh7'
p959
a(lp960
(dp961
g5
S'a1'
p962
sa(dp963
g8
S'white_pawn'
p964
sg5
S'a2'
p965
sa(dp966
g5
S'a3'
p967
sa(dp968
g5
S'a4'
p969
sa(dp970
g8
S'black_pawn'
p971
sg5
S'a5'
p972
sa(dp973
g8
S'black_bishop'
p974
sg5
S'a6'
p975
sa(dp976
g5
S'a7'
p977
sa(dp978
g5
S'a8'
p979
sa(dp980
g8
S'white_rook'
p981
sg5
S'b1'
p982
sa(dp983
g8
S'white_pawn'
p984
sg5
S'b2'
p985
sa(dp986
g5
S'b3'
p987
sa(dp988
g8
S'black_bishop'
p989
sg5
S'b4'
p990
sa(dp991
g5
S'b5'
p992
sa(dp993
g5
S'b6'
p994
sa(dp995
g5
S'b7'
p996
sa(dp997
g8
S'black_rook'
p998
sg5
S'b8'
p999
sa(dp1000
g5
S'c1'
p1001
sa(dp1002
g8
S'white_pawn'
p1003
sg5
S'c2'
p1004
sa(dp1005
g8
S'white_knight'
p1006
sg5
S'c3'
p1007
sa(dp1008
g5
S'c4'
p1009
sa(dp1010
g5
S'c5'
p1011
sa(dp1012
g8
S'black_pawn'
p1013
sg5
S'c6'
p1014
sa(dp1015
g8
S'black_pawn'
p1016
sg5
S'c7'
p1017
sa(dp1018
g5
S'c8'
p1019
sa(dp1020
g5
S'd1'
p1021
sa(dp1022
g5
S'd2'
p1023
sa(dp1024
g8
S'white_pawn'
p1025
sg5
S'd3'
p1026
sa(dp1027
g5
S'd4'
p1028
sa(dp1029
g5
S'd5'
p1030
sa(dp1031
g5
S'd6'
p1032
sa(dp1033
g8
S'black_pawn'
p1034
sg5
S'd7'
p1035
sa(dp1036
g5
S'd8'
p1037
sa(dp1038
g5
S'e1'
p1039
sa(dp1040
g5
S'e2'
p1041
sa(dp1042
g8
S'white_bishop'
p1043
sg5
S'e3'
p1044
sa(dp1045
g8
S'white_pawn'
p1046
sg5
S'e4'
p1047
sa(dp1048
g8
S'black_pawn'
p1049
sg5
S'e5'
p1050
sa(dp1051
g5
S'e6'
p1052
sa(dp1053
g5
S'e7'
p1054
sa(dp1055
g5
S'e8'
p1056
sa(dp1057
g8
S'white_rook'
p1058
sg5
S'f1'
p1059
sa(dp1060
g8
S'white_pawn'
p1061
sg5
S'f2'
p1062
sa(dp1063
g8
S'white_queen'
p1064
sg5
S'f3'
p1065
sa(dp1066
g5
S'f4'
p1067
sa(dp1068
g5
S'f5'
p1069
sa(dp1070
g5
S'f6'
p1071
sa(dp1072
g8
S'black_pawn'
p1073
sg5
S'f7'
p1074
sa(dp1075
g8
S'black_rook'
p1076
sg5
S'f8'
p1077
sa(dp1078
g8
S'white_king'
p1079
sg5
S'g1'
p1080
sa(dp1081
g5
S'g2'
p1082
sa(dp1083
g8
S'white_pawn'
p1084
sg5
S'g3'
p1085
sa(dp1086
g8
S'white_knight'
p1087
sg5
S'g4'
p1088
sa(dp1089
g5
S'g5'
p1090
sa(dp1091
g5
S'g6'
p1092
sa(dp1093
g8
S'black_pawn'
p1094
sg5
S'g7'
p1095
sa(dp1096
g8
S'black_king'
p1097
sg5
S'g8'
p1098
sa(dp1099
g5
S'h1'
p1100
sa(dp1101
g5
S'h2'
p1102
sa(dp1103
g5
S'h3'
p1104
sa(dp1105
g5
S'h4'
p1106
sa(dp1107
g5
S'h5'
p1108
sa(dp1109
g5
S'h6'
p1110
sa(dp1111
g8
S'black_queen'
p1112
sg5
S'h7'
p1113
sa(dp1114
g5
S'h8'
p1115
saaVHowever, it does not work, as Tom keeps his Q on the h file.
p1116
aa(lp1117
S'18. Nxe5'
p1118
a(lp1119
(dp1120
g5
S'a1'
p1121
sa(dp1122
g8
S'white_pawn'
p1123
sg5
S'a2'
p1124
sa(dp1125
g5
S'a3'
p1126
sa(dp1127
g5
S'a4'
p1128
sa(dp1129
g8
S'black_pawn'
p1130
sg5
S'a5'
p1131
sa(dp1132
g8
S'black_bishop'
p1133
sg5
S'a6'
p1134
sa(dp1135
g5
S'a7'
p1136
sa(dp1137
g5
S'a8'
p1138
sa(dp1139
g8
S'white_rook'
p1140
sg5
S'b1'
p1141
sa(dp1142
g8
S'white_pawn'
p1143
sg5
S'b2'
p1144
sa(dp1145
g5
S'b3'
p1146
sa(dp1147
g8
S'black_bishop'
p1148
sg5
S'b4'
p1149
sa(dp1150
g5
S'b5'
p1151
sa(dp1152
g5
S'b6'
p1153
sa(dp1154
g5
S'b7'
p1155
sa(dp1156
g8
S'black_rook'
p1157
sg5
S'b8'
p1158
sa(dp1159
g5
S'c1'
p1160
sa(dp1161
g8
S'white_pawn'
p1162
sg5
S'c2'
p1163
sa(dp1164
g8
S'white_knight'
p1165
sg5
S'c3'
p1166
sa(dp1167
g5
S'c4'
p1168
sa(dp1169
g5
S'c5'
p1170
sa(dp1171
g8
S'black_pawn'
p1172
sg5
S'c6'
p1173
sa(dp1174
g8
S'black_pawn'
p1175
sg5
S'c7'
p1176
sa(dp1177
g5
S'c8'
p1178
sa(dp1179
g5
S'd1'
p1180
sa(dp1181
g5
S'd2'
p1182
sa(dp1183
g8
S'white_pawn'
p1184
sg5
S'd3'
p1185
sa(dp1186
g5
S'd4'
p1187
sa(dp1188
g5
S'd5'
p1189
sa(dp1190
g5
S'd6'
p1191
sa(dp1192
g8
S'black_pawn'
p1193
sg5
S'd7'
p1194
sa(dp1195
g5
S'd8'
p1196
sa(dp1197
g5
S'e1'
p1198
sa(dp1199
g5
S'e2'
p1200
sa(dp1201
g8
S'white_bishop'
p1202
sg5
S'e3'
p1203
sa(dp1204
g8
S'white_pawn'
p1205
sg5
S'e4'
p1206
sa(dp1207
g8
S'white_knight'
p1208
sg5
S'e5'
p1209
sa(dp1210
g5
S'e6'
p1211
sa(dp1212
g5
S'e7'
p1213
sa(dp1214
g5
S'e8'
p1215
sa(dp1216
g8
S'white_rook'
p1217
sg5
S'f1'
p1218
sa(dp1219
g8
S'white_pawn'
p1220
sg5
S'f2'
p1221
sa(dp1222
g8
S'white_queen'
p1223
sg5
S'f3'
p1224
sa(dp1225
g5
S'f4'
p1226
sa(dp1227
g5
S'f5'
p1228
sa(dp1229
g5
S'f6'
p1230
sa(dp1231
g8
S'black_pawn'
p1232
sg5
S'f7'
p1233
sa(dp1234
g8
S'black_rook'
p1235
sg5
S'f8'
p1236
sa(dp1237
g8
S'white_king'
p1238
sg5
S'g1'
p1239
sa(dp1240
g5
S'g2'
p1241
sa(dp1242
g8
S'white_pawn'
p1243
sg5
S'g3'
p1244
sa(dp1245
g5
S'g4'
p1246
sa(dp1247
g5
S'g5'
p1248
sa(dp1249
g5
S'g6'
p1250
sa(dp1251
g8
S'black_pawn'
p1252
sg5
S'g7'
p1253
sa(dp1254
g8
S'black_king'
p1255
sg5
S'g8'
p1256
sa(dp1257
g5
S'h1'
p1258
sa(dp1259
g5
S'h2'
p1260
sa(dp1261
g5
S'h3'
p1262
sa(dp1263
g5
S'h4'
p1264
sa(dp1265
g5
S'h5'
p1266
sa(dp1267
g5
S'h6'
p1268
sa(dp1269
g8
S'black_queen'
p1270
sg5
S'h7'
p1271
sa(dp1272
g5
S'h8'
p1273
saaVInstead of exchanging, I take another pawn, and threaten a N fork against his Rooks.
p1274
aa(lp1275
S'18... Rbd8'
p1276
a(lp1277
(dp1278
g5
S'a1'
p1279
sa(dp1280
g8
S'white_pawn'
p1281
sg5
S'a2'
p1282
sa(dp1283
g5
S'a3'
p1284
sa(dp1285
g5
S'a4'
p1286
sa(dp1287
g8
S'black_pawn'
p1288
sg5
S'a5'
p1289
sa(dp1290
g8
S'black_bishop'
p1291
sg5
S'a6'
p1292
sa(dp1293
g5
S'a7'
p1294
sa(dp1295
g5
S'a8'
p1296
sa(dp1297
g8
S'white_rook'
p1298
sg5
S'b1'
p1299
sa(dp1300
g8
S'white_pawn'
p1301
sg5
S'b2'
p1302
sa(dp1303
g5
S'b3'
p1304
sa(dp1305
g8
S'black_bishop'
p1306
sg5
S'b4'
p1307
sa(dp1308
g5
S'b5'
p1309
sa(dp1310
g5
S'b6'
p1311
sa(dp1312
g5
S'b7'
p1313
sa(dp1314
g5
S'b8'
p1315
sa(dp1316
g5
S'c1'
p1317
sa(dp1318
g8
S'white_pawn'
p1319
sg5
S'c2'
p1320
sa(dp1321
g8
S'white_knight'
p1322
sg5
S'c3'
p1323
sa(dp1324
g5
S'c4'
p1325
sa(dp1326
g5
S'c5'
p1327
sa(dp1328
g8
S'black_pawn'
p1329
sg5
S'c6'
p1330
sa(dp1331
g8
S'black_pawn'
p1332
sg5
S'c7'
p1333
sa(dp1334
g5
S'c8'
p1335
sa(dp1336
g5
S'd1'
p1337
sa(dp1338
g5
S'd2'
p1339
sa(dp1340
g8
S'white_pawn'
p1341
sg5
S'd3'
p1342
sa(dp1343
g5
S'd4'
p1344
sa(dp1345
g5
S'd5'
p1346
sa(dp1347
g5
S'd6'
p1348
sa(dp1349
g8
S'black_pawn'
p1350
sg5
S'd7'
p1351
sa(dp1352
g8
S'black_rook'
p1353
sg5
S'd8'
p1354
sa(dp1355
g5
S'e1'
p1356
sa(dp1357
g5
S'e2'
p1358
sa(dp1359
g8
S'white_bishop'
p1360
sg5
S'e3'
p1361
sa(dp1362
g8
S'white_pawn'
p1363
sg5
S'e4'
p1364
sa(dp1365
g8
S'white_knight'
p1366
sg5
S'e5'
p1367
sa(dp1368
g5
S'e6'
p1369
sa(dp1370
g5
S'e7'
p1371
sa(dp1372
g5
S'e8'
p1373
sa(dp1374
g8
S'white_rook'
p1375
sg5
S'f1'
p1376
sa(dp1377
g8
S'white_pawn'
p1378
sg5
S'f2'
p1379
sa(dp1380
g8
S'white_queen'
p1381
sg5
S'f3'
p1382
sa(dp1383
g5
S'f4'
p1384
sa(dp1385
g5
S'f5'
p1386
sa(dp1387
g5
S'f6'
p1388
sa(dp1389
g8
S'black_pawn'
p1390
sg5
S'f7'
p1391
sa(dp1392
g8
S'black_rook'
p1393
sg5
S'f8'
p1394
sa(dp1395
g8
S'white_king'
p1396
sg5
S'g1'
p1397
sa(dp1398
g5
S'g2'
p1399
sa(dp1400
g8
S'white_pawn'
p1401
sg5
S'g3'
p1402
sa(dp1403
g5
S'g4'
p1404
sa(dp1405
g5
S'g5'
p1406
sa(dp1407
g5
S'g6'
p1408
sa(dp1409
g8
S'black_pawn'
p1410
sg5
S'g7'
p1411
sa(dp1412
g8
S'black_king'
p1413
sg5
S'g8'
p1414
sa(dp1415
g5
S'h1'
p1416
sa(dp1417
g5
S'h2'
p1418
sa(dp1419
g5
S'h3'
p1420
sa(dp1421
g5
S'h4'
p1422
sa(dp1423
g5
S'h5'
p1424
sa(dp1425
g5
S'h6'
p1426
sa(dp1427
g8
S'black_queen'
p1428
sg5
S'h7'
p1429
sa(dp1430
g5
S'h8'
p1431
saaVNot surprisingly, Tom prevents the fork.
p1432
aa(lp1433
S'19. Ne2'
p1434
a(lp1435
(dp1436
g5
S'a1'
p1437
sa(dp1438
g8
S'white_pawn'
p1439
sg5
S'a2'
p1440
sa(dp1441
g5
S'a3'
p1442
sa(dp1443
g5
S'a4'
p1444
sa(dp1445
g8
S'black_pawn'
p1446
sg5
S'a5'
p1447
sa(dp1448
g8
S'black_bishop'
p1449
sg5
S'a6'
p1450
sa(dp1451
g5
S'a7'
p1452
sa(dp1453
g5
S'a8'
p1454
sa(dp1455
g8
S'white_rook'
p1456
sg5
S'b1'
p1457
sa(dp1458
g8
S'white_pawn'
p1459
sg5
S'b2'
p1460
sa(dp1461
g5
S'b3'
p1462
sa(dp1463
g8
S'black_bishop'
p1464
sg5
S'b4'
p1465
sa(dp1466
g5
S'b5'
p1467
sa(dp1468
g5
S'b6'
p1469
sa(dp1470
g5
S'b7'
p1471
sa(dp1472
g5
S'b8'
p1473
sa(dp1474
g5
S'c1'
p1475
sa(dp1476
g8
S'white_pawn'
p1477
sg5
S'c2'
p1478
sa(dp1479
g5
S'c3'
p1480
sa(dp1481
g5
S'c4'
p1482
sa(dp1483
g5
S'c5'
p1484
sa(dp1485
g8
S'black_pawn'
p1486
sg5
S'c6'
p1487
sa(dp1488
g8
S'black_pawn'
p1489
sg5
S'c7'
p1490
sa(dp1491
g5
S'c8'
p1492
sa(dp1493
g5
S'd1'
p1494
sa(dp1495
g5
S'd2'
p1496
sa(dp1497
g8
S'white_pawn'
p1498
sg5
S'd3'
p1499
sa(dp1500
g5
S'd4'
p1501
sa(dp1502
g5
S'd5'
p1503
sa(dp1504
g5
S'd6'
p1505
sa(dp1506
g8
S'black_pawn'
p1507
sg5
S'd7'
p1508
sa(dp1509
g8
S'black_rook'
p1510
sg5
S'd8'
p1511
sa(dp1512
g5
S'e1'
p1513
sa(dp1514
g8
S'white_knight'
p1515
sg5
S'e2'
p1516
sa(dp1517
g8
S'white_bishop'
p1518
sg5
S'e3'
p1519
sa(dp1520
g8
S'white_pawn'
p1521
sg5
S'e4'
p1522
sa(dp1523
g8
S'white_knight'
p1524
sg5
S'e5'
p1525
sa(dp1526
g5
S'e6'
p1527
sa(dp1528
g5
S'e7'
p1529
sa(dp1530
g5
S'e8'
p1531
sa(dp1532
g8
S'white_rook'
p1533
sg5
S'f1'
p1534
sa(dp1535
g8
S'white_pawn'
p1536
sg5
S'f2'
p1537
sa(dp1538
g8
S'white_queen'
p1539
sg5
S'f3'
p1540
sa(dp1541
g5
S'f4'
p1542
sa(dp1543
g5
S'f5'
p1544
sa(dp1545
g5
S'f6'
p1546
sa(dp1547
g8
S'black_pawn'
p1548
sg5
S'f7'
p1549
sa(dp1550
g8
S'black_rook'
p1551
sg5
S'f8'
p1552
sa(dp1553
g8
S'white_king'
p1554
sg5
S'g1'
p1555
sa(dp1556
g5
S'g2'
p1557
sa(dp1558
g8
S'white_pawn'
p1559
sg5
S'g3'
p1560
sa(dp1561
g5
S'g4'
p1562
sa(dp1563
g5
S'g5'
p1564
sa(dp1565
g5
S'g6'
p1566
sa(dp1567
g8
S'black_pawn'
p1568
sg5
S'g7'
p1569
sa(dp1570
g8
S'black_king'
p1571
sg5
S'g8'
p1572
sa(dp1573
g5
S'h1'
p1574
sa(dp1575
g5
S'h2'
p1576
sa(dp1577
g5
S'h3'
p1578
sa(dp1579
g5
S'h4'
p1580
sa(dp1581
g5
S'h5'
p1582
sa(dp1583
g5
S'h6'
p1584
sa(dp1585
g8
S'black_queen'
p1586
sg5
S'h7'
p1587
sa(dp1588
g5
S'h8'
p1589
saaVAlthough I could allow liquidation since it benefits white, I refuse the exchange.  As I am thinking that my other N could work.  And, two together could produce an overwhelming amount of pressure against Tom's King.  The real question how.
p1590
aa(lp1591
S'19... Bc8'
p1592
a(lp1593
(dp1594
g5
S'a1'
p1595
sa(dp1596
g8
S'white_pawn'
p1597
sg5
S'a2'
p1598
sa(dp1599
g5
S'a3'
p1600
sa(dp1601
g5
S'a4'
p1602
sa(dp1603
g8
S'black_pawn'
p1604
sg5
S'a5'
p1605
sa(dp1606
g5
S'a6'
p1607
sa(dp1608
g5
S'a7'
p1609
sa(dp1610
g5
S'a8'
p1611
sa(dp1612
g8
S'white_rook'
p1613
sg5
S'b1'
p1614
sa(dp1615
g8
S'white_pawn'
p1616
sg5
S'b2'
p1617
sa(dp1618
g5
S'b3'
p1619
sa(dp1620
g8
S'black_bishop'
p1621
sg5
S'b4'
p1622
sa(dp1623
g5
S'b5'
p1624
sa(dp1625
g5
S'b6'
p1626
sa(dp1627
g5
S'b7'
p1628
sa(dp1629
g5
S'b8'
p1630
sa(dp1631
g5
S'c1'
p1632
sa(dp1633
g8
S'white_pawn'
p1634
sg5
S'c2'
p1635
sa(dp1636
g5
S'c3'
p1637
sa(dp1638
g5
S'c4'
p1639
sa(dp1640
g5
S'c5'
p1641
sa(dp1642
g8
S'black_pawn'
p1643
sg5
S'c6'
p1644
sa(dp1645
g8
S'black_pawn'
p1646
sg5
S'c7'
p1647
sa(dp1648
g8
S'black_bishop'
p1649
sg5
S'c8'
p1650
sa(dp1651
g5
S'd1'
p1652
sa(dp1653
g5
S'd2'
p1654
sa(dp1655
g8
S'white_pawn'
p1656
sg5
S'd3'
p1657
sa(dp1658
g5
S'd4'
p1659
sa(dp1660
g5
S'd5'
p1661
sa(dp1662
g5
S'd6'
p1663
sa(dp1664
g8
S'black_pawn'
p1665
sg5
S'd7'
p1666
sa(dp1667
g8
S'black_rook'
p1668
sg5
S'd8'
p1669
sa(dp1670
g5
S'e1'
p1671
sa(dp1672
g8
S'white_knight'
p1673
sg5
S'e2'
p1674
sa(dp1675
g8
S'white_bishop'
p1676
sg5
S'e3'
p1677
sa(dp1678
g8
S'white_pawn'
p1679
sg5
S'e4'
p1680
sa(dp1681
g8
S'white_knight'
p1682
sg5
S'e5'
p1683
sa(dp1684
g5
S'e6'
p1685
sa(dp1686
g5
S'e7'
p1687
sa(dp1688
g5
S'e8'
p1689
sa(dp1690
g8
S'white_rook'
p1691
sg5
S'f1'
p1692
sa(dp1693
g8
S'white_pawn'
p1694
sg5
S'f2'
p1695
sa(dp1696
g8
S'white_queen'
p1697
sg5
S'f3'
p1698
sa(dp1699
g5
S'f4'
p1700
sa(dp1701
g5
S'f5'
p1702
sa(dp1703
g5
S'f6'
p1704
sa(dp1705
g8
S'black_pawn'
p1706
sg5
S'f7'
p1707
sa(dp1708
g8
S'black_rook'
p1709
sg5
S'f8'
p1710
sa(dp1711
g8
S'white_king'
p1712
sg5
S'g1'
p1713
sa(dp1714
g5
S'g2'
p1715
sa(dp1716
g8
S'white_pawn'
p1717
sg5
S'g3'
p1718
sa(dp1719
g5
S'g4'
p1720
sa(dp1721
g5
S'g5'
p1722
sa(dp1723
g5
S'g6'
p1724
sa(dp1725
g8
S'black_pawn'
p1726
sg5
S'g7'
p1727
sa(dp1728
g8
S'black_king'
p1729
sg5
S'g8'
p1730
sa(dp1731
g5
S'h1'
p1732
sa(dp1733
g5
S'h2'
p1734
sa(dp1735
g5
S'h3'
p1736
sa(dp1737
g5
S'h4'
p1738
sa(dp1739
g5
S'h5'
p1740
sa(dp1741
g5
S'h6'
p1742
sa(dp1743
g8
S'black_queen'
p1744
sg5
S'h7'
p1745
sa(dp1746
g5
S'h8'
p1747
saaVI don't think it was necessary as it wasn't en-prise, but Tom adds another defender to his d7 pawn.
p1748
aa(lp1749
S'20. Nf4'
p1750
a(lp1751
(dp1752
g5
S'a1'
p1753
sa(dp1754
g8
S'white_pawn'
p1755
sg5
S'a2'
p1756
sa(dp1757
g5
S'a3'
p1758
sa(dp1759
g5
S'a4'
p1760
sa(dp1761
g8
S'black_pawn'
p1762
sg5
S'a5'
p1763
sa(dp1764
g5
S'a6'
p1765
sa(dp1766
g5
S'a7'
p1767
sa(dp1768
g5
S'a8'
p1769
sa(dp1770
g8
S'white_rook'
p1771
sg5
S'b1'
p1772
sa(dp1773
g8
S'white_pawn'
p1774
sg5
S'b2'
p1775
sa(dp1776
g5
S'b3'
p1777
sa(dp1778
g8
S'black_bishop'
p1779
sg5
S'b4'
p1780
sa(dp1781
g5
S'b5'
p1782
sa(dp1783
g5
S'b6'
p1784
sa(dp1785
g5
S'b7'
p1786
sa(dp1787
g5
S'b8'
p1788
sa(dp1789
g5
S'c1'
p1790
sa(dp1791
g8
S'white_pawn'
p1792
sg5
S'c2'
p1793
sa(dp1794
g5
S'c3'
p1795
sa(dp1796
g5
S'c4'
p1797
sa(dp1798
g5
S'c5'
p1799
sa(dp1800
g8
S'black_pawn'
p1801
sg5
S'c6'
p1802
sa(dp1803
g8
S'black_pawn'
p1804
sg5
S'c7'
p1805
sa(dp1806
g8
S'black_bishop'
p1807
sg5
S'c8'
p1808
sa(dp1809
g5
S'd1'
p1810
sa(dp1811
g5
S'd2'
p1812
sa(dp1813
g8
S'white_pawn'
p1814
sg5
S'd3'
p1815
sa(dp1816
g5
S'd4'
p1817
sa(dp1818
g5
S'd5'
p1819
sa(dp1820
g5
S'd6'
p1821
sa(dp1822
g8
S'black_pawn'
p1823
sg5
S'd7'
p1824
sa(dp1825
g8
S'black_rook'
p1826
sg5
S'd8'
p1827
sa(dp1828
g5
S'e1'
p1829
sa(dp1830
g5
S'e2'
p1831
sa(dp1832
g8
S'white_bishop'
p1833
sg5
S'e3'
p1834
sa(dp1835
g8
S'white_pawn'
p1836
sg5
S'e4'
p1837
sa(dp1838
g8
S'white_knight'
p1839
sg5
S'e5'
p1840
sa(dp1841
g5
S'e6'
p1842
sa(dp1843
g5
S'e7'
p1844
sa(dp1845
g5
S'e8'
p1846
sa(dp1847
g8
S'white_rook'
p1848
sg5
S'f1'
p1849
sa(dp1850
g8
S'white_pawn'
p1851
sg5
S'f2'
p1852
sa(dp1853
g8
S'white_queen'
p1854
sg5
S'f3'
p1855
sa(dp1856
g8
S'white_knight'
p1857
sg5
S'f4'
p1858
sa(dp1859
g5
S'f5'
p1860
sa(dp1861
g5
S'f6'
p1862
sa(dp1863
g8
S'black_pawn'
p1864
sg5
S'f7'
p1865
sa(dp1866
g8
S'black_rook'
p1867
sg5
S'f8'
p1868
sa(dp1869
g8
S'white_king'
p1870
sg5
S'g1'
p1871
sa(dp1872
g5
S'g2'
p1873
sa(dp1874
g8
S'white_pawn'
p1875
sg5
S'g3'
p1876
sa(dp1877
g5
S'g4'
p1878
sa(dp1879
g5
S'g5'
p1880
sa(dp1881
g5
S'g6'
p1882
sa(dp1883
g8
S'black_pawn'
p1884
sg5
S'g7'
p1885
sa(dp1886
g8
S'black_king'
p1887
sg5
S'g8'
p1888
sa(dp1889
g5
S'h1'
p1890
sa(dp1891
g5
S'h2'
p1892
sa(dp1893
g5
S'h3'
p1894
sa(dp1895
g5
S'h4'
p1896
sa(dp1897
g5
S'h5'
p1898
sa(dp1899
g5
S'h6'
p1900
sa(dp1901
g8
S'black_queen'
p1902
sg5
S'h7'
p1903
sa(dp1904
g5
S'h8'
p1905
saaVThis is where I'm thinking that the second N could be useful against Tom's King.
p1906
aa(lp1907
S'20... Bd6'
p1908
a(lp1909
(dp1910
g5
S'a1'
p1911
sa(dp1912
g8
S'white_pawn'
p1913
sg5
S'a2'
p1914
sa(dp1915
g5
S'a3'
p1916
sa(dp1917
g5
S'a4'
p1918
sa(dp1919
g8
S'black_pawn'
p1920
sg5
S'a5'
p1921
sa(dp1922
g5
S'a6'
p1923
sa(dp1924
g5
S'a7'
p1925
sa(dp1926
g5
S'a8'
p1927
sa(dp1928
g8
S'white_rook'
p1929
sg5
S'b1'
p1930
sa(dp1931
g8
S'white_pawn'
p1932
sg5
S'b2'
p1933
sa(dp1934
g5
S'b3'
p1935
sa(dp1936
g5
S'b4'
p1937
sa(dp1938
g5
S'b5'
p1939
sa(dp1940
g5
S'b6'
p1941
sa(dp1942
g5
S'b7'
p1943
sa(dp1944
g5
S'b8'
p1945
sa(dp1946
g5
S'c1'
p1947
sa(dp1948
g8
S'white_pawn'
p1949
sg5
S'c2'
p1950
sa(dp1951
g5
S'c3'
p1952
sa(dp1953
g5
S'c4'
p1954
sa(dp1955
g5
S'c5'
p1956
sa(dp1957
g8
S'black_pawn'
p1958
sg5
S'c6'
p1959
sa(dp1960
g8
S'black_pawn'
p1961
sg5
S'c7'
p1962
sa(dp1963
g8
S'black_bishop'
p1964
sg5
S'c8'
p1965
sa(dp1966
g5
S'd1'
p1967
sa(dp1968
g5
S'd2'
p1969
sa(dp1970
g8
S'white_pawn'
p1971
sg5
S'd3'
p1972
sa(dp1973
g5
S'd4'
p1974
sa(dp1975
g5
S'd5'
p1976
sa(dp1977
g8
S'black_bishop'
p1978
sg5
S'd6'
p1979
sa(dp1980
g8
S'black_pawn'
p1981
sg5
S'd7'
p1982
sa(dp1983
g8
S'black_rook'
p1984
sg5
S'd8'
p1985
sa(dp1986
g5
S'e1'
p1987
sa(dp1988
g5
S'e2'
p1989
sa(dp1990
g8
S'white_bishop'
p1991
sg5
S'e3'
p1992
sa(dp1993
g8
S'white_pawn'
p1994
sg5
S'e4'
p1995
sa(dp1996
g8
S'white_knight'
p1997
sg5
S'e5'
p1998
sa(dp1999
g5
S'e6'
p2000
sa(dp2001
g5
S'e7'
p2002
sa(dp2003
g5
S'e8'
p2004
sa(dp2005
g8
S'white_rook'
p2006
sg5
S'f1'
p2007
sa(dp2008
g8
S'white_pawn'
p2009
sg5
S'f2'
p2010
sa(dp2011
g8
S'white_queen'
p2012
sg5
S'f3'
p2013
sa(dp2014
g8
S'white_knight'
p2015
sg5
S'f4'
p2016
sa(dp2017
g5
S'f5'
p2018
sa(dp2019
g5
S'f6'
p2020
sa(dp2021
g8
S'black_pawn'
p2022
sg5
S'f7'
p2023
sa(dp2024
g8
S'black_rook'
p2025
sg5
S'f8'
p2026
sa(dp2027
g8
S'white_king'
p2028
sg5
S'g1'
p2029
sa(dp2030
g5
S'g2'
p2031
sa(dp2032
g8
S'white_pawn'
p2033
sg5
S'g3'
p2034
sa(dp2035
g5
S'g4'
p2036
sa(dp2037
g5
S'g5'
p2038
sa(dp2039
g5
S'g6'
p2040
sa(dp2041
g8
S'black_pawn'
p2042
sg5
S'g7'
p2043
sa(dp2044
g8
S'black_king'
p2045
sg5
S'g8'
p2046
sa(dp2047
g5
S'h1'
p2048
sa(dp2049
g5
S'h2'
p2050
sa(dp2051
g5
S'h3'
p2052
sa(dp2053
g5
S'h4'
p2054
sa(dp2055
g5
S'h5'
p2056
sa(dp2057
g5
S'h6'
p2058
sa(dp2059
g8
S'black_queen'
p2060
sg5
S'h7'
p2061
sa(dp2062
g5
S'h8'
p2063
saaVBut, Tom attacks it.
p2064
aa(lp2065
S'21. Ng4'
p2066
a(lp2067
(dp2068
g5
S'a1'
p2069
sa(dp2070
g8
S'white_pawn'
p2071
sg5
S'a2'
p2072
sa(dp2073
g5
S'a3'
p2074
sa(dp2075
g5
S'a4'
p2076
sa(dp2077
g8
S'black_pawn'
p2078
sg5
S'a5'
p2079
sa(dp2080
g5
S'a6'
p2081
sa(dp2082
g5
S'a7'
p2083
sa(dp2084
g5
S'a8'
p2085
sa(dp2086
g8
S'white_rook'
p2087
sg5
S'b1'
p2088
sa(dp2089
g8
S'white_pawn'
p2090
sg5
S'b2'
p2091
sa(dp2092
g5
S'b3'
p2093
sa(dp2094
g5
S'b4'
p2095
sa(dp2096
g5
S'b5'
p2097
sa(dp2098
g5
S'b6'
p2099
sa(dp2100
g5
S'b7'
p2101
sa(dp2102
g5
S'b8'
p2103
sa(dp2104
g5
S'c1'
p2105
sa(dp2106
g8
S'white_pawn'
p2107
sg5
S'c2'
p2108
sa(dp2109
g5
S'c3'
p2110
sa(dp2111
g5
S'c4'
p2112
sa(dp2113
g5
S'c5'
p2114
sa(dp2115
g8
S'black_pawn'
p2116
sg5
S'c6'
p2117
sa(dp2118
g8
S'black_pawn'
p2119
sg5
S'c7'
p2120
sa(dp2121
g8
S'black_bishop'
p2122
sg5
S'c8'
p2123
sa(dp2124
g5
S'd1'
p2125
sa(dp2126
g5
S'd2'
p2127
sa(dp2128
g8
S'white_pawn'
p2129
sg5
S'd3'
p2130
sa(dp2131
g5
S'd4'
p2132
sa(dp2133
g5
S'd5'
p2134
sa(dp2135
g8
S'black_bishop'
p2136
sg5
S'd6'
p2137
sa(dp2138
g8
S'black_pawn'
p2139
sg5
S'd7'
p2140
sa(dp2141
g8
S'black_rook'
p2142
sg5
S'd8'
p2143
sa(dp2144
g5
S'e1'
p2145
sa(dp2146
g5
S'e2'
p2147
sa(dp2148
g8
S'white_bishop'
p2149
sg5
S'e3'
p2150
sa(dp2151
g8
S'white_pawn'
p2152
sg5
S'e4'
p2153
sa(dp2154
g5
S'e5'
p2155
sa(dp2156
g5
S'e6'
p2157
sa(dp2158
g5
S'e7'
p2159
sa(dp2160
g5
S'e8'
p2161
sa(dp2162
g8
S'white_rook'
p2163
sg5
S'f1'
p2164
sa(dp2165
g8
S'white_pawn'
p2166
sg5
S'f2'
p2167
sa(dp2168
g8
S'white_queen'
p2169
sg5
S'f3'
p2170
sa(dp2171
g8
S'white_knight'
p2172
sg5
S'f4'
p2173
sa(dp2174
g5
S'f5'
p2175
sa(dp2176
g5
S'f6'
p2177
sa(dp2178
g8
S'black_pawn'
p2179
sg5
S'f7'
p2180
sa(dp2181
g8
S'black_rook'
p2182
sg5
S'f8'
p2183
sa(dp2184
g8
S'white_king'
p2185
sg5
S'g1'
p2186
sa(dp2187
g5
S'g2'
p2188
sa(dp2189
g8
S'white_pawn'
p2190
sg5
S'g3'
p2191
sa(dp2192
g8
S'white_knight'
p2193
sg5
S'g4'
p2194
sa(dp2195
g5
S'g5'
p2196
sa(dp2197
g5
S'g6'
p2198
sa(dp2199
g8
S'black_pawn'
p2200
sg5
S'g7'
p2201
sa(dp2202
g8
S'black_king'
p2203
sg5
S'g8'
p2204
sa(dp2205
g5
S'h1'
p2206
sa(dp2207
g5
S'h2'
p2208
sa(dp2209
g5
S'h3'
p2210
sa(dp2211
g5
S'h4'
p2212
sa(dp2213
g5
S'h5'
p2214
sa(dp2215
g5
S'h6'
p2216
sa(dp2217
g8
S'black_queen'
p2218
sg5
S'h7'
p2219
sa(dp2220
g5
S'h8'
p2221
saaVAnd, I defend.
p2222
aa(lp2223
S'21... Bxf4'
p2224
a(lp2225
(dp2226
g5
S'a1'
p2227
sa(dp2228
g8
S'white_pawn'
p2229
sg5
S'a2'
p2230
sa(dp2231
g5
S'a3'
p2232
sa(dp2233
g5
S'a4'
p2234
sa(dp2235
g8
S'black_pawn'
p2236
sg5
S'a5'
p2237
sa(dp2238
g5
S'a6'
p2239
sa(dp2240
g5
S'a7'
p2241
sa(dp2242
g5
S'a8'
p2243
sa(dp2244
g8
S'white_rook'
p2245
sg5
S'b1'
p2246
sa(dp2247
g8
S'white_pawn'
p2248
sg5
S'b2'
p2249
sa(dp2250
g5
S'b3'
p2251
sa(dp2252
g5
S'b4'
p2253
sa(dp2254
g5
S'b5'
p2255
sa(dp2256
g5
S'b6'
p2257
sa(dp2258
g5
S'b7'
p2259
sa(dp2260
g5
S'b8'
p2261
sa(dp2262
g5
S'c1'
p2263
sa(dp2264
g8
S'white_pawn'
p2265
sg5
S'c2'
p2266
sa(dp2267
g5
S'c3'
p2268
sa(dp2269
g5
S'c4'
p2270
sa(dp2271
g5
S'c5'
p2272
sa(dp2273
g8
S'black_pawn'
p2274
sg5
S'c6'
p2275
sa(dp2276
g8
S'black_pawn'
p2277
sg5
S'c7'
p2278
sa(dp2279
g8
S'black_bishop'
p2280
sg5
S'c8'
p2281
sa(dp2282
g5
S'd1'
p2283
sa(dp2284
g5
S'd2'
p2285
sa(dp2286
g8
S'white_pawn'
p2287
sg5
S'd3'
p2288
sa(dp2289
g5
S'd4'
p2290
sa(dp2291
g5
S'd5'
p2292
sa(dp2293
g5
S'd6'
p2294
sa(dp2295
g8
S'black_pawn'
p2296
sg5
S'd7'
p2297
sa(dp2298
g8
S'black_rook'
p2299
sg5
S'd8'
p2300
sa(dp2301
g5
S'e1'
p2302
sa(dp2303
g5
S'e2'
p2304
sa(dp2305
g8
S'white_bishop'
p2306
sg5
S'e3'
p2307
sa(dp2308
g8
S'white_pawn'
p2309
sg5
S'e4'
p2310
sa(dp2311
g5
S'e5'
p2312
sa(dp2313
g5
S'e6'
p2314
sa(dp2315
g5
S'e7'
p2316
sa(dp2317
g5
S'e8'
p2318
sa(dp2319
g8
S'white_rook'
p2320
sg5
S'f1'
p2321
sa(dp2322
g8
S'white_pawn'
p2323
sg5
S'f2'
p2324
sa(dp2325
g8
S'white_queen'
p2326
sg5
S'f3'
p2327
sa(dp2328
g8
S'black_bishop'
p2329
sg5
S'f4'
p2330
sa(dp2331
g5
S'f5'
p2332
sa(dp2333
g5
S'f6'
p2334
sa(dp2335
g8
S'black_pawn'
p2336
sg5
S'f7'
p2337
sa(dp2338
g8
S'black_rook'
p2339
sg5
S'f8'
p2340
sa(dp2341
g8
S'white_king'
p2342
sg5
S'g1'
p2343
sa(dp2344
g5
S'g2'
p2345
sa(dp2346
g8
S'white_pawn'
p2347
sg5
S'g3'
p2348
sa(dp2349
g8
S'white_knight'
p2350
sg5
S'g4'
p2351
sa(dp2352
g5
S'g5'
p2353
sa(dp2354
g5
S'g6'
p2355
sa(dp2356
g8
S'black_pawn'
p2357
sg5
S'g7'
p2358
sa(dp2359
g8
S'black_king'
p2360
sg5
S'g8'
p2361
sa(dp2362
g5
S'h1'
p2363
sa(dp2364
g5
S'h2'
p2365
sa(dp2366
g5
S'h3'
p2367
sa(dp2368
g5
S'h4'
p2369
sa(dp2370
g5
S'h5'
p2371
sa(dp2372
g5
S'h6'
p2373
sa(dp2374
g8
S'black_queen'
p2375
sg5
S'h7'
p2376
sa(dp2377
g5
S'h8'
p2378
saaVThis time, he forces an exchange, but I don't mind since it's also liquidation after remaining ahead.
p2379
aa(lp2380
S'22. Bxf4 Bb7'
p2381
a(lp2382
(dp2383
g5
S'a1'
p2384
sa(dp2385
g8
S'white_pawn'
p2386
sg5
S'a2'
p2387
sa(dp2388
g5
S'a3'
p2389
sa(dp2390
g5
S'a4'
p2391
sa(dp2392
g8
S'black_pawn'
p2393
sg5
S'a5'
p2394
sa(dp2395
g5
S'a6'
p2396
sa(dp2397
g5
S'a7'
p2398
sa(dp2399
g5
S'a8'
p2400
sa(dp2401
g8
S'white_rook'
p2402
sg5
S'b1'
p2403
sa(dp2404
g8
S'white_pawn'
p2405
sg5
S'b2'
p2406
sa(dp2407
g5
S'b3'
p2408
sa(dp2409
g5
S'b4'
p2410
sa(dp2411
g5
S'b5'
p2412
sa(dp2413
g5
S'b6'
p2414
sa(dp2415
g8
S'black_bishop'
p2416
sg5
S'b7'
p2417
sa(dp2418
g5
S'b8'
p2419
sa(dp2420
g5
S'c1'
p2421
sa(dp2422
g8
S'white_pawn'
p2423
sg5
S'c2'
p2424
sa(dp2425
g5
S'c3'
p2426
sa(dp2427
g5
S'c4'
p2428
sa(dp2429
g5
S'c5'
p2430
sa(dp2431
g8
S'black_pawn'
p2432
sg5
S'c6'
p2433
sa(dp2434
g8
S'black_pawn'
p2435
sg5
S'c7'
p2436
sa(dp2437
g5
S'c8'
p2438
sa(dp2439
g5
S'd1'
p2440
sa(dp2441
g5
S'd2'
p2442
sa(dp2443
g8
S'white_pawn'
p2444
sg5
S'd3'
p2445
sa(dp2446
g5
S'd4'
p2447
sa(dp2448
g5
S'd5'
p2449
sa(dp2450
g5
S'd6'
p2451
sa(dp2452
g8
S'black_pawn'
p2453
sg5
S'd7'
p2454
sa(dp2455
g8
S'black_rook'
p2456
sg5
S'd8'
p2457
sa(dp2458
g5
S'e1'
p2459
sa(dp2460
g5
S'e2'
p2461
sa(dp2462
g5
S'e3'
p2463
sa(dp2464
g8
S'white_pawn'
p2465
sg5
S'e4'
p2466
sa(dp2467
g5
S'e5'
p2468
sa(dp2469
g5
S'e6'
p2470
sa(dp2471
g5
S'e7'
p2472
sa(dp2473
g5
S'e8'
p2474
sa(dp2475
g8
S'white_rook'
p2476
sg5
S'f1'
p2477
sa(dp2478
g8
S'white_pawn'
p2479
sg5
S'f2'
p2480
sa(dp2481
g8
S'white_queen'
p2482
sg5
S'f3'
p2483
sa(dp2484
g8
S'white_bishop'
p2485
sg5
S'f4'
p2486
sa(dp2487
g5
S'f5'
p2488
sa(dp2489
g5
S'f6'
p2490
sa(dp2491
g8
S'black_pawn'
p2492
sg5
S'f7'
p2493
sa(dp2494
g8
S'black_rook'
p2495
sg5
S'f8'
p2496
sa(dp2497
g8
S'white_king'
p2498
sg5
S'g1'
p2499
sa(dp2500
g5
S'g2'
p2501
sa(dp2502
g8
S'white_pawn'
p2503
sg5
S'g3'
p2504
sa(dp2505
g8
S'white_knight'
p2506
sg5
S'g4'
p2507
sa(dp2508
g5
S'g5'
p2509
sa(dp2510
g5
S'g6'
p2511
sa(dp2512
g8
S'black_pawn'
p2513
sg5
S'g7'
p2514
sa(dp2515
g8
S'black_king'
p2516
sg5
S'g8'
p2517
sa(dp2518
g5
S'h1'
p2519
sa(dp2520
g5
S'h2'
p2521
sa(dp2522
g5
S'h3'
p2523
sa(dp2524
g5
S'h4'
p2525
sa(dp2526
g5
S'h5'
p2527
sa(dp2528
g5
S'h6'
p2529
sa(dp2530
g8
S'black_queen'
p2531
sg5
S'h7'
p2532
sa(dp2533
g5
S'h8'
p2534
saaVI am not exactly sure why Tom played this.  But, Jack Stockel now gets involved here.
p2535
aa(lp2536
S'23. Be5'
p2537
a(lp2538
(dp2539
g5
S'a1'
p2540
sa(dp2541
g8
S'white_pawn'
p2542
sg5
S'a2'
p2543
sa(dp2544
g5
S'a3'
p2545
sa(dp2546
g5
S'a4'
p2547
sa(dp2548
g8
S'black_pawn'
p2549
sg5
S'a5'
p2550
sa(dp2551
g5
S'a6'
p2552
sa(dp2553
g5
S'a7'
p2554
sa(dp2555
g5
S'a8'
p2556
sa(dp2557
g8
S'white_rook'
p2558
sg5
S'b1'
p2559
sa(dp2560
g8
S'white_pawn'
p2561
sg5
S'b2'
p2562
sa(dp2563
g5
S'b3'
p2564
sa(dp2565
g5
S'b4'
p2566
sa(dp2567
g5
S'b5'
p2568
sa(dp2569
g5
S'b6'
p2570
sa(dp2571
g8
S'black_bishop'
p2572
sg5
S'b7'
p2573
sa(dp2574
g5
S'b8'
p2575
sa(dp2576
g5
S'c1'
p2577
sa(dp2578
g8
S'white_pawn'
p2579
sg5
S'c2'
p2580
sa(dp2581
g5
S'c3'
p2582
sa(dp2583
g5
S'c4'
p2584
sa(dp2585
g5
S'c5'
p2586
sa(dp2587
g8
S'black_pawn'
p2588
sg5
S'c6'
p2589
sa(dp2590
g8
S'black_pawn'
p2591
sg5
S'c7'
p2592
sa(dp2593
g5
S'c8'
p2594
sa(dp2595
g5
S'd1'
p2596
sa(dp2597
g5
S'd2'
p2598
sa(dp2599
g8
S'white_pawn'
p2600
sg5
S'd3'
p2601
sa(dp2602
g5
S'd4'
p2603
sa(dp2604
g5
S'd5'
p2605
sa(dp2606
g5
S'd6'
p2607
sa(dp2608
g8
S'black_pawn'
p2609
sg5
S'd7'
p2610
sa(dp2611
g8
S'black_rook'
p2612
sg5
S'd8'
p2613
sa(dp2614
g5
S'e1'
p2615
sa(dp2616
g5
S'e2'
p2617
sa(dp2618
g5
S'e3'
p2619
sa(dp2620
g8
S'white_pawn'
p2621
sg5
S'e4'
p2622
sa(dp2623
g8
S'white_bishop'
p2624
sg5
S'e5'
p2625
sa(dp2626
g5
S'e6'
p2627
sa(dp2628
g5
S'e7'
p2629
sa(dp2630
g5
S'e8'
p2631
sa(dp2632
g8
S'white_rook'
p2633
sg5
S'f1'
p2634
sa(dp2635
g8
S'white_pawn'
p2636
sg5
S'f2'
p2637
sa(dp2638
g8
S'white_queen'
p2639
sg5
S'f3'
p2640
sa(dp2641
g5
S'f4'
p2642
sa(dp2643
g5
S'f5'
p2644
sa(dp2645
g5
S'f6'
p2646
sa(dp2647
g8
S'black_pawn'
p2648
sg5
S'f7'
p2649
sa(dp2650
g8
S'black_rook'
p2651
sg5
S'f8'
p2652
sa(dp2653
g8
S'white_king'
p2654
sg5
S'g1'
p2655
sa(dp2656
g5
S'g2'
p2657
sa(dp2658
g8
S'white_pawn'
p2659
sg5
S'g3'
p2660
sa(dp2661
g8
S'white_knight'
p2662
sg5
S'g4'
p2663
sa(dp2664
g5
S'g5'
p2665
sa(dp2666
g5
S'g6'
p2667
sa(dp2668
g8
S'black_pawn'
p2669
sg5
S'g7'
p2670
sa(dp2671
g8
S'black_king'
p2672
sg5
S'g8'
p2673
sa(dp2674
g5
S'h1'
p2675
sa(dp2676
g5
S'h2'
p2677
sa(dp2678
g5
S'h3'
p2679
sa(dp2680
g5
S'h4'
p2681
sa(dp2682
g5
S'h5'
p2683
sa(dp2684
g5
S'h6'
p2685
sa(dp2686
g8
S'black_queen'
p2687
sg5
S'h7'
p2688
sa(dp2689
g5
S'h8'
p2690
saaVThinking that I might now have a mate with the N sac, I ignore c7 and play this.  But, Jack was right to get really angry.  Almost yelling, he said, "Why didn't you play 23.Bxc7! wins the pawn?" 
p2691
aa(lp2692
S'23... d6'
p2693
a(lp2694
(dp2695
g5
S'a1'
p2696
sa(dp2697
g8
S'white_pawn'
p2698
sg5
S'a2'
p2699
sa(dp2700
g5
S'a3'
p2701
sa(dp2702
g5
S'a4'
p2703
sa(dp2704
g8
S'black_pawn'
p2705
sg5
S'a5'
p2706
sa(dp2707
g5
S'a6'
p2708
sa(dp2709
g5
S'a7'
p2710
sa(dp2711
g5
S'a8'
p2712
sa(dp2713
g8
S'white_rook'
p2714
sg5
S'b1'
p2715
sa(dp2716
g8
S'white_pawn'
p2717
sg5
S'b2'
p2718
sa(dp2719
g5
S'b3'
p2720
sa(dp2721
g5
S'b4'
p2722
sa(dp2723
g5
S'b5'
p2724
sa(dp2725
g5
S'b6'
p2726
sa(dp2727
g8
S'black_bishop'
p2728
sg5
S'b7'
p2729
sa(dp2730
g5
S'b8'
p2731
sa(dp2732
g5
S'c1'
p2733
sa(dp2734
g8
S'white_pawn'
p2735
sg5
S'c2'
p2736
sa(dp2737
g5
S'c3'
p2738
sa(dp2739
g5
S'c4'
p2740
sa(dp2741
g5
S'c5'
p2742
sa(dp2743
g8
S'black_pawn'
p2744
sg5
S'c6'
p2745
sa(dp2746
g8
S'black_pawn'
p2747
sg5
S'c7'
p2748
sa(dp2749
g5
S'c8'
p2750
sa(dp2751
g5
S'd1'
p2752
sa(dp2753
g5
S'd2'
p2754
sa(dp2755
g8
S'white_pawn'
p2756
sg5
S'd3'
p2757
sa(dp2758
g5
S'd4'
p2759
sa(dp2760
g5
S'd5'
p2761
sa(dp2762
g8
S'black_pawn'
p2763
sg5
S'd6'
p2764
sa(dp2765
g5
S'd7'
p2766
sa(dp2767
g8
S'black_rook'
p2768
sg5
S'd8'
p2769
sa(dp2770
g5
S'e1'
p2771
sa(dp2772
g5
S'e2'
p2773
sa(dp2774
g5
S'e3'
p2775
sa(dp2776
g8
S'white_pawn'
p2777
sg5
S'e4'
p2778
sa(dp2779
g8
S'white_bishop'
p2780
sg5
S'e5'
p2781
sa(dp2782
g5
S'e6'
p2783
sa(dp2784
g5
S'e7'
p2785
sa(dp2786
g5
S'e8'
p2787
sa(dp2788
g8
S'white_rook'
p2789
sg5
S'f1'
p2790
sa(dp2791
g8
S'white_pawn'
p2792
sg5
S'f2'
p2793
sa(dp2794
g8
S'white_queen'
p2795
sg5
S'f3'
p2796
sa(dp2797
g5
S'f4'
p2798
sa(dp2799
g5
S'f5'
p2800
sa(dp2801
g5
S'f6'
p2802
sa(dp2803
g8
S'black_pawn'
p2804
sg5
S'f7'
p2805
sa(dp2806
g8
S'black_rook'
p2807
sg5
S'f8'
p2808
sa(dp2809
g8
S'white_king'
p2810
sg5
S'g1'
p2811
sa(dp2812
g5
S'g2'
p2813
sa(dp2814
g8
S'white_pawn'
p2815
sg5
S'g3'
p2816
sa(dp2817
g8
S'white_knight'
p2818
sg5
S'g4'
p2819
sa(dp2820
g5
S'g5'
p2821
sa(dp2822
g5
S'g6'
p2823
sa(dp2824
g8
S'black_pawn'
p2825
sg5
S'g7'
p2826
sa(dp2827
g8
S'black_king'
p2828
sg5
S'g8'
p2829
sa(dp2830
g5
S'h1'
p2831
sa(dp2832
g5
S'h2'
p2833
sa(dp2834
g5
S'h3'
p2835
sa(dp2836
g5
S'h4'
p2837
sa(dp2838
g5
S'h5'
p2839
sa(dp2840
g5
S'h6'
p2841
sa(dp2842
g8
S'black_queen'
p2843
sg5
S'h7'
p2844
sa(dp2845
g5
S'h8'
p2846
saaV I said that I don't really need that pawn because I have a different plan.  Jack said, "I am interested in what your plan is."
p2847
aa(lp2848
S'24. Nf6+'
p2849
a(lp2850
(dp2851
g5
S'a1'
p2852
sa(dp2853
g8
S'white_pawn'
p2854
sg5
S'a2'
p2855
sa(dp2856
g5
S'a3'
p2857
sa(dp2858
g5
S'a4'
p2859
sa(dp2860
g8
S'black_pawn'
p2861
sg5
S'a5'
p2862
sa(dp2863
g5
S'a6'
p2864
sa(dp2865
g5
S'a7'
p2866
sa(dp2867
g5
S'a8'
p2868
sa(dp2869
g8
S'white_rook'
p2870
sg5
S'b1'
p2871
sa(dp2872
g8
S'white_pawn'
p2873
sg5
S'b2'
p2874
sa(dp2875
g5
S'b3'
p2876
sa(dp2877
g5
S'b4'
p2878
sa(dp2879
g5
S'b5'
p2880
sa(dp2881
g5
S'b6'
p2882
sa(dp2883
g8
S'black_bishop'
p2884
sg5
S'b7'
p2885
sa(dp2886
g5
S'b8'
p2887
sa(dp2888
g5
S'c1'
p2889
sa(dp2890
g8
S'white_pawn'
p2891
sg5
S'c2'
p2892
sa(dp2893
g5
S'c3'
p2894
sa(dp2895
g5
S'c4'
p2896
sa(dp2897
g5
S'c5'
p2898
sa(dp2899
g8
S'black_pawn'
p2900
sg5
S'c6'
p2901
sa(dp2902
g8
S'black_pawn'
p2903
sg5
S'c7'
p2904
sa(dp2905
g5
S'c8'
p2906
sa(dp2907
g5
S'd1'
p2908
sa(dp2909
g5
S'd2'
p2910
sa(dp2911
g8
S'white_pawn'
p2912
sg5
S'd3'
p2913
sa(dp2914
g5
S'd4'
p2915
sa(dp2916
g5
S'd5'
p2917
sa(dp2918
g8
S'black_pawn'
p2919
sg5
S'd6'
p2920
sa(dp2921
g5
S'd7'
p2922
sa(dp2923
g8
S'black_rook'
p2924
sg5
S'd8'
p2925
sa(dp2926
g5
S'e1'
p2927
sa(dp2928
g5
S'e2'
p2929
sa(dp2930
g5
S'e3'
p2931
sa(dp2932
g8
S'white_pawn'
p2933
sg5
S'e4'
p2934
sa(dp2935
g8
S'white_bishop'
p2936
sg5
S'e5'
p2937
sa(dp2938
g5
S'e6'
p2939
sa(dp2940
g5
S'e7'
p2941
sa(dp2942
g5
S'e8'
p2943
sa(dp2944
g8
S'white_rook'
p2945
sg5
S'f1'
p2946
sa(dp2947
g8
S'white_pawn'
p2948
sg5
S'f2'
p2949
sa(dp2950
g8
S'white_queen'
p2951
sg5
S'f3'
p2952
sa(dp2953
g5
S'f4'
p2954
sa(dp2955
g5
S'f5'
p2956
sa(dp2957
g8
S'white_knight'
p2958
sg5
S'f6'
p2959
sa(dp2960
g8
S'black_pawn'
p2961
sg5
S'f7'
p2962
sa(dp2963
g8
S'black_rook'
p2964
sg5
S'f8'
p2965
sa(dp2966
g8
S'white_king'
p2967
sg5
S'g1'
p2968
sa(dp2969
g5
S'g2'
p2970
sa(dp2971
g8
S'white_pawn'
p2972
sg5
S'g3'
p2973
sa(dp2974
g5
S'g4'
p2975
sa(dp2976
g5
S'g5'
p2977
sa(dp2978
g5
S'g6'
p2979
sa(dp2980
g8
S'black_pawn'
p2981
sg5
S'g7'
p2982
sa(dp2983
g8
S'black_king'
p2984
sg5
S'g8'
p2985
sa(dp2986
g5
S'h1'
p2987
sa(dp2988
g5
S'h2'
p2989
sa(dp2990
g5
S'h3'
p2991
sa(dp2992
g5
S'h4'
p2993
sa(dp2994
g5
S'h5'
p2995
sa(dp2996
g5
S'h6'
p2997
sa(dp2998
g8
S'black_queen'
p2999
sg5
S'h7'
p3000
sa(dp3001
g5
S'h8'
p3002
saaVThis, was my plan.  It was being this sac against his K.  I thought that when Tom takes back, I had a checkmate but didn't look at the variations carefully enough.
p3003
aa(lp3004
S'24... gxf6 25. Qg4+'
p3005
a(lp3006
(dp3007
g5
S'a1'
p3008
sa(dp3009
g8
S'white_pawn'
p3010
sg5
S'a2'
p3011
sa(dp3012
g5
S'a3'
p3013
sa(dp3014
g5
S'a4'
p3015
sa(dp3016
g8
S'black_pawn'
p3017
sg5
S'a5'
p3018
sa(dp3019
g5
S'a6'
p3020
sa(dp3021
g5
S'a7'
p3022
sa(dp3023
g5
S'a8'
p3024
sa(dp3025
g8
S'white_rook'
p3026
sg5
S'b1'
p3027
sa(dp3028
g8
S'white_pawn'
p3029
sg5
S'b2'
p3030
sa(dp3031
g5
S'b3'
p3032
sa(dp3033
g5
S'b4'
p3034
sa(dp3035
g5
S'b5'
p3036
sa(dp3037
g5
S'b6'
p3038
sa(dp3039
g8
S'black_bishop'
p3040
sg5
S'b7'
p3041
sa(dp3042
g5
S'b8'
p3043
sa(dp3044
g5
S'c1'
p3045
sa(dp3046
g8
S'white_pawn'
p3047
sg5
S'c2'
p3048
sa(dp3049
g5
S'c3'
p3050
sa(dp3051
g5
S'c4'
p3052
sa(dp3053
g5
S'c5'
p3054
sa(dp3055
g8
S'black_pawn'
p3056
sg5
S'c6'
p3057
sa(dp3058
g8
S'black_pawn'
p3059
sg5
S'c7'
p3060
sa(dp3061
g5
S'c8'
p3062
sa(dp3063
g5
S'd1'
p3064
sa(dp3065
g5
S'd2'
p3066
sa(dp3067
g8
S'white_pawn'
p3068
sg5
S'd3'
p3069
sa(dp3070
g5
S'd4'
p3071
sa(dp3072
g5
S'd5'
p3073
sa(dp3074
g8
S'black_pawn'
p3075
sg5
S'd6'
p3076
sa(dp3077
g5
S'd7'
p3078
sa(dp3079
g8
S'black_rook'
p3080
sg5
S'd8'
p3081
sa(dp3082
g5
S'e1'
p3083
sa(dp3084
g5
S'e2'
p3085
sa(dp3086
g5
S'e3'
p3087
sa(dp3088
g8
S'white_pawn'
p3089
sg5
S'e4'
p3090
sa(dp3091
g8
S'white_bishop'
p3092
sg5
S'e5'
p3093
sa(dp3094
g5
S'e6'
p3095
sa(dp3096
g5
S'e7'
p3097
sa(dp3098
g5
S'e8'
p3099
sa(dp3100
g8
S'white_rook'
p3101
sg5
S'f1'
p3102
sa(dp3103
g8
S'white_pawn'
p3104
sg5
S'f2'
p3105
sa(dp3106
g5
S'f3'
p3107
sa(dp3108
g5
S'f4'
p3109
sa(dp3110
g5
S'f5'
p3111
sa(dp3112
g8
S'black_pawn'
p3113
sg5
S'f6'
p3114
sa(dp3115
g8
S'black_pawn'
p3116
sg5
S'f7'
p3117
sa(dp3118
g8
S'black_rook'
p3119
sg5
S'f8'
p3120
sa(dp3121
g8
S'white_king'
p3122
sg5
S'g1'
p3123
sa(dp3124
g5
S'g2'
p3125
sa(dp3126
g8
S'white_pawn'
p3127
sg5
S'g3'
p3128
sa(dp3129
g8
S'white_queen'
p3130
sg5
S'g4'
p3131
sa(dp3132
g5
S'g5'
p3133
sa(dp3134
g5
S'g6'
p3135
sa(dp3136
g5
S'g7'
p3137
sa(dp3138
g8
S'black_king'
p3139
sg5
S'g8'
p3140
sa(dp3141
g5
S'h1'
p3142
sa(dp3143
g5
S'h2'
p3144
sa(dp3145
g5
S'h3'
p3146
sa(dp3147
g5
S'h4'
p3148
sa(dp3149
g5
S'h5'
p3150
sa(dp3151
g5
S'h6'
p3152
sa(dp3153
g8
S'black_queen'
p3154
sg5
S'h7'
p3155
sa(dp3156
g5
S'h8'
p3157
saaVSimilar to what happened when I gave the wrong to a student whose no longer on this website, unfortunately, I thought that Tom's only move 25...Kh8 which leads to checkmate.  26.Bxf6+ Qg7 27.Qxg7#  But, I forgot an important lesson that Ken emphasized.  And, it's also something that fiercequeen mentioned in her first annotation that I commented on which is to relook at my variations.
p3158
aa.