(lp0
(lp1
S'41. Ra7+ Ke6 42. Nc3 Rxf4 43. Nxa4 Rxh2 44. Nc3 Rh3+ 45. Kc2 Rc4 46. Kb3 Rc6 47. Bb4 f4 48. Ka4 Nc7 49. Ne2 Ke5 50. Ra5+ Ke4 51. Bd2 Rc4+ 52. b4 Rc2'
p2
a(lp3
(dp4
S'location'
p5
S'a1'
p6
sa(dp7
S'piece'
p8
S'white_pawn'
p9
sg5
S'a2'
p10
sa(dp11
g5
S'a3'
p12
sa(dp13
g8
S'white_king'
p14
sg5
S'a4'
p15
sa(dp16
g8
S'white_rook'
p17
sg5
S'a5'
p18
sa(dp19
g5
S'a6'
p20
sa(dp21
g5
S'a7'
p22
sa(dp23
g5
S'a8'
p24
sa(dp25
g5
S'b1'
p26
sa(dp27
g5
S'b2'
p28
sa(dp29
g5
S'b3'
p30
sa(dp31
g8
S'white_pawn'
p32
sg5
S'b4'
p33
sa(dp34
g5
S'b5'
p35
sa(dp36
g5
S'b6'
p37
sa(dp38
g5
S'b7'
p39
sa(dp40
g5
S'b8'
p41
sa(dp42
g5
S'c1'
p43
sa(dp44
g8
S'black_rook'
p45
sg5
S'c2'
p46
sa(dp47
g5
S'c3'
p48
sa(dp49
g5
S'c4'
p50
sa(dp51
g5
S'c5'
p52
sa(dp53
g5
S'c6'
p54
sa(dp55
g8
S'black_knight'
p56
sg5
S'c7'
p57
sa(dp58
g5
S'c8'
p59
sa(dp60
g5
S'd1'
p61
sa(dp62
g8
S'white_bishop'
p63
sg5
S'd2'
p64
sa(dp65
g5
S'd3'
p66
sa(dp67
g5
S'd4'
p68
sa(dp69
g5
S'd5'
p70
sa(dp71
g8
S'black_pawn'
p72
sg5
S'd6'
p73
sa(dp74
g5
S'd7'
p75
sa(dp76
g5
S'd8'
p77
sa(dp78
g5
S'e1'
p79
sa(dp80
g8
S'white_knight'
p81
sg5
S'e2'
p82
sa(dp83
g5
S'e3'
p84
sa(dp85
g8
S'black_king'
p86
sg5
S'e4'
p87
sa(dp88
g5
S'e5'
p89
sa(dp90
g5
S'e6'
p91
sa(dp92
g5
S'e7'
p93
sa(dp94
g5
S'e8'
p95
sa(dp96
g5
S'f1'
p97
sa(dp98
g5
S'f2'
p99
sa(dp100
g5
S'f3'
p101
sa(dp102
g8
S'black_pawn'
p103
sg5
S'f4'
p104
sa(dp105
g5
S'f5'
p106
sa(dp107
g5
S'f6'
p108
sa(dp109
g5
S'f7'
p110
sa(dp111
g5
S'f8'
p112
sa(dp113
g5
S'g1'
p114
sa(dp115
g5
S'g2'
p116
sa(dp117
g5
S'g3'
p118
sa(dp119
g5
S'g4'
p120
sa(dp121
g5
S'g5'
p122
sa(dp123
g8
S'black_pawn'
p124
sg5
S'g6'
p125
sa(dp126
g5
S'g7'
p127
sa(dp128
g5
S'g8'
p129
sa(dp130
g5
S'h1'
p131
sa(dp132
g5
S'h2'
p133
sa(dp134
g8
S'black_rook'
p135
sg5
S'h3'
p136
sa(dp137
g5
S'h4'
p138
sa(dp139
g5
S'h5'
p140
sa(dp141
g8
S'black_pawn'
p142
sg5
S'h6'
p143
sa(dp144
g5
S'h7'
p145
sa(dp146
g5
S'h8'
p147
saaVHe threatens mate on a2 and my bishop, so I resigned. Many thanks for reading please leave a comment or two and rate it on the star system to let me know how I am doing with my annotations. Until next time dear reader!
p148
aa.