(lp0
(lp1
S'25... Qg6'
p2
a(lp3
(dp4
S'location'
p5
S'a1'
p6
sa(dp7
S'piece'
p8
S'white_pawn'
p9
sg5
S'a2'
p10
sa(dp11
g5
S'a3'
p12
sa(dp13
g5
S'a4'
p14
sa(dp15
g8
S'black_pawn'
p16
sg5
S'a5'
p17
sa(dp18
g5
S'a6'
p19
sa(dp20
g5
S'a7'
p21
sa(dp22
g5
S'a8'
p23
sa(dp24
g8
S'white_rook'
p25
sg5
S'b1'
p26
sa(dp27
g8
S'white_pawn'
p28
sg5
S'b2'
p29
sa(dp30
g5
S'b3'
p31
sa(dp32
g5
S'b4'
p33
sa(dp34
g5
S'b5'
p35
sa(dp36
g5
S'b6'
p37
sa(dp38
g8
S'black_bishop'
p39
sg5
S'b7'
p40
sa(dp41
g5
S'b8'
p42
sa(dp43
g5
S'c1'
p44
sa(dp45
g8
S'white_pawn'
p46
sg5
S'c2'
p47
sa(dp48
g5
S'c3'
p49
sa(dp50
g5
S'c4'
p51
sa(dp52
g5
S'c5'
p53
sa(dp54
g8
S'black_pawn'
p55
sg5
S'c6'
p56
sa(dp57
g8
S'black_pawn'
p58
sg5
S'c7'
p59
sa(dp60
g5
S'c8'
p61
sa(dp62
g5
S'd1'
p63
sa(dp64
g5
S'd2'
p65
sa(dp66
g8
S'white_pawn'
p67
sg5
S'd3'
p68
sa(dp69
g5
S'd4'
p70
sa(dp71
g5
S'd5'
p72
sa(dp73
g8
S'black_pawn'
p74
sg5
S'd6'
p75
sa(dp76
g5
S'd7'
p77
sa(dp78
g8
S'black_rook'
p79
sg5
S'd8'
p80
sa(dp81
g5
S'e1'
p82
sa(dp83
g5
S'e2'
p84
sa(dp85
g5
S'e3'
p86
sa(dp87
g8
S'white_pawn'
p88
sg5
S'e4'
p89
sa(dp90
g8
S'white_bishop'
p91
sg5
S'e5'
p92
sa(dp93
g5
S'e6'
p94
sa(dp95
g5
S'e7'
p96
sa(dp97
g5
S'e8'
p98
sa(dp99
g8
S'white_rook'
p100
sg5
S'f1'
p101
sa(dp102
g8
S'white_pawn'
p103
sg5
S'f2'
p104
sa(dp105
g5
S'f3'
p106
sa(dp107
g5
S'f4'
p108
sa(dp109
g5
S'f5'
p110
sa(dp111
g8
S'black_pawn'
p112
sg5
S'f6'
p113
sa(dp114
g8
S'black_pawn'
p115
sg5
S'f7'
p116
sa(dp117
g8
S'black_rook'
p118
sg5
S'f8'
p119
sa(dp120
g8
S'white_king'
p121
sg5
S'g1'
p122
sa(dp123
g5
S'g2'
p124
sa(dp125
g8
S'white_pawn'
p126
sg5
S'g3'
p127
sa(dp128
g8
S'white_queen'
p129
sg5
S'g4'
p130
sa(dp131
g5
S'g5'
p132
sa(dp133
g8
S'black_queen'
p134
sg5
S'g6'
p135
sa(dp136
g5
S'g7'
p137
sa(dp138
g8
S'black_king'
p139
sg5
S'g8'
p140
sa(dp141
g5
S'h1'
p142
sa(dp143
g5
S'h2'
p144
sa(dp145
g5
S'h3'
p146
sa(dp147
g5
S'h4'
p148
sa(dp149
g5
S'h5'
p150
sa(dp151
g5
S'h6'
p152
sa(dp153
g5
S'h7'
p154
sa(dp155
g5
S'h8'
p156
saaVAs Tom interposed with his Q, instead.  That changes everything.  In part, I did not study this possibility.  Being very upset and for good reason, Jack said that I have now allowed Tom to equalize.  In fact, he said that with best play from both sides, Tom has a forced draw.  And, he might even be winning, whereas before, I was clearly winning.  Well, I don't think that white is lost, but I agree that best play will allow him to pull a swindle with a draw.
p157
aa(lp158
S'26. Qxg6+'
p159
a(lp160
(dp161
g5
S'a1'
p162
sa(dp163
g8
S'white_pawn'
p164
sg5
S'a2'
p165
sa(dp166
g5
S'a3'
p167
sa(dp168
g5
S'a4'
p169
sa(dp170
g8
S'black_pawn'
p171
sg5
S'a5'
p172
sa(dp173
g5
S'a6'
p174
sa(dp175
g5
S'a7'
p176
sa(dp177
g5
S'a8'
p178
sa(dp179
g8
S'white_rook'
p180
sg5
S'b1'
p181
sa(dp182
g8
S'white_pawn'
p183
sg5
S'b2'
p184
sa(dp185
g5
S'b3'
p186
sa(dp187
g5
S'b4'
p188
sa(dp189
g5
S'b5'
p190
sa(dp191
g5
S'b6'
p192
sa(dp193
g8
S'black_bishop'
p194
sg5
S'b7'
p195
sa(dp196
g5
S'b8'
p197
sa(dp198
g5
S'c1'
p199
sa(dp200
g8
S'white_pawn'
p201
sg5
S'c2'
p202
sa(dp203
g5
S'c3'
p204
sa(dp205
g5
S'c4'
p206
sa(dp207
g5
S'c5'
p208
sa(dp209
g8
S'black_pawn'
p210
sg5
S'c6'
p211
sa(dp212
g8
S'black_pawn'
p213
sg5
S'c7'
p214
sa(dp215
g5
S'c8'
p216
sa(dp217
g5
S'd1'
p218
sa(dp219
g5
S'd2'
p220
sa(dp221
g8
S'white_pawn'
p222
sg5
S'd3'
p223
sa(dp224
g5
S'd4'
p225
sa(dp226
g5
S'd5'
p227
sa(dp228
g8
S'black_pawn'
p229
sg5
S'd6'
p230
sa(dp231
g5
S'd7'
p232
sa(dp233
g8
S'black_rook'
p234
sg5
S'd8'
p235
sa(dp236
g5
S'e1'
p237
sa(dp238
g5
S'e2'
p239
sa(dp240
g5
S'e3'
p241
sa(dp242
g8
S'white_pawn'
p243
sg5
S'e4'
p244
sa(dp245
g8
S'white_bishop'
p246
sg5
S'e5'
p247
sa(dp248
g5
S'e6'
p249
sa(dp250
g5
S'e7'
p251
sa(dp252
g5
S'e8'
p253
sa(dp254
g8
S'white_rook'
p255
sg5
S'f1'
p256
sa(dp257
g8
S'white_pawn'
p258
sg5
S'f2'
p259
sa(dp260
g5
S'f3'
p261
sa(dp262
g5
S'f4'
p263
sa(dp264
g5
S'f5'
p265
sa(dp266
g8
S'black_pawn'
p267
sg5
S'f6'
p268
sa(dp269
g8
S'black_pawn'
p270
sg5
S'f7'
p271
sa(dp272
g8
S'black_rook'
p273
sg5
S'f8'
p274
sa(dp275
g8
S'white_king'
p276
sg5
S'g1'
p277
sa(dp278
g5
S'g2'
p279
sa(dp280
g8
S'white_pawn'
p281
sg5
S'g3'
p282
sa(dp283
g5
S'g4'
p284
sa(dp285
g5
S'g5'
p286
sa(dp287
g8
S'white_queen'
p288
sg5
S'g6'
p289
sa(dp290
g5
S'g7'
p291
sa(dp292
g8
S'black_king'
p293
sg5
S'g8'
p294
sa(dp295
g5
S'h1'
p296
sa(dp297
g5
S'h2'
p298
sa(dp299
g5
S'h3'
p300
sa(dp301
g5
S'h4'
p302
sa(dp303
g5
S'h5'
p304
sa(dp305
g5
S'h6'
p306
sa(dp307
g5
S'h7'
p308
sa(dp309
g5
S'h8'
p310
saaVAfter looking at it a little bit, I felt that exchanging was a way to fix my mistake.  Tom was doing a lot with his Queen, and the B was attacked.  I asked myself what to do here.  Perhaps there was something that I missed here, but I felt that exchanging helped to alleviate the problem that I caused for myself even though it means that he undoubled my pawns.  By this, I mean that I feel a little more comfortable about my position.  But, don't be fooled as I am less then satisfied, after the miscalculation.
p311
aa(lp312
S'26... fxg6 27. Bc3'
p313
a(lp314
(dp315
g5
S'a1'
p316
sa(dp317
g8
S'white_pawn'
p318
sg5
S'a2'
p319
sa(dp320
g5
S'a3'
p321
sa(dp322
g5
S'a4'
p323
sa(dp324
g8
S'black_pawn'
p325
sg5
S'a5'
p326
sa(dp327
g5
S'a6'
p328
sa(dp329
g5
S'a7'
p330
sa(dp331
g5
S'a8'
p332
sa(dp333
g8
S'white_rook'
p334
sg5
S'b1'
p335
sa(dp336
g8
S'white_pawn'
p337
sg5
S'b2'
p338
sa(dp339
g5
S'b3'
p340
sa(dp341
g5
S'b4'
p342
sa(dp343
g5
S'b5'
p344
sa(dp345
g5
S'b6'
p346
sa(dp347
g8
S'black_bishop'
p348
sg5
S'b7'
p349
sa(dp350
g5
S'b8'
p351
sa(dp352
g5
S'c1'
p353
sa(dp354
g8
S'white_pawn'
p355
sg5
S'c2'
p356
sa(dp357
g8
S'white_bishop'
p358
sg5
S'c3'
p359
sa(dp360
g5
S'c4'
p361
sa(dp362
g5
S'c5'
p363
sa(dp364
g8
S'black_pawn'
p365
sg5
S'c6'
p366
sa(dp367
g8
S'black_pawn'
p368
sg5
S'c7'
p369
sa(dp370
g5
S'c8'
p371
sa(dp372
g5
S'd1'
p373
sa(dp374
g5
S'd2'
p375
sa(dp376
g8
S'white_pawn'
p377
sg5
S'd3'
p378
sa(dp379
g5
S'd4'
p380
sa(dp381
g5
S'd5'
p382
sa(dp383
g8
S'black_pawn'
p384
sg5
S'd6'
p385
sa(dp386
g5
S'd7'
p387
sa(dp388
g8
S'black_rook'
p389
sg5
S'd8'
p390
sa(dp391
g5
S'e1'
p392
sa(dp393
g5
S'e2'
p394
sa(dp395
g5
S'e3'
p396
sa(dp397
g8
S'white_pawn'
p398
sg5
S'e4'
p399
sa(dp400
g5
S'e5'
p401
sa(dp402
g5
S'e6'
p403
sa(dp404
g5
S'e7'
p405
sa(dp406
g5
S'e8'
p407
sa(dp408
g8
S'white_rook'
p409
sg5
S'f1'
p410
sa(dp411
g8
S'white_pawn'
p412
sg5
S'f2'
p413
sa(dp414
g5
S'f3'
p415
sa(dp416
g5
S'f4'
p417
sa(dp418
g5
S'f5'
p419
sa(dp420
g8
S'black_pawn'
p421
sg5
S'f6'
p422
sa(dp423
g5
S'f7'
p424
sa(dp425
g8
S'black_rook'
p426
sg5
S'f8'
p427
sa(dp428
g8
S'white_king'
p429
sg5
S'g1'
p430
sa(dp431
g5
S'g2'
p432
sa(dp433
g8
S'white_pawn'
p434
sg5
S'g3'
p435
sa(dp436
g5
S'g4'
p437
sa(dp438
g5
S'g5'
p439
sa(dp440
g8
S'black_pawn'
p441
sg5
S'g6'
p442
sa(dp443
g5
S'g7'
p444
sa(dp445
g8
S'black_king'
p446
sg5
S'g8'
p447
sa(dp448
g5
S'h1'
p449
sa(dp450
g5
S'h2'
p451
sa(dp452
g5
S'h3'
p453
sa(dp454
g5
S'h4'
p455
sa(dp456
g5
S'h5'
p457
sa(dp458
g5
S'h6'
p459
sa(dp460
g5
S'h7'
p461
sa(dp462
g5
S'h8'
p463
saaVSo, I defended this way thinking that I might be a little better off then 27.Bf4 or 27.Bd4 where he can attack again and gain another tempo.  I'm also threatening to gain a pawn in a different way.  Of course, I'm aware that Tom can defend it.
p464
aa(lp465
S'27... Kf7'
p466
a(lp467
(dp468
g5
S'a1'
p469
sa(dp470
g8
S'white_pawn'
p471
sg5
S'a2'
p472
sa(dp473
g5
S'a3'
p474
sa(dp475
g5
S'a4'
p476
sa(dp477
g8
S'black_pawn'
p478
sg5
S'a5'
p479
sa(dp480
g5
S'a6'
p481
sa(dp482
g5
S'a7'
p483
sa(dp484
g5
S'a8'
p485
sa(dp486
g8
S'white_rook'
p487
sg5
S'b1'
p488
sa(dp489
g8
S'white_pawn'
p490
sg5
S'b2'
p491
sa(dp492
g5
S'b3'
p493
sa(dp494
g5
S'b4'
p495
sa(dp496
g5
S'b5'
p497
sa(dp498
g5
S'b6'
p499
sa(dp500
g8
S'black_bishop'
p501
sg5
S'b7'
p502
sa(dp503
g5
S'b8'
p504
sa(dp505
g5
S'c1'
p506
sa(dp507
g8
S'white_pawn'
p508
sg5
S'c2'
p509
sa(dp510
g8
S'white_bishop'
p511
sg5
S'c3'
p512
sa(dp513
g5
S'c4'
p514
sa(dp515
g5
S'c5'
p516
sa(dp517
g8
S'black_pawn'
p518
sg5
S'c6'
p519
sa(dp520
g8
S'black_pawn'
p521
sg5
S'c7'
p522
sa(dp523
g5
S'c8'
p524
sa(dp525
g5
S'd1'
p526
sa(dp527
g5
S'd2'
p528
sa(dp529
g8
S'white_pawn'
p530
sg5
S'd3'
p531
sa(dp532
g5
S'd4'
p533
sa(dp534
g5
S'd5'
p535
sa(dp536
g8
S'black_pawn'
p537
sg5
S'd6'
p538
sa(dp539
g5
S'd7'
p540
sa(dp541
g8
S'black_rook'
p542
sg5
S'd8'
p543
sa(dp544
g5
S'e1'
p545
sa(dp546
g5
S'e2'
p547
sa(dp548
g5
S'e3'
p549
sa(dp550
g8
S'white_pawn'
p551
sg5
S'e4'
p552
sa(dp553
g5
S'e5'
p554
sa(dp555
g5
S'e6'
p556
sa(dp557
g5
S'e7'
p558
sa(dp559
g5
S'e8'
p560
sa(dp561
g8
S'white_rook'
p562
sg5
S'f1'
p563
sa(dp564
g8
S'white_pawn'
p565
sg5
S'f2'
p566
sa(dp567
g5
S'f3'
p568
sa(dp569
g5
S'f4'
p570
sa(dp571
g5
S'f5'
p572
sa(dp573
g8
S'black_pawn'
p574
sg5
S'f6'
p575
sa(dp576
g8
S'black_king'
p577
sg5
S'f7'
p578
sa(dp579
g8
S'black_rook'
p580
sg5
S'f8'
p581
sa(dp582
g8
S'white_king'
p583
sg5
S'g1'
p584
sa(dp585
g5
S'g2'
p586
sa(dp587
g8
S'white_pawn'
p588
sg5
S'g3'
p589
sa(dp590
g5
S'g4'
p591
sa(dp592
g5
S'g5'
p593
sa(dp594
g8
S'black_pawn'
p595
sg5
S'g6'
p596
sa(dp597
g5
S'g7'
p598
sa(dp599
g5
S'g8'
p600
sa(dp601
g5
S'h1'
p602
sa(dp603
g5
S'h2'
p604
sa(dp605
g5
S'h3'
p606
sa(dp607
g5
S'h4'
p608
sa(dp609
g5
S'h5'
p610
sa(dp611
g5
S'h6'
p612
sa(dp613
g5
S'h7'
p614
sa(dp615
g5
S'h8'
p616
saaV? But, Tom played this.  I'm not sure why, but I am back to being satisfied.  The reason being is that I missed the opportunity to win another before.  But, that is now back, and I take advantage of it by capturing.  Another reason for feeling almost happy is due to c7 being attacked.
p617
aa(lp618
S'28. Bxa5 Rfh8'
p619
a(lp620
(dp621
g5
S'a1'
p622
sa(dp623
g8
S'white_pawn'
p624
sg5
S'a2'
p625
sa(dp626
g5
S'a3'
p627
sa(dp628
g5
S'a4'
p629
sa(dp630
g8
S'white_bishop'
p631
sg5
S'a5'
p632
sa(dp633
g5
S'a6'
p634
sa(dp635
g5
S'a7'
p636
sa(dp637
g5
S'a8'
p638
sa(dp639
g8
S'white_rook'
p640
sg5
S'b1'
p641
sa(dp642
g8
S'white_pawn'
p643
sg5
S'b2'
p644
sa(dp645
g5
S'b3'
p646
sa(dp647
g5
S'b4'
p648
sa(dp649
g5
S'b5'
p650
sa(dp651
g5
S'b6'
p652
sa(dp653
g8
S'black_bishop'
p654
sg5
S'b7'
p655
sa(dp656
g5
S'b8'
p657
sa(dp658
g5
S'c1'
p659
sa(dp660
g8
S'white_pawn'
p661
sg5
S'c2'
p662
sa(dp663
g5
S'c3'
p664
sa(dp665
g5
S'c4'
p666
sa(dp667
g5
S'c5'
p668
sa(dp669
g8
S'black_pawn'
p670
sg5
S'c6'
p671
sa(dp672
g8
S'black_pawn'
p673
sg5
S'c7'
p674
sa(dp675
g5
S'c8'
p676
sa(dp677
g5
S'd1'
p678
sa(dp679
g5
S'd2'
p680
sa(dp681
g8
S'white_pawn'
p682
sg5
S'd3'
p683
sa(dp684
g5
S'd4'
p685
sa(dp686
g5
S'd5'
p687
sa(dp688
g8
S'black_pawn'
p689
sg5
S'd6'
p690
sa(dp691
g5
S'd7'
p692
sa(dp693
g8
S'black_rook'
p694
sg5
S'd8'
p695
sa(dp696
g5
S'e1'
p697
sa(dp698
g5
S'e2'
p699
sa(dp700
g5
S'e3'
p701
sa(dp702
g8
S'white_pawn'
p703
sg5
S'e4'
p704
sa(dp705
g5
S'e5'
p706
sa(dp707
g5
S'e6'
p708
sa(dp709
g5
S'e7'
p710
sa(dp711
g5
S'e8'
p712
sa(dp713
g8
S'white_rook'
p714
sg5
S'f1'
p715
sa(dp716
g8
S'white_pawn'
p717
sg5
S'f2'
p718
sa(dp719
g5
S'f3'
p720
sa(dp721
g5
S'f4'
p722
sa(dp723
g5
S'f5'
p724
sa(dp725
g8
S'black_pawn'
p726
sg5
S'f6'
p727
sa(dp728
g8
S'black_king'
p729
sg5
S'f7'
p730
sa(dp731
g5
S'f8'
p732
sa(dp733
g8
S'white_king'
p734
sg5
S'g1'
p735
sa(dp736
g5
S'g2'
p737
sa(dp738
g8
S'white_pawn'
p739
sg5
S'g3'
p740
sa(dp741
g5
S'g4'
p742
sa(dp743
g5
S'g5'
p744
sa(dp745
g8
S'black_pawn'
p746
sg5
S'g6'
p747
sa(dp748
g5
S'g7'
p749
sa(dp750
g5
S'g8'
p751
sa(dp752
g5
S'h1'
p753
sa(dp754
g5
S'h2'
p755
sa(dp756
g5
S'h3'
p757
sa(dp758
g5
S'h4'
p759
sa(dp760
g5
S'h5'
p761
sa(dp762
g5
S'h6'
p763
sa(dp764
g5
S'h7'
p765
sa(dp766
g8
S'black_rook'
p767
sg5
S'h8'
p768
saaV? I don't know why Tom played this, but I win back the very pawn that I overlooked.  Remembering the oversight that I made the last time, I took it.  And, I am now a happy camper again.
p769
aa(lp770
S'29. Bxc7'
p771
a(lp772
(dp773
g5
S'a1'
p774
sa(dp775
g8
S'white_pawn'
p776
sg5
S'a2'
p777
sa(dp778
g5
S'a3'
p779
sa(dp780
g5
S'a4'
p781
sa(dp782
g5
S'a5'
p783
sa(dp784
g5
S'a6'
p785
sa(dp786
g5
S'a7'
p787
sa(dp788
g5
S'a8'
p789
sa(dp790
g8
S'white_rook'
p791
sg5
S'b1'
p792
sa(dp793
g8
S'white_pawn'
p794
sg5
S'b2'
p795
sa(dp796
g5
S'b3'
p797
sa(dp798
g5
S'b4'
p799
sa(dp800
g5
S'b5'
p801
sa(dp802
g5
S'b6'
p803
sa(dp804
g8
S'black_bishop'
p805
sg5
S'b7'
p806
sa(dp807
g5
S'b8'
p808
sa(dp809
g5
S'c1'
p810
sa(dp811
g8
S'white_pawn'
p812
sg5
S'c2'
p813
sa(dp814
g5
S'c3'
p815
sa(dp816
g5
S'c4'
p817
sa(dp818
g5
S'c5'
p819
sa(dp820
g8
S'black_pawn'
p821
sg5
S'c6'
p822
sa(dp823
g8
S'white_bishop'
p824
sg5
S'c7'
p825
sa(dp826
g5
S'c8'
p827
sa(dp828
g5
S'd1'
p829
sa(dp830
g5
S'd2'
p831
sa(dp832
g8
S'white_pawn'
p833
sg5
S'd3'
p834
sa(dp835
g5
S'd4'
p836
sa(dp837
g5
S'd5'
p838
sa(dp839
g8
S'black_pawn'
p840
sg5
S'd6'
p841
sa(dp842
g5
S'd7'
p843
sa(dp844
g8
S'black_rook'
p845
sg5
S'd8'
p846
sa(dp847
g5
S'e1'
p848
sa(dp849
g5
S'e2'
p850
sa(dp851
g5
S'e3'
p852
sa(dp853
g8
S'white_pawn'
p854
sg5
S'e4'
p855
sa(dp856
g5
S'e5'
p857
sa(dp858
g5
S'e6'
p859
sa(dp860
g5
S'e7'
p861
sa(dp862
g5
S'e8'
p863
sa(dp864
g8
S'white_rook'
p865
sg5
S'f1'
p866
sa(dp867
g8
S'white_pawn'
p868
sg5
S'f2'
p869
sa(dp870
g5
S'f3'
p871
sa(dp872
g5
S'f4'
p873
sa(dp874
g5
S'f5'
p875
sa(dp876
g8
S'black_pawn'
p877
sg5
S'f6'
p878
sa(dp879
g8
S'black_king'
p880
sg5
S'f7'
p881
sa(dp882
g5
S'f8'
p883
sa(dp884
g8
S'white_king'
p885
sg5
S'g1'
p886
sa(dp887
g5
S'g2'
p888
sa(dp889
g8
S'white_pawn'
p890
sg5
S'g3'
p891
sa(dp892
g5
S'g4'
p893
sa(dp894
g5
S'g5'
p895
sa(dp896
g8
S'black_pawn'
p897
sg5
S'g6'
p898
sa(dp899
g5
S'g7'
p900
sa(dp901
g5
S'g8'
p902
sa(dp903
g5
S'h1'
p904
sa(dp905
g5
S'h2'
p906
sa(dp907
g5
S'h3'
p908
sa(dp909
g5
S'h4'
p910
sa(dp911
g5
S'h5'
p912
sa(dp913
g5
S'h6'
p914
sa(dp915
g5
S'h7'
p916
sa(dp917
g8
S'black_rook'
p918
sg5
S'h8'
p919
saaVAs Jack acted upset by saying, "So you let him win the pawn again."
p920
aa(lp921
S'29... d5'
p922
a(lp923
(dp924
g5
S'a1'
p925
sa(dp926
g8
S'white_pawn'
p927
sg5
S'a2'
p928
sa(dp929
g5
S'a3'
p930
sa(dp931
g5
S'a4'
p932
sa(dp933
g5
S'a5'
p934
sa(dp935
g5
S'a6'
p936
sa(dp937
g5
S'a7'
p938
sa(dp939
g5
S'a8'
p940
sa(dp941
g8
S'white_rook'
p942
sg5
S'b1'
p943
sa(dp944
g8
S'white_pawn'
p945
sg5
S'b2'
p946
sa(dp947
g5
S'b3'
p948
sa(dp949
g5
S'b4'
p950
sa(dp951
g5
S'b5'
p952
sa(dp953
g5
S'b6'
p954
sa(dp955
g8
S'black_bishop'
p956
sg5
S'b7'
p957
sa(dp958
g5
S'b8'
p959
sa(dp960
g5
S'c1'
p961
sa(dp962
g8
S'white_pawn'
p963
sg5
S'c2'
p964
sa(dp965
g5
S'c3'
p966
sa(dp967
g5
S'c4'
p968
sa(dp969
g5
S'c5'
p970
sa(dp971
g8
S'black_pawn'
p972
sg5
S'c6'
p973
sa(dp974
g8
S'white_bishop'
p975
sg5
S'c7'
p976
sa(dp977
g5
S'c8'
p978
sa(dp979
g5
S'd1'
p980
sa(dp981
g5
S'd2'
p982
sa(dp983
g8
S'white_pawn'
p984
sg5
S'd3'
p985
sa(dp986
g5
S'd4'
p987
sa(dp988
g8
S'black_pawn'
p989
sg5
S'd5'
p990
sa(dp991
g5
S'd6'
p992
sa(dp993
g5
S'd7'
p994
sa(dp995
g8
S'black_rook'
p996
sg5
S'd8'
p997
sa(dp998
g5
S'e1'
p999
sa(dp1000
g5
S'e2'
p1001
sa(dp1002
g5
S'e3'
p1003
sa(dp1004
g8
S'white_pawn'
p1005
sg5
S'e4'
p1006
sa(dp1007
g5
S'e5'
p1008
sa(dp1009
g5
S'e6'
p1010
sa(dp1011
g5
S'e7'
p1012
sa(dp1013
g5
S'e8'
p1014
sa(dp1015
g8
S'white_rook'
p1016
sg5
S'f1'
p1017
sa(dp1018
g8
S'white_pawn'
p1019
sg5
S'f2'
p1020
sa(dp1021
g5
S'f3'
p1022
sa(dp1023
g5
S'f4'
p1024
sa(dp1025
g5
S'f5'
p1026
sa(dp1027
g8
S'black_pawn'
p1028
sg5
S'f6'
p1029
sa(dp1030
g8
S'black_king'
p1031
sg5
S'f7'
p1032
sa(dp1033
g5
S'f8'
p1034
sa(dp1035
g8
S'white_king'
p1036
sg5
S'g1'
p1037
sa(dp1038
g5
S'g2'
p1039
sa(dp1040
g8
S'white_pawn'
p1041
sg5
S'g3'
p1042
sa(dp1043
g5
S'g4'
p1044
sa(dp1045
g5
S'g5'
p1046
sa(dp1047
g8
S'black_pawn'
p1048
sg5
S'g6'
p1049
sa(dp1050
g5
S'g7'
p1051
sa(dp1052
g5
S'g8'
p1053
sa(dp1054
g5
S'h1'
p1055
sa(dp1056
g5
S'h2'
p1057
sa(dp1058
g5
S'h3'
p1059
sa(dp1060
g5
S'h4'
p1061
sa(dp1062
g5
S'h5'
p1063
sa(dp1064
g5
S'h6'
p1065
sa(dp1066
g5
S'h7'
p1067
sa(dp1068
g8
S'black_rook'
p1069
sg5
S'h8'
p1070
saaV?? After this move, Jack said to Tom, "White now has a won game."  Being just about out of time since it's about noon which is when I need to leave I said, I don't see how I can win.  He said, "Take a moment and see if you can figure it out."  Well, due to it being a minute afterward combined with me having to go to work, I panicked a little.  But, I found just in the nick of time as Jack was finishing another game or watching somelse finish it.  I usually don't panick and know what to do, on a regular day.  But, regular isn't the case when you have to pack up and get ready for work.  The winning move, however, is what I play next. 
p1071
aa(lp1072
S'30. Bxd8'
p1073
a(lp1074
(dp1075
g5
S'a1'
p1076
sa(dp1077
g8
S'white_pawn'
p1078
sg5
S'a2'
p1079
sa(dp1080
g5
S'a3'
p1081
sa(dp1082
g5
S'a4'
p1083
sa(dp1084
g5
S'a5'
p1085
sa(dp1086
g5
S'a6'
p1087
sa(dp1088
g5
S'a7'
p1089
sa(dp1090
g5
S'a8'
p1091
sa(dp1092
g8
S'white_rook'
p1093
sg5
S'b1'
p1094
sa(dp1095
g8
S'white_pawn'
p1096
sg5
S'b2'
p1097
sa(dp1098
g5
S'b3'
p1099
sa(dp1100
g5
S'b4'
p1101
sa(dp1102
g5
S'b5'
p1103
sa(dp1104
g5
S'b6'
p1105
sa(dp1106
g8
S'black_bishop'
p1107
sg5
S'b7'
p1108
sa(dp1109
g5
S'b8'
p1110
sa(dp1111
g5
S'c1'
p1112
sa(dp1113
g8
S'white_pawn'
p1114
sg5
S'c2'
p1115
sa(dp1116
g5
S'c3'
p1117
sa(dp1118
g5
S'c4'
p1119
sa(dp1120
g5
S'c5'
p1121
sa(dp1122
g8
S'black_pawn'
p1123
sg5
S'c6'
p1124
sa(dp1125
g5
S'c7'
p1126
sa(dp1127
g5
S'c8'
p1128
sa(dp1129
g5
S'd1'
p1130
sa(dp1131
g5
S'd2'
p1132
sa(dp1133
g8
S'white_pawn'
p1134
sg5
S'd3'
p1135
sa(dp1136
g5
S'd4'
p1137
sa(dp1138
g8
S'black_pawn'
p1139
sg5
S'd5'
p1140
sa(dp1141
g5
S'd6'
p1142
sa(dp1143
g5
S'd7'
p1144
sa(dp1145
g8
S'white_bishop'
p1146
sg5
S'd8'
p1147
sa(dp1148
g5
S'e1'
p1149
sa(dp1150
g5
S'e2'
p1151
sa(dp1152
g5
S'e3'
p1153
sa(dp1154
g8
S'white_pawn'
p1155
sg5
S'e4'
p1156
sa(dp1157
g5
S'e5'
p1158
sa(dp1159
g5
S'e6'
p1160
sa(dp1161
g5
S'e7'
p1162
sa(dp1163
g5
S'e8'
p1164
sa(dp1165
g8
S'white_rook'
p1166
sg5
S'f1'
p1167
sa(dp1168
g8
S'white_pawn'
p1169
sg5
S'f2'
p1170
sa(dp1171
g5
S'f3'
p1172
sa(dp1173
g5
S'f4'
p1174
sa(dp1175
g5
S'f5'
p1176
sa(dp1177
g8
S'black_pawn'
p1178
sg5
S'f6'
p1179
sa(dp1180
g8
S'black_king'
p1181
sg5
S'f7'
p1182
sa(dp1183
g5
S'f8'
p1184
sa(dp1185
g8
S'white_king'
p1186
sg5
S'g1'
p1187
sa(dp1188
g5
S'g2'
p1189
sa(dp1190
g8
S'white_pawn'
p1191
sg5
S'g3'
p1192
sa(dp1193
g5
S'g4'
p1194
sa(dp1195
g5
S'g5'
p1196
sa(dp1197
g8
S'black_pawn'
p1198
sg5
S'g6'
p1199
sa(dp1200
g5
S'g7'
p1201
sa(dp1202
g5
S'g8'
p1203
sa(dp1204
g5
S'h1'
p1205
sa(dp1206
g5
S'h2'
p1207
sa(dp1208
g5
S'h3'
p1209
sa(dp1210
g5
S'h4'
p1211
sa(dp1212
g5
S'h5'
p1213
sa(dp1214
g5
S'h6'
p1215
sa(dp1216
g5
S'h7'
p1217
sa(dp1218
g8
S'black_rook'
p1219
sg5
S'h8'
p1220
saaVJack said, "That's right."  And, Tom resigned here, as now, he is too far behind.  Even if he answers with 30...Rxd8, I am now ahead by the equivalent to an entire Rook without compensation.  Moreover, it's an endgame which leaves black with a hopeless position.
p1221
aa.