(lp0
(lp1
S'21. Bb3'
p2
a(lp3
(dp4
S'piece'
p5
S'white_rook'
p6
sS'location'
p7
S'a1'
p8
sa(dp9
g5
S'white_pawn'
p10
sg7
S'a2'
p11
sa(dp12
g7
S'a3'
p13
sa(dp14
g7
S'a4'
p15
sa(dp16
g7
S'a5'
p17
sa(dp18
g5
S'black_pawn'
p19
sg7
S'a6'
p20
sa(dp21
g7
S'a7'
p22
sa(dp23
g5
S'black_rook'
p24
sg7
S'a8'
p25
sa(dp26
g7
S'b1'
p27
sa(dp28
g5
S'white_pawn'
p29
sg7
S'b2'
p30
sa(dp31
g5
S'white_bishop'
p32
sg7
S'b3'
p33
sa(dp34
g7
S'b4'
p35
sa(dp36
g7
S'b5'
p37
sa(dp38
g7
S'b6'
p39
sa(dp40
g5
S'black_bishop'
p41
sg7
S'b7'
p42
sa(dp43
g7
S'b8'
p44
sa(dp45
g7
S'c1'
p46
sa(dp47
g7
S'c2'
p48
sa(dp49
g5
S'white_bishop'
p50
sg7
S'c3'
p51
sa(dp52
g7
S'c4'
p53
sa(dp54
g7
S'c5'
p55
sa(dp56
g7
S'c6'
p57
sa(dp58
g7
S'c7'
p59
sa(dp60
g7
S'c8'
p61
sa(dp62
g7
S'd1'
p63
sa(dp64
g7
S'd2'
p65
sa(dp66
g7
S'd3'
p67
sa(dp68
g7
S'd4'
p69
sa(dp70
g5
S'white_pawn'
p71
sg7
S'd5'
p72
sa(dp73
g5
S'black_pawn'
p74
sg7
S'd6'
p75
sa(dp76
g7
S'd7'
p77
sa(dp78
g7
S'd8'
p79
sa(dp80
g7
S'e1'
p81
sa(dp82
g7
S'e2'
p83
sa(dp84
g7
S'e3'
p85
sa(dp86
g5
S'white_knight'
p87
sg7
S'e4'
p88
sa(dp89
g7
S'e5'
p90
sa(dp91
g7
S'e6'
p92
sa(dp93
g7
S'e7'
p94
sa(dp95
g5
S'black_knight'
p96
sg7
S'e8'
p97
sa(dp98
g7
S'f1'
p99
sa(dp100
g7
S'f2'
p101
sa(dp102
g7
S'f3'
p103
sa(dp104
g5
S'white_pawn'
p105
sg7
S'f4'
p106
sa(dp107
g7
S'f5'
p108
sa(dp109
g7
S'f6'
p110
sa(dp111
g5
S'black_pawn'
p112
sg7
S'f7'
p113
sa(dp114
g5
S'black_rook'
p115
sg7
S'f8'
p116
sa(dp117
g5
S'white_king'
p118
sg7
S'g1'
p119
sa(dp120
g5
S'white_pawn'
p121
sg7
S'g2'
p122
sa(dp123
g7
S'g3'
p124
sa(dp125
g7
S'g4'
p126
sa(dp127
g7
S'g5'
p128
sa(dp129
g5
S'black_pawn'
p130
sg7
S'g6'
p131
sa(dp132
g7
S'g7'
p133
sa(dp134
g5
S'black_king'
p135
sg7
S'g8'
p136
sa(dp137
g7
S'h1'
p138
sa(dp139
g5
S'white_pawn'
p140
sg7
S'h2'
p141
sa(dp142
g7
S'h3'
p143
sa(dp144
g7
S'h4'
p145
sa(dp146
g7
S'h5'
p147
sa(dp148
g7
S'h6'
p149
sa(dp150
g5
S'black_pawn'
p151
sg7
S'h7'
p152
sa(dp153
g7
S'h8'
p154
saaVWith the idea of Rd1 and Bh4 attacking his knight with is protecting d6.
p155
aa(lp156
S'21... f5'
p157
a(lp158
(dp159
g5
S'white_rook'
p160
sg7
S'a1'
p161
sa(dp162
g5
S'white_pawn'
p163
sg7
S'a2'
p164
sa(dp165
g7
S'a3'
p166
sa(dp167
g7
S'a4'
p168
sa(dp169
g7
S'a5'
p170
sa(dp171
g5
S'black_pawn'
p172
sg7
S'a6'
p173
sa(dp174
g7
S'a7'
p175
sa(dp176
g5
S'black_rook'
p177
sg7
S'a8'
p178
sa(dp179
g7
S'b1'
p180
sa(dp181
g5
S'white_pawn'
p182
sg7
S'b2'
p183
sa(dp184
g5
S'white_bishop'
p185
sg7
S'b3'
p186
sa(dp187
g7
S'b4'
p188
sa(dp189
g7
S'b5'
p190
sa(dp191
g7
S'b6'
p192
sa(dp193
g5
S'black_bishop'
p194
sg7
S'b7'
p195
sa(dp196
g7
S'b8'
p197
sa(dp198
g7
S'c1'
p199
sa(dp200
g7
S'c2'
p201
sa(dp202
g5
S'white_bishop'
p203
sg7
S'c3'
p204
sa(dp205
g7
S'c4'
p206
sa(dp207
g7
S'c5'
p208
sa(dp209
g7
S'c6'
p210
sa(dp211
g7
S'c7'
p212
sa(dp213
g7
S'c8'
p214
sa(dp215
g7
S'd1'
p216
sa(dp217
g7
S'd2'
p218
sa(dp219
g7
S'd3'
p220
sa(dp221
g7
S'd4'
p222
sa(dp223
g5
S'white_pawn'
p224
sg7
S'd5'
p225
sa(dp226
g5
S'black_pawn'
p227
sg7
S'd6'
p228
sa(dp229
g7
S'd7'
p230
sa(dp231
g7
S'd8'
p232
sa(dp233
g7
S'e1'
p234
sa(dp235
g7
S'e2'
p236
sa(dp237
g7
S'e3'
p238
sa(dp239
g5
S'white_knight'
p240
sg7
S'e4'
p241
sa(dp242
g7
S'e5'
p243
sa(dp244
g7
S'e6'
p245
sa(dp246
g7
S'e7'
p247
sa(dp248
g5
S'black_knight'
p249
sg7
S'e8'
p250
sa(dp251
g7
S'f1'
p252
sa(dp253
g7
S'f2'
p254
sa(dp255
g7
S'f3'
p256
sa(dp257
g5
S'white_pawn'
p258
sg7
S'f4'
p259
sa(dp260
g5
S'black_pawn'
p261
sg7
S'f5'
p262
sa(dp263
g7
S'f6'
p264
sa(dp265
g7
S'f7'
p266
sa(dp267
g5
S'black_rook'
p268
sg7
S'f8'
p269
sa(dp270
g5
S'white_king'
p271
sg7
S'g1'
p272
sa(dp273
g5
S'white_pawn'
p274
sg7
S'g2'
p275
sa(dp276
g7
S'g3'
p277
sa(dp278
g7
S'g4'
p279
sa(dp280
g7
S'g5'
p281
sa(dp282
g5
S'black_pawn'
p283
sg7
S'g6'
p284
sa(dp285
g7
S'g7'
p286
sa(dp287
g5
S'black_king'
p288
sg7
S'g8'
p289
sa(dp290
g7
S'h1'
p291
sa(dp292
g5
S'white_pawn'
p293
sg7
S'h2'
p294
sa(dp295
g7
S'h3'
p296
sa(dp297
g7
S'h4'
p298
sa(dp299
g7
S'h5'
p300
sa(dp301
g7
S'h6'
p302
sa(dp303
g5
S'black_pawn'
p304
sg7
S'h7'
p305
sa(dp306
g7
S'h8'
p307
saaVHitting my knight.
p308
aa(lp309
S'22. Ng5'
p310
a(lp311
(dp312
g5
S'white_rook'
p313
sg7
S'a1'
p314
sa(dp315
g5
S'white_pawn'
p316
sg7
S'a2'
p317
sa(dp318
g7
S'a3'
p319
sa(dp320
g7
S'a4'
p321
sa(dp322
g7
S'a5'
p323
sa(dp324
g5
S'black_pawn'
p325
sg7
S'a6'
p326
sa(dp327
g7
S'a7'
p328
sa(dp329
g5
S'black_rook'
p330
sg7
S'a8'
p331
sa(dp332
g7
S'b1'
p333
sa(dp334
g5
S'white_pawn'
p335
sg7
S'b2'
p336
sa(dp337
g5
S'white_bishop'
p338
sg7
S'b3'
p339
sa(dp340
g7
S'b4'
p341
sa(dp342
g7
S'b5'
p343
sa(dp344
g7
S'b6'
p345
sa(dp346
g5
S'black_bishop'
p347
sg7
S'b7'
p348
sa(dp349
g7
S'b8'
p350
sa(dp351
g7
S'c1'
p352
sa(dp353
g7
S'c2'
p354
sa(dp355
g5
S'white_bishop'
p356
sg7
S'c3'
p357
sa(dp358
g7
S'c4'
p359
sa(dp360
g7
S'c5'
p361
sa(dp362
g7
S'c6'
p363
sa(dp364
g7
S'c7'
p365
sa(dp366
g7
S'c8'
p367
sa(dp368
g7
S'd1'
p369
sa(dp370
g7
S'd2'
p371
sa(dp372
g7
S'd3'
p373
sa(dp374
g7
S'd4'
p375
sa(dp376
g5
S'white_pawn'
p377
sg7
S'd5'
p378
sa(dp379
g5
S'black_pawn'
p380
sg7
S'd6'
p381
sa(dp382
g7
S'd7'
p383
sa(dp384
g7
S'd8'
p385
sa(dp386
g7
S'e1'
p387
sa(dp388
g7
S'e2'
p389
sa(dp390
g7
S'e3'
p391
sa(dp392
g7
S'e4'
p393
sa(dp394
g7
S'e5'
p395
sa(dp396
g7
S'e6'
p397
sa(dp398
g7
S'e7'
p399
sa(dp400
g5
S'black_knight'
p401
sg7
S'e8'
p402
sa(dp403
g7
S'f1'
p404
sa(dp405
g7
S'f2'
p406
sa(dp407
g7
S'f3'
p408
sa(dp409
g5
S'white_pawn'
p410
sg7
S'f4'
p411
sa(dp412
g5
S'black_pawn'
p413
sg7
S'f5'
p414
sa(dp415
g7
S'f6'
p416
sa(dp417
g7
S'f7'
p418
sa(dp419
g5
S'black_rook'
p420
sg7
S'f8'
p421
sa(dp422
g5
S'white_king'
p423
sg7
S'g1'
p424
sa(dp425
g5
S'white_pawn'
p426
sg7
S'g2'
p427
sa(dp428
g7
S'g3'
p429
sa(dp430
g7
S'g4'
p431
sa(dp432
g5
S'white_knight'
p433
sg7
S'g5'
p434
sa(dp435
g5
S'black_pawn'
p436
sg7
S'g6'
p437
sa(dp438
g7
S'g7'
p439
sa(dp440
g5
S'black_king'
p441
sg7
S'g8'
p442
sa(dp443
g7
S'h1'
p444
sa(dp445
g5
S'white_pawn'
p446
sg7
S'h2'
p447
sa(dp448
g7
S'h3'
p449
sa(dp450
g7
S'h4'
p451
sa(dp452
g7
S'h5'
p453
sa(dp454
g7
S'h6'
p455
sa(dp456
g5
S'black_pawn'
p457
sg7
S'h7'
p458
sa(dp459
g7
S'h8'
p460
saaVKnight advances.
p461
aa(lp462
S'8765432'
p463
a(lp464
(dp465
g7
S'a1'
p466
sa(dp467
g5
S'white_pawn'
p468
sg7
S'a2'
p469
sa(dp470
g7
S'a3'
p471
sa(dp472
g7
S'a4'
p473
sa(dp474
g7
S'a5'
p475
sa(dp476
g5
S'black_pawn'
p477
sg7
S'a6'
p478
sa(dp479
g7
S'a7'
p480
sa(dp481
g7
S'a8'
p482
sa(dp483
g7
S'b1'
p484
sa(dp485
g5
S'white_pawn'
p486
sg7
S'b2'
p487
sa(dp488
g5
S'white_bishop'
p489
sg7
S'b3'
p490
sa(dp491
g7
S'b4'
p492
sa(dp493
g7
S'b5'
p494
sa(dp495
g7
S'b6'
p496
sa(dp497
g5
S'black_bishop'
p498
sg7
S'b7'
p499
sa(dp500
g7
S'b8'
p501
sa(dp502
g7
S'c1'
p503
sa(dp504
g7
S'c2'
p505
sa(dp506
g5
S'white_bishop'
p507
sg7
S'c3'
p508
sa(dp509
g7
S'c4'
p510
sa(dp511
g5
S'black_pawn'
p512
sg7
S'c5'
p513
sa(dp514
g7
S'c6'
p515
sa(dp516
g7
S'c7'
p517
sa(dp518
g7
S'c8'
p519
sa(dp520
g5
S'white_rook'
p521
sg7
S'd1'
p522
sa(dp523
g7
S'd2'
p524
sa(dp525
g7
S'd3'
p526
sa(dp527
g7
S'd4'
p528
sa(dp529
g7
S'd5'
p530
sa(dp531
g5
S'white_pawn'
p532
sg7
S'd6'
p533
sa(dp534
g7
S'd7'
p535
sa(dp536
g5
S'black_rook'
p537
sg7
S'd8'
p538
sa(dp539
g7
S'e1'
p540
sa(dp541
g7
S'e2'
p542
sa(dp543
g7
S'e3'
p544
sa(dp545
g7
S'e4'
p546
sa(dp547
g7
S'e5'
p548
sa(dp549
g7
S'e6'
p550
sa(dp551
g7
S'e7'
p552
sa(dp553
g5
S'black_knight'
p554
sg7
S'e8'
p555
sa(dp556
g7
S'f1'
p557
sa(dp558
g7
S'f2'
p559
sa(dp560
g7
S'f3'
p561
sa(dp562
g5
S'white_pawn'
p563
sg7
S'f4'
p564
sa(dp565
g5
S'black_pawn'
p566
sg7
S'f5'
p567
sa(dp568
g7
S'f6'
p569
sa(dp570
g5
S'black_rook'
p571
sg7
S'f7'
p572
sa(dp573
g7
S'f8'
p574
sa(dp575
g5
S'white_king'
p576
sg7
S'g1'
p577
sa(dp578
g5
S'white_pawn'
p579
sg7
S'g2'
p580
sa(dp581
g7
S'g3'
p582
sa(dp583
g7
S'g4'
p584
sa(dp585
g7
S'g5'
p586
sa(dp587
g5
S'black_pawn'
p588
sg7
S'g6'
p589
sa(dp590
g7
S'g7'
p591
sa(dp592
g5
S'black_king'
p593
sg7
S'g8'
p594
sa(dp595
g7
S'h1'
p596
sa(dp597
g5
S'white_pawn'
p598
sg7
S'h2'
p599
sa(dp600
g7
S'h3'
p601
sa(dp602
g7
S'h4'
p603
sa(dp604
g7
S'h5'
p605
sa(dp606
g7
S'h6'
p607
sa(dp608
g5
S'black_pawn'
p609
sg7
S'h7'
p610
sa(dp611
g7
S'h8'
p612
saaV
p613
aa(lp614
S'8765432'
p615
a(lp616
(dp617
g5
S'white_rook'
p618
sg7
S'a1'
p619
sa(dp620
g5
S'white_pawn'
p621
sg7
S'a2'
p622
sa(dp623
g7
S'a3'
p624
sa(dp625
g7
S'a4'
p626
sa(dp627
g7
S'a5'
p628
sa(dp629
g5
S'black_pawn'
p630
sg7
S'a6'
p631
sa(dp632
g7
S'a7'
p633
sa(dp634
g5
S'black_rook'
p635
sg7
S'a8'
p636
sa(dp637
g7
S'b1'
p638
sa(dp639
g5
S'white_pawn'
p640
sg7
S'b2'
p641
sa(dp642
g5
S'white_bishop'
p643
sg7
S'b3'
p644
sa(dp645
g7
S'b4'
p646
sa(dp647
g7
S'b5'
p648
sa(dp649
g7
S'b6'
p650
sa(dp651
g5
S'black_bishop'
p652
sg7
S'b7'
p653
sa(dp654
g7
S'b8'
p655
sa(dp656
g7
S'c1'
p657
sa(dp658
g7
S'c2'
p659
sa(dp660
g5
S'white_bishop'
p661
sg7
S'c3'
p662
sa(dp663
g7
S'c4'
p664
sa(dp665
g7
S'c5'
p666
sa(dp667
g7
S'c6'
p668
sa(dp669
g7
S'c7'
p670
sa(dp671
g7
S'c8'
p672
sa(dp673
g7
S'd1'
p674
sa(dp675
g7
S'd2'
p676
sa(dp677
g7
S'd3'
p678
sa(dp679
g7
S'd4'
p680
sa(dp681
g5
S'white_pawn'
p682
sg7
S'd5'
p683
sa(dp684
g5
S'black_pawn'
p685
sg7
S'd6'
p686
sa(dp687
g7
S'd7'
p688
sa(dp689
g7
S'd8'
p690
sa(dp691
g7
S'e1'
p692
sa(dp693
g7
S'e2'
p694
sa(dp695
g7
S'e3'
p696
sa(dp697
g7
S'e4'
p698
sa(dp699
g7
S'e5'
p700
sa(dp701
g7
S'e6'
p702
sa(dp703
g7
S'e7'
p704
sa(dp705
g5
S'black_knight'
p706
sg7
S'e8'
p707
sa(dp708
g7
S'f1'
p709
sa(dp710
g7
S'f2'
p711
sa(dp712
g7
S'f3'
p713
sa(dp714
g5
S'white_pawn'
p715
sg7
S'f4'
p716
sa(dp717
g5
S'black_pawn'
p718
sg7
S'f5'
p719
sa(dp720
g7
S'f6'
p721
sa(dp722
g7
S'f7'
p723
sa(dp724
g5
S'black_rook'
p725
sg7
S'f8'
p726
sa(dp727
g5
S'white_king'
p728
sg7
S'g1'
p729
sa(dp730
g5
S'white_pawn'
p731
sg7
S'g2'
p732
sa(dp733
g7
S'g3'
p734
sa(dp735
g7
S'g4'
p736
sa(dp737
g5
S'white_knight'
p738
sg7
S'g5'
p739
sa(dp740
g5
S'black_pawn'
p741
sg7
S'g6'
p742
sa(dp743
g7
S'g7'
p744
sa(dp745
g5
S'black_king'
p746
sg7
S'g8'
p747
sa(dp748
g7
S'h1'
p749
sa(dp750
g5
S'white_pawn'
p751
sg7
S'h2'
p752
sa(dp753
g7
S'h3'
p754
sa(dp755
g7
S'h4'
p756
sa(dp757
g7
S'h5'
p758
sa(dp759
g5
S'black_pawn'
p760
sg7
S'h6'
p761
sa(dp762
g7
S'h7'
p763
sa(dp764
g7
S'h8'
p765
saag613
aa(lp766
S'8765432'
p767
a(lp768
(dp769
g5
S'white_rook'
p770
sg7
S'a1'
p771
sa(dp772
g5
S'white_pawn'
p773
sg7
S'a2'
p774
sa(dp775
g7
S'a3'
p776
sa(dp777
g7
S'a4'
p778
sa(dp779
g7
S'a5'
p780
sa(dp781
g5
S'black_pawn'
p782
sg7
S'a6'
p783
sa(dp784
g7
S'a7'
p785
sa(dp786
g5
S'black_rook'
p787
sg7
S'a8'
p788
sa(dp789
g7
S'b1'
p790
sa(dp791
g5
S'white_pawn'
p792
sg7
S'b2'
p793
sa(dp794
g5
S'white_bishop'
p795
sg7
S'b3'
p796
sa(dp797
g7
S'b4'
p798
sa(dp799
g7
S'b5'
p800
sa(dp801
g7
S'b6'
p802
sa(dp803
g5
S'black_bishop'
p804
sg7
S'b7'
p805
sa(dp806
g7
S'b8'
p807
sa(dp808
g7
S'c1'
p809
sa(dp810
g7
S'c2'
p811
sa(dp812
g5
S'white_bishop'
p813
sg7
S'c3'
p814
sa(dp815
g7
S'c4'
p816
sa(dp817
g7
S'c5'
p818
sa(dp819
g7
S'c6'
p820
sa(dp821
g7
S'c7'
p822
sa(dp823
g7
S'c8'
p824
sa(dp825
g7
S'd1'
p826
sa(dp827
g7
S'd2'
p828
sa(dp829
g7
S'd3'
p830
sa(dp831
g7
S'd4'
p832
sa(dp833
g5
S'white_pawn'
p834
sg7
S'd5'
p835
sa(dp836
g5
S'black_pawn'
p837
sg7
S'd6'
p838
sa(dp839
g7
S'd7'
p840
sa(dp841
g7
S'd8'
p842
sa(dp843
g7
S'e1'
p844
sa(dp845
g7
S'e2'
p846
sa(dp847
g7
S'e3'
p848
sa(dp849
g7
S'e4'
p850
sa(dp851
g7
S'e5'
p852
sa(dp853
g5
S'white_knight'
p854
sg7
S'e6'
p855
sa(dp856
g7
S'e7'
p857
sa(dp858
g5
S'black_knight'
p859
sg7
S'e8'
p860
sa(dp861
g7
S'f1'
p862
sa(dp863
g7
S'f2'
p864
sa(dp865
g7
S'f3'
p866
sa(dp867
g5
S'white_pawn'
p868
sg7
S'f4'
p869
sa(dp870
g5
S'black_pawn'
p871
sg7
S'f5'
p872
sa(dp873
g7
S'f6'
p874
sa(dp875
g7
S'f7'
p876
sa(dp877
g5
S'black_rook'
p878
sg7
S'f8'
p879
sa(dp880
g5
S'white_king'
p881
sg7
S'g1'
p882
sa(dp883
g5
S'white_pawn'
p884
sg7
S'g2'
p885
sa(dp886
g7
S'g3'
p887
sa(dp888
g7
S'g4'
p889
sa(dp890
g7
S'g5'
p891
sa(dp892
g5
S'black_pawn'
p893
sg7
S'g6'
p894
sa(dp895
g7
S'g7'
p896
sa(dp897
g5
S'black_king'
p898
sg7
S'g8'
p899
sa(dp900
g7
S'h1'
p901
sa(dp902
g5
S'white_pawn'
p903
sg7
S'h2'
p904
sa(dp905
g7
S'h3'
p906
sa(dp907
g7
S'h4'
p908
sa(dp909
g7
S'h5'
p910
sa(dp911
g5
S'black_pawn'
p912
sg7
S'h6'
p913
sa(dp914
g7
S'h7'
p915
sa(dp916
g7
S'h8'
p917
saag613
aa(lp918
S'8765432'
p919
a(lp920
(dp921
g5
S'white_rook'
p922
sg7
S'a1'
p923
sa(dp924
g5
S'white_pawn'
p925
sg7
S'a2'
p926
sa(dp927
g7
S'a3'
p928
sa(dp929
g7
S'a4'
p930
sa(dp931
g7
S'a5'
p932
sa(dp933
g5
S'black_pawn'
p934
sg7
S'a6'
p935
sa(dp936
g7
S'a7'
p937
sa(dp938
g5
S'black_rook'
p939
sg7
S'a8'
p940
sa(dp941
g7
S'b1'
p942
sa(dp943
g5
S'white_pawn'
p944
sg7
S'b2'
p945
sa(dp946
g5
S'white_bishop'
p947
sg7
S'b3'
p948
sa(dp949
g7
S'b4'
p950
sa(dp951
g7
S'b5'
p952
sa(dp953
g7
S'b6'
p954
sa(dp955
g5
S'black_bishop'
p956
sg7
S'b7'
p957
sa(dp958
g7
S'b8'
p959
sa(dp960
g7
S'c1'
p961
sa(dp962
g7
S'c2'
p963
sa(dp964
g5
S'white_bishop'
p965
sg7
S'c3'
p966
sa(dp967
g7
S'c4'
p968
sa(dp969
g7
S'c5'
p970
sa(dp971
g7
S'c6'
p972
sa(dp973
g7
S'c7'
p974
sa(dp975
g7
S'c8'
p976
sa(dp977
g7
S'd1'
p978
sa(dp979
g7
S'd2'
p980
sa(dp981
g7
S'd3'
p982
sa(dp983
g7
S'd4'
p984
sa(dp985
g5
S'white_pawn'
p986
sg7
S'd5'
p987
sa(dp988
g5
S'black_pawn'
p989
sg7
S'd6'
p990
sa(dp991
g7
S'd7'
p992
sa(dp993
g7
S'd8'
p994
sa(dp995
g7
S'e1'
p996
sa(dp997
g7
S'e2'
p998
sa(dp999
g7
S'e3'
p1000
sa(dp1001
g7
S'e4'
p1002
sa(dp1003
g7
S'e5'
p1004
sa(dp1005
g5
S'white_knight'
p1006
sg7
S'e6'
p1007
sa(dp1008
g7
S'e7'
p1009
sa(dp1010
g5
S'black_knight'
p1011
sg7
S'e8'
p1012
sa(dp1013
g7
S'f1'
p1014
sa(dp1015
g7
S'f2'
p1016
sa(dp1017
g7
S'f3'
p1018
sa(dp1019
g5
S'white_pawn'
p1020
sg7
S'f4'
p1021
sa(dp1022
g5
S'black_pawn'
p1023
sg7
S'f5'
p1024
sa(dp1025
g7
S'f6'
p1026
sa(dp1027
g5
S'black_rook'
p1028
sg7
S'f7'
p1029
sa(dp1030
g7
S'f8'
p1031
sa(dp1032
g5
S'white_king'
p1033
sg7
S'g1'
p1034
sa(dp1035
g5
S'white_pawn'
p1036
sg7
S'g2'
p1037
sa(dp1038
g7
S'g3'
p1039
sa(dp1040
g7
S'g4'
p1041
sa(dp1042
g7
S'g5'
p1043
sa(dp1044
g5
S'black_pawn'
p1045
sg7
S'g6'
p1046
sa(dp1047
g7
S'g7'
p1048
sa(dp1049
g5
S'black_king'
p1050
sg7
S'g8'
p1051
sa(dp1052
g7
S'h1'
p1053
sa(dp1054
g5
S'white_pawn'
p1055
sg7
S'h2'
p1056
sa(dp1057
g7
S'h3'
p1058
sa(dp1059
g7
S'h4'
p1060
sa(dp1061
g7
S'h5'
p1062
sa(dp1063
g5
S'black_pawn'
p1064
sg7
S'h6'
p1065
sa(dp1066
g7
S'h7'
p1067
sa(dp1068
g7
S'h8'
p1069
saag613
aa(lp1070
S'8765432'
p1071
a(lp1072
(dp1073
g5
S'white_rook'
p1074
sg7
S'a1'
p1075
sa(dp1076
g5
S'white_pawn'
p1077
sg7
S'a2'
p1078
sa(dp1079
g7
S'a3'
p1080
sa(dp1081
g7
S'a4'
p1082
sa(dp1083
g7
S'a5'
p1084
sa(dp1085
g5
S'black_pawn'
p1086
sg7
S'a6'
p1087
sa(dp1088
g7
S'a7'
p1089
sa(dp1090
g5
S'black_rook'
p1091
sg7
S'a8'
p1092
sa(dp1093
g7
S'b1'
p1094
sa(dp1095
g5
S'white_pawn'
p1096
sg7
S'b2'
p1097
sa(dp1098
g5
S'white_bishop'
p1099
sg7
S'b3'
p1100
sa(dp1101
g5
S'white_bishop'
p1102
sg7
S'b4'
p1103
sa(dp1104
g7
S'b5'
p1105
sa(dp1106
g7
S'b6'
p1107
sa(dp1108
g5
S'black_bishop'
p1109
sg7
S'b7'
p1110
sa(dp1111
g7
S'b8'
p1112
sa(dp1113
g7
S'c1'
p1114
sa(dp1115
g7
S'c2'
p1116
sa(dp1117
g7
S'c3'
p1118
sa(dp1119
g7
S'c4'
p1120
sa(dp1121
g7
S'c5'
p1122
sa(dp1123
g7
S'c6'
p1124
sa(dp1125
g7
S'c7'
p1126
sa(dp1127
g7
S'c8'
p1128
sa(dp1129
g7
S'd1'
p1130
sa(dp1131
g7
S'd2'
p1132
sa(dp1133
g7
S'd3'
p1134
sa(dp1135
g7
S'd4'
p1136
sa(dp1137
g5
S'white_pawn'
p1138
sg7
S'd5'
p1139
sa(dp1140
g5
S'black_pawn'
p1141
sg7
S'd6'
p1142
sa(dp1143
g7
S'd7'
p1144
sa(dp1145
g7
S'd8'
p1146
sa(dp1147
g7
S'e1'
p1148
sa(dp1149
g7
S'e2'
p1150
sa(dp1151
g7
S'e3'
p1152
sa(dp1153
g7
S'e4'
p1154
sa(dp1155
g7
S'e5'
p1156
sa(dp1157
g5
S'white_knight'
p1158
sg7
S'e6'
p1159
sa(dp1160
g7
S'e7'
p1161
sa(dp1162
g5
S'black_knight'
p1163
sg7
S'e8'
p1164
sa(dp1165
g7
S'f1'
p1166
sa(dp1167
g7
S'f2'
p1168
sa(dp1169
g7
S'f3'
p1170
sa(dp1171
g5
S'white_pawn'
p1172
sg7
S'f4'
p1173
sa(dp1174
g5
S'black_pawn'
p1175
sg7
S'f5'
p1176
sa(dp1177
g7
S'f6'
p1178
sa(dp1179
g5
S'black_rook'
p1180
sg7
S'f7'
p1181
sa(dp1182
g7
S'f8'
p1183
sa(dp1184
g5
S'white_king'
p1185
sg7
S'g1'
p1186
sa(dp1187
g5
S'white_pawn'
p1188
sg7
S'g2'
p1189
sa(dp1190
g7
S'g3'
p1191
sa(dp1192
g7
S'g4'
p1193
sa(dp1194
g7
S'g5'
p1195
sa(dp1196
g5
S'black_pawn'
p1197
sg7
S'g6'
p1198
sa(dp1199
g7
S'g7'
p1200
sa(dp1201
g5
S'black_king'
p1202
sg7
S'g8'
p1203
sa(dp1204
g7
S'h1'
p1205
sa(dp1206
g5
S'white_pawn'
p1207
sg7
S'h2'
p1208
sa(dp1209
g7
S'h3'
p1210
sa(dp1211
g7
S'h4'
p1212
sa(dp1213
g7
S'h5'
p1214
sa(dp1215
g5
S'black_pawn'
p1216
sg7
S'h6'
p1217
sa(dp1218
g7
S'h7'
p1219
sa(dp1220
g7
S'h8'
p1221
saag613
aa(lp1222
S'8765432'
p1223
a(lp1224
(dp1225
g5
S'white_rook'
p1226
sg7
S'a1'
p1227
sa(dp1228
g5
S'white_pawn'
p1229
sg7
S'a2'
p1230
sa(dp1231
g7
S'a3'
p1232
sa(dp1233
g7
S'a4'
p1234
sa(dp1235
g5
S'black_pawn'
p1236
sg7
S'a5'
p1237
sa(dp1238
g7
S'a6'
p1239
sa(dp1240
g7
S'a7'
p1241
sa(dp1242
g5
S'black_rook'
p1243
sg7
S'a8'
p1244
sa(dp1245
g7
S'b1'
p1246
sa(dp1247
g5
S'white_pawn'
p1248
sg7
S'b2'
p1249
sa(dp1250
g5
S'white_bishop'
p1251
sg7
S'b3'
p1252
sa(dp1253
g5
S'white_bishop'
p1254
sg7
S'b4'
p1255
sa(dp1256
g7
S'b5'
p1257
sa(dp1258
g7
S'b6'
p1259
sa(dp1260
g5
S'black_bishop'
p1261
sg7
S'b7'
p1262
sa(dp1263
g7
S'b8'
p1264
sa(dp1265
g7
S'c1'
p1266
sa(dp1267
g7
S'c2'
p1268
sa(dp1269
g7
S'c3'
p1270
sa(dp1271
g7
S'c4'
p1272
sa(dp1273
g7
S'c5'
p1274
sa(dp1275
g7
S'c6'
p1276
sa(dp1277
g7
S'c7'
p1278
sa(dp1279
g7
S'c8'
p1280
sa(dp1281
g7
S'd1'
p1282
sa(dp1283
g7
S'd2'
p1284
sa(dp1285
g7
S'd3'
p1286
sa(dp1287
g7
S'd4'
p1288
sa(dp1289
g5
S'white_pawn'
p1290
sg7
S'd5'
p1291
sa(dp1292
g5
S'black_pawn'
p1293
sg7
S'd6'
p1294
sa(dp1295
g7
S'd7'
p1296
sa(dp1297
g7
S'd8'
p1298
sa(dp1299
g7
S'e1'
p1300
sa(dp1301
g7
S'e2'
p1302
sa(dp1303
g7
S'e3'
p1304
sa(dp1305
g7
S'e4'
p1306
sa(dp1307
g7
S'e5'
p1308
sa(dp1309
g5
S'white_knight'
p1310
sg7
S'e6'
p1311
sa(dp1312
g7
S'e7'
p1313
sa(dp1314
g5
S'black_knight'
p1315
sg7
S'e8'
p1316
sa(dp1317
g7
S'f1'
p1318
sa(dp1319
g7
S'f2'
p1320
sa(dp1321
g7
S'f3'
p1322
sa(dp1323
g5
S'white_pawn'
p1324
sg7
S'f4'
p1325
sa(dp1326
g5
S'black_pawn'
p1327
sg7
S'f5'
p1328
sa(dp1329
g7
S'f6'
p1330
sa(dp1331
g5
S'black_rook'
p1332
sg7
S'f7'
p1333
sa(dp1334
g7
S'f8'
p1335
sa(dp1336
g5
S'white_king'
p1337
sg7
S'g1'
p1338
sa(dp1339
g5
S'white_pawn'
p1340
sg7
S'g2'
p1341
sa(dp1342
g7
S'g3'
p1343
sa(dp1344
g7
S'g4'
p1345
sa(dp1346
g7
S'g5'
p1347
sa(dp1348
g5
S'black_pawn'
p1349
sg7
S'g6'
p1350
sa(dp1351
g7
S'g7'
p1352
sa(dp1353
g5
S'black_king'
p1354
sg7
S'g8'
p1355
sa(dp1356
g7
S'h1'
p1357
sa(dp1358
g5
S'white_pawn'
p1359
sg7
S'h2'
p1360
sa(dp1361
g7
S'h3'
p1362
sa(dp1363
g7
S'h4'
p1364
sa(dp1365
g7
S'h5'
p1366
sa(dp1367
g5
S'black_pawn'
p1368
sg7
S'h6'
p1369
sa(dp1370
g7
S'h7'
p1371
sa(dp1372
g7
S'h8'
p1373
saag613
aa(lp1374
S'8765432'
p1375
a(lp1376
(dp1377
g5
S'white_rook'
p1378
sg7
S'a1'
p1379
sa(dp1380
g5
S'white_pawn'
p1381
sg7
S'a2'
p1382
sa(dp1383
g5
S'white_bishop'
p1384
sg7
S'a3'
p1385
sa(dp1386
g7
S'a4'
p1387
sa(dp1388
g5
S'black_pawn'
p1389
sg7
S'a5'
p1390
sa(dp1391
g7
S'a6'
p1392
sa(dp1393
g7
S'a7'
p1394
sa(dp1395
g5
S'black_rook'
p1396
sg7
S'a8'
p1397
sa(dp1398
g7
S'b1'
p1399
sa(dp1400
g5
S'white_pawn'
p1401
sg7
S'b2'
p1402
sa(dp1403
g5
S'white_bishop'
p1404
sg7
S'b3'
p1405
sa(dp1406
g7
S'b4'
p1407
sa(dp1408
g7
S'b5'
p1409
sa(dp1410
g7
S'b6'
p1411
sa(dp1412
g5
S'black_bishop'
p1413
sg7
S'b7'
p1414
sa(dp1415
g7
S'b8'
p1416
sa(dp1417
g7
S'c1'
p1418
sa(dp1419
g7
S'c2'
p1420
sa(dp1421
g7
S'c3'
p1422
sa(dp1423
g7
S'c4'
p1424
sa(dp1425
g7
S'c5'
p1426
sa(dp1427
g7
S'c6'
p1428
sa(dp1429
g7
S'c7'
p1430
sa(dp1431
g7
S'c8'
p1432
sa(dp1433
g7
S'd1'
p1434
sa(dp1435
g7
S'd2'
p1436
sa(dp1437
g7
S'd3'
p1438
sa(dp1439
g7
S'd4'
p1440
sa(dp1441
g5
S'white_pawn'
p1442
sg7
S'd5'
p1443
sa(dp1444
g5
S'black_pawn'
p1445
sg7
S'd6'
p1446
sa(dp1447
g7
S'd7'
p1448
sa(dp1449
g7
S'd8'
p1450
sa(dp1451
g7
S'e1'
p1452
sa(dp1453
g7
S'e2'
p1454
sa(dp1455
g7
S'e3'
p1456
sa(dp1457
g7
S'e4'
p1458
sa(dp1459
g7
S'e5'
p1460
sa(dp1461
g5
S'white_knight'
p1462
sg7
S'e6'
p1463
sa(dp1464
g7
S'e7'
p1465
sa(dp1466
g5
S'black_knight'
p1467
sg7
S'e8'
p1468
sa(dp1469
g7
S'f1'
p1470
sa(dp1471
g7
S'f2'
p1472
sa(dp1473
g7
S'f3'
p1474
sa(dp1475
g5
S'white_pawn'
p1476
sg7
S'f4'
p1477
sa(dp1478
g5
S'black_pawn'
p1479
sg7
S'f5'
p1480
sa(dp1481
g7
S'f6'
p1482
sa(dp1483
g5
S'black_rook'
p1484
sg7
S'f7'
p1485
sa(dp1486
g7
S'f8'
p1487
sa(dp1488
g5
S'white_king'
p1489
sg7
S'g1'
p1490
sa(dp1491
g5
S'white_pawn'
p1492
sg7
S'g2'
p1493
sa(dp1494
g7
S'g3'
p1495
sa(dp1496
g7
S'g4'
p1497
sa(dp1498
g7
S'g5'
p1499
sa(dp1500
g5
S'black_pawn'
p1501
sg7
S'g6'
p1502
sa(dp1503
g7
S'g7'
p1504
sa(dp1505
g5
S'black_king'
p1506
sg7
S'g8'
p1507
sa(dp1508
g7
S'h1'
p1509
sa(dp1510
g5
S'white_pawn'
p1511
sg7
S'h2'
p1512
sa(dp1513
g7
S'h3'
p1514
sa(dp1515
g7
S'h4'
p1516
sa(dp1517
g7
S'h5'
p1518
sa(dp1519
g5
S'black_pawn'
p1520
sg7
S'h6'
p1521
sa(dp1522
g7
S'h7'
p1523
sa(dp1524
g7
S'h8'
p1525
saag613
aa(lp1526
S'8765432'
p1527
a(lp1528
(dp1529
g5
S'white_rook'
p1530
sg7
S'a1'
p1531
sa(dp1532
g5
S'white_pawn'
p1533
sg7
S'a2'
p1534
sa(dp1535
g5
S'white_bishop'
p1536
sg7
S'a3'
p1537
sa(dp1538
g5
S'black_pawn'
p1539
sg7
S'a4'
p1540
sa(dp1541
g7
S'a5'
p1542
sa(dp1543
g7
S'a6'
p1544
sa(dp1545
g7
S'a7'
p1546
sa(dp1547
g5
S'black_rook'
p1548
sg7
S'a8'
p1549
sa(dp1550
g7
S'b1'
p1551
sa(dp1552
g5
S'white_pawn'
p1553
sg7
S'b2'
p1554
sa(dp1555
g5
S'white_bishop'
p1556
sg7
S'b3'
p1557
sa(dp1558
g7
S'b4'
p1559
sa(dp1560
g7
S'b5'
p1561
sa(dp1562
g7
S'b6'
p1563
sa(dp1564
g5
S'black_bishop'
p1565
sg7
S'b7'
p1566
sa(dp1567
g7
S'b8'
p1568
sa(dp1569
g7
S'c1'
p1570
sa(dp1571
g7
S'c2'
p1572
sa(dp1573
g7
S'c3'
p1574
sa(dp1575
g7
S'c4'
p1576
sa(dp1577
g7
S'c5'
p1578
sa(dp1579
g7
S'c6'
p1580
sa(dp1581
g7
S'c7'
p1582
sa(dp1583
g7
S'c8'
p1584
sa(dp1585
g7
S'd1'
p1586
sa(dp1587
g7
S'd2'
p1588
sa(dp1589
g7
S'd3'
p1590
sa(dp1591
g7
S'd4'
p1592
sa(dp1593
g5
S'white_pawn'
p1594
sg7
S'd5'
p1595
sa(dp1596
g5
S'black_pawn'
p1597
sg7
S'd6'
p1598
sa(dp1599
g7
S'd7'
p1600
sa(dp1601
g7
S'd8'
p1602
sa(dp1603
g7
S'e1'
p1604
sa(dp1605
g7
S'e2'
p1606
sa(dp1607
g7
S'e3'
p1608
sa(dp1609
g7
S'e4'
p1610
sa(dp1611
g7
S'e5'
p1612
sa(dp1613
g5
S'white_knight'
p1614
sg7
S'e6'
p1615
sa(dp1616
g7
S'e7'
p1617
sa(dp1618
g5
S'black_knight'
p1619
sg7
S'e8'
p1620
sa(dp1621
g7
S'f1'
p1622
sa(dp1623
g7
S'f2'
p1624
sa(dp1625
g7
S'f3'
p1626
sa(dp1627
g5
S'white_pawn'
p1628
sg7
S'f4'
p1629
sa(dp1630
g5
S'black_pawn'
p1631
sg7
S'f5'
p1632
sa(dp1633
g7
S'f6'
p1634
sa(dp1635
g5
S'black_rook'
p1636
sg7
S'f7'
p1637
sa(dp1638
g7
S'f8'
p1639
sa(dp1640
g5
S'white_king'
p1641
sg7
S'g1'
p1642
sa(dp1643
g5
S'white_pawn'
p1644
sg7
S'g2'
p1645
sa(dp1646
g7
S'g3'
p1647
sa(dp1648
g7
S'g4'
p1649
sa(dp1650
g7
S'g5'
p1651
sa(dp1652
g5
S'black_pawn'
p1653
sg7
S'g6'
p1654
sa(dp1655
g7
S'g7'
p1656
sa(dp1657
g5
S'black_king'
p1658
sg7
S'g8'
p1659
sa(dp1660
g7
S'h1'
p1661
sa(dp1662
g5
S'white_pawn'
p1663
sg7
S'h2'
p1664
sa(dp1665
g7
S'h3'
p1666
sa(dp1667
g7
S'h4'
p1668
sa(dp1669
g7
S'h5'
p1670
sa(dp1671
g5
S'black_pawn'
p1672
sg7
S'h6'
p1673
sa(dp1674
g7
S'h7'
p1675
sa(dp1676
g7
S'h8'
p1677
saag613
aa(lp1678
S'8765432'
p1679
a(lp1680
(dp1681
g5
S'white_rook'
p1682
sg7
S'a1'
p1683
sa(dp1684
g5
S'white_pawn'
p1685
sg7
S'a2'
p1686
sa(dp1687
g5
S'white_bishop'
p1688
sg7
S'a3'
p1689
sa(dp1690
g5
S'black_pawn'
p1691
sg7
S'a4'
p1692
sa(dp1693
g7
S'a5'
p1694
sa(dp1695
g7
S'a6'
p1696
sa(dp1697
g7
S'a7'
p1698
sa(dp1699
g5
S'black_rook'
p1700
sg7
S'a8'
p1701
sa(dp1702
g7
S'b1'
p1703
sa(dp1704
g5
S'white_pawn'
p1705
sg7
S'b2'
p1706
sa(dp1707
g7
S'b3'
p1708
sa(dp1709
g7
S'b4'
p1710
sa(dp1711
g7
S'b5'
p1712
sa(dp1713
g7
S'b6'
p1714
sa(dp1715
g5
S'black_bishop'
p1716
sg7
S'b7'
p1717
sa(dp1718
g7
S'b8'
p1719
sa(dp1720
g7
S'c1'
p1721
sa(dp1722
g7
S'c2'
p1723
sa(dp1724
g7
S'c3'
p1725
sa(dp1726
g5
S'white_bishop'
p1727
sg7
S'c4'
p1728
sa(dp1729
g7
S'c5'
p1730
sa(dp1731
g7
S'c6'
p1732
sa(dp1733
g7
S'c7'
p1734
sa(dp1735
g7
S'c8'
p1736
sa(dp1737
g7
S'd1'
p1738
sa(dp1739
g7
S'd2'
p1740
sa(dp1741
g7
S'd3'
p1742
sa(dp1743
g7
S'd4'
p1744
sa(dp1745
g5
S'white_pawn'
p1746
sg7
S'd5'
p1747
sa(dp1748
g5
S'black_pawn'
p1749
sg7
S'd6'
p1750
sa(dp1751
g7
S'd7'
p1752
sa(dp1753
g7
S'd8'
p1754
sa(dp1755
g7
S'e1'
p1756
sa(dp1757
g7
S'e2'
p1758
sa(dp1759
g7
S'e3'
p1760
sa(dp1761
g7
S'e4'
p1762
sa(dp1763
g7
S'e5'
p1764
sa(dp1765
g5
S'white_knight'
p1766
sg7
S'e6'
p1767
sa(dp1768
g7
S'e7'
p1769
sa(dp1770
g5
S'black_knight'
p1771
sg7
S'e8'
p1772
sa(dp1773
g7
S'f1'
p1774
sa(dp1775
g7
S'f2'
p1776
sa(dp1777
g7
S'f3'
p1778
sa(dp1779
g5
S'white_pawn'
p1780
sg7
S'f4'
p1781
sa(dp1782
g5
S'black_pawn'
p1783
sg7
S'f5'
p1784
sa(dp1785
g7
S'f6'
p1786
sa(dp1787
g5
S'black_rook'
p1788
sg7
S'f7'
p1789
sa(dp1790
g7
S'f8'
p1791
sa(dp1792
g5
S'white_king'
p1793
sg7
S'g1'
p1794
sa(dp1795
g5
S'white_pawn'
p1796
sg7
S'g2'
p1797
sa(dp1798
g7
S'g3'
p1799
sa(dp1800
g7
S'g4'
p1801
sa(dp1802
g7
S'g5'
p1803
sa(dp1804
g5
S'black_pawn'
p1805
sg7
S'g6'
p1806
sa(dp1807
g7
S'g7'
p1808
sa(dp1809
g5
S'black_king'
p1810
sg7
S'g8'
p1811
sa(dp1812
g7
S'h1'
p1813
sa(dp1814
g5
S'white_pawn'
p1815
sg7
S'h2'
p1816
sa(dp1817
g7
S'h3'
p1818
sa(dp1819
g7
S'h4'
p1820
sa(dp1821
g7
S'h5'
p1822
sa(dp1823
g5
S'black_pawn'
p1824
sg7
S'h6'
p1825
sa(dp1826
g7
S'h7'
p1827
sa(dp1828
g7
S'h8'
p1829
saag613
aa(lp1830
S'8765432'
p1831
a(lp1832
(dp1833
g5
S'white_rook'
p1834
sg7
S'a1'
p1835
sa(dp1836
g5
S'white_pawn'
p1837
sg7
S'a2'
p1838
sa(dp1839
g5
S'white_bishop'
p1840
sg7
S'a3'
p1841
sa(dp1842
g5
S'black_pawn'
p1843
sg7
S'a4'
p1844
sa(dp1845
g7
S'a5'
p1846
sa(dp1847
g5
S'black_bishop'
p1848
sg7
S'a6'
p1849
sa(dp1850
g7
S'a7'
p1851
sa(dp1852
g5
S'black_rook'
p1853
sg7
S'a8'
p1854
sa(dp1855
g7
S'b1'
p1856
sa(dp1857
g5
S'white_pawn'
p1858
sg7
S'b2'
p1859
sa(dp1860
g7
S'b3'
p1861
sa(dp1862
g7
S'b4'
p1863
sa(dp1864
g7
S'b5'
p1865
sa(dp1866
g7
S'b6'
p1867
sa(dp1868
g7
S'b7'
p1869
sa(dp1870
g7
S'b8'
p1871
sa(dp1872
g7
S'c1'
p1873
sa(dp1874
g7
S'c2'
p1875
sa(dp1876
g7
S'c3'
p1877
sa(dp1878
g5
S'white_bishop'
p1879
sg7
S'c4'
p1880
sa(dp1881
g7
S'c5'
p1882
sa(dp1883
g7
S'c6'
p1884
sa(dp1885
g7
S'c7'
p1886
sa(dp1887
g7
S'c8'
p1888
sa(dp1889
g7
S'd1'
p1890
sa(dp1891
g7
S'd2'
p1892
sa(dp1893
g7
S'd3'
p1894
sa(dp1895
g7
S'd4'
p1896
sa(dp1897
g5
S'white_pawn'
p1898
sg7
S'd5'
p1899
sa(dp1900
g5
S'black_pawn'
p1901
sg7
S'd6'
p1902
sa(dp1903
g7
S'd7'
p1904
sa(dp1905
g7
S'd8'
p1906
sa(dp1907
g7
S'e1'
p1908
sa(dp1909
g7
S'e2'
p1910
sa(dp1911
g7
S'e3'
p1912
sa(dp1913
g7
S'e4'
p1914
sa(dp1915
g7
S'e5'
p1916
sa(dp1917
g5
S'white_knight'
p1918
sg7
S'e6'
p1919
sa(dp1920
g7
S'e7'
p1921
sa(dp1922
g5
S'black_knight'
p1923
sg7
S'e8'
p1924
sa(dp1925
g7
S'f1'
p1926
sa(dp1927
g7
S'f2'
p1928
sa(dp1929
g7
S'f3'
p1930
sa(dp1931
g5
S'white_pawn'
p1932
sg7
S'f4'
p1933
sa(dp1934
g5
S'black_pawn'
p1935
sg7
S'f5'
p1936
sa(dp1937
g7
S'f6'
p1938
sa(dp1939
g5
S'black_rook'
p1940
sg7
S'f7'
p1941
sa(dp1942
g7
S'f8'
p1943
sa(dp1944
g5
S'white_king'
p1945
sg7
S'g1'
p1946
sa(dp1947
g5
S'white_pawn'
p1948
sg7
S'g2'
p1949
sa(dp1950
g7
S'g3'
p1951
sa(dp1952
g7
S'g4'
p1953
sa(dp1954
g7
S'g5'
p1955
sa(dp1956
g5
S'black_pawn'
p1957
sg7
S'g6'
p1958
sa(dp1959
g7
S'g7'
p1960
sa(dp1961
g5
S'black_king'
p1962
sg7
S'g8'
p1963
sa(dp1964
g7
S'h1'
p1965
sa(dp1966
g5
S'white_pawn'
p1967
sg7
S'h2'
p1968
sa(dp1969
g7
S'h3'
p1970
sa(dp1971
g7
S'h4'
p1972
sa(dp1973
g7
S'h5'
p1974
sa(dp1975
g5
S'black_pawn'
p1976
sg7
S'h6'
p1977
sa(dp1978
g7
S'h7'
p1979
sa(dp1980
g7
S'h8'
p1981
saag613
aa(lp1982
S'8765432'
p1983
a(lp1984
(dp1985
g5
S'white_rook'
p1986
sg7
S'a1'
p1987
sa(dp1988
g5
S'white_pawn'
p1989
sg7
S'a2'
p1990
sa(dp1991
g5
S'white_bishop'
p1992
sg7
S'a3'
p1993
sa(dp1994
g5
S'black_pawn'
p1995
sg7
S'a4'
p1996
sa(dp1997
g7
S'a5'
p1998
sa(dp1999
g5
S'white_bishop'
p2000
sg7
S'a6'
p2001
sa(dp2002
g7
S'a7'
p2003
sa(dp2004
g5
S'black_rook'
p2005
sg7
S'a8'
p2006
sa(dp2007
g7
S'b1'
p2008
sa(dp2009
g5
S'white_pawn'
p2010
sg7
S'b2'
p2011
sa(dp2012
g7
S'b3'
p2013
sa(dp2014
g7
S'b4'
p2015
sa(dp2016
g7
S'b5'
p2017
sa(dp2018
g7
S'b6'
p2019
sa(dp2020
g7
S'b7'
p2021
sa(dp2022
g7
S'b8'
p2023
sa(dp2024
g7
S'c1'
p2025
sa(dp2026
g7
S'c2'
p2027
sa(dp2028
g7
S'c3'
p2029
sa(dp2030
g7
S'c4'
p2031
sa(dp2032
g7
S'c5'
p2033
sa(dp2034
g7
S'c6'
p2035
sa(dp2036
g7
S'c7'
p2037
sa(dp2038
g7
S'c8'
p2039
sa(dp2040
g7
S'd1'
p2041
sa(dp2042
g7
S'd2'
p2043
sa(dp2044
g7
S'd3'
p2045
sa(dp2046
g7
S'd4'
p2047
sa(dp2048
g5
S'white_pawn'
p2049
sg7
S'd5'
p2050
sa(dp2051
g5
S'black_pawn'
p2052
sg7
S'd6'
p2053
sa(dp2054
g7
S'd7'
p2055
sa(dp2056
g7
S'd8'
p2057
sa(dp2058
g7
S'e1'
p2059
sa(dp2060
g7
S'e2'
p2061
sa(dp2062
g7
S'e3'
p2063
sa(dp2064
g7
S'e4'
p2065
sa(dp2066
g7
S'e5'
p2067
sa(dp2068
g5
S'white_knight'
p2069
sg7
S'e6'
p2070
sa(dp2071
g7
S'e7'
p2072
sa(dp2073
g5
S'black_knight'
p2074
sg7
S'e8'
p2075
sa(dp2076
g7
S'f1'
p2077
sa(dp2078
g7
S'f2'
p2079
sa(dp2080
g7
S'f3'
p2081
sa(dp2082
g5
S'white_pawn'
p2083
sg7
S'f4'
p2084
sa(dp2085
g5
S'black_pawn'
p2086
sg7
S'f5'
p2087
sa(dp2088
g7
S'f6'
p2089
sa(dp2090
g5
S'black_rook'
p2091
sg7
S'f7'
p2092
sa(dp2093
g7
S'f8'
p2094
sa(dp2095
g5
S'white_king'
p2096
sg7
S'g1'
p2097
sa(dp2098
g5
S'white_pawn'
p2099
sg7
S'g2'
p2100
sa(dp2101
g7
S'g3'
p2102
sa(dp2103
g7
S'g4'
p2104
sa(dp2105
g7
S'g5'
p2106
sa(dp2107
g5
S'black_pawn'
p2108
sg7
S'g6'
p2109
sa(dp2110
g7
S'g7'
p2111
sa(dp2112
g5
S'black_king'
p2113
sg7
S'g8'
p2114
sa(dp2115
g7
S'h1'
p2116
sa(dp2117
g5
S'white_pawn'
p2118
sg7
S'h2'
p2119
sa(dp2120
g7
S'h3'
p2121
sa(dp2122
g7
S'h4'
p2123
sa(dp2124
g7
S'h5'
p2125
sa(dp2126
g5
S'black_pawn'
p2127
sg7
S'h6'
p2128
sa(dp2129
g7
S'h7'
p2130
sa(dp2131
g7
S'h8'
p2132
saag613
aa(lp2133
S'8765432'
p2134
a(lp2135
(dp2136
g5
S'white_rook'
p2137
sg7
S'a1'
p2138
sa(dp2139
g5
S'white_pawn'
p2140
sg7
S'a2'
p2141
sa(dp2142
g5
S'white_bishop'
p2143
sg7
S'a3'
p2144
sa(dp2145
g5
S'black_pawn'
p2146
sg7
S'a4'
p2147
sa(dp2148
g7
S'a5'
p2149
sa(dp2150
g5
S'black_rook'
p2151
sg7
S'a6'
p2152
sa(dp2153
g7
S'a7'
p2154
sa(dp2155
g7
S'a8'
p2156
sa(dp2157
g7
S'b1'
p2158
sa(dp2159
g5
S'white_pawn'
p2160
sg7
S'b2'
p2161
sa(dp2162
g7
S'b3'
p2163
sa(dp2164
g7
S'b4'
p2165
sa(dp2166
g7
S'b5'
p2167
sa(dp2168
g7
S'b6'
p2169
sa(dp2170
g7
S'b7'
p2171
sa(dp2172
g7
S'b8'
p2173
sa(dp2174
g7
S'c1'
p2175
sa(dp2176
g7
S'c2'
p2177
sa(dp2178
g7
S'c3'
p2179
sa(dp2180
g7
S'c4'
p2181
sa(dp2182
g7
S'c5'
p2183
sa(dp2184
g7
S'c6'
p2185
sa(dp2186
g7
S'c7'
p2187
sa(dp2188
g7
S'c8'
p2189
sa(dp2190
g7
S'd1'
p2191
sa(dp2192
g7
S'd2'
p2193
sa(dp2194
g7
S'd3'
p2195
sa(dp2196
g7
S'd4'
p2197
sa(dp2198
g5
S'white_pawn'
p2199
sg7
S'd5'
p2200
sa(dp2201
g5
S'black_pawn'
p2202
sg7
S'd6'
p2203
sa(dp2204
g7
S'd7'
p2205
sa(dp2206
g7
S'd8'
p2207
sa(dp2208
g7
S'e1'
p2209
sa(dp2210
g7
S'e2'
p2211
sa(dp2212
g7
S'e3'
p2213
sa(dp2214
g7
S'e4'
p2215
sa(dp2216
g7
S'e5'
p2217
sa(dp2218
g5
S'white_knight'
p2219
sg7
S'e6'
p2220
sa(dp2221
g7
S'e7'
p2222
sa(dp2223
g5
S'black_knight'
p2224
sg7
S'e8'
p2225
sa(dp2226
g7
S'f1'
p2227
sa(dp2228
g7
S'f2'
p2229
sa(dp2230
g7
S'f3'
p2231
sa(dp2232
g5
S'white_pawn'
p2233
sg7
S'f4'
p2234
sa(dp2235
g5
S'black_pawn'
p2236
sg7
S'f5'
p2237
sa(dp2238
g7
S'f6'
p2239
sa(dp2240
g5
S'black_rook'
p2241
sg7
S'f7'
p2242
sa(dp2243
g7
S'f8'
p2244
sa(dp2245
g5
S'white_king'
p2246
sg7
S'g1'
p2247
sa(dp2248
g5
S'white_pawn'
p2249
sg7
S'g2'
p2250
sa(dp2251
g7
S'g3'
p2252
sa(dp2253
g7
S'g4'
p2254
sa(dp2255
g7
S'g5'
p2256
sa(dp2257
g5
S'black_pawn'
p2258
sg7
S'g6'
p2259
sa(dp2260
g7
S'g7'
p2261
sa(dp2262
g5
S'black_king'
p2263
sg7
S'g8'
p2264
sa(dp2265
g7
S'h1'
p2266
sa(dp2267
g5
S'white_pawn'
p2268
sg7
S'h2'
p2269
sa(dp2270
g7
S'h3'
p2271
sa(dp2272
g7
S'h4'
p2273
sa(dp2274
g7
S'h5'
p2275
sa(dp2276
g5
S'black_pawn'
p2277
sg7
S'h6'
p2278
sa(dp2279
g7
S'h7'
p2280
sa(dp2281
g7
S'h8'
p2282
saag613
aa(lp2283
S'8765432'
p2284
a(lp2285
(dp2286
g7
S'a1'
p2287
sa(dp2288
g5
S'white_pawn'
p2289
sg7
S'a2'
p2290
sa(dp2291
g5
S'white_bishop'
p2292
sg7
S'a3'
p2293
sa(dp2294
g5
S'black_pawn'
p2295
sg7
S'a4'
p2296
sa(dp2297
g7
S'a5'
p2298
sa(dp2299
g5
S'black_rook'
p2300
sg7
S'a6'
p2301
sa(dp2302
g7
S'a7'
p2303
sa(dp2304
g7
S'a8'
p2305
sa(dp2306
g7
S'b1'
p2307
sa(dp2308
g5
S'white_pawn'
p2309
sg7
S'b2'
p2310
sa(dp2311
g7
S'b3'
p2312
sa(dp2313
g7
S'b4'
p2314
sa(dp2315
g7
S'b5'
p2316
sa(dp2317
g7
S'b6'
p2318
sa(dp2319
g7
S'b7'
p2320
sa(dp2321
g7
S'b8'
p2322
sa(dp2323
g5
S'white_rook'
p2324
sg7
S'c1'
p2325
sa(dp2326
g7
S'c2'
p2327
sa(dp2328
g7
S'c3'
p2329
sa(dp2330
g7
S'c4'
p2331
sa(dp2332
g7
S'c5'
p2333
sa(dp2334
g7
S'c6'
p2335
sa(dp2336
g7
S'c7'
p2337
sa(dp2338
g7
S'c8'
p2339
sa(dp2340
g7
S'd1'
p2341
sa(dp2342
g7
S'd2'
p2343
sa(dp2344
g7
S'd3'
p2345
sa(dp2346
g7
S'd4'
p2347
sa(dp2348
g5
S'white_pawn'
p2349
sg7
S'd5'
p2350
sa(dp2351
g5
S'black_pawn'
p2352
sg7
S'd6'
p2353
sa(dp2354
g7
S'd7'
p2355
sa(dp2356
g7
S'd8'
p2357
sa(dp2358
g7
S'e1'
p2359
sa(dp2360
g7
S'e2'
p2361
sa(dp2362
g7
S'e3'
p2363
sa(dp2364
g7
S'e4'
p2365
sa(dp2366
g7
S'e5'
p2367
sa(dp2368
g5
S'white_knight'
p2369
sg7
S'e6'
p2370
sa(dp2371
g7
S'e7'
p2372
sa(dp2373
g5
S'black_knight'
p2374
sg7
S'e8'
p2375
sa(dp2376
g7
S'f1'
p2377
sa(dp2378
g7
S'f2'
p2379
sa(dp2380
g7
S'f3'
p2381
sa(dp2382
g5
S'white_pawn'
p2383
sg7
S'f4'
p2384
sa(dp2385
g5
S'black_pawn'
p2386
sg7
S'f5'
p2387
sa(dp2388
g7
S'f6'
p2389
sa(dp2390
g5
S'black_rook'
p2391
sg7
S'f7'
p2392
sa(dp2393
g7
S'f8'
p2394
sa(dp2395
g5
S'white_king'
p2396
sg7
S'g1'
p2397
sa(dp2398
g5
S'white_pawn'
p2399
sg7
S'g2'
p2400
sa(dp2401
g7
S'g3'
p2402
sa(dp2403
g7
S'g4'
p2404
sa(dp2405
g7
S'g5'
p2406
sa(dp2407
g5
S'black_pawn'
p2408
sg7
S'g6'
p2409
sa(dp2410
g7
S'g7'
p2411
sa(dp2412
g5
S'black_king'
p2413
sg7
S'g8'
p2414
sa(dp2415
g7
S'h1'
p2416
sa(dp2417
g5
S'white_pawn'
p2418
sg7
S'h2'
p2419
sa(dp2420
g7
S'h3'
p2421
sa(dp2422
g7
S'h4'
p2423
sa(dp2424
g7
S'h5'
p2425
sa(dp2426
g5
S'black_pawn'
p2427
sg7
S'h6'
p2428
sa(dp2429
g7
S'h7'
p2430
sa(dp2431
g7
S'h8'
p2432
saag613
aa(lp2433
S'8765432'
p2434
a(lp2435
(dp2436
g7
S'a1'
p2437
sa(dp2438
g5
S'white_pawn'
p2439
sg7
S'a2'
p2440
sa(dp2441
g5
S'white_bishop'
p2442
sg7
S'a3'
p2443
sa(dp2444
g5
S'black_pawn'
p2445
sg7
S'a4'
p2446
sa(dp2447
g7
S'a5'
p2448
sa(dp2449
g7
S'a6'
p2450
sa(dp2451
g7
S'a7'
p2452
sa(dp2453
g5
S'black_rook'
p2454
sg7
S'a8'
p2455
sa(dp2456
g7
S'b1'
p2457
sa(dp2458
g5
S'white_pawn'
p2459
sg7
S'b2'
p2460
sa(dp2461
g7
S'b3'
p2462
sa(dp2463
g7
S'b4'
p2464
sa(dp2465
g7
S'b5'
p2466
sa(dp2467
g7
S'b6'
p2468
sa(dp2469
g7
S'b7'
p2470
sa(dp2471
g7
S'b8'
p2472
sa(dp2473
g5
S'white_rook'
p2474
sg7
S'c1'
p2475
sa(dp2476
g7
S'c2'
p2477
sa(dp2478
g7
S'c3'
p2479
sa(dp2480
g7
S'c4'
p2481
sa(dp2482
g7
S'c5'
p2483
sa(dp2484
g7
S'c6'
p2485
sa(dp2486
g7
S'c7'
p2487
sa(dp2488
g7
S'c8'
p2489
sa(dp2490
g7
S'd1'
p2491
sa(dp2492
g7
S'd2'
p2493
sa(dp2494
g7
S'd3'
p2495
sa(dp2496
g7
S'd4'
p2497
sa(dp2498
g5
S'white_pawn'
p2499
sg7
S'd5'
p2500
sa(dp2501
g5
S'black_pawn'
p2502
sg7
S'd6'
p2503
sa(dp2504
g7
S'd7'
p2505
sa(dp2506
g7
S'd8'
p2507
sa(dp2508
g7
S'e1'
p2509
sa(dp2510
g7
S'e2'
p2511
sa(dp2512
g7
S'e3'
p2513
sa(dp2514
g7
S'e4'
p2515
sa(dp2516
g7
S'e5'
p2517
sa(dp2518
g5
S'white_knight'
p2519
sg7
S'e6'
p2520
sa(dp2521
g7
S'e7'
p2522
sa(dp2523
g5
S'black_knight'
p2524
sg7
S'e8'
p2525
sa(dp2526
g7
S'f1'
p2527
sa(dp2528
g7
S'f2'
p2529
sa(dp2530
g7
S'f3'
p2531
sa(dp2532
g5
S'white_pawn'
p2533
sg7
S'f4'
p2534
sa(dp2535
g5
S'black_pawn'
p2536
sg7
S'f5'
p2537
sa(dp2538
g7
S'f6'
p2539
sa(dp2540
g5
S'black_rook'
p2541
sg7
S'f7'
p2542
sa(dp2543
g7
S'f8'
p2544
sa(dp2545
g5
S'white_king'
p2546
sg7
S'g1'
p2547
sa(dp2548
g5
S'white_pawn'
p2549
sg7
S'g2'
p2550
sa(dp2551
g7
S'g3'
p2552
sa(dp2553
g7
S'g4'
p2554
sa(dp2555
g7
S'g5'
p2556
sa(dp2557
g5
S'black_pawn'
p2558
sg7
S'g6'
p2559
sa(dp2560
g7
S'g7'
p2561
sa(dp2562
g5
S'black_king'
p2563
sg7
S'g8'
p2564
sa(dp2565
g7
S'h1'
p2566
sa(dp2567
g5
S'white_pawn'
p2568
sg7
S'h2'
p2569
sa(dp2570
g7
S'h3'
p2571
sa(dp2572
g7
S'h4'
p2573
sa(dp2574
g7
S'h5'
p2575
sa(dp2576
g5
S'black_pawn'
p2577
sg7
S'h6'
p2578
sa(dp2579
g7
S'h7'
p2580
sa(dp2581
g7
S'h8'
p2582
saag613
aa(lp2583
S'8765432'
p2584
a(lp2585
(dp2586
g7
S'a1'
p2587
sa(dp2588
g5
S'white_pawn'
p2589
sg7
S'a2'
p2590
sa(dp2591
g5
S'white_bishop'
p2592
sg7
S'a3'
p2593
sa(dp2594
g5
S'black_pawn'
p2595
sg7
S'a4'
p2596
sa(dp2597
g7
S'a5'
p2598
sa(dp2599
g7
S'a6'
p2600
sa(dp2601
g7
S'a7'
p2602
sa(dp2603
g5
S'black_rook'
p2604
sg7
S'a8'
p2605
sa(dp2606
g7
S'b1'
p2607
sa(dp2608
g5
S'white_pawn'
p2609
sg7
S'b2'
p2610
sa(dp2611
g7
S'b3'
p2612
sa(dp2613
g7
S'b4'
p2614
sa(dp2615
g7
S'b5'
p2616
sa(dp2617
g7
S'b6'
p2618
sa(dp2619
g7
S'b7'
p2620
sa(dp2621
g7
S'b8'
p2622
sa(dp2623
g7
S'c1'
p2624
sa(dp2625
g7
S'c2'
p2626
sa(dp2627
g7
S'c3'
p2628
sa(dp2629
g7
S'c4'
p2630
sa(dp2631
g7
S'c5'
p2632
sa(dp2633
g5
S'white_rook'
p2634
sg7
S'c6'
p2635
sa(dp2636
g7
S'c7'
p2637
sa(dp2638
g7
S'c8'
p2639
sa(dp2640
g7
S'd1'
p2641
sa(dp2642
g7
S'd2'
p2643
sa(dp2644
g7
S'd3'
p2645
sa(dp2646
g7
S'd4'
p2647
sa(dp2648
g5
S'white_pawn'
p2649
sg7
S'd5'
p2650
sa(dp2651
g5
S'black_pawn'
p2652
sg7
S'd6'
p2653
sa(dp2654
g7
S'd7'
p2655
sa(dp2656
g7
S'd8'
p2657
sa(dp2658
g7
S'e1'
p2659
sa(dp2660
g7
S'e2'
p2661
sa(dp2662
g7
S'e3'
p2663
sa(dp2664
g7
S'e4'
p2665
sa(dp2666
g7
S'e5'
p2667
sa(dp2668
g5
S'white_knight'
p2669
sg7
S'e6'
p2670
sa(dp2671
g7
S'e7'
p2672
sa(dp2673
g5
S'black_knight'
p2674
sg7
S'e8'
p2675
sa(dp2676
g7
S'f1'
p2677
sa(dp2678
g7
S'f2'
p2679
sa(dp2680
g7
S'f3'
p2681
sa(dp2682
g5
S'white_pawn'
p2683
sg7
S'f4'
p2684
sa(dp2685
g5
S'black_pawn'
p2686
sg7
S'f5'
p2687
sa(dp2688
g7
S'f6'
p2689
sa(dp2690
g5
S'black_rook'
p2691
sg7
S'f7'
p2692
sa(dp2693
g7
S'f8'
p2694
sa(dp2695
g5
S'white_king'
p2696
sg7
S'g1'
p2697
sa(dp2698
g5
S'white_pawn'
p2699
sg7
S'g2'
p2700
sa(dp2701
g7
S'g3'
p2702
sa(dp2703
g7
S'g4'
p2704
sa(dp2705
g7
S'g5'
p2706
sa(dp2707
g5
S'black_pawn'
p2708
sg7
S'g6'
p2709
sa(dp2710
g7
S'g7'
p2711
sa(dp2712
g5
S'black_king'
p2713
sg7
S'g8'
p2714
sa(dp2715
g7
S'h1'
p2716
sa(dp2717
g5
S'white_pawn'
p2718
sg7
S'h2'
p2719
sa(dp2720
g7
S'h3'
p2721
sa(dp2722
g7
S'h4'
p2723
sa(dp2724
g7
S'h5'
p2725
sa(dp2726
g5
S'black_pawn'
p2727
sg7
S'h6'
p2728
sa(dp2729
g7
S'h7'
p2730
sa(dp2731
g7
S'h8'
p2732
saag613
aa(lp2733
S'8765432'
p2734
a(lp2735
(dp2736
g7
S'a1'
p2737
sa(dp2738
g5
S'white_pawn'
p2739
sg7
S'a2'
p2740
sa(dp2741
g5
S'white_bishop'
p2742
sg7
S'a3'
p2743
sa(dp2744
g5
S'black_pawn'
p2745
sg7
S'a4'
p2746
sa(dp2747
g7
S'a5'
p2748
sa(dp2749
g7
S'a6'
p2750
sa(dp2751
g7
S'a7'
p2752
sa(dp2753
g5
S'black_rook'
p2754
sg7
S'a8'
p2755
sa(dp2756
g7
S'b1'
p2757
sa(dp2758
g5
S'white_pawn'
p2759
sg7
S'b2'
p2760
sa(dp2761
g7
S'b3'
p2762
sa(dp2763
g7
S'b4'
p2764
sa(dp2765
g7
S'b5'
p2766
sa(dp2767
g7
S'b6'
p2768
sa(dp2769
g7
S'b7'
p2770
sa(dp2771
g7
S'b8'
p2772
sa(dp2773
g7
S'c1'
p2774
sa(dp2775
g7
S'c2'
p2776
sa(dp2777
g7
S'c3'
p2778
sa(dp2779
g7
S'c4'
p2780
sa(dp2781
g7
S'c5'
p2782
sa(dp2783
g5
S'white_rook'
p2784
sg7
S'c6'
p2785
sa(dp2786
g7
S'c7'
p2787
sa(dp2788
g7
S'c8'
p2789
sa(dp2790
g7
S'd1'
p2791
sa(dp2792
g7
S'd2'
p2793
sa(dp2794
g7
S'd3'
p2795
sa(dp2796
g7
S'd4'
p2797
sa(dp2798
g5
S'white_pawn'
p2799
sg7
S'd5'
p2800
sa(dp2801
g5
S'black_pawn'
p2802
sg7
S'd6'
p2803
sa(dp2804
g5
S'black_rook'
p2805
sg7
S'd7'
p2806
sa(dp2807
g7
S'd8'
p2808
sa(dp2809
g7
S'e1'
p2810
sa(dp2811
g7
S'e2'
p2812
sa(dp2813
g7
S'e3'
p2814
sa(dp2815
g7
S'e4'
p2816
sa(dp2817
g7
S'e5'
p2818
sa(dp2819
g5
S'white_knight'
p2820
sg7
S'e6'
p2821
sa(dp2822
g7
S'e7'
p2823
sa(dp2824
g5
S'black_knight'
p2825
sg7
S'e8'
p2826
sa(dp2827
g7
S'f1'
p2828
sa(dp2829
g7
S'f2'
p2830
sa(dp2831
g7
S'f3'
p2832
sa(dp2833
g5
S'white_pawn'
p2834
sg7
S'f4'
p2835
sa(dp2836
g5
S'black_pawn'
p2837
sg7
S'f5'
p2838
sa(dp2839
g7
S'f6'
p2840
sa(dp2841
g7
S'f7'
p2842
sa(dp2843
g7
S'f8'
p2844
sa(dp2845
g5
S'white_king'
p2846
sg7
S'g1'
p2847
sa(dp2848
g5
S'white_pawn'
p2849
sg7
S'g2'
p2850
sa(dp2851
g7
S'g3'
p2852
sa(dp2853
g7
S'g4'
p2854
sa(dp2855
g7
S'g5'
p2856
sa(dp2857
g5
S'black_pawn'
p2858
sg7
S'g6'
p2859
sa(dp2860
g7
S'g7'
p2861
sa(dp2862
g5
S'black_king'
p2863
sg7
S'g8'
p2864
sa(dp2865
g7
S'h1'
p2866
sa(dp2867
g5
S'white_pawn'
p2868
sg7
S'h2'
p2869
sa(dp2870
g7
S'h3'
p2871
sa(dp2872
g7
S'h4'
p2873
sa(dp2874
g7
S'h5'
p2875
sa(dp2876
g5
S'black_pawn'
p2877
sg7
S'h6'
p2878
sa(dp2879
g7
S'h7'
p2880
sa(dp2881
g7
S'h8'
p2882
saag613
aa(lp2883
S'8765432'
p2884
a(lp2885
(dp2886
g7
S'a1'
p2887
sa(dp2888
g5
S'white_pawn'
p2889
sg7
S'a2'
p2890
sa(dp2891
g5
S'white_bishop'
p2892
sg7
S'a3'
p2893
sa(dp2894
g5
S'black_pawn'
p2895
sg7
S'a4'
p2896
sa(dp2897
g7
S'a5'
p2898
sa(dp2899
g7
S'a6'
p2900
sa(dp2901
g7
S'a7'
p2902
sa(dp2903
g5
S'black_rook'
p2904
sg7
S'a8'
p2905
sa(dp2906
g7
S'b1'
p2907
sa(dp2908
g5
S'white_pawn'
p2909
sg7
S'b2'
p2910
sa(dp2911
g7
S'b3'
p2912
sa(dp2913
g7
S'b4'
p2914
sa(dp2915
g7
S'b5'
p2916
sa(dp2917
g7
S'b6'
p2918
sa(dp2919
g7
S'b7'
p2920
sa(dp2921
g7
S'b8'
p2922
sa(dp2923
g7
S'c1'
p2924
sa(dp2925
g7
S'c2'
p2926
sa(dp2927
g7
S'c3'
p2928
sa(dp2929
g7
S'c4'
p2930
sa(dp2931
g7
S'c5'
p2932
sa(dp2933
g5
S'white_rook'
p2934
sg7
S'c6'
p2935
sa(dp2936
g7
S'c7'
p2937
sa(dp2938
g7
S'c8'
p2939
sa(dp2940
g7
S'd1'
p2941
sa(dp2942
g7
S'd2'
p2943
sa(dp2944
g7
S'd3'
p2945
sa(dp2946
g7
S'd4'
p2947
sa(dp2948
g5
S'white_pawn'
p2949
sg7
S'd5'
p2950
sa(dp2951
g5
S'black_pawn'
p2952
sg7
S'd6'
p2953
sa(dp2954
g5
S'black_rook'
p2955
sg7
S'd7'
p2956
sa(dp2957
g7
S'd8'
p2958
sa(dp2959
g7
S'e1'
p2960
sa(dp2961
g7
S'e2'
p2962
sa(dp2963
g7
S'e3'
p2964
sa(dp2965
g7
S'e4'
p2966
sa(dp2967
g7
S'e5'
p2968
sa(dp2969
g5
S'white_knight'
p2970
sg7
S'e6'
p2971
sa(dp2972
g7
S'e7'
p2973
sa(dp2974
g5
S'black_knight'
p2975
sg7
S'e8'
p2976
sa(dp2977
g7
S'f1'
p2978
sa(dp2979
g5
S'white_king'
p2980
sg7
S'f2'
p2981
sa(dp2982
g7
S'f3'
p2983
sa(dp2984
g5
S'white_pawn'
p2985
sg7
S'f4'
p2986
sa(dp2987
g5
S'black_pawn'
p2988
sg7
S'f5'
p2989
sa(dp2990
g7
S'f6'
p2991
sa(dp2992
g7
S'f7'
p2993
sa(dp2994
g7
S'f8'
p2995
sa(dp2996
g7
S'g1'
p2997
sa(dp2998
g5
S'white_pawn'
p2999
sg7
S'g2'
p3000
sa(dp3001
g7
S'g3'
p3002
sa(dp3003
g7
S'g4'
p3004
sa(dp3005
g7
S'g5'
p3006
sa(dp3007
g5
S'black_pawn'
p3008
sg7
S'g6'
p3009
sa(dp3010
g7
S'g7'
p3011
sa(dp3012
g5
S'black_king'
p3013
sg7
S'g8'
p3014
sa(dp3015
g7
S'h1'
p3016
sa(dp3017
g5
S'white_pawn'
p3018
sg7
S'h2'
p3019
sa(dp3020
g7
S'h3'
p3021
sa(dp3022
g7
S'h4'
p3023
sa(dp3024
g7
S'h5'
p3025
sa(dp3026
g5
S'black_pawn'
p3027
sg7
S'h6'
p3028
sa(dp3029
g7
S'h7'
p3030
sa(dp3031
g7
S'h8'
p3032
saag613
aa(lp3033
S'8765432'
p3034
a(lp3035
(dp3036
g7
S'a1'
p3037
sa(dp3038
g5
S'white_pawn'
p3039
sg7
S'a2'
p3040
sa(dp3041
g5
S'white_bishop'
p3042
sg7
S'a3'
p3043
sa(dp3044
g5
S'black_pawn'
p3045
sg7
S'a4'
p3046
sa(dp3047
g5
S'black_rook'
p3048
sg7
S'a5'
p3049
sa(dp3050
g7
S'a6'
p3051
sa(dp3052
g7
S'a7'
p3053
sa(dp3054
g7
S'a8'
p3055
sa(dp3056
g7
S'b1'
p3057
sa(dp3058
g5
S'white_pawn'
p3059
sg7
S'b2'
p3060
sa(dp3061
g7
S'b3'
p3062
sa(dp3063
g7
S'b4'
p3064
sa(dp3065
g7
S'b5'
p3066
sa(dp3067
g7
S'b6'
p3068
sa(dp3069
g7
S'b7'
p3070
sa(dp3071
g7
S'b8'
p3072
sa(dp3073
g7
S'c1'
p3074
sa(dp3075
g7
S'c2'
p3076
sa(dp3077
g7
S'c3'
p3078
sa(dp3079
g7
S'c4'
p3080
sa(dp3081
g7
S'c5'
p3082
sa(dp3083
g5
S'white_rook'
p3084
sg7
S'c6'
p3085
sa(dp3086
g7
S'c7'
p3087
sa(dp3088
g7
S'c8'
p3089
sa(dp3090
g7
S'd1'
p3091
sa(dp3092
g7
S'd2'
p3093
sa(dp3094
g7
S'd3'
p3095
sa(dp3096
g7
S'd4'
p3097
sa(dp3098
g5
S'white_pawn'
p3099
sg7
S'd5'
p3100
sa(dp3101
g5
S'black_pawn'
p3102
sg7
S'd6'
p3103
sa(dp3104
g5
S'black_rook'
p3105
sg7
S'd7'
p3106
sa(dp3107
g7
S'd8'
p3108
sa(dp3109
g7
S'e1'
p3110
sa(dp3111
g7
S'e2'
p3112
sa(dp3113
g7
S'e3'
p3114
sa(dp3115
g7
S'e4'
p3116
sa(dp3117
g7
S'e5'
p3118
sa(dp3119
g5
S'white_knight'
p3120
sg7
S'e6'
p3121
sa(dp3122
g7
S'e7'
p3123
sa(dp3124
g5
S'black_knight'
p3125
sg7
S'e8'
p3126
sa(dp3127
g7
S'f1'
p3128
sa(dp3129
g5
S'white_king'
p3130
sg7
S'f2'
p3131
sa(dp3132
g7
S'f3'
p3133
sa(dp3134
g5
S'white_pawn'
p3135
sg7
S'f4'
p3136
sa(dp3137
g5
S'black_pawn'
p3138
sg7
S'f5'
p3139
sa(dp3140
g7
S'f6'
p3141
sa(dp3142
g7
S'f7'
p3143
sa(dp3144
g7
S'f8'
p3145
sa(dp3146
g7
S'g1'
p3147
sa(dp3148
g5
S'white_pawn'
p3149
sg7
S'g2'
p3150
sa(dp3151
g7
S'g3'
p3152
sa(dp3153
g7
S'g4'
p3154
sa(dp3155
g7
S'g5'
p3156
sa(dp3157
g5
S'black_pawn'
p3158
sg7
S'g6'
p3159
sa(dp3160
g7
S'g7'
p3161
sa(dp3162
g5
S'black_king'
p3163
sg7
S'g8'
p3164
sa(dp3165
g7
S'h1'
p3166
sa(dp3167
g5
S'white_pawn'
p3168
sg7
S'h2'
p3169
sa(dp3170
g7
S'h3'
p3171
sa(dp3172
g7
S'h4'
p3173
sa(dp3174
g7
S'h5'
p3175
sa(dp3176
g5
S'black_pawn'
p3177
sg7
S'h6'
p3178
sa(dp3179
g7
S'h7'
p3180
sa(dp3181
g7
S'h8'
p3182
saag613
aa.