(lp0
(lp1
S'1. e4 d5 2. exd5 Nf6 3. d4 e6 4. dxe6'
p2
a(lp3
(dp4
S'piece'
p5
S'white_rook'
p6
sS'location'
p7
S'a1'
p8
sa(dp9
g5
S'white_pawn'
p10
sg7
S'a2'
p11
sa(dp12
g7
S'a3'
p13
sa(dp14
g7
S'a4'
p15
sa(dp16
g7
S'a5'
p17
sa(dp18
g7
S'a6'
p19
sa(dp20
g5
S'black_pawn'
p21
sg7
S'a7'
p22
sa(dp23
g5
S'black_rook'
p24
sg7
S'a8'
p25
sa(dp26
g5
S'white_knight'
p27
sg7
S'b1'
p28
sa(dp29
g5
S'white_pawn'
p30
sg7
S'b2'
p31
sa(dp32
g7
S'b3'
p33
sa(dp34
g7
S'b4'
p35
sa(dp36
g7
S'b5'
p37
sa(dp38
g7
S'b6'
p39
sa(dp40
g5
S'black_pawn'
p41
sg7
S'b7'
p42
sa(dp43
g5
S'black_knight'
p44
sg7
S'b8'
p45
sa(dp46
g5
S'white_bishop'
p47
sg7
S'c1'
p48
sa(dp49
g5
S'white_pawn'
p50
sg7
S'c2'
p51
sa(dp52
g7
S'c3'
p53
sa(dp54
g7
S'c4'
p55
sa(dp56
g7
S'c5'
p57
sa(dp58
g7
S'c6'
p59
sa(dp60
g5
S'black_pawn'
p61
sg7
S'c7'
p62
sa(dp63
g5
S'black_bishop'
p64
sg7
S'c8'
p65
sa(dp66
g5
S'white_queen'
p67
sg7
S'd1'
p68
sa(dp69
g7
S'd2'
p70
sa(dp71
g7
S'd3'
p72
sa(dp73
g5
S'white_pawn'
p74
sg7
S'd4'
p75
sa(dp76
g7
S'd5'
p77
sa(dp78
g7
S'd6'
p79
sa(dp80
g7
S'd7'
p81
sa(dp82
g5
S'black_queen'
p83
sg7
S'd8'
p84
sa(dp85
g5
S'white_king'
p86
sg7
S'e1'
p87
sa(dp88
g7
S'e2'
p89
sa(dp90
g7
S'e3'
p91
sa(dp92
g7
S'e4'
p93
sa(dp94
g7
S'e5'
p95
sa(dp96
g5
S'white_pawn'
p97
sg7
S'e6'
p98
sa(dp99
g7
S'e7'
p100
sa(dp101
g5
S'black_king'
p102
sg7
S'e8'
p103
sa(dp104
g5
S'white_bishop'
p105
sg7
S'f1'
p106
sa(dp107
g5
S'white_pawn'
p108
sg7
S'f2'
p109
sa(dp110
g7
S'f3'
p111
sa(dp112
g7
S'f4'
p113
sa(dp114
g7
S'f5'
p115
sa(dp116
g5
S'black_knight'
p117
sg7
S'f6'
p118
sa(dp119
g5
S'black_pawn'
p120
sg7
S'f7'
p121
sa(dp122
g5
S'black_bishop'
p123
sg7
S'f8'
p124
sa(dp125
g5
S'white_knight'
p126
sg7
S'g1'
p127
sa(dp128
g5
S'white_pawn'
p129
sg7
S'g2'
p130
sa(dp131
g7
S'g3'
p132
sa(dp133
g7
S'g4'
p134
sa(dp135
g7
S'g5'
p136
sa(dp137
g7
S'g6'
p138
sa(dp139
g5
S'black_pawn'
p140
sg7
S'g7'
p141
sa(dp142
g7
S'g8'
p143
sa(dp144
g5
S'white_rook'
p145
sg7
S'h1'
p146
sa(dp147
g5
S'white_pawn'
p148
sg7
S'h2'
p149
sa(dp150
g7
S'h3'
p151
sa(dp152
g7
S'h4'
p153
sa(dp154
g7
S'h5'
p155
sa(dp156
g7
S'h6'
p157
sa(dp158
g5
S'black_pawn'
p159
sg7
S'h7'
p160
sa(dp161
g5
S'black_rook'
p162
sg7
S'h8'
p163
saaV...neglecting the stronger Bb5+, as most low-rated games. I can play against it, but it is certainly more delicate for black. 
p164
aa(lp165
S'4... Bxe6 5. Nf3 c6'
p166
a(lp167
(dp168
g5
S'white_rook'
p169
sg7
S'a1'
p170
sa(dp171
g5
S'white_pawn'
p172
sg7
S'a2'
p173
sa(dp174
g7
S'a3'
p175
sa(dp176
g7
S'a4'
p177
sa(dp178
g7
S'a5'
p179
sa(dp180
g7
S'a6'
p181
sa(dp182
g5
S'black_pawn'
p183
sg7
S'a7'
p184
sa(dp185
g5
S'black_rook'
p186
sg7
S'a8'
p187
sa(dp188
g5
S'white_knight'
p189
sg7
S'b1'
p190
sa(dp191
g5
S'white_pawn'
p192
sg7
S'b2'
p193
sa(dp194
g7
S'b3'
p195
sa(dp196
g7
S'b4'
p197
sa(dp198
g7
S'b5'
p199
sa(dp200
g7
S'b6'
p201
sa(dp202
g5
S'black_pawn'
p203
sg7
S'b7'
p204
sa(dp205
g5
S'black_knight'
p206
sg7
S'b8'
p207
sa(dp208
g5
S'white_bishop'
p209
sg7
S'c1'
p210
sa(dp211
g5
S'white_pawn'
p212
sg7
S'c2'
p213
sa(dp214
g7
S'c3'
p215
sa(dp216
g7
S'c4'
p217
sa(dp218
g7
S'c5'
p219
sa(dp220
g5
S'black_pawn'
p221
sg7
S'c6'
p222
sa(dp223
g7
S'c7'
p224
sa(dp225
g7
S'c8'
p226
sa(dp227
g5
S'white_queen'
p228
sg7
S'd1'
p229
sa(dp230
g7
S'd2'
p231
sa(dp232
g7
S'd3'
p233
sa(dp234
g5
S'white_pawn'
p235
sg7
S'd4'
p236
sa(dp237
g7
S'd5'
p238
sa(dp239
g7
S'd6'
p240
sa(dp241
g7
S'd7'
p242
sa(dp243
g5
S'black_queen'
p244
sg7
S'd8'
p245
sa(dp246
g5
S'white_king'
p247
sg7
S'e1'
p248
sa(dp249
g7
S'e2'
p250
sa(dp251
g7
S'e3'
p252
sa(dp253
g7
S'e4'
p254
sa(dp255
g7
S'e5'
p256
sa(dp257
g5
S'black_bishop'
p258
sg7
S'e6'
p259
sa(dp260
g7
S'e7'
p261
sa(dp262
g5
S'black_king'
p263
sg7
S'e8'
p264
sa(dp265
g5
S'white_bishop'
p266
sg7
S'f1'
p267
sa(dp268
g5
S'white_pawn'
p269
sg7
S'f2'
p270
sa(dp271
g5
S'white_knight'
p272
sg7
S'f3'
p273
sa(dp274
g7
S'f4'
p275
sa(dp276
g7
S'f5'
p277
sa(dp278
g5
S'black_knight'
p279
sg7
S'f6'
p280
sa(dp281
g5
S'black_pawn'
p282
sg7
S'f7'
p283
sa(dp284
g5
S'black_bishop'
p285
sg7
S'f8'
p286
sa(dp287
g7
S'g1'
p288
sa(dp289
g5
S'white_pawn'
p290
sg7
S'g2'
p291
sa(dp292
g7
S'g3'
p293
sa(dp294
g7
S'g4'
p295
sa(dp296
g7
S'g5'
p297
sa(dp298
g7
S'g6'
p299
sa(dp300
g5
S'black_pawn'
p301
sg7
S'g7'
p302
sa(dp303
g7
S'g8'
p304
sa(dp305
g5
S'white_rook'
p306
sg7
S'h1'
p307
sa(dp308
g5
S'white_pawn'
p309
sg7
S'h2'
p310
sa(dp311
g7
S'h3'
p312
sa(dp313
g7
S'h4'
p314
sa(dp315
g7
S'h5'
p316
sa(dp317
g7
S'h6'
p318
sa(dp319
g5
S'black_pawn'
p320
sg7
S'h7'
p321
sa(dp322
g5
S'black_rook'
p323
sg7
S'h8'
p324
saaVBg4 gives black a Portuguese Attack with a tempo less, so it can't be good. Now my plan is to castle queenside and throw pawns on white's castled king. White can win this race, but he has to be very precise. Let's see if my opp is.
p325
aa(lp326
S'6. Bd3 Nbd7 7. O-O'
p327
a(lp328
(dp329
g5
S'white_rook'
p330
sg7
S'a1'
p331
sa(dp332
g5
S'white_pawn'
p333
sg7
S'a2'
p334
sa(dp335
g7
S'a3'
p336
sa(dp337
g7
S'a4'
p338
sa(dp339
g7
S'a5'
p340
sa(dp341
g7
S'a6'
p342
sa(dp343
g5
S'black_pawn'
p344
sg7
S'a7'
p345
sa(dp346
g5
S'black_rook'
p347
sg7
S'a8'
p348
sa(dp349
g5
S'white_knight'
p350
sg7
S'b1'
p351
sa(dp352
g5
S'white_pawn'
p353
sg7
S'b2'
p354
sa(dp355
g7
S'b3'
p356
sa(dp357
g7
S'b4'
p358
sa(dp359
g7
S'b5'
p360
sa(dp361
g7
S'b6'
p362
sa(dp363
g5
S'black_pawn'
p364
sg7
S'b7'
p365
sa(dp366
g7
S'b8'
p367
sa(dp368
g5
S'white_bishop'
p369
sg7
S'c1'
p370
sa(dp371
g5
S'white_pawn'
p372
sg7
S'c2'
p373
sa(dp374
g7
S'c3'
p375
sa(dp376
g7
S'c4'
p377
sa(dp378
g7
S'c5'
p379
sa(dp380
g5
S'black_pawn'
p381
sg7
S'c6'
p382
sa(dp383
g7
S'c7'
p384
sa(dp385
g7
S'c8'
p386
sa(dp387
g5
S'white_queen'
p388
sg7
S'd1'
p389
sa(dp390
g7
S'd2'
p391
sa(dp392
g5
S'white_bishop'
p393
sg7
S'd3'
p394
sa(dp395
g5
S'white_pawn'
p396
sg7
S'd4'
p397
sa(dp398
g7
S'd5'
p399
sa(dp400
g7
S'd6'
p401
sa(dp402
g5
S'black_knight'
p403
sg7
S'd7'
p404
sa(dp405
g5
S'black_queen'
p406
sg7
S'd8'
p407
sa(dp408
g7
S'e1'
p409
sa(dp410
g7
S'e2'
p411
sa(dp412
g7
S'e3'
p413
sa(dp414
g7
S'e4'
p415
sa(dp416
g7
S'e5'
p417
sa(dp418
g5
S'black_bishop'
p419
sg7
S'e6'
p420
sa(dp421
g7
S'e7'
p422
sa(dp423
g5
S'black_king'
p424
sg7
S'e8'
p425
sa(dp426
g5
S'white_rook'
p427
sg7
S'f1'
p428
sa(dp429
g5
S'white_pawn'
p430
sg7
S'f2'
p431
sa(dp432
g5
S'white_knight'
p433
sg7
S'f3'
p434
sa(dp435
g7
S'f4'
p436
sa(dp437
g7
S'f5'
p438
sa(dp439
g5
S'black_knight'
p440
sg7
S'f6'
p441
sa(dp442
g5
S'black_pawn'
p443
sg7
S'f7'
p444
sa(dp445
g5
S'black_bishop'
p446
sg7
S'f8'
p447
sa(dp448
g5
S'white_king'
p449
sg7
S'g1'
p450
sa(dp451
g5
S'white_pawn'
p452
sg7
S'g2'
p453
sa(dp454
g7
S'g3'
p455
sa(dp456
g7
S'g4'
p457
sa(dp458
g7
S'g5'
p459
sa(dp460
g7
S'g6'
p461
sa(dp462
g5
S'black_pawn'
p463
sg7
S'g7'
p464
sa(dp465
g7
S'g8'
p466
sa(dp467
g7
S'h1'
p468
sa(dp469
g5
S'white_pawn'
p470
sg7
S'h2'
p471
sa(dp472
g7
S'h3'
p473
sa(dp474
g7
S'h4'
p475
sa(dp476
g7
S'h5'
p477
sa(dp478
g7
S'h6'
p479
sa(dp480
g5
S'black_pawn'
p481
sg7
S'h7'
p482
sa(dp483
g5
S'black_rook'
p484
sg7
S'h8'
p485
saaVThe right move. Now white threatens Re1 and Ng5. 
p486
aa(lp487
S'7... Qc7'
p488
a(lp489
(dp490
g5
S'white_rook'
p491
sg7
S'a1'
p492
sa(dp493
g5
S'white_pawn'
p494
sg7
S'a2'
p495
sa(dp496
g7
S'a3'
p497
sa(dp498
g7
S'a4'
p499
sa(dp500
g7
S'a5'
p501
sa(dp502
g7
S'a6'
p503
sa(dp504
g5
S'black_pawn'
p505
sg7
S'a7'
p506
sa(dp507
g5
S'black_rook'
p508
sg7
S'a8'
p509
sa(dp510
g5
S'white_knight'
p511
sg7
S'b1'
p512
sa(dp513
g5
S'white_pawn'
p514
sg7
S'b2'
p515
sa(dp516
g7
S'b3'
p517
sa(dp518
g7
S'b4'
p519
sa(dp520
g7
S'b5'
p521
sa(dp522
g7
S'b6'
p523
sa(dp524
g5
S'black_pawn'
p525
sg7
S'b7'
p526
sa(dp527
g7
S'b8'
p528
sa(dp529
g5
S'white_bishop'
p530
sg7
S'c1'
p531
sa(dp532
g5
S'white_pawn'
p533
sg7
S'c2'
p534
sa(dp535
g7
S'c3'
p536
sa(dp537
g7
S'c4'
p538
sa(dp539
g7
S'c5'
p540
sa(dp541
g5
S'black_pawn'
p542
sg7
S'c6'
p543
sa(dp544
g5
S'black_queen'
p545
sg7
S'c7'
p546
sa(dp547
g7
S'c8'
p548
sa(dp549
g5
S'white_queen'
p550
sg7
S'd1'
p551
sa(dp552
g7
S'd2'
p553
sa(dp554
g5
S'white_bishop'
p555
sg7
S'd3'
p556
sa(dp557
g5
S'white_pawn'
p558
sg7
S'd4'
p559
sa(dp560
g7
S'd5'
p561
sa(dp562
g7
S'd6'
p563
sa(dp564
g5
S'black_knight'
p565
sg7
S'd7'
p566
sa(dp567
g7
S'd8'
p568
sa(dp569
g7
S'e1'
p570
sa(dp571
g7
S'e2'
p572
sa(dp573
g7
S'e3'
p574
sa(dp575
g7
S'e4'
p576
sa(dp577
g7
S'e5'
p578
sa(dp579
g5
S'black_bishop'
p580
sg7
S'e6'
p581
sa(dp582
g7
S'e7'
p583
sa(dp584
g5
S'black_king'
p585
sg7
S'e8'
p586
sa(dp587
g5
S'white_rook'
p588
sg7
S'f1'
p589
sa(dp590
g5
S'white_pawn'
p591
sg7
S'f2'
p592
sa(dp593
g5
S'white_knight'
p594
sg7
S'f3'
p595
sa(dp596
g7
S'f4'
p597
sa(dp598
g7
S'f5'
p599
sa(dp600
g5
S'black_knight'
p601
sg7
S'f6'
p602
sa(dp603
g5
S'black_pawn'
p604
sg7
S'f7'
p605
sa(dp606
g5
S'black_bishop'
p607
sg7
S'f8'
p608
sa(dp609
g5
S'white_king'
p610
sg7
S'g1'
p611
sa(dp612
g5
S'white_pawn'
p613
sg7
S'g2'
p614
sa(dp615
g7
S'g3'
p616
sa(dp617
g7
S'g4'
p618
sa(dp619
g7
S'g5'
p620
sa(dp621
g7
S'g6'
p622
sa(dp623
g5
S'black_pawn'
p624
sg7
S'g7'
p625
sa(dp626
g7
S'g8'
p627
sa(dp628
g7
S'h1'
p629
sa(dp630
g5
S'white_pawn'
p631
sg7
S'h2'
p632
sa(dp633
g7
S'h3'
p634
sa(dp635
g7
S'h4'
p636
sa(dp637
g7
S'h5'
p638
sa(dp639
g7
S'h6'
p640
sa(dp641
g5
S'black_pawn'
p642
sg7
S'h7'
p643
sa(dp644
g5
S'black_rook'
p645
sg7
S'h8'
p646
saaVBetter is to castle and to prevent Bf4.
p647
aa(lp648
S'8. Nc3'
p649
a(lp650
(dp651
g5
S'white_rook'
p652
sg7
S'a1'
p653
sa(dp654
g5
S'white_pawn'
p655
sg7
S'a2'
p656
sa(dp657
g7
S'a3'
p658
sa(dp659
g7
S'a4'
p660
sa(dp661
g7
S'a5'
p662
sa(dp663
g7
S'a6'
p664
sa(dp665
g5
S'black_pawn'
p666
sg7
S'a7'
p667
sa(dp668
g5
S'black_rook'
p669
sg7
S'a8'
p670
sa(dp671
g7
S'b1'
p672
sa(dp673
g5
S'white_pawn'
p674
sg7
S'b2'
p675
sa(dp676
g7
S'b3'
p677
sa(dp678
g7
S'b4'
p679
sa(dp680
g7
S'b5'
p681
sa(dp682
g7
S'b6'
p683
sa(dp684
g5
S'black_pawn'
p685
sg7
S'b7'
p686
sa(dp687
g7
S'b8'
p688
sa(dp689
g5
S'white_bishop'
p690
sg7
S'c1'
p691
sa(dp692
g5
S'white_pawn'
p693
sg7
S'c2'
p694
sa(dp695
g5
S'white_knight'
p696
sg7
S'c3'
p697
sa(dp698
g7
S'c4'
p699
sa(dp700
g7
S'c5'
p701
sa(dp702
g5
S'black_pawn'
p703
sg7
S'c6'
p704
sa(dp705
g5
S'black_queen'
p706
sg7
S'c7'
p707
sa(dp708
g7
S'c8'
p709
sa(dp710
g5
S'white_queen'
p711
sg7
S'd1'
p712
sa(dp713
g7
S'd2'
p714
sa(dp715
g5
S'white_bishop'
p716
sg7
S'd3'
p717
sa(dp718
g5
S'white_pawn'
p719
sg7
S'd4'
p720
sa(dp721
g7
S'd5'
p722
sa(dp723
g7
S'd6'
p724
sa(dp725
g5
S'black_knight'
p726
sg7
S'd7'
p727
sa(dp728
g7
S'd8'
p729
sa(dp730
g7
S'e1'
p731
sa(dp732
g7
S'e2'
p733
sa(dp734
g7
S'e3'
p735
sa(dp736
g7
S'e4'
p737
sa(dp738
g7
S'e5'
p739
sa(dp740
g5
S'black_bishop'
p741
sg7
S'e6'
p742
sa(dp743
g7
S'e7'
p744
sa(dp745
g5
S'black_king'
p746
sg7
S'e8'
p747
sa(dp748
g5
S'white_rook'
p749
sg7
S'f1'
p750
sa(dp751
g5
S'white_pawn'
p752
sg7
S'f2'
p753
sa(dp754
g5
S'white_knight'
p755
sg7
S'f3'
p756
sa(dp757
g7
S'f4'
p758
sa(dp759
g7
S'f5'
p760
sa(dp761
g5
S'black_knight'
p762
sg7
S'f6'
p763
sa(dp764
g5
S'black_pawn'
p765
sg7
S'f7'
p766
sa(dp767
g5
S'black_bishop'
p768
sg7
S'f8'
p769
sa(dp770
g5
S'white_king'
p771
sg7
S'g1'
p772
sa(dp773
g5
S'white_pawn'
p774
sg7
S'g2'
p775
sa(dp776
g7
S'g3'
p777
sa(dp778
g7
S'g4'
p779
sa(dp780
g7
S'g5'
p781
sa(dp782
g7
S'g6'
p783
sa(dp784
g5
S'black_pawn'
p785
sg7
S'g7'
p786
sa(dp787
g7
S'g8'
p788
sa(dp789
g7
S'h1'
p790
sa(dp791
g5
S'white_pawn'
p792
sg7
S'h2'
p793
sa(dp794
g7
S'h3'
p795
sa(dp796
g7
S'h4'
p797
sa(dp798
g7
S'h5'
p799
sa(dp800
g7
S'h6'
p801
sa(dp802
g5
S'black_pawn'
p803
sg7
S'h7'
p804
sa(dp805
g5
S'black_rook'
p806
sg7
S'h8'
p807
saaVSome players prefer c4. This is a tempo for me to consolidate my position. 
p808
aa(lp809
S'8... h6'
p810
a(lp811
(dp812
g5
S'white_rook'
p813
sg7
S'a1'
p814
sa(dp815
g5
S'white_pawn'
p816
sg7
S'a2'
p817
sa(dp818
g7
S'a3'
p819
sa(dp820
g7
S'a4'
p821
sa(dp822
g7
S'a5'
p823
sa(dp824
g7
S'a6'
p825
sa(dp826
g5
S'black_pawn'
p827
sg7
S'a7'
p828
sa(dp829
g5
S'black_rook'
p830
sg7
S'a8'
p831
sa(dp832
g7
S'b1'
p833
sa(dp834
g5
S'white_pawn'
p835
sg7
S'b2'
p836
sa(dp837
g7
S'b3'
p838
sa(dp839
g7
S'b4'
p840
sa(dp841
g7
S'b5'
p842
sa(dp843
g7
S'b6'
p844
sa(dp845
g5
S'black_pawn'
p846
sg7
S'b7'
p847
sa(dp848
g7
S'b8'
p849
sa(dp850
g5
S'white_bishop'
p851
sg7
S'c1'
p852
sa(dp853
g5
S'white_pawn'
p854
sg7
S'c2'
p855
sa(dp856
g5
S'white_knight'
p857
sg7
S'c3'
p858
sa(dp859
g7
S'c4'
p860
sa(dp861
g7
S'c5'
p862
sa(dp863
g5
S'black_pawn'
p864
sg7
S'c6'
p865
sa(dp866
g5
S'black_queen'
p867
sg7
S'c7'
p868
sa(dp869
g7
S'c8'
p870
sa(dp871
g5
S'white_queen'
p872
sg7
S'd1'
p873
sa(dp874
g7
S'd2'
p875
sa(dp876
g5
S'white_bishop'
p877
sg7
S'd3'
p878
sa(dp879
g5
S'white_pawn'
p880
sg7
S'd4'
p881
sa(dp882
g7
S'd5'
p883
sa(dp884
g7
S'd6'
p885
sa(dp886
g5
S'black_knight'
p887
sg7
S'd7'
p888
sa(dp889
g7
S'd8'
p890
sa(dp891
g7
S'e1'
p892
sa(dp893
g7
S'e2'
p894
sa(dp895
g7
S'e3'
p896
sa(dp897
g7
S'e4'
p898
sa(dp899
g7
S'e5'
p900
sa(dp901
g5
S'black_bishop'
p902
sg7
S'e6'
p903
sa(dp904
g7
S'e7'
p905
sa(dp906
g5
S'black_king'
p907
sg7
S'e8'
p908
sa(dp909
g5
S'white_rook'
p910
sg7
S'f1'
p911
sa(dp912
g5
S'white_pawn'
p913
sg7
S'f2'
p914
sa(dp915
g5
S'white_knight'
p916
sg7
S'f3'
p917
sa(dp918
g7
S'f4'
p919
sa(dp920
g7
S'f5'
p921
sa(dp922
g5
S'black_knight'
p923
sg7
S'f6'
p924
sa(dp925
g5
S'black_pawn'
p926
sg7
S'f7'
p927
sa(dp928
g5
S'black_bishop'
p929
sg7
S'f8'
p930
sa(dp931
g5
S'white_king'
p932
sg7
S'g1'
p933
sa(dp934
g5
S'white_pawn'
p935
sg7
S'g2'
p936
sa(dp937
g7
S'g3'
p938
sa(dp939
g7
S'g4'
p940
sa(dp941
g7
S'g5'
p942
sa(dp943
g7
S'g6'
p944
sa(dp945
g5
S'black_pawn'
p946
sg7
S'g7'
p947
sa(dp948
g7
S'g8'
p949
sa(dp950
g7
S'h1'
p951
sa(dp952
g5
S'white_pawn'
p953
sg7
S'h2'
p954
sa(dp955
g7
S'h3'
p956
sa(dp957
g7
S'h4'
p958
sa(dp959
g7
S'h5'
p960
sa(dp961
g5
S'black_pawn'
p962
sg7
S'h6'
p963
sa(dp964
g7
S'h7'
p965
sa(dp966
g5
S'black_rook'
p967
sg7
S'h8'
p968
saaVIf Re1, o-o-o. Then, white can get ideas of RxB, and it is another game. 
p969
aa(lp970
S'9. Re1 O-O-O 10. Be3'
p971
a(lp972
(dp973
g5
S'white_rook'
p974
sg7
S'a1'
p975
sa(dp976
g5
S'white_pawn'
p977
sg7
S'a2'
p978
sa(dp979
g7
S'a3'
p980
sa(dp981
g7
S'a4'
p982
sa(dp983
g7
S'a5'
p984
sa(dp985
g7
S'a6'
p986
sa(dp987
g5
S'black_pawn'
p988
sg7
S'a7'
p989
sa(dp990
g7
S'a8'
p991
sa(dp992
g7
S'b1'
p993
sa(dp994
g5
S'white_pawn'
p995
sg7
S'b2'
p996
sa(dp997
g7
S'b3'
p998
sa(dp999
g7
S'b4'
p1000
sa(dp1001
g7
S'b5'
p1002
sa(dp1003
g7
S'b6'
p1004
sa(dp1005
g5
S'black_pawn'
p1006
sg7
S'b7'
p1007
sa(dp1008
g7
S'b8'
p1009
sa(dp1010
g7
S'c1'
p1011
sa(dp1012
g5
S'white_pawn'
p1013
sg7
S'c2'
p1014
sa(dp1015
g5
S'white_knight'
p1016
sg7
S'c3'
p1017
sa(dp1018
g7
S'c4'
p1019
sa(dp1020
g7
S'c5'
p1021
sa(dp1022
g5
S'black_pawn'
p1023
sg7
S'c6'
p1024
sa(dp1025
g5
S'black_queen'
p1026
sg7
S'c7'
p1027
sa(dp1028
g5
S'black_king'
p1029
sg7
S'c8'
p1030
sa(dp1031
g5
S'white_queen'
p1032
sg7
S'd1'
p1033
sa(dp1034
g7
S'd2'
p1035
sa(dp1036
g5
S'white_bishop'
p1037
sg7
S'd3'
p1038
sa(dp1039
g5
S'white_pawn'
p1040
sg7
S'd4'
p1041
sa(dp1042
g7
S'd5'
p1043
sa(dp1044
g7
S'd6'
p1045
sa(dp1046
g5
S'black_knight'
p1047
sg7
S'd7'
p1048
sa(dp1049
g5
S'black_rook'
p1050
sg7
S'd8'
p1051
sa(dp1052
g5
S'white_rook'
p1053
sg7
S'e1'
p1054
sa(dp1055
g7
S'e2'
p1056
sa(dp1057
g5
S'white_bishop'
p1058
sg7
S'e3'
p1059
sa(dp1060
g7
S'e4'
p1061
sa(dp1062
g7
S'e5'
p1063
sa(dp1064
g5
S'black_bishop'
p1065
sg7
S'e6'
p1066
sa(dp1067
g7
S'e7'
p1068
sa(dp1069
g7
S'e8'
p1070
sa(dp1071
g7
S'f1'
p1072
sa(dp1073
g5
S'white_pawn'
p1074
sg7
S'f2'
p1075
sa(dp1076
g5
S'white_knight'
p1077
sg7
S'f3'
p1078
sa(dp1079
g7
S'f4'
p1080
sa(dp1081
g7
S'f5'
p1082
sa(dp1083
g5
S'black_knight'
p1084
sg7
S'f6'
p1085
sa(dp1086
g5
S'black_pawn'
p1087
sg7
S'f7'
p1088
sa(dp1089
g5
S'black_bishop'
p1090
sg7
S'f8'
p1091
sa(dp1092
g5
S'white_king'
p1093
sg7
S'g1'
p1094
sa(dp1095
g5
S'white_pawn'
p1096
sg7
S'g2'
p1097
sa(dp1098
g7
S'g3'
p1099
sa(dp1100
g7
S'g4'
p1101
sa(dp1102
g7
S'g5'
p1103
sa(dp1104
g7
S'g6'
p1105
sa(dp1106
g5
S'black_pawn'
p1107
sg7
S'g7'
p1108
sa(dp1109
g7
S'g8'
p1110
sa(dp1111
g7
S'h1'
p1112
sa(dp1113
g5
S'white_pawn'
p1114
sg7
S'h2'
p1115
sa(dp1116
g7
S'h3'
p1117
sa(dp1118
g7
S'h4'
p1119
sa(dp1120
g7
S'h5'
p1121
sa(dp1122
g5
S'black_pawn'
p1123
sg7
S'h6'
p1124
sa(dp1125
g7
S'h7'
p1126
sa(dp1127
g5
S'black_rook'
p1128
sg7
S'h8'
p1129
saaVThreatens d5, x-raying a7.
p1130
aa(lp1131
S'10... g5'
p1132
a(lp1133
(dp1134
g5
S'white_rook'
p1135
sg7
S'a1'
p1136
sa(dp1137
g5
S'white_pawn'
p1138
sg7
S'a2'
p1139
sa(dp1140
g7
S'a3'
p1141
sa(dp1142
g7
S'a4'
p1143
sa(dp1144
g7
S'a5'
p1145
sa(dp1146
g7
S'a6'
p1147
sa(dp1148
g5
S'black_pawn'
p1149
sg7
S'a7'
p1150
sa(dp1151
g7
S'a8'
p1152
sa(dp1153
g7
S'b1'
p1154
sa(dp1155
g5
S'white_pawn'
p1156
sg7
S'b2'
p1157
sa(dp1158
g7
S'b3'
p1159
sa(dp1160
g7
S'b4'
p1161
sa(dp1162
g7
S'b5'
p1163
sa(dp1164
g7
S'b6'
p1165
sa(dp1166
g5
S'black_pawn'
p1167
sg7
S'b7'
p1168
sa(dp1169
g7
S'b8'
p1170
sa(dp1171
g7
S'c1'
p1172
sa(dp1173
g5
S'white_pawn'
p1174
sg7
S'c2'
p1175
sa(dp1176
g5
S'white_knight'
p1177
sg7
S'c3'
p1178
sa(dp1179
g7
S'c4'
p1180
sa(dp1181
g7
S'c5'
p1182
sa(dp1183
g5
S'black_pawn'
p1184
sg7
S'c6'
p1185
sa(dp1186
g5
S'black_queen'
p1187
sg7
S'c7'
p1188
sa(dp1189
g5
S'black_king'
p1190
sg7
S'c8'
p1191
sa(dp1192
g5
S'white_queen'
p1193
sg7
S'd1'
p1194
sa(dp1195
g7
S'd2'
p1196
sa(dp1197
g5
S'white_bishop'
p1198
sg7
S'd3'
p1199
sa(dp1200
g5
S'white_pawn'
p1201
sg7
S'd4'
p1202
sa(dp1203
g7
S'd5'
p1204
sa(dp1205
g7
S'd6'
p1206
sa(dp1207
g5
S'black_knight'
p1208
sg7
S'd7'
p1209
sa(dp1210
g5
S'black_rook'
p1211
sg7
S'd8'
p1212
sa(dp1213
g5
S'white_rook'
p1214
sg7
S'e1'
p1215
sa(dp1216
g7
S'e2'
p1217
sa(dp1218
g5
S'white_bishop'
p1219
sg7
S'e3'
p1220
sa(dp1221
g7
S'e4'
p1222
sa(dp1223
g7
S'e5'
p1224
sa(dp1225
g5
S'black_bishop'
p1226
sg7
S'e6'
p1227
sa(dp1228
g7
S'e7'
p1229
sa(dp1230
g7
S'e8'
p1231
sa(dp1232
g7
S'f1'
p1233
sa(dp1234
g5
S'white_pawn'
p1235
sg7
S'f2'
p1236
sa(dp1237
g5
S'white_knight'
p1238
sg7
S'f3'
p1239
sa(dp1240
g7
S'f4'
p1241
sa(dp1242
g7
S'f5'
p1243
sa(dp1244
g5
S'black_knight'
p1245
sg7
S'f6'
p1246
sa(dp1247
g5
S'black_pawn'
p1248
sg7
S'f7'
p1249
sa(dp1250
g5
S'black_bishop'
p1251
sg7
S'f8'
p1252
sa(dp1253
g5
S'white_king'
p1254
sg7
S'g1'
p1255
sa(dp1256
g5
S'white_pawn'
p1257
sg7
S'g2'
p1258
sa(dp1259
g7
S'g3'
p1260
sa(dp1261
g7
S'g4'
p1262
sa(dp1263
g5
S'black_pawn'
p1264
sg7
S'g5'
p1265
sa(dp1266
g7
S'g6'
p1267
sa(dp1268
g7
S'g7'
p1269
sa(dp1270
g7
S'g8'
p1271
sa(dp1272
g7
S'h1'
p1273
sa(dp1274
g5
S'white_pawn'
p1275
sg7
S'h2'
p1276
sa(dp1277
g7
S'h3'
p1278
sa(dp1279
g7
S'h4'
p1280
sa(dp1281
g7
S'h5'
p1282
sa(dp1283
g5
S'black_pawn'
p1284
sg7
S'h6'
p1285
sa(dp1286
g7
S'h7'
p1287
sa(dp1288
g5
S'black_rook'
p1289
sg7
S'h8'
p1290
saaVI don't care. I have to attack asap.
p1291
aa(lp1292
S'11. d5 Nxd5 12. Nxd5 Bxd5 13. c4 Be6'
p1293
a(lp1294
(dp1295
g5
S'white_rook'
p1296
sg7
S'a1'
p1297
sa(dp1298
g5
S'white_pawn'
p1299
sg7
S'a2'
p1300
sa(dp1301
g7
S'a3'
p1302
sa(dp1303
g7
S'a4'
p1304
sa(dp1305
g7
S'a5'
p1306
sa(dp1307
g7
S'a6'
p1308
sa(dp1309
g5
S'black_pawn'
p1310
sg7
S'a7'
p1311
sa(dp1312
g7
S'a8'
p1313
sa(dp1314
g7
S'b1'
p1315
sa(dp1316
g5
S'white_pawn'
p1317
sg7
S'b2'
p1318
sa(dp1319
g7
S'b3'
p1320
sa(dp1321
g7
S'b4'
p1322
sa(dp1323
g7
S'b5'
p1324
sa(dp1325
g7
S'b6'
p1326
sa(dp1327
g5
S'black_pawn'
p1328
sg7
S'b7'
p1329
sa(dp1330
g7
S'b8'
p1331
sa(dp1332
g7
S'c1'
p1333
sa(dp1334
g7
S'c2'
p1335
sa(dp1336
g7
S'c3'
p1337
sa(dp1338
g5
S'white_pawn'
p1339
sg7
S'c4'
p1340
sa(dp1341
g7
S'c5'
p1342
sa(dp1343
g5
S'black_pawn'
p1344
sg7
S'c6'
p1345
sa(dp1346
g5
S'black_queen'
p1347
sg7
S'c7'
p1348
sa(dp1349
g5
S'black_king'
p1350
sg7
S'c8'
p1351
sa(dp1352
g5
S'white_queen'
p1353
sg7
S'd1'
p1354
sa(dp1355
g7
S'd2'
p1356
sa(dp1357
g5
S'white_bishop'
p1358
sg7
S'd3'
p1359
sa(dp1360
g7
S'd4'
p1361
sa(dp1362
g7
S'd5'
p1363
sa(dp1364
g7
S'd6'
p1365
sa(dp1366
g5
S'black_knight'
p1367
sg7
S'd7'
p1368
sa(dp1369
g5
S'black_rook'
p1370
sg7
S'd8'
p1371
sa(dp1372
g5
S'white_rook'
p1373
sg7
S'e1'
p1374
sa(dp1375
g7
S'e2'
p1376
sa(dp1377
g5
S'white_bishop'
p1378
sg7
S'e3'
p1379
sa(dp1380
g7
S'e4'
p1381
sa(dp1382
g7
S'e5'
p1383
sa(dp1384
g5
S'black_bishop'
p1385
sg7
S'e6'
p1386
sa(dp1387
g7
S'e7'
p1388
sa(dp1389
g7
S'e8'
p1390
sa(dp1391
g7
S'f1'
p1392
sa(dp1393
g5
S'white_pawn'
p1394
sg7
S'f2'
p1395
sa(dp1396
g5
S'white_knight'
p1397
sg7
S'f3'
p1398
sa(dp1399
g7
S'f4'
p1400
sa(dp1401
g7
S'f5'
p1402
sa(dp1403
g7
S'f6'
p1404
sa(dp1405
g5
S'black_pawn'
p1406
sg7
S'f7'
p1407
sa(dp1408
g5
S'black_bishop'
p1409
sg7
S'f8'
p1410
sa(dp1411
g5
S'white_king'
p1412
sg7
S'g1'
p1413
sa(dp1414
g5
S'white_pawn'
p1415
sg7
S'g2'
p1416
sa(dp1417
g7
S'g3'
p1418
sa(dp1419
g7
S'g4'
p1420
sa(dp1421
g5
S'black_pawn'
p1422
sg7
S'g5'
p1423
sa(dp1424
g7
S'g6'
p1425
sa(dp1426
g7
S'g7'
p1427
sa(dp1428
g7
S'g8'
p1429
sa(dp1430
g7
S'h1'
p1431
sa(dp1432
g5
S'white_pawn'
p1433
sg7
S'h2'
p1434
sa(dp1435
g7
S'h3'
p1436
sa(dp1437
g7
S'h4'
p1438
sa(dp1439
g7
S'h5'
p1440
sa(dp1441
g5
S'black_pawn'
p1442
sg7
S'h6'
p1443
sa(dp1444
g7
S'h7'
p1445
sa(dp1446
g5
S'black_rook'
p1447
sg7
S'h8'
p1448
saaVWhite will eventually break into my Qside, so I have to keep chances on his Kside.
p1449
aa(lp1450
S'14. Bxa7'
p1451
a(lp1452
(dp1453
g5
S'white_rook'
p1454
sg7
S'a1'
p1455
sa(dp1456
g5
S'white_pawn'
p1457
sg7
S'a2'
p1458
sa(dp1459
g7
S'a3'
p1460
sa(dp1461
g7
S'a4'
p1462
sa(dp1463
g7
S'a5'
p1464
sa(dp1465
g7
S'a6'
p1466
sa(dp1467
g5
S'white_bishop'
p1468
sg7
S'a7'
p1469
sa(dp1470
g7
S'a8'
p1471
sa(dp1472
g7
S'b1'
p1473
sa(dp1474
g5
S'white_pawn'
p1475
sg7
S'b2'
p1476
sa(dp1477
g7
S'b3'
p1478
sa(dp1479
g7
S'b4'
p1480
sa(dp1481
g7
S'b5'
p1482
sa(dp1483
g7
S'b6'
p1484
sa(dp1485
g5
S'black_pawn'
p1486
sg7
S'b7'
p1487
sa(dp1488
g7
S'b8'
p1489
sa(dp1490
g7
S'c1'
p1491
sa(dp1492
g7
S'c2'
p1493
sa(dp1494
g7
S'c3'
p1495
sa(dp1496
g5
S'white_pawn'
p1497
sg7
S'c4'
p1498
sa(dp1499
g7
S'c5'
p1500
sa(dp1501
g5
S'black_pawn'
p1502
sg7
S'c6'
p1503
sa(dp1504
g5
S'black_queen'
p1505
sg7
S'c7'
p1506
sa(dp1507
g5
S'black_king'
p1508
sg7
S'c8'
p1509
sa(dp1510
g5
S'white_queen'
p1511
sg7
S'd1'
p1512
sa(dp1513
g7
S'd2'
p1514
sa(dp1515
g5
S'white_bishop'
p1516
sg7
S'd3'
p1517
sa(dp1518
g7
S'd4'
p1519
sa(dp1520
g7
S'd5'
p1521
sa(dp1522
g7
S'd6'
p1523
sa(dp1524
g5
S'black_knight'
p1525
sg7
S'd7'
p1526
sa(dp1527
g5
S'black_rook'
p1528
sg7
S'd8'
p1529
sa(dp1530
g5
S'white_rook'
p1531
sg7
S'e1'
p1532
sa(dp1533
g7
S'e2'
p1534
sa(dp1535
g7
S'e3'
p1536
sa(dp1537
g7
S'e4'
p1538
sa(dp1539
g7
S'e5'
p1540
sa(dp1541
g5
S'black_bishop'
p1542
sg7
S'e6'
p1543
sa(dp1544
g7
S'e7'
p1545
sa(dp1546
g7
S'e8'
p1547
sa(dp1548
g7
S'f1'
p1549
sa(dp1550
g5
S'white_pawn'
p1551
sg7
S'f2'
p1552
sa(dp1553
g5
S'white_knight'
p1554
sg7
S'f3'
p1555
sa(dp1556
g7
S'f4'
p1557
sa(dp1558
g7
S'f5'
p1559
sa(dp1560
g7
S'f6'
p1561
sa(dp1562
g5
S'black_pawn'
p1563
sg7
S'f7'
p1564
sa(dp1565
g5
S'black_bishop'
p1566
sg7
S'f8'
p1567
sa(dp1568
g5
S'white_king'
p1569
sg7
S'g1'
p1570
sa(dp1571
g5
S'white_pawn'
p1572
sg7
S'g2'
p1573
sa(dp1574
g7
S'g3'
p1575
sa(dp1576
g7
S'g4'
p1577
sa(dp1578
g5
S'black_pawn'
p1579
sg7
S'g5'
p1580
sa(dp1581
g7
S'g6'
p1582
sa(dp1583
g7
S'g7'
p1584
sa(dp1585
g7
S'g8'
p1586
sa(dp1587
g7
S'h1'
p1588
sa(dp1589
g5
S'white_pawn'
p1590
sg7
S'h2'
p1591
sa(dp1592
g7
S'h3'
p1593
sa(dp1594
g7
S'h4'
p1595
sa(dp1596
g7
S'h5'
p1597
sa(dp1598
g5
S'black_pawn'
p1599
sg7
S'h6'
p1600
sa(dp1601
g7
S'h7'
p1602
sa(dp1603
g5
S'black_rook'
p1604
sg7
S'h8'
p1605
saaVI should have left it where it is, that's all! Now I have another tempo to build my attack: g4, Be7...
p1606
aa(lp1607
S'14... b6'
p1608
a(lp1609
(dp1610
g5
S'white_rook'
p1611
sg7
S'a1'
p1612
sa(dp1613
g5
S'white_pawn'
p1614
sg7
S'a2'
p1615
sa(dp1616
g7
S'a3'
p1617
sa(dp1618
g7
S'a4'
p1619
sa(dp1620
g7
S'a5'
p1621
sa(dp1622
g7
S'a6'
p1623
sa(dp1624
g5
S'white_bishop'
p1625
sg7
S'a7'
p1626
sa(dp1627
g7
S'a8'
p1628
sa(dp1629
g7
S'b1'
p1630
sa(dp1631
g5
S'white_pawn'
p1632
sg7
S'b2'
p1633
sa(dp1634
g7
S'b3'
p1635
sa(dp1636
g7
S'b4'
p1637
sa(dp1638
g7
S'b5'
p1639
sa(dp1640
g5
S'black_pawn'
p1641
sg7
S'b6'
p1642
sa(dp1643
g7
S'b7'
p1644
sa(dp1645
g7
S'b8'
p1646
sa(dp1647
g7
S'c1'
p1648
sa(dp1649
g7
S'c2'
p1650
sa(dp1651
g7
S'c3'
p1652
sa(dp1653
g5
S'white_pawn'
p1654
sg7
S'c4'
p1655
sa(dp1656
g7
S'c5'
p1657
sa(dp1658
g5
S'black_pawn'
p1659
sg7
S'c6'
p1660
sa(dp1661
g5
S'black_queen'
p1662
sg7
S'c7'
p1663
sa(dp1664
g5
S'black_king'
p1665
sg7
S'c8'
p1666
sa(dp1667
g5
S'white_queen'
p1668
sg7
S'd1'
p1669
sa(dp1670
g7
S'd2'
p1671
sa(dp1672
g5
S'white_bishop'
p1673
sg7
S'd3'
p1674
sa(dp1675
g7
S'd4'
p1676
sa(dp1677
g7
S'd5'
p1678
sa(dp1679
g7
S'd6'
p1680
sa(dp1681
g5
S'black_knight'
p1682
sg7
S'd7'
p1683
sa(dp1684
g5
S'black_rook'
p1685
sg7
S'd8'
p1686
sa(dp1687
g5
S'white_rook'
p1688
sg7
S'e1'
p1689
sa(dp1690
g7
S'e2'
p1691
sa(dp1692
g7
S'e3'
p1693
sa(dp1694
g7
S'e4'
p1695
sa(dp1696
g7
S'e5'
p1697
sa(dp1698
g5
S'black_bishop'
p1699
sg7
S'e6'
p1700
sa(dp1701
g7
S'e7'
p1702
sa(dp1703
g7
S'e8'
p1704
sa(dp1705
g7
S'f1'
p1706
sa(dp1707
g5
S'white_pawn'
p1708
sg7
S'f2'
p1709
sa(dp1710
g5
S'white_knight'
p1711
sg7
S'f3'
p1712
sa(dp1713
g7
S'f4'
p1714
sa(dp1715
g7
S'f5'
p1716
sa(dp1717
g7
S'f6'
p1718
sa(dp1719
g5
S'black_pawn'
p1720
sg7
S'f7'
p1721
sa(dp1722
g5
S'black_bishop'
p1723
sg7
S'f8'
p1724
sa(dp1725
g5
S'white_king'
p1726
sg7
S'g1'
p1727
sa(dp1728
g5
S'white_pawn'
p1729
sg7
S'g2'
p1730
sa(dp1731
g7
S'g3'
p1732
sa(dp1733
g7
S'g4'
p1734
sa(dp1735
g5
S'black_pawn'
p1736
sg7
S'g5'
p1737
sa(dp1738
g7
S'g6'
p1739
sa(dp1740
g7
S'g7'
p1741
sa(dp1742
g7
S'g8'
p1743
sa(dp1744
g7
S'h1'
p1745
sa(dp1746
g5
S'white_pawn'
p1747
sg7
S'h2'
p1748
sa(dp1749
g7
S'h3'
p1750
sa(dp1751
g7
S'h4'
p1752
sa(dp1753
g7
S'h5'
p1754
sa(dp1755
g5
S'black_pawn'
p1756
sg7
S'h6'
p1757
sa(dp1758
g7
S'h7'
p1759
sa(dp1760
g5
S'black_rook'
p1761
sg7
S'h8'
p1762
saaVI wanted to trap it, but it was the beginning of a more complicated motif. 
p1763
aa(lp1764
S'15. Qa4'
p1765
a(lp1766
(dp1767
g5
S'white_rook'
p1768
sg7
S'a1'
p1769
sa(dp1770
g5
S'white_pawn'
p1771
sg7
S'a2'
p1772
sa(dp1773
g7
S'a3'
p1774
sa(dp1775
g5
S'white_queen'
p1776
sg7
S'a4'
p1777
sa(dp1778
g7
S'a5'
p1779
sa(dp1780
g7
S'a6'
p1781
sa(dp1782
g5
S'white_bishop'
p1783
sg7
S'a7'
p1784
sa(dp1785
g7
S'a8'
p1786
sa(dp1787
g7
S'b1'
p1788
sa(dp1789
g5
S'white_pawn'
p1790
sg7
S'b2'
p1791
sa(dp1792
g7
S'b3'
p1793
sa(dp1794
g7
S'b4'
p1795
sa(dp1796
g7
S'b5'
p1797
sa(dp1798
g5
S'black_pawn'
p1799
sg7
S'b6'
p1800
sa(dp1801
g7
S'b7'
p1802
sa(dp1803
g7
S'b8'
p1804
sa(dp1805
g7
S'c1'
p1806
sa(dp1807
g7
S'c2'
p1808
sa(dp1809
g7
S'c3'
p1810
sa(dp1811
g5
S'white_pawn'
p1812
sg7
S'c4'
p1813
sa(dp1814
g7
S'c5'
p1815
sa(dp1816
g5
S'black_pawn'
p1817
sg7
S'c6'
p1818
sa(dp1819
g5
S'black_queen'
p1820
sg7
S'c7'
p1821
sa(dp1822
g5
S'black_king'
p1823
sg7
S'c8'
p1824
sa(dp1825
g7
S'd1'
p1826
sa(dp1827
g7
S'd2'
p1828
sa(dp1829
g5
S'white_bishop'
p1830
sg7
S'd3'
p1831
sa(dp1832
g7
S'd4'
p1833
sa(dp1834
g7
S'd5'
p1835
sa(dp1836
g7
S'd6'
p1837
sa(dp1838
g5
S'black_knight'
p1839
sg7
S'd7'
p1840
sa(dp1841
g5
S'black_rook'
p1842
sg7
S'd8'
p1843
sa(dp1844
g5
S'white_rook'
p1845
sg7
S'e1'
p1846
sa(dp1847
g7
S'e2'
p1848
sa(dp1849
g7
S'e3'
p1850
sa(dp1851
g7
S'e4'
p1852
sa(dp1853
g7
S'e5'
p1854
sa(dp1855
g5
S'black_bishop'
p1856
sg7
S'e6'
p1857
sa(dp1858
g7
S'e7'
p1859
sa(dp1860
g7
S'e8'
p1861
sa(dp1862
g7
S'f1'
p1863
sa(dp1864
g5
S'white_pawn'
p1865
sg7
S'f2'
p1866
sa(dp1867
g5
S'white_knight'
p1868
sg7
S'f3'
p1869
sa(dp1870
g7
S'f4'
p1871
sa(dp1872
g7
S'f5'
p1873
sa(dp1874
g7
S'f6'
p1875
sa(dp1876
g5
S'black_pawn'
p1877
sg7
S'f7'
p1878
sa(dp1879
g5
S'black_bishop'
p1880
sg7
S'f8'
p1881
sa(dp1882
g5
S'white_king'
p1883
sg7
S'g1'
p1884
sa(dp1885
g5
S'white_pawn'
p1886
sg7
S'g2'
p1887
sa(dp1888
g7
S'g3'
p1889
sa(dp1890
g7
S'g4'
p1891
sa(dp1892
g5
S'black_pawn'
p1893
sg7
S'g5'
p1894
sa(dp1895
g7
S'g6'
p1896
sa(dp1897
g7
S'g7'
p1898
sa(dp1899
g7
S'g8'
p1900
sa(dp1901
g7
S'h1'
p1902
sa(dp1903
g5
S'white_pawn'
p1904
sg7
S'h2'
p1905
sa(dp1906
g7
S'h3'
p1907
sa(dp1908
g7
S'h4'
p1909
sa(dp1910
g7
S'h5'
p1911
sa(dp1912
g5
S'black_pawn'
p1913
sg7
S'h6'
p1914
sa(dp1915
g7
S'h7'
p1916
sa(dp1917
g5
S'black_rook'
p1918
sg7
S'h8'
p1919
saaVQa6+ is threatened. 
p1920
aa(lp1921
S'15... Nc5 16. Qa3 Rxd3 17. b3'
p1922
a(lp1923
(dp1924
g5
S'white_rook'
p1925
sg7
S'a1'
p1926
sa(dp1927
g5
S'white_pawn'
p1928
sg7
S'a2'
p1929
sa(dp1930
g5
S'white_queen'
p1931
sg7
S'a3'
p1932
sa(dp1933
g7
S'a4'
p1934
sa(dp1935
g7
S'a5'
p1936
sa(dp1937
g7
S'a6'
p1938
sa(dp1939
g5
S'white_bishop'
p1940
sg7
S'a7'
p1941
sa(dp1942
g7
S'a8'
p1943
sa(dp1944
g7
S'b1'
p1945
sa(dp1946
g7
S'b2'
p1947
sa(dp1948
g5
S'white_pawn'
p1949
sg7
S'b3'
p1950
sa(dp1951
g7
S'b4'
p1952
sa(dp1953
g7
S'b5'
p1954
sa(dp1955
g5
S'black_pawn'
p1956
sg7
S'b6'
p1957
sa(dp1958
g7
S'b7'
p1959
sa(dp1960
g7
S'b8'
p1961
sa(dp1962
g7
S'c1'
p1963
sa(dp1964
g7
S'c2'
p1965
sa(dp1966
g7
S'c3'
p1967
sa(dp1968
g5
S'white_pawn'
p1969
sg7
S'c4'
p1970
sa(dp1971
g5
S'black_knight'
p1972
sg7
S'c5'
p1973
sa(dp1974
g5
S'black_pawn'
p1975
sg7
S'c6'
p1976
sa(dp1977
g5
S'black_queen'
p1978
sg7
S'c7'
p1979
sa(dp1980
g5
S'black_king'
p1981
sg7
S'c8'
p1982
sa(dp1983
g7
S'd1'
p1984
sa(dp1985
g7
S'd2'
p1986
sa(dp1987
g5
S'black_rook'
p1988
sg7
S'd3'
p1989
sa(dp1990
g7
S'd4'
p1991
sa(dp1992
g7
S'd5'
p1993
sa(dp1994
g7
S'd6'
p1995
sa(dp1996
g7
S'd7'
p1997
sa(dp1998
g7
S'd8'
p1999
sa(dp2000
g5
S'white_rook'
p2001
sg7
S'e1'
p2002
sa(dp2003
g7
S'e2'
p2004
sa(dp2005
g7
S'e3'
p2006
sa(dp2007
g7
S'e4'
p2008
sa(dp2009
g7
S'e5'
p2010
sa(dp2011
g5
S'black_bishop'
p2012
sg7
S'e6'
p2013
sa(dp2014
g7
S'e7'
p2015
sa(dp2016
g7
S'e8'
p2017
sa(dp2018
g7
S'f1'
p2019
sa(dp2020
g5
S'white_pawn'
p2021
sg7
S'f2'
p2022
sa(dp2023
g5
S'white_knight'
p2024
sg7
S'f3'
p2025
sa(dp2026
g7
S'f4'
p2027
sa(dp2028
g7
S'f5'
p2029
sa(dp2030
g7
S'f6'
p2031
sa(dp2032
g5
S'black_pawn'
p2033
sg7
S'f7'
p2034
sa(dp2035
g5
S'black_bishop'
p2036
sg7
S'f8'
p2037
sa(dp2038
g5
S'white_king'
p2039
sg7
S'g1'
p2040
sa(dp2041
g5
S'white_pawn'
p2042
sg7
S'g2'
p2043
sa(dp2044
g7
S'g3'
p2045
sa(dp2046
g7
S'g4'
p2047
sa(dp2048
g5
S'black_pawn'
p2049
sg7
S'g5'
p2050
sa(dp2051
g7
S'g6'
p2052
sa(dp2053
g7
S'g7'
p2054
sa(dp2055
g7
S'g8'
p2056
sa(dp2057
g7
S'h1'
p2058
sa(dp2059
g5
S'white_pawn'
p2060
sg7
S'h2'
p2061
sa(dp2062
g7
S'h3'
p2063
sa(dp2064
g7
S'h4'
p2065
sa(dp2066
g7
S'h5'
p2067
sa(dp2068
g5
S'black_pawn'
p2069
sg7
S'h6'
p2070
sa(dp2071
g7
S'h7'
p2072
sa(dp2073
g5
S'black_rook'
p2074
sg7
S'h8'
p2075
saaVHere I didn't see Bxc4... but I'm not sure I would have played it, (after Re3). It's a nice position: the N5 can discover an attack on the WQ, but if he does, it allows Qa6+. Something has to protect a6. But I was focused on the threat on Rh8 after Qb2.  
p2076
aa(lp2077
S'17... Rg8 18. Ne5'
p2078
a(lp2079
(dp2080
g5
S'white_rook'
p2081
sg7
S'a1'
p2082
sa(dp2083
g5
S'white_pawn'
p2084
sg7
S'a2'
p2085
sa(dp2086
g5
S'white_queen'
p2087
sg7
S'a3'
p2088
sa(dp2089
g7
S'a4'
p2090
sa(dp2091
g7
S'a5'
p2092
sa(dp2093
g7
S'a6'
p2094
sa(dp2095
g5
S'white_bishop'
p2096
sg7
S'a7'
p2097
sa(dp2098
g7
S'a8'
p2099
sa(dp2100
g7
S'b1'
p2101
sa(dp2102
g7
S'b2'
p2103
sa(dp2104
g5
S'white_pawn'
p2105
sg7
S'b3'
p2106
sa(dp2107
g7
S'b4'
p2108
sa(dp2109
g7
S'b5'
p2110
sa(dp2111
g5
S'black_pawn'
p2112
sg7
S'b6'
p2113
sa(dp2114
g7
S'b7'
p2115
sa(dp2116
g7
S'b8'
p2117
sa(dp2118
g7
S'c1'
p2119
sa(dp2120
g7
S'c2'
p2121
sa(dp2122
g7
S'c3'
p2123
sa(dp2124
g5
S'white_pawn'
p2125
sg7
S'c4'
p2126
sa(dp2127
g5
S'black_knight'
p2128
sg7
S'c5'
p2129
sa(dp2130
g5
S'black_pawn'
p2131
sg7
S'c6'
p2132
sa(dp2133
g5
S'black_queen'
p2134
sg7
S'c7'
p2135
sa(dp2136
g5
S'black_king'
p2137
sg7
S'c8'
p2138
sa(dp2139
g7
S'd1'
p2140
sa(dp2141
g7
S'd2'
p2142
sa(dp2143
g5
S'black_rook'
p2144
sg7
S'd3'
p2145
sa(dp2146
g7
S'd4'
p2147
sa(dp2148
g7
S'd5'
p2149
sa(dp2150
g7
S'd6'
p2151
sa(dp2152
g7
S'd7'
p2153
sa(dp2154
g7
S'd8'
p2155
sa(dp2156
g5
S'white_rook'
p2157
sg7
S'e1'
p2158
sa(dp2159
g7
S'e2'
p2160
sa(dp2161
g7
S'e3'
p2162
sa(dp2163
g7
S'e4'
p2164
sa(dp2165
g5
S'white_knight'
p2166
sg7
S'e5'
p2167
sa(dp2168
g5
S'black_bishop'
p2169
sg7
S'e6'
p2170
sa(dp2171
g7
S'e7'
p2172
sa(dp2173
g7
S'e8'
p2174
sa(dp2175
g7
S'f1'
p2176
sa(dp2177
g5
S'white_pawn'
p2178
sg7
S'f2'
p2179
sa(dp2180
g7
S'f3'
p2181
sa(dp2182
g7
S'f4'
p2183
sa(dp2184
g7
S'f5'
p2185
sa(dp2186
g7
S'f6'
p2187
sa(dp2188
g5
S'black_pawn'
p2189
sg7
S'f7'
p2190
sa(dp2191
g5
S'black_bishop'
p2192
sg7
S'f8'
p2193
sa(dp2194
g5
S'white_king'
p2195
sg7
S'g1'
p2196
sa(dp2197
g5
S'white_pawn'
p2198
sg7
S'g2'
p2199
sa(dp2200
g7
S'g3'
p2201
sa(dp2202
g7
S'g4'
p2203
sa(dp2204
g5
S'black_pawn'
p2205
sg7
S'g5'
p2206
sa(dp2207
g7
S'g6'
p2208
sa(dp2209
g7
S'g7'
p2210
sa(dp2211
g5
S'black_rook'
p2212
sg7
S'g8'
p2213
sa(dp2214
g7
S'h1'
p2215
sa(dp2216
g5
S'white_pawn'
p2217
sg7
S'h2'
p2218
sa(dp2219
g7
S'h3'
p2220
sa(dp2221
g7
S'h4'
p2222
sa(dp2223
g7
S'h5'
p2224
sa(dp2225
g5
S'black_pawn'
p2226
sg7
S'h6'
p2227
sa(dp2228
g7
S'h7'
p2229
sa(dp2230
g7
S'h8'
p2231
saaVThreatens my R... 
p2232
aa(lp2233
S'18... Qb7'
p2234
a(lp2235
(dp2236
g5
S'white_rook'
p2237
sg7
S'a1'
p2238
sa(dp2239
g5
S'white_pawn'
p2240
sg7
S'a2'
p2241
sa(dp2242
g5
S'white_queen'
p2243
sg7
S'a3'
p2244
sa(dp2245
g7
S'a4'
p2246
sa(dp2247
g7
S'a5'
p2248
sa(dp2249
g7
S'a6'
p2250
sa(dp2251
g5
S'white_bishop'
p2252
sg7
S'a7'
p2253
sa(dp2254
g7
S'a8'
p2255
sa(dp2256
g7
S'b1'
p2257
sa(dp2258
g7
S'b2'
p2259
sa(dp2260
g5
S'white_pawn'
p2261
sg7
S'b3'
p2262
sa(dp2263
g7
S'b4'
p2264
sa(dp2265
g7
S'b5'
p2266
sa(dp2267
g5
S'black_pawn'
p2268
sg7
S'b6'
p2269
sa(dp2270
g5
S'black_queen'
p2271
sg7
S'b7'
p2272
sa(dp2273
g7
S'b8'
p2274
sa(dp2275
g7
S'c1'
p2276
sa(dp2277
g7
S'c2'
p2278
sa(dp2279
g7
S'c3'
p2280
sa(dp2281
g5
S'white_pawn'
p2282
sg7
S'c4'
p2283
sa(dp2284
g5
S'black_knight'
p2285
sg7
S'c5'
p2286
sa(dp2287
g5
S'black_pawn'
p2288
sg7
S'c6'
p2289
sa(dp2290
g7
S'c7'
p2291
sa(dp2292
g5
S'black_king'
p2293
sg7
S'c8'
p2294
sa(dp2295
g7
S'd1'
p2296
sa(dp2297
g7
S'd2'
p2298
sa(dp2299
g5
S'black_rook'
p2300
sg7
S'd3'
p2301
sa(dp2302
g7
S'd4'
p2303
sa(dp2304
g7
S'd5'
p2305
sa(dp2306
g7
S'd6'
p2307
sa(dp2308
g7
S'd7'
p2309
sa(dp2310
g7
S'd8'
p2311
sa(dp2312
g5
S'white_rook'
p2313
sg7
S'e1'
p2314
sa(dp2315
g7
S'e2'
p2316
sa(dp2317
g7
S'e3'
p2318
sa(dp2319
g7
S'e4'
p2320
sa(dp2321
g5
S'white_knight'
p2322
sg7
S'e5'
p2323
sa(dp2324
g5
S'black_bishop'
p2325
sg7
S'e6'
p2326
sa(dp2327
g7
S'e7'
p2328
sa(dp2329
g7
S'e8'
p2330
sa(dp2331
g7
S'f1'
p2332
sa(dp2333
g5
S'white_pawn'
p2334
sg7
S'f2'
p2335
sa(dp2336
g7
S'f3'
p2337
sa(dp2338
g7
S'f4'
p2339
sa(dp2340
g7
S'f5'
p2341
sa(dp2342
g7
S'f6'
p2343
sa(dp2344
g5
S'black_pawn'
p2345
sg7
S'f7'
p2346
sa(dp2347
g5
S'black_bishop'
p2348
sg7
S'f8'
p2349
sa(dp2350
g5
S'white_king'
p2351
sg7
S'g1'
p2352
sa(dp2353
g5
S'white_pawn'
p2354
sg7
S'g2'
p2355
sa(dp2356
g7
S'g3'
p2357
sa(dp2358
g7
S'g4'
p2359
sa(dp2360
g5
S'black_pawn'
p2361
sg7
S'g5'
p2362
sa(dp2363
g7
S'g6'
p2364
sa(dp2365
g7
S'g7'
p2366
sa(dp2367
g5
S'black_rook'
p2368
sg7
S'g8'
p2369
sa(dp2370
g7
S'h1'
p2371
sa(dp2372
g5
S'white_pawn'
p2373
sg7
S'h2'
p2374
sa(dp2375
g7
S'h3'
p2376
sa(dp2377
g7
S'h4'
p2378
sa(dp2379
g7
S'h5'
p2380
sa(dp2381
g5
S'black_pawn'
p2382
sg7
S'h6'
p2383
sa(dp2384
g7
S'h7'
p2385
sa(dp2386
g7
S'h8'
p2387
saaVIf NxR, NxN, Q moves and I win back the exchange with N+Re1. 
p2388
aa(lp2389
S'19. Bxb6'
p2390
a(lp2391
(dp2392
g5
S'white_rook'
p2393
sg7
S'a1'
p2394
sa(dp2395
g5
S'white_pawn'
p2396
sg7
S'a2'
p2397
sa(dp2398
g5
S'white_queen'
p2399
sg7
S'a3'
p2400
sa(dp2401
g7
S'a4'
p2402
sa(dp2403
g7
S'a5'
p2404
sa(dp2405
g7
S'a6'
p2406
sa(dp2407
g7
S'a7'
p2408
sa(dp2409
g7
S'a8'
p2410
sa(dp2411
g7
S'b1'
p2412
sa(dp2413
g7
S'b2'
p2414
sa(dp2415
g5
S'white_pawn'
p2416
sg7
S'b3'
p2417
sa(dp2418
g7
S'b4'
p2419
sa(dp2420
g7
S'b5'
p2421
sa(dp2422
g5
S'white_bishop'
p2423
sg7
S'b6'
p2424
sa(dp2425
g5
S'black_queen'
p2426
sg7
S'b7'
p2427
sa(dp2428
g7
S'b8'
p2429
sa(dp2430
g7
S'c1'
p2431
sa(dp2432
g7
S'c2'
p2433
sa(dp2434
g7
S'c3'
p2435
sa(dp2436
g5
S'white_pawn'
p2437
sg7
S'c4'
p2438
sa(dp2439
g5
S'black_knight'
p2440
sg7
S'c5'
p2441
sa(dp2442
g5
S'black_pawn'
p2443
sg7
S'c6'
p2444
sa(dp2445
g7
S'c7'
p2446
sa(dp2447
g5
S'black_king'
p2448
sg7
S'c8'
p2449
sa(dp2450
g7
S'd1'
p2451
sa(dp2452
g7
S'd2'
p2453
sa(dp2454
g5
S'black_rook'
p2455
sg7
S'd3'
p2456
sa(dp2457
g7
S'd4'
p2458
sa(dp2459
g7
S'd5'
p2460
sa(dp2461
g7
S'd6'
p2462
sa(dp2463
g7
S'd7'
p2464
sa(dp2465
g7
S'd8'
p2466
sa(dp2467
g5
S'white_rook'
p2468
sg7
S'e1'
p2469
sa(dp2470
g7
S'e2'
p2471
sa(dp2472
g7
S'e3'
p2473
sa(dp2474
g7
S'e4'
p2475
sa(dp2476
g5
S'white_knight'
p2477
sg7
S'e5'
p2478
sa(dp2479
g5
S'black_bishop'
p2480
sg7
S'e6'
p2481
sa(dp2482
g7
S'e7'
p2483
sa(dp2484
g7
S'e8'
p2485
sa(dp2486
g7
S'f1'
p2487
sa(dp2488
g5
S'white_pawn'
p2489
sg7
S'f2'
p2490
sa(dp2491
g7
S'f3'
p2492
sa(dp2493
g7
S'f4'
p2494
sa(dp2495
g7
S'f5'
p2496
sa(dp2497
g7
S'f6'
p2498
sa(dp2499
g5
S'black_pawn'
p2500
sg7
S'f7'
p2501
sa(dp2502
g5
S'black_bishop'
p2503
sg7
S'f8'
p2504
sa(dp2505
g5
S'white_king'
p2506
sg7
S'g1'
p2507
sa(dp2508
g5
S'white_pawn'
p2509
sg7
S'g2'
p2510
sa(dp2511
g7
S'g3'
p2512
sa(dp2513
g7
S'g4'
p2514
sa(dp2515
g5
S'black_pawn'
p2516
sg7
S'g5'
p2517
sa(dp2518
g7
S'g6'
p2519
sa(dp2520
g7
S'g7'
p2521
sa(dp2522
g5
S'black_rook'
p2523
sg7
S'g8'
p2524
sa(dp2525
g7
S'h1'
p2526
sa(dp2527
g5
S'white_pawn'
p2528
sg7
S'h2'
p2529
sa(dp2530
g7
S'h3'
p2531
sa(dp2532
g7
S'h4'
p2533
sa(dp2534
g7
S'h5'
p2535
sa(dp2536
g5
S'black_pawn'
p2537
sg7
S'h6'
p2538
sa(dp2539
g7
S'h7'
p2540
sa(dp2541
g7
S'h8'
p2542
saaVQxB, Qa1+ will allow his Q to fly and to take Rd3.
p2543
aa(lp2544
S'19... Na6 20. Qa5'
p2545
a(lp2546
(dp2547
g5
S'white_rook'
p2548
sg7
S'a1'
p2549
sa(dp2550
g5
S'white_pawn'
p2551
sg7
S'a2'
p2552
sa(dp2553
g7
S'a3'
p2554
sa(dp2555
g7
S'a4'
p2556
sa(dp2557
g5
S'white_queen'
p2558
sg7
S'a5'
p2559
sa(dp2560
g5
S'black_knight'
p2561
sg7
S'a6'
p2562
sa(dp2563
g7
S'a7'
p2564
sa(dp2565
g7
S'a8'
p2566
sa(dp2567
g7
S'b1'
p2568
sa(dp2569
g7
S'b2'
p2570
sa(dp2571
g5
S'white_pawn'
p2572
sg7
S'b3'
p2573
sa(dp2574
g7
S'b4'
p2575
sa(dp2576
g7
S'b5'
p2577
sa(dp2578
g5
S'white_bishop'
p2579
sg7
S'b6'
p2580
sa(dp2581
g5
S'black_queen'
p2582
sg7
S'b7'
p2583
sa(dp2584
g7
S'b8'
p2585
sa(dp2586
g7
S'c1'
p2587
sa(dp2588
g7
S'c2'
p2589
sa(dp2590
g7
S'c3'
p2591
sa(dp2592
g5
S'white_pawn'
p2593
sg7
S'c4'
p2594
sa(dp2595
g7
S'c5'
p2596
sa(dp2597
g5
S'black_pawn'
p2598
sg7
S'c6'
p2599
sa(dp2600
g7
S'c7'
p2601
sa(dp2602
g5
S'black_king'
p2603
sg7
S'c8'
p2604
sa(dp2605
g7
S'd1'
p2606
sa(dp2607
g7
S'd2'
p2608
sa(dp2609
g5
S'black_rook'
p2610
sg7
S'd3'
p2611
sa(dp2612
g7
S'd4'
p2613
sa(dp2614
g7
S'd5'
p2615
sa(dp2616
g7
S'd6'
p2617
sa(dp2618
g7
S'd7'
p2619
sa(dp2620
g7
S'd8'
p2621
sa(dp2622
g5
S'white_rook'
p2623
sg7
S'e1'
p2624
sa(dp2625
g7
S'e2'
p2626
sa(dp2627
g7
S'e3'
p2628
sa(dp2629
g7
S'e4'
p2630
sa(dp2631
g5
S'white_knight'
p2632
sg7
S'e5'
p2633
sa(dp2634
g5
S'black_bishop'
p2635
sg7
S'e6'
p2636
sa(dp2637
g7
S'e7'
p2638
sa(dp2639
g7
S'e8'
p2640
sa(dp2641
g7
S'f1'
p2642
sa(dp2643
g5
S'white_pawn'
p2644
sg7
S'f2'
p2645
sa(dp2646
g7
S'f3'
p2647
sa(dp2648
g7
S'f4'
p2649
sa(dp2650
g7
S'f5'
p2651
sa(dp2652
g7
S'f6'
p2653
sa(dp2654
g5
S'black_pawn'
p2655
sg7
S'f7'
p2656
sa(dp2657
g5
S'black_bishop'
p2658
sg7
S'f8'
p2659
sa(dp2660
g5
S'white_king'
p2661
sg7
S'g1'
p2662
sa(dp2663
g5
S'white_pawn'
p2664
sg7
S'g2'
p2665
sa(dp2666
g7
S'g3'
p2667
sa(dp2668
g7
S'g4'
p2669
sa(dp2670
g5
S'black_pawn'
p2671
sg7
S'g5'
p2672
sa(dp2673
g7
S'g6'
p2674
sa(dp2675
g7
S'g7'
p2676
sa(dp2677
g5
S'black_rook'
p2678
sg7
S'g8'
p2679
sa(dp2680
g7
S'h1'
p2681
sa(dp2682
g5
S'white_pawn'
p2683
sg7
S'h2'
p2684
sa(dp2685
g7
S'h3'
p2686
sa(dp2687
g7
S'h4'
p2688
sa(dp2689
g7
S'h5'
p2690
sa(dp2691
g5
S'black_pawn'
p2692
sg7
S'h6'
p2693
sa(dp2694
g7
S'h7'
p2695
sa(dp2696
g7
S'h8'
p2697
saaVQa4 may have been better. Now I have...
p2698
aa(lp2699
S'20... Bb4 21. Qa4'
p2700
a(lp2701
(dp2702
g5
S'white_rook'
p2703
sg7
S'a1'
p2704
sa(dp2705
g5
S'white_pawn'
p2706
sg7
S'a2'
p2707
sa(dp2708
g7
S'a3'
p2709
sa(dp2710
g5
S'white_queen'
p2711
sg7
S'a4'
p2712
sa(dp2713
g7
S'a5'
p2714
sa(dp2715
g5
S'black_knight'
p2716
sg7
S'a6'
p2717
sa(dp2718
g7
S'a7'
p2719
sa(dp2720
g7
S'a8'
p2721
sa(dp2722
g7
S'b1'
p2723
sa(dp2724
g7
S'b2'
p2725
sa(dp2726
g5
S'white_pawn'
p2727
sg7
S'b3'
p2728
sa(dp2729
g5
S'black_bishop'
p2730
sg7
S'b4'
p2731
sa(dp2732
g7
S'b5'
p2733
sa(dp2734
g5
S'white_bishop'
p2735
sg7
S'b6'
p2736
sa(dp2737
g5
S'black_queen'
p2738
sg7
S'b7'
p2739
sa(dp2740
g7
S'b8'
p2741
sa(dp2742
g7
S'c1'
p2743
sa(dp2744
g7
S'c2'
p2745
sa(dp2746
g7
S'c3'
p2747
sa(dp2748
g5
S'white_pawn'
p2749
sg7
S'c4'
p2750
sa(dp2751
g7
S'c5'
p2752
sa(dp2753
g5
S'black_pawn'
p2754
sg7
S'c6'
p2755
sa(dp2756
g7
S'c7'
p2757
sa(dp2758
g5
S'black_king'
p2759
sg7
S'c8'
p2760
sa(dp2761
g7
S'd1'
p2762
sa(dp2763
g7
S'd2'
p2764
sa(dp2765
g5
S'black_rook'
p2766
sg7
S'd3'
p2767
sa(dp2768
g7
S'd4'
p2769
sa(dp2770
g7
S'd5'
p2771
sa(dp2772
g7
S'd6'
p2773
sa(dp2774
g7
S'd7'
p2775
sa(dp2776
g7
S'd8'
p2777
sa(dp2778
g5
S'white_rook'
p2779
sg7
S'e1'
p2780
sa(dp2781
g7
S'e2'
p2782
sa(dp2783
g7
S'e3'
p2784
sa(dp2785
g7
S'e4'
p2786
sa(dp2787
g5
S'white_knight'
p2788
sg7
S'e5'
p2789
sa(dp2790
g5
S'black_bishop'
p2791
sg7
S'e6'
p2792
sa(dp2793
g7
S'e7'
p2794
sa(dp2795
g7
S'e8'
p2796
sa(dp2797
g7
S'f1'
p2798
sa(dp2799
g5
S'white_pawn'
p2800
sg7
S'f2'
p2801
sa(dp2802
g7
S'f3'
p2803
sa(dp2804
g7
S'f4'
p2805
sa(dp2806
g7
S'f5'
p2807
sa(dp2808
g7
S'f6'
p2809
sa(dp2810
g5
S'black_pawn'
p2811
sg7
S'f7'
p2812
sa(dp2813
g7
S'f8'
p2814
sa(dp2815
g5
S'white_king'
p2816
sg7
S'g1'
p2817
sa(dp2818
g5
S'white_pawn'
p2819
sg7
S'g2'
p2820
sa(dp2821
g7
S'g3'
p2822
sa(dp2823
g7
S'g4'
p2824
sa(dp2825
g5
S'black_pawn'
p2826
sg7
S'g5'
p2827
sa(dp2828
g7
S'g6'
p2829
sa(dp2830
g7
S'g7'
p2831
sa(dp2832
g5
S'black_rook'
p2833
sg7
S'g8'
p2834
sa(dp2835
g7
S'h1'
p2836
sa(dp2837
g5
S'white_pawn'
p2838
sg7
S'h2'
p2839
sa(dp2840
g7
S'h3'
p2841
sa(dp2842
g7
S'h4'
p2843
sa(dp2844
g7
S'h5'
p2845
sa(dp2846
g5
S'black_pawn'
p2847
sg7
S'h6'
p2848
sa(dp2849
g7
S'h7'
p2850
sa(dp2851
g7
S'h8'
p2852
saaVStill, I'm not getting anywhere! QxB, NxR...
p2853
aa(lp2854
S'21... Bxe1 22. Nxd3 Qxb6 23. Rxe1'
p2855
a(lp2856
(dp2857
g7
S'a1'
p2858
sa(dp2859
g5
S'white_pawn'
p2860
sg7
S'a2'
p2861
sa(dp2862
g7
S'a3'
p2863
sa(dp2864
g5
S'white_queen'
p2865
sg7
S'a4'
p2866
sa(dp2867
g7
S'a5'
p2868
sa(dp2869
g5
S'black_knight'
p2870
sg7
S'a6'
p2871
sa(dp2872
g7
S'a7'
p2873
sa(dp2874
g7
S'a8'
p2875
sa(dp2876
g7
S'b1'
p2877
sa(dp2878
g7
S'b2'
p2879
sa(dp2880
g5
S'white_pawn'
p2881
sg7
S'b3'
p2882
sa(dp2883
g7
S'b4'
p2884
sa(dp2885
g7
S'b5'
p2886
sa(dp2887
g5
S'black_queen'
p2888
sg7
S'b6'
p2889
sa(dp2890
g7
S'b7'
p2891
sa(dp2892
g7
S'b8'
p2893
sa(dp2894
g7
S'c1'
p2895
sa(dp2896
g7
S'c2'
p2897
sa(dp2898
g7
S'c3'
p2899
sa(dp2900
g5
S'white_pawn'
p2901
sg7
S'c4'
p2902
sa(dp2903
g7
S'c5'
p2904
sa(dp2905
g5
S'black_pawn'
p2906
sg7
S'c6'
p2907
sa(dp2908
g7
S'c7'
p2909
sa(dp2910
g5
S'black_king'
p2911
sg7
S'c8'
p2912
sa(dp2913
g7
S'd1'
p2914
sa(dp2915
g7
S'd2'
p2916
sa(dp2917
g5
S'white_knight'
p2918
sg7
S'd3'
p2919
sa(dp2920
g7
S'd4'
p2921
sa(dp2922
g7
S'd5'
p2923
sa(dp2924
g7
S'd6'
p2925
sa(dp2926
g7
S'd7'
p2927
sa(dp2928
g7
S'd8'
p2929
sa(dp2930
g5
S'white_rook'
p2931
sg7
S'e1'
p2932
sa(dp2933
g7
S'e2'
p2934
sa(dp2935
g7
S'e3'
p2936
sa(dp2937
g7
S'e4'
p2938
sa(dp2939
g7
S'e5'
p2940
sa(dp2941
g5
S'black_bishop'
p2942
sg7
S'e6'
p2943
sa(dp2944
g7
S'e7'
p2945
sa(dp2946
g7
S'e8'
p2947
sa(dp2948
g7
S'f1'
p2949
sa(dp2950
g5
S'white_pawn'
p2951
sg7
S'f2'
p2952
sa(dp2953
g7
S'f3'
p2954
sa(dp2955
g7
S'f4'
p2956
sa(dp2957
g7
S'f5'
p2958
sa(dp2959
g7
S'f6'
p2960
sa(dp2961
g5
S'black_pawn'
p2962
sg7
S'f7'
p2963
sa(dp2964
g7
S'f8'
p2965
sa(dp2966
g5
S'white_king'
p2967
sg7
S'g1'
p2968
sa(dp2969
g5
S'white_pawn'
p2970
sg7
S'g2'
p2971
sa(dp2972
g7
S'g3'
p2973
sa(dp2974
g7
S'g4'
p2975
sa(dp2976
g5
S'black_pawn'
p2977
sg7
S'g5'
p2978
sa(dp2979
g7
S'g6'
p2980
sa(dp2981
g7
S'g7'
p2982
sa(dp2983
g5
S'black_rook'
p2984
sg7
S'g8'
p2985
sa(dp2986
g7
S'h1'
p2987
sa(dp2988
g5
S'white_pawn'
p2989
sg7
S'h2'
p2990
sa(dp2991
g7
S'h3'
p2992
sa(dp2993
g7
S'h4'
p2994
sa(dp2995
g7
S'h5'
p2996
sa(dp2997
g5
S'black_pawn'
p2998
sg7
S'h6'
p2999
sa(dp3000
g7
S'h7'
p3001
sa(dp3002
g7
S'h8'
p3003
saaVNot a wonderful outcome! It could be worse. 
p3004
aa(lp3005
S'23... Rd8 24. Ne5 Rd2'
p3006
a(lp3007
(dp3008
g7
S'a1'
p3009
sa(dp3010
g5
S'white_pawn'
p3011
sg7
S'a2'
p3012
sa(dp3013
g7
S'a3'
p3014
sa(dp3015
g5
S'white_queen'
p3016
sg7
S'a4'
p3017
sa(dp3018
g7
S'a5'
p3019
sa(dp3020
g5
S'black_knight'
p3021
sg7
S'a6'
p3022
sa(dp3023
g7
S'a7'
p3024
sa(dp3025
g7
S'a8'
p3026
sa(dp3027
g7
S'b1'
p3028
sa(dp3029
g7
S'b2'
p3030
sa(dp3031
g5
S'white_pawn'
p3032
sg7
S'b3'
p3033
sa(dp3034
g7
S'b4'
p3035
sa(dp3036
g7
S'b5'
p3037
sa(dp3038
g5
S'black_queen'
p3039
sg7
S'b6'
p3040
sa(dp3041
g7
S'b7'
p3042
sa(dp3043
g7
S'b8'
p3044
sa(dp3045
g7
S'c1'
p3046
sa(dp3047
g7
S'c2'
p3048
sa(dp3049
g7
S'c3'
p3050
sa(dp3051
g5
S'white_pawn'
p3052
sg7
S'c4'
p3053
sa(dp3054
g7
S'c5'
p3055
sa(dp3056
g5
S'black_pawn'
p3057
sg7
S'c6'
p3058
sa(dp3059
g7
S'c7'
p3060
sa(dp3061
g5
S'black_king'
p3062
sg7
S'c8'
p3063
sa(dp3064
g7
S'd1'
p3065
sa(dp3066
g5
S'black_rook'
p3067
sg7
S'd2'
p3068
sa(dp3069
g7
S'd3'
p3070
sa(dp3071
g7
S'd4'
p3072
sa(dp3073
g7
S'd5'
p3074
sa(dp3075
g7
S'd6'
p3076
sa(dp3077
g7
S'd7'
p3078
sa(dp3079
g7
S'd8'
p3080
sa(dp3081
g5
S'white_rook'
p3082
sg7
S'e1'
p3083
sa(dp3084
g7
S'e2'
p3085
sa(dp3086
g7
S'e3'
p3087
sa(dp3088
g7
S'e4'
p3089
sa(dp3090
g5
S'white_knight'
p3091
sg7
S'e5'
p3092
sa(dp3093
g5
S'black_bishop'
p3094
sg7
S'e6'
p3095
sa(dp3096
g7
S'e7'
p3097
sa(dp3098
g7
S'e8'
p3099
sa(dp3100
g7
S'f1'
p3101
sa(dp3102
g5
S'white_pawn'
p3103
sg7
S'f2'
p3104
sa(dp3105
g7
S'f3'
p3106
sa(dp3107
g7
S'f4'
p3108
sa(dp3109
g7
S'f5'
p3110
sa(dp3111
g7
S'f6'
p3112
sa(dp3113
g5
S'black_pawn'
p3114
sg7
S'f7'
p3115
sa(dp3116
g7
S'f8'
p3117
sa(dp3118
g5
S'white_king'
p3119
sg7
S'g1'
p3120
sa(dp3121
g5
S'white_pawn'
p3122
sg7
S'g2'
p3123
sa(dp3124
g7
S'g3'
p3125
sa(dp3126
g7
S'g4'
p3127
sa(dp3128
g5
S'black_pawn'
p3129
sg7
S'g5'
p3130
sa(dp3131
g7
S'g6'
p3132
sa(dp3133
g7
S'g7'
p3134
sa(dp3135
g7
S'g8'
p3136
sa(dp3137
g7
S'h1'
p3138
sa(dp3139
g5
S'white_pawn'
p3140
sg7
S'h2'
p3141
sa(dp3142
g7
S'h3'
p3143
sa(dp3144
g7
S'h4'
p3145
sa(dp3146
g7
S'h5'
p3147
sa(dp3148
g5
S'black_pawn'
p3149
sg7
S'h6'
p3150
sa(dp3151
g7
S'h7'
p3152
sa(dp3153
g7
S'h8'
p3154
saaV? Well, this allows Qxc6+, QxQ, NxQ, Rxa2. Not so bad...
p3155
aa.