(lp0
(lp1
S'1. e4 d5 2. exd5 Nf6 3. Nc3 e6 4. dxe6 Bxe6 5. Bb5+'
p2
a(lp3
(dp4
S'piece'
p5
S'white_rook'
p6
sS'location'
p7
S'a1'
p8
sa(dp9
g5
S'white_pawn'
p10
sg7
S'a2'
p11
sa(dp12
g7
S'a3'
p13
sa(dp14
g7
S'a4'
p15
sa(dp16
g7
S'a5'
p17
sa(dp18
g7
S'a6'
p19
sa(dp20
g5
S'black_pawn'
p21
sg7
S'a7'
p22
sa(dp23
g5
S'black_rook'
p24
sg7
S'a8'
p25
sa(dp26
g7
S'b1'
p27
sa(dp28
g5
S'white_pawn'
p29
sg7
S'b2'
p30
sa(dp31
g7
S'b3'
p32
sa(dp33
g7
S'b4'
p34
sa(dp35
g5
S'white_bishop'
p36
sg7
S'b5'
p37
sa(dp38
g7
S'b6'
p39
sa(dp40
g5
S'black_pawn'
p41
sg7
S'b7'
p42
sa(dp43
g5
S'black_knight'
p44
sg7
S'b8'
p45
sa(dp46
g5
S'white_bishop'
p47
sg7
S'c1'
p48
sa(dp49
g5
S'white_pawn'
p50
sg7
S'c2'
p51
sa(dp52
g5
S'white_knight'
p53
sg7
S'c3'
p54
sa(dp55
g7
S'c4'
p56
sa(dp57
g7
S'c5'
p58
sa(dp59
g7
S'c6'
p60
sa(dp61
g5
S'black_pawn'
p62
sg7
S'c7'
p63
sa(dp64
g7
S'c8'
p65
sa(dp66
g5
S'white_queen'
p67
sg7
S'd1'
p68
sa(dp69
g5
S'white_pawn'
p70
sg7
S'd2'
p71
sa(dp72
g7
S'd3'
p73
sa(dp74
g7
S'd4'
p75
sa(dp76
g7
S'd5'
p77
sa(dp78
g7
S'd6'
p79
sa(dp80
g7
S'd7'
p81
sa(dp82
g5
S'black_queen'
p83
sg7
S'd8'
p84
sa(dp85
g5
S'white_king'
p86
sg7
S'e1'
p87
sa(dp88
g7
S'e2'
p89
sa(dp90
g7
S'e3'
p91
sa(dp92
g7
S'e4'
p93
sa(dp94
g7
S'e5'
p95
sa(dp96
g5
S'black_bishop'
p97
sg7
S'e6'
p98
sa(dp99
g7
S'e7'
p100
sa(dp101
g5
S'black_king'
p102
sg7
S'e8'
p103
sa(dp104
g7
S'f1'
p105
sa(dp106
g5
S'white_pawn'
p107
sg7
S'f2'
p108
sa(dp109
g7
S'f3'
p110
sa(dp111
g7
S'f4'
p112
sa(dp113
g7
S'f5'
p114
sa(dp115
g5
S'black_knight'
p116
sg7
S'f6'
p117
sa(dp118
g5
S'black_pawn'
p119
sg7
S'f7'
p120
sa(dp121
g5
S'black_bishop'
p122
sg7
S'f8'
p123
sa(dp124
g5
S'white_knight'
p125
sg7
S'g1'
p126
sa(dp127
g5
S'white_pawn'
p128
sg7
S'g2'
p129
sa(dp130
g7
S'g3'
p131
sa(dp132
g7
S'g4'
p133
sa(dp134
g7
S'g5'
p135
sa(dp136
g7
S'g6'
p137
sa(dp138
g5
S'black_pawn'
p139
sg7
S'g7'
p140
sa(dp141
g7
S'g8'
p142
sa(dp143
g5
S'white_rook'
p144
sg7
S'h1'
p145
sa(dp146
g5
S'white_pawn'
p147
sg7
S'h2'
p148
sa(dp149
g7
S'h3'
p150
sa(dp151
g7
S'h4'
p152
sa(dp153
g7
S'h5'
p154
sa(dp155
g7
S'h6'
p156
sa(dp157
g5
S'black_pawn'
p158
sg7
S'h7'
p159
sa(dp160
g5
S'black_rook'
p161
sg7
S'h8'
p162
saaVKind of naive from white's side, unless he purposedly wants to keep his B away from his Kside.
p163
aa(lp164
S'5... c6 6. Ba4 Bc5'
p165
a(lp166
(dp167
g5
S'white_rook'
p168
sg7
S'a1'
p169
sa(dp170
g5
S'white_pawn'
p171
sg7
S'a2'
p172
sa(dp173
g7
S'a3'
p174
sa(dp175
g5
S'white_bishop'
p176
sg7
S'a4'
p177
sa(dp178
g7
S'a5'
p179
sa(dp180
g7
S'a6'
p181
sa(dp182
g5
S'black_pawn'
p183
sg7
S'a7'
p184
sa(dp185
g5
S'black_rook'
p186
sg7
S'a8'
p187
sa(dp188
g7
S'b1'
p189
sa(dp190
g5
S'white_pawn'
p191
sg7
S'b2'
p192
sa(dp193
g7
S'b3'
p194
sa(dp195
g7
S'b4'
p196
sa(dp197
g7
S'b5'
p198
sa(dp199
g7
S'b6'
p200
sa(dp201
g5
S'black_pawn'
p202
sg7
S'b7'
p203
sa(dp204
g5
S'black_knight'
p205
sg7
S'b8'
p206
sa(dp207
g5
S'white_bishop'
p208
sg7
S'c1'
p209
sa(dp210
g5
S'white_pawn'
p211
sg7
S'c2'
p212
sa(dp213
g5
S'white_knight'
p214
sg7
S'c3'
p215
sa(dp216
g7
S'c4'
p217
sa(dp218
g5
S'black_bishop'
p219
sg7
S'c5'
p220
sa(dp221
g5
S'black_pawn'
p222
sg7
S'c6'
p223
sa(dp224
g7
S'c7'
p225
sa(dp226
g7
S'c8'
p227
sa(dp228
g5
S'white_queen'
p229
sg7
S'd1'
p230
sa(dp231
g5
S'white_pawn'
p232
sg7
S'd2'
p233
sa(dp234
g7
S'd3'
p235
sa(dp236
g7
S'd4'
p237
sa(dp238
g7
S'd5'
p239
sa(dp240
g7
S'd6'
p241
sa(dp242
g7
S'd7'
p243
sa(dp244
g5
S'black_queen'
p245
sg7
S'd8'
p246
sa(dp247
g5
S'white_king'
p248
sg7
S'e1'
p249
sa(dp250
g7
S'e2'
p251
sa(dp252
g7
S'e3'
p253
sa(dp254
g7
S'e4'
p255
sa(dp256
g7
S'e5'
p257
sa(dp258
g5
S'black_bishop'
p259
sg7
S'e6'
p260
sa(dp261
g7
S'e7'
p262
sa(dp263
g5
S'black_king'
p264
sg7
S'e8'
p265
sa(dp266
g7
S'f1'
p267
sa(dp268
g5
S'white_pawn'
p269
sg7
S'f2'
p270
sa(dp271
g7
S'f3'
p272
sa(dp273
g7
S'f4'
p274
sa(dp275
g7
S'f5'
p276
sa(dp277
g5
S'black_knight'
p278
sg7
S'f6'
p279
sa(dp280
g5
S'black_pawn'
p281
sg7
S'f7'
p282
sa(dp283
g7
S'f8'
p284
sa(dp285
g5
S'white_knight'
p286
sg7
S'g1'
p287
sa(dp288
g5
S'white_pawn'
p289
sg7
S'g2'
p290
sa(dp291
g7
S'g3'
p292
sa(dp293
g7
S'g4'
p294
sa(dp295
g7
S'g5'
p296
sa(dp297
g7
S'g6'
p298
sa(dp299
g5
S'black_pawn'
p300
sg7
S'g7'
p301
sa(dp302
g7
S'g8'
p303
sa(dp304
g5
S'white_rook'
p305
sg7
S'h1'
p306
sa(dp307
g5
S'white_pawn'
p308
sg7
S'h2'
p309
sa(dp310
g7
S'h3'
p311
sa(dp312
g7
S'h4'
p313
sa(dp314
g7
S'h5'
p315
sa(dp316
g7
S'h6'
p317
sa(dp318
g5
S'black_pawn'
p319
sg7
S'h7'
p320
sa(dp321
g5
S'black_rook'
p322
sg7
S'h8'
p323
saaVBd6 is more in the defence's mainline. But it is rare I can play this and delay d4, so I wanted to try it. 
p324
aa(lp325
S'7. d3'
p326
a(lp327
(dp328
g5
S'white_rook'
p329
sg7
S'a1'
p330
sa(dp331
g5
S'white_pawn'
p332
sg7
S'a2'
p333
sa(dp334
g7
S'a3'
p335
sa(dp336
g5
S'white_bishop'
p337
sg7
S'a4'
p338
sa(dp339
g7
S'a5'
p340
sa(dp341
g7
S'a6'
p342
sa(dp343
g5
S'black_pawn'
p344
sg7
S'a7'
p345
sa(dp346
g5
S'black_rook'
p347
sg7
S'a8'
p348
sa(dp349
g7
S'b1'
p350
sa(dp351
g5
S'white_pawn'
p352
sg7
S'b2'
p353
sa(dp354
g7
S'b3'
p355
sa(dp356
g7
S'b4'
p357
sa(dp358
g7
S'b5'
p359
sa(dp360
g7
S'b6'
p361
sa(dp362
g5
S'black_pawn'
p363
sg7
S'b7'
p364
sa(dp365
g5
S'black_knight'
p366
sg7
S'b8'
p367
sa(dp368
g5
S'white_bishop'
p369
sg7
S'c1'
p370
sa(dp371
g5
S'white_pawn'
p372
sg7
S'c2'
p373
sa(dp374
g5
S'white_knight'
p375
sg7
S'c3'
p376
sa(dp377
g7
S'c4'
p378
sa(dp379
g5
S'black_bishop'
p380
sg7
S'c5'
p381
sa(dp382
g5
S'black_pawn'
p383
sg7
S'c6'
p384
sa(dp385
g7
S'c7'
p386
sa(dp387
g7
S'c8'
p388
sa(dp389
g5
S'white_queen'
p390
sg7
S'd1'
p391
sa(dp392
g7
S'd2'
p393
sa(dp394
g5
S'white_pawn'
p395
sg7
S'd3'
p396
sa(dp397
g7
S'd4'
p398
sa(dp399
g7
S'd5'
p400
sa(dp401
g7
S'd6'
p402
sa(dp403
g7
S'd7'
p404
sa(dp405
g5
S'black_queen'
p406
sg7
S'd8'
p407
sa(dp408
g5
S'white_king'
p409
sg7
S'e1'
p410
sa(dp411
g7
S'e2'
p412
sa(dp413
g7
S'e3'
p414
sa(dp415
g7
S'e4'
p416
sa(dp417
g7
S'e5'
p418
sa(dp419
g5
S'black_bishop'
p420
sg7
S'e6'
p421
sa(dp422
g7
S'e7'
p423
sa(dp424
g5
S'black_king'
p425
sg7
S'e8'
p426
sa(dp427
g7
S'f1'
p428
sa(dp429
g5
S'white_pawn'
p430
sg7
S'f2'
p431
sa(dp432
g7
S'f3'
p433
sa(dp434
g7
S'f4'
p435
sa(dp436
g7
S'f5'
p437
sa(dp438
g5
S'black_knight'
p439
sg7
S'f6'
p440
sa(dp441
g5
S'black_pawn'
p442
sg7
S'f7'
p443
sa(dp444
g7
S'f8'
p445
sa(dp446
g5
S'white_knight'
p447
sg7
S'g1'
p448
sa(dp449
g5
S'white_pawn'
p450
sg7
S'g2'
p451
sa(dp452
g7
S'g3'
p453
sa(dp454
g7
S'g4'
p455
sa(dp456
g7
S'g5'
p457
sa(dp458
g7
S'g6'
p459
sa(dp460
g5
S'black_pawn'
p461
sg7
S'g7'
p462
sa(dp463
g7
S'g8'
p464
sa(dp465
g5
S'white_rook'
p466
sg7
S'h1'
p467
sa(dp468
g5
S'white_pawn'
p469
sg7
S'h2'
p470
sa(dp471
g7
S'h3'
p472
sa(dp473
g7
S'h4'
p474
sa(dp475
g7
S'h5'
p476
sa(dp477
g7
S'h6'
p478
sa(dp479
g5
S'black_pawn'
p480
sg7
S'h7'
p481
sa(dp482
g5
S'black_rook'
p483
sg7
S'h8'
p484
saaVGood for me. I should have gone Ng5 at once. 
p485
aa(lp486
S'7... O-O'
p487
a(lp488
(dp489
g5
S'white_rook'
p490
sg7
S'a1'
p491
sa(dp492
g5
S'white_pawn'
p493
sg7
S'a2'
p494
sa(dp495
g7
S'a3'
p496
sa(dp497
g5
S'white_bishop'
p498
sg7
S'a4'
p499
sa(dp500
g7
S'a5'
p501
sa(dp502
g7
S'a6'
p503
sa(dp504
g5
S'black_pawn'
p505
sg7
S'a7'
p506
sa(dp507
g5
S'black_rook'
p508
sg7
S'a8'
p509
sa(dp510
g7
S'b1'
p511
sa(dp512
g5
S'white_pawn'
p513
sg7
S'b2'
p514
sa(dp515
g7
S'b3'
p516
sa(dp517
g7
S'b4'
p518
sa(dp519
g7
S'b5'
p520
sa(dp521
g7
S'b6'
p522
sa(dp523
g5
S'black_pawn'
p524
sg7
S'b7'
p525
sa(dp526
g5
S'black_knight'
p527
sg7
S'b8'
p528
sa(dp529
g5
S'white_bishop'
p530
sg7
S'c1'
p531
sa(dp532
g5
S'white_pawn'
p533
sg7
S'c2'
p534
sa(dp535
g5
S'white_knight'
p536
sg7
S'c3'
p537
sa(dp538
g7
S'c4'
p539
sa(dp540
g5
S'black_bishop'
p541
sg7
S'c5'
p542
sa(dp543
g5
S'black_pawn'
p544
sg7
S'c6'
p545
sa(dp546
g7
S'c7'
p547
sa(dp548
g7
S'c8'
p549
sa(dp550
g5
S'white_queen'
p551
sg7
S'd1'
p552
sa(dp553
g7
S'd2'
p554
sa(dp555
g5
S'white_pawn'
p556
sg7
S'd3'
p557
sa(dp558
g7
S'd4'
p559
sa(dp560
g7
S'd5'
p561
sa(dp562
g7
S'd6'
p563
sa(dp564
g7
S'd7'
p565
sa(dp566
g5
S'black_queen'
p567
sg7
S'd8'
p568
sa(dp569
g5
S'white_king'
p570
sg7
S'e1'
p571
sa(dp572
g7
S'e2'
p573
sa(dp574
g7
S'e3'
p575
sa(dp576
g7
S'e4'
p577
sa(dp578
g7
S'e5'
p579
sa(dp580
g5
S'black_bishop'
p581
sg7
S'e6'
p582
sa(dp583
g7
S'e7'
p584
sa(dp585
g7
S'e8'
p586
sa(dp587
g7
S'f1'
p588
sa(dp589
g5
S'white_pawn'
p590
sg7
S'f2'
p591
sa(dp592
g7
S'f3'
p593
sa(dp594
g7
S'f4'
p595
sa(dp596
g7
S'f5'
p597
sa(dp598
g5
S'black_knight'
p599
sg7
S'f6'
p600
sa(dp601
g5
S'black_pawn'
p602
sg7
S'f7'
p603
sa(dp604
g5
S'black_rook'
p605
sg7
S'f8'
p606
sa(dp607
g5
S'white_knight'
p608
sg7
S'g1'
p609
sa(dp610
g5
S'white_pawn'
p611
sg7
S'g2'
p612
sa(dp613
g7
S'g3'
p614
sa(dp615
g7
S'g4'
p616
sa(dp617
g7
S'g5'
p618
sa(dp619
g7
S'g6'
p620
sa(dp621
g5
S'black_pawn'
p622
sg7
S'g7'
p623
sa(dp624
g5
S'black_king'
p625
sg7
S'g8'
p626
sa(dp627
g5
S'white_rook'
p628
sg7
S'h1'
p629
sa(dp630
g5
S'white_pawn'
p631
sg7
S'h2'
p632
sa(dp633
g7
S'h3'
p634
sa(dp635
g7
S'h4'
p636
sa(dp637
g7
S'h5'
p638
sa(dp639
g7
S'h6'
p640
sa(dp641
g5
S'black_pawn'
p642
sg7
S'h7'
p643
sa(dp644
g7
S'h8'
p645
saaVAnainst my principles, I castled "normally". This is not what I use to play, but the R's pressure on e8 on the white K, still a little away from castling, was too tempting. Good, old schemes work too!
p646
aa(lp647
S'8. Qf3'
p648
a(lp649
(dp650
g5
S'white_rook'
p651
sg7
S'a1'
p652
sa(dp653
g5
S'white_pawn'
p654
sg7
S'a2'
p655
sa(dp656
g7
S'a3'
p657
sa(dp658
g5
S'white_bishop'
p659
sg7
S'a4'
p660
sa(dp661
g7
S'a5'
p662
sa(dp663
g7
S'a6'
p664
sa(dp665
g5
S'black_pawn'
p666
sg7
S'a7'
p667
sa(dp668
g5
S'black_rook'
p669
sg7
S'a8'
p670
sa(dp671
g7
S'b1'
p672
sa(dp673
g5
S'white_pawn'
p674
sg7
S'b2'
p675
sa(dp676
g7
S'b3'
p677
sa(dp678
g7
S'b4'
p679
sa(dp680
g7
S'b5'
p681
sa(dp682
g7
S'b6'
p683
sa(dp684
g5
S'black_pawn'
p685
sg7
S'b7'
p686
sa(dp687
g5
S'black_knight'
p688
sg7
S'b8'
p689
sa(dp690
g5
S'white_bishop'
p691
sg7
S'c1'
p692
sa(dp693
g5
S'white_pawn'
p694
sg7
S'c2'
p695
sa(dp696
g5
S'white_knight'
p697
sg7
S'c3'
p698
sa(dp699
g7
S'c4'
p700
sa(dp701
g5
S'black_bishop'
p702
sg7
S'c5'
p703
sa(dp704
g5
S'black_pawn'
p705
sg7
S'c6'
p706
sa(dp707
g7
S'c7'
p708
sa(dp709
g7
S'c8'
p710
sa(dp711
g7
S'd1'
p712
sa(dp713
g7
S'd2'
p714
sa(dp715
g5
S'white_pawn'
p716
sg7
S'd3'
p717
sa(dp718
g7
S'd4'
p719
sa(dp720
g7
S'd5'
p721
sa(dp722
g7
S'd6'
p723
sa(dp724
g7
S'd7'
p725
sa(dp726
g5
S'black_queen'
p727
sg7
S'd8'
p728
sa(dp729
g5
S'white_king'
p730
sg7
S'e1'
p731
sa(dp732
g7
S'e2'
p733
sa(dp734
g7
S'e3'
p735
sa(dp736
g7
S'e4'
p737
sa(dp738
g7
S'e5'
p739
sa(dp740
g5
S'black_bishop'
p741
sg7
S'e6'
p742
sa(dp743
g7
S'e7'
p744
sa(dp745
g7
S'e8'
p746
sa(dp747
g7
S'f1'
p748
sa(dp749
g5
S'white_pawn'
p750
sg7
S'f2'
p751
sa(dp752
g5
S'white_queen'
p753
sg7
S'f3'
p754
sa(dp755
g7
S'f4'
p756
sa(dp757
g7
S'f5'
p758
sa(dp759
g5
S'black_knight'
p760
sg7
S'f6'
p761
sa(dp762
g5
S'black_pawn'
p763
sg7
S'f7'
p764
sa(dp765
g5
S'black_rook'
p766
sg7
S'f8'
p767
sa(dp768
g5
S'white_knight'
p769
sg7
S'g1'
p770
sa(dp771
g5
S'white_pawn'
p772
sg7
S'g2'
p773
sa(dp774
g7
S'g3'
p775
sa(dp776
g7
S'g4'
p777
sa(dp778
g7
S'g5'
p779
sa(dp780
g7
S'g6'
p781
sa(dp782
g5
S'black_pawn'
p783
sg7
S'g7'
p784
sa(dp785
g5
S'black_king'
p786
sg7
S'g8'
p787
sa(dp788
g5
S'white_rook'
p789
sg7
S'h1'
p790
sa(dp791
g5
S'white_pawn'
p792
sg7
S'h2'
p793
sa(dp794
g7
S'h3'
p795
sa(dp796
g7
S'h4'
p797
sa(dp798
g7
S'h5'
p799
sa(dp800
g7
S'h6'
p801
sa(dp802
g5
S'black_pawn'
p803
sg7
S'h7'
p804
sa(dp805
g7
S'h8'
p806
saaVNot a strong move, and I should have punished it with Bg5 at once. 
p807
aa(lp808
S'8... Re8 9. Nge2 Bg4 10. Qf4'
p809
a(lp810
(dp811
g5
S'white_rook'
p812
sg7
S'a1'
p813
sa(dp814
g5
S'white_pawn'
p815
sg7
S'a2'
p816
sa(dp817
g7
S'a3'
p818
sa(dp819
g5
S'white_bishop'
p820
sg7
S'a4'
p821
sa(dp822
g7
S'a5'
p823
sa(dp824
g7
S'a6'
p825
sa(dp826
g5
S'black_pawn'
p827
sg7
S'a7'
p828
sa(dp829
g5
S'black_rook'
p830
sg7
S'a8'
p831
sa(dp832
g7
S'b1'
p833
sa(dp834
g5
S'white_pawn'
p835
sg7
S'b2'
p836
sa(dp837
g7
S'b3'
p838
sa(dp839
g7
S'b4'
p840
sa(dp841
g7
S'b5'
p842
sa(dp843
g7
S'b6'
p844
sa(dp845
g5
S'black_pawn'
p846
sg7
S'b7'
p847
sa(dp848
g5
S'black_knight'
p849
sg7
S'b8'
p850
sa(dp851
g5
S'white_bishop'
p852
sg7
S'c1'
p853
sa(dp854
g5
S'white_pawn'
p855
sg7
S'c2'
p856
sa(dp857
g5
S'white_knight'
p858
sg7
S'c3'
p859
sa(dp860
g7
S'c4'
p861
sa(dp862
g5
S'black_bishop'
p863
sg7
S'c5'
p864
sa(dp865
g5
S'black_pawn'
p866
sg7
S'c6'
p867
sa(dp868
g7
S'c7'
p869
sa(dp870
g7
S'c8'
p871
sa(dp872
g7
S'd1'
p873
sa(dp874
g7
S'd2'
p875
sa(dp876
g5
S'white_pawn'
p877
sg7
S'd3'
p878
sa(dp879
g7
S'd4'
p880
sa(dp881
g7
S'd5'
p882
sa(dp883
g7
S'd6'
p884
sa(dp885
g7
S'd7'
p886
sa(dp887
g5
S'black_queen'
p888
sg7
S'd8'
p889
sa(dp890
g5
S'white_king'
p891
sg7
S'e1'
p892
sa(dp893
g5
S'white_knight'
p894
sg7
S'e2'
p895
sa(dp896
g7
S'e3'
p897
sa(dp898
g7
S'e4'
p899
sa(dp900
g7
S'e5'
p901
sa(dp902
g7
S'e6'
p903
sa(dp904
g7
S'e7'
p905
sa(dp906
g5
S'black_rook'
p907
sg7
S'e8'
p908
sa(dp909
g7
S'f1'
p910
sa(dp911
g5
S'white_pawn'
p912
sg7
S'f2'
p913
sa(dp914
g7
S'f3'
p915
sa(dp916
g5
S'white_queen'
p917
sg7
S'f4'
p918
sa(dp919
g7
S'f5'
p920
sa(dp921
g5
S'black_knight'
p922
sg7
S'f6'
p923
sa(dp924
g5
S'black_pawn'
p925
sg7
S'f7'
p926
sa(dp927
g7
S'f8'
p928
sa(dp929
g7
S'g1'
p930
sa(dp931
g5
S'white_pawn'
p932
sg7
S'g2'
p933
sa(dp934
g7
S'g3'
p935
sa(dp936
g5
S'black_bishop'
p937
sg7
S'g4'
p938
sa(dp939
g7
S'g5'
p940
sa(dp941
g7
S'g6'
p942
sa(dp943
g5
S'black_pawn'
p944
sg7
S'g7'
p945
sa(dp946
g5
S'black_king'
p947
sg7
S'g8'
p948
sa(dp949
g5
S'white_rook'
p950
sg7
S'h1'
p951
sa(dp952
g5
S'white_pawn'
p953
sg7
S'h2'
p954
sa(dp955
g7
S'h3'
p956
sa(dp957
g7
S'h4'
p958
sa(dp959
g7
S'h5'
p960
sa(dp961
g7
S'h6'
p962
sa(dp963
g5
S'black_pawn'
p964
sg7
S'h7'
p965
sa(dp966
g7
S'h8'
p967
saaVI couldn't see a serious Q trapping, so I went elsewhere.
p968
aa(lp969
S'10... Qb6'
p970
a(lp971
(dp972
g5
S'white_rook'
p973
sg7
S'a1'
p974
sa(dp975
g5
S'white_pawn'
p976
sg7
S'a2'
p977
sa(dp978
g7
S'a3'
p979
sa(dp980
g5
S'white_bishop'
p981
sg7
S'a4'
p982
sa(dp983
g7
S'a5'
p984
sa(dp985
g7
S'a6'
p986
sa(dp987
g5
S'black_pawn'
p988
sg7
S'a7'
p989
sa(dp990
g5
S'black_rook'
p991
sg7
S'a8'
p992
sa(dp993
g7
S'b1'
p994
sa(dp995
g5
S'white_pawn'
p996
sg7
S'b2'
p997
sa(dp998
g7
S'b3'
p999
sa(dp1000
g7
S'b4'
p1001
sa(dp1002
g7
S'b5'
p1003
sa(dp1004
g5
S'black_queen'
p1005
sg7
S'b6'
p1006
sa(dp1007
g5
S'black_pawn'
p1008
sg7
S'b7'
p1009
sa(dp1010
g5
S'black_knight'
p1011
sg7
S'b8'
p1012
sa(dp1013
g5
S'white_bishop'
p1014
sg7
S'c1'
p1015
sa(dp1016
g5
S'white_pawn'
p1017
sg7
S'c2'
p1018
sa(dp1019
g5
S'white_knight'
p1020
sg7
S'c3'
p1021
sa(dp1022
g7
S'c4'
p1023
sa(dp1024
g5
S'black_bishop'
p1025
sg7
S'c5'
p1026
sa(dp1027
g5
S'black_pawn'
p1028
sg7
S'c6'
p1029
sa(dp1030
g7
S'c7'
p1031
sa(dp1032
g7
S'c8'
p1033
sa(dp1034
g7
S'd1'
p1035
sa(dp1036
g7
S'd2'
p1037
sa(dp1038
g5
S'white_pawn'
p1039
sg7
S'd3'
p1040
sa(dp1041
g7
S'd4'
p1042
sa(dp1043
g7
S'd5'
p1044
sa(dp1045
g7
S'd6'
p1046
sa(dp1047
g7
S'd7'
p1048
sa(dp1049
g7
S'd8'
p1050
sa(dp1051
g5
S'white_king'
p1052
sg7
S'e1'
p1053
sa(dp1054
g5
S'white_knight'
p1055
sg7
S'e2'
p1056
sa(dp1057
g7
S'e3'
p1058
sa(dp1059
g7
S'e4'
p1060
sa(dp1061
g7
S'e5'
p1062
sa(dp1063
g7
S'e6'
p1064
sa(dp1065
g7
S'e7'
p1066
sa(dp1067
g5
S'black_rook'
p1068
sg7
S'e8'
p1069
sa(dp1070
g7
S'f1'
p1071
sa(dp1072
g5
S'white_pawn'
p1073
sg7
S'f2'
p1074
sa(dp1075
g7
S'f3'
p1076
sa(dp1077
g5
S'white_queen'
p1078
sg7
S'f4'
p1079
sa(dp1080
g7
S'f5'
p1081
sa(dp1082
g5
S'black_knight'
p1083
sg7
S'f6'
p1084
sa(dp1085
g5
S'black_pawn'
p1086
sg7
S'f7'
p1087
sa(dp1088
g7
S'f8'
p1089
sa(dp1090
g7
S'g1'
p1091
sa(dp1092
g5
S'white_pawn'
p1093
sg7
S'g2'
p1094
sa(dp1095
g7
S'g3'
p1096
sa(dp1097
g5
S'black_bishop'
p1098
sg7
S'g4'
p1099
sa(dp1100
g7
S'g5'
p1101
sa(dp1102
g7
S'g6'
p1103
sa(dp1104
g5
S'black_pawn'
p1105
sg7
S'g7'
p1106
sa(dp1107
g5
S'black_king'
p1108
sg7
S'g8'
p1109
sa(dp1110
g5
S'white_rook'
p1111
sg7
S'h1'
p1112
sa(dp1113
g5
S'white_pawn'
p1114
sg7
S'h2'
p1115
sa(dp1116
g7
S'h3'
p1117
sa(dp1118
g7
S'h4'
p1119
sa(dp1120
g7
S'h5'
p1121
sa(dp1122
g7
S'h6'
p1123
sa(dp1124
g5
S'black_pawn'
p1125
sg7
S'h7'
p1126
sa(dp1127
g7
S'h8'
p1128
saaVPressing on f2, and even letting him castle. But I saw no way o break in at once. 
p1129
aa(lp1130
S'11. Bb3'
p1131
a(lp1132
(dp1133
g5
S'white_rook'
p1134
sg7
S'a1'
p1135
sa(dp1136
g5
S'white_pawn'
p1137
sg7
S'a2'
p1138
sa(dp1139
g7
S'a3'
p1140
sa(dp1141
g7
S'a4'
p1142
sa(dp1143
g7
S'a5'
p1144
sa(dp1145
g7
S'a6'
p1146
sa(dp1147
g5
S'black_pawn'
p1148
sg7
S'a7'
p1149
sa(dp1150
g5
S'black_rook'
p1151
sg7
S'a8'
p1152
sa(dp1153
g7
S'b1'
p1154
sa(dp1155
g5
S'white_pawn'
p1156
sg7
S'b2'
p1157
sa(dp1158
g5
S'white_bishop'
p1159
sg7
S'b3'
p1160
sa(dp1161
g7
S'b4'
p1162
sa(dp1163
g7
S'b5'
p1164
sa(dp1165
g5
S'black_queen'
p1166
sg7
S'b6'
p1167
sa(dp1168
g5
S'black_pawn'
p1169
sg7
S'b7'
p1170
sa(dp1171
g5
S'black_knight'
p1172
sg7
S'b8'
p1173
sa(dp1174
g5
S'white_bishop'
p1175
sg7
S'c1'
p1176
sa(dp1177
g5
S'white_pawn'
p1178
sg7
S'c2'
p1179
sa(dp1180
g5
S'white_knight'
p1181
sg7
S'c3'
p1182
sa(dp1183
g7
S'c4'
p1184
sa(dp1185
g5
S'black_bishop'
p1186
sg7
S'c5'
p1187
sa(dp1188
g5
S'black_pawn'
p1189
sg7
S'c6'
p1190
sa(dp1191
g7
S'c7'
p1192
sa(dp1193
g7
S'c8'
p1194
sa(dp1195
g7
S'd1'
p1196
sa(dp1197
g7
S'd2'
p1198
sa(dp1199
g5
S'white_pawn'
p1200
sg7
S'd3'
p1201
sa(dp1202
g7
S'd4'
p1203
sa(dp1204
g7
S'd5'
p1205
sa(dp1206
g7
S'd6'
p1207
sa(dp1208
g7
S'd7'
p1209
sa(dp1210
g7
S'd8'
p1211
sa(dp1212
g5
S'white_king'
p1213
sg7
S'e1'
p1214
sa(dp1215
g5
S'white_knight'
p1216
sg7
S'e2'
p1217
sa(dp1218
g7
S'e3'
p1219
sa(dp1220
g7
S'e4'
p1221
sa(dp1222
g7
S'e5'
p1223
sa(dp1224
g7
S'e6'
p1225
sa(dp1226
g7
S'e7'
p1227
sa(dp1228
g5
S'black_rook'
p1229
sg7
S'e8'
p1230
sa(dp1231
g7
S'f1'
p1232
sa(dp1233
g5
S'white_pawn'
p1234
sg7
S'f2'
p1235
sa(dp1236
g7
S'f3'
p1237
sa(dp1238
g5
S'white_queen'
p1239
sg7
S'f4'
p1240
sa(dp1241
g7
S'f5'
p1242
sa(dp1243
g5
S'black_knight'
p1244
sg7
S'f6'
p1245
sa(dp1246
g5
S'black_pawn'
p1247
sg7
S'f7'
p1248
sa(dp1249
g7
S'f8'
p1250
sa(dp1251
g7
S'g1'
p1252
sa(dp1253
g5
S'white_pawn'
p1254
sg7
S'g2'
p1255
sa(dp1256
g7
S'g3'
p1257
sa(dp1258
g5
S'black_bishop'
p1259
sg7
S'g4'
p1260
sa(dp1261
g7
S'g5'
p1262
sa(dp1263
g7
S'g6'
p1264
sa(dp1265
g5
S'black_pawn'
p1266
sg7
S'g7'
p1267
sa(dp1268
g5
S'black_king'
p1269
sg7
S'g8'
p1270
sa(dp1271
g5
S'white_rook'
p1272
sg7
S'h1'
p1273
sa(dp1274
g5
S'white_pawn'
p1275
sg7
S'h2'
p1276
sa(dp1277
g7
S'h3'
p1278
sa(dp1279
g7
S'h4'
p1280
sa(dp1281
g7
S'h5'
p1282
sa(dp1283
g7
S'h6'
p1284
sa(dp1285
g5
S'black_pawn'
p1286
sg7
S'h7'
p1287
sa(dp1288
g7
S'h8'
p1289
saaVLeaving the square for Na4\u000a
p1290
aa(lp1291
S'11... Bxe2'
p1292
a(lp1293
(dp1294
g5
S'white_rook'
p1295
sg7
S'a1'
p1296
sa(dp1297
g5
S'white_pawn'
p1298
sg7
S'a2'
p1299
sa(dp1300
g7
S'a3'
p1301
sa(dp1302
g7
S'a4'
p1303
sa(dp1304
g7
S'a5'
p1305
sa(dp1306
g7
S'a6'
p1307
sa(dp1308
g5
S'black_pawn'
p1309
sg7
S'a7'
p1310
sa(dp1311
g5
S'black_rook'
p1312
sg7
S'a8'
p1313
sa(dp1314
g7
S'b1'
p1315
sa(dp1316
g5
S'white_pawn'
p1317
sg7
S'b2'
p1318
sa(dp1319
g5
S'white_bishop'
p1320
sg7
S'b3'
p1321
sa(dp1322
g7
S'b4'
p1323
sa(dp1324
g7
S'b5'
p1325
sa(dp1326
g5
S'black_queen'
p1327
sg7
S'b6'
p1328
sa(dp1329
g5
S'black_pawn'
p1330
sg7
S'b7'
p1331
sa(dp1332
g5
S'black_knight'
p1333
sg7
S'b8'
p1334
sa(dp1335
g5
S'white_bishop'
p1336
sg7
S'c1'
p1337
sa(dp1338
g5
S'white_pawn'
p1339
sg7
S'c2'
p1340
sa(dp1341
g5
S'white_knight'
p1342
sg7
S'c3'
p1343
sa(dp1344
g7
S'c4'
p1345
sa(dp1346
g5
S'black_bishop'
p1347
sg7
S'c5'
p1348
sa(dp1349
g5
S'black_pawn'
p1350
sg7
S'c6'
p1351
sa(dp1352
g7
S'c7'
p1353
sa(dp1354
g7
S'c8'
p1355
sa(dp1356
g7
S'd1'
p1357
sa(dp1358
g7
S'd2'
p1359
sa(dp1360
g5
S'white_pawn'
p1361
sg7
S'd3'
p1362
sa(dp1363
g7
S'd4'
p1364
sa(dp1365
g7
S'd5'
p1366
sa(dp1367
g7
S'd6'
p1368
sa(dp1369
g7
S'd7'
p1370
sa(dp1371
g7
S'd8'
p1372
sa(dp1373
g5
S'white_king'
p1374
sg7
S'e1'
p1375
sa(dp1376
g5
S'black_bishop'
p1377
sg7
S'e2'
p1378
sa(dp1379
g7
S'e3'
p1380
sa(dp1381
g7
S'e4'
p1382
sa(dp1383
g7
S'e5'
p1384
sa(dp1385
g7
S'e6'
p1386
sa(dp1387
g7
S'e7'
p1388
sa(dp1389
g5
S'black_rook'
p1390
sg7
S'e8'
p1391
sa(dp1392
g7
S'f1'
p1393
sa(dp1394
g5
S'white_pawn'
p1395
sg7
S'f2'
p1396
sa(dp1397
g7
S'f3'
p1398
sa(dp1399
g5
S'white_queen'
p1400
sg7
S'f4'
p1401
sa(dp1402
g7
S'f5'
p1403
sa(dp1404
g5
S'black_knight'
p1405
sg7
S'f6'
p1406
sa(dp1407
g5
S'black_pawn'
p1408
sg7
S'f7'
p1409
sa(dp1410
g7
S'f8'
p1411
sa(dp1412
g7
S'g1'
p1413
sa(dp1414
g5
S'white_pawn'
p1415
sg7
S'g2'
p1416
sa(dp1417
g7
S'g3'
p1418
sa(dp1419
g7
S'g4'
p1420
sa(dp1421
g7
S'g5'
p1422
sa(dp1423
g7
S'g6'
p1424
sa(dp1425
g5
S'black_pawn'
p1426
sg7
S'g7'
p1427
sa(dp1428
g5
S'black_king'
p1429
sg7
S'g8'
p1430
sa(dp1431
g5
S'white_rook'
p1432
sg7
S'h1'
p1433
sa(dp1434
g5
S'white_pawn'
p1435
sg7
S'h2'
p1436
sa(dp1437
g7
S'h3'
p1438
sa(dp1439
g7
S'h4'
p1440
sa(dp1441
g7
S'h5'
p1442
sa(dp1443
g7
S'h6'
p1444
sa(dp1445
g5
S'black_pawn'
p1446
sg7
S'h7'
p1447
sa(dp1448
g7
S'h8'
p1449
saaVTime to do something. 
p1450
aa(lp1451
S'12. Nxe2 a5'
p1452
a(lp1453
(dp1454
g5
S'white_rook'
p1455
sg7
S'a1'
p1456
sa(dp1457
g5
S'white_pawn'
p1458
sg7
S'a2'
p1459
sa(dp1460
g7
S'a3'
p1461
sa(dp1462
g7
S'a4'
p1463
sa(dp1464
g5
S'black_pawn'
p1465
sg7
S'a5'
p1466
sa(dp1467
g7
S'a6'
p1468
sa(dp1469
g7
S'a7'
p1470
sa(dp1471
g5
S'black_rook'
p1472
sg7
S'a8'
p1473
sa(dp1474
g7
S'b1'
p1475
sa(dp1476
g5
S'white_pawn'
p1477
sg7
S'b2'
p1478
sa(dp1479
g5
S'white_bishop'
p1480
sg7
S'b3'
p1481
sa(dp1482
g7
S'b4'
p1483
sa(dp1484
g7
S'b5'
p1485
sa(dp1486
g5
S'black_queen'
p1487
sg7
S'b6'
p1488
sa(dp1489
g5
S'black_pawn'
p1490
sg7
S'b7'
p1491
sa(dp1492
g5
S'black_knight'
p1493
sg7
S'b8'
p1494
sa(dp1495
g5
S'white_bishop'
p1496
sg7
S'c1'
p1497
sa(dp1498
g5
S'white_pawn'
p1499
sg7
S'c2'
p1500
sa(dp1501
g7
S'c3'
p1502
sa(dp1503
g7
S'c4'
p1504
sa(dp1505
g5
S'black_bishop'
p1506
sg7
S'c5'
p1507
sa(dp1508
g5
S'black_pawn'
p1509
sg7
S'c6'
p1510
sa(dp1511
g7
S'c7'
p1512
sa(dp1513
g7
S'c8'
p1514
sa(dp1515
g7
S'd1'
p1516
sa(dp1517
g7
S'd2'
p1518
sa(dp1519
g5
S'white_pawn'
p1520
sg7
S'd3'
p1521
sa(dp1522
g7
S'd4'
p1523
sa(dp1524
g7
S'd5'
p1525
sa(dp1526
g7
S'd6'
p1527
sa(dp1528
g7
S'd7'
p1529
sa(dp1530
g7
S'd8'
p1531
sa(dp1532
g5
S'white_king'
p1533
sg7
S'e1'
p1534
sa(dp1535
g5
S'white_knight'
p1536
sg7
S'e2'
p1537
sa(dp1538
g7
S'e3'
p1539
sa(dp1540
g7
S'e4'
p1541
sa(dp1542
g7
S'e5'
p1543
sa(dp1544
g7
S'e6'
p1545
sa(dp1546
g7
S'e7'
p1547
sa(dp1548
g5
S'black_rook'
p1549
sg7
S'e8'
p1550
sa(dp1551
g7
S'f1'
p1552
sa(dp1553
g5
S'white_pawn'
p1554
sg7
S'f2'
p1555
sa(dp1556
g7
S'f3'
p1557
sa(dp1558
g5
S'white_queen'
p1559
sg7
S'f4'
p1560
sa(dp1561
g7
S'f5'
p1562
sa(dp1563
g5
S'black_knight'
p1564
sg7
S'f6'
p1565
sa(dp1566
g5
S'black_pawn'
p1567
sg7
S'f7'
p1568
sa(dp1569
g7
S'f8'
p1570
sa(dp1571
g7
S'g1'
p1572
sa(dp1573
g5
S'white_pawn'
p1574
sg7
S'g2'
p1575
sa(dp1576
g7
S'g3'
p1577
sa(dp1578
g7
S'g4'
p1579
sa(dp1580
g7
S'g5'
p1581
sa(dp1582
g7
S'g6'
p1583
sa(dp1584
g5
S'black_pawn'
p1585
sg7
S'g7'
p1586
sa(dp1587
g5
S'black_king'
p1588
sg7
S'g8'
p1589
sa(dp1590
g5
S'white_rook'
p1591
sg7
S'h1'
p1592
sa(dp1593
g5
S'white_pawn'
p1594
sg7
S'h2'
p1595
sa(dp1596
g7
S'h3'
p1597
sa(dp1598
g7
S'h4'
p1599
sa(dp1600
g7
S'h5'
p1601
sa(dp1602
g7
S'h6'
p1603
sa(dp1604
g5
S'black_pawn'
p1605
sg7
S'h7'
p1606
sa(dp1607
g7
S'h8'
p1608
saaVThreatening the lsb. 
p1609
aa(lp1610
S'13. a4'
p1611
a(lp1612
(dp1613
g5
S'white_rook'
p1614
sg7
S'a1'
p1615
sa(dp1616
g7
S'a2'
p1617
sa(dp1618
g7
S'a3'
p1619
sa(dp1620
g5
S'white_pawn'
p1621
sg7
S'a4'
p1622
sa(dp1623
g5
S'black_pawn'
p1624
sg7
S'a5'
p1625
sa(dp1626
g7
S'a6'
p1627
sa(dp1628
g7
S'a7'
p1629
sa(dp1630
g5
S'black_rook'
p1631
sg7
S'a8'
p1632
sa(dp1633
g7
S'b1'
p1634
sa(dp1635
g5
S'white_pawn'
p1636
sg7
S'b2'
p1637
sa(dp1638
g5
S'white_bishop'
p1639
sg7
S'b3'
p1640
sa(dp1641
g7
S'b4'
p1642
sa(dp1643
g7
S'b5'
p1644
sa(dp1645
g5
S'black_queen'
p1646
sg7
S'b6'
p1647
sa(dp1648
g5
S'black_pawn'
p1649
sg7
S'b7'
p1650
sa(dp1651
g5
S'black_knight'
p1652
sg7
S'b8'
p1653
sa(dp1654
g5
S'white_bishop'
p1655
sg7
S'c1'
p1656
sa(dp1657
g5
S'white_pawn'
p1658
sg7
S'c2'
p1659
sa(dp1660
g7
S'c3'
p1661
sa(dp1662
g7
S'c4'
p1663
sa(dp1664
g5
S'black_bishop'
p1665
sg7
S'c5'
p1666
sa(dp1667
g5
S'black_pawn'
p1668
sg7
S'c6'
p1669
sa(dp1670
g7
S'c7'
p1671
sa(dp1672
g7
S'c8'
p1673
sa(dp1674
g7
S'd1'
p1675
sa(dp1676
g7
S'd2'
p1677
sa(dp1678
g5
S'white_pawn'
p1679
sg7
S'd3'
p1680
sa(dp1681
g7
S'd4'
p1682
sa(dp1683
g7
S'd5'
p1684
sa(dp1685
g7
S'd6'
p1686
sa(dp1687
g7
S'd7'
p1688
sa(dp1689
g7
S'd8'
p1690
sa(dp1691
g5
S'white_king'
p1692
sg7
S'e1'
p1693
sa(dp1694
g5
S'white_knight'
p1695
sg7
S'e2'
p1696
sa(dp1697
g7
S'e3'
p1698
sa(dp1699
g7
S'e4'
p1700
sa(dp1701
g7
S'e5'
p1702
sa(dp1703
g7
S'e6'
p1704
sa(dp1705
g7
S'e7'
p1706
sa(dp1707
g5
S'black_rook'
p1708
sg7
S'e8'
p1709
sa(dp1710
g7
S'f1'
p1711
sa(dp1712
g5
S'white_pawn'
p1713
sg7
S'f2'
p1714
sa(dp1715
g7
S'f3'
p1716
sa(dp1717
g5
S'white_queen'
p1718
sg7
S'f4'
p1719
sa(dp1720
g7
S'f5'
p1721
sa(dp1722
g5
S'black_knight'
p1723
sg7
S'f6'
p1724
sa(dp1725
g5
S'black_pawn'
p1726
sg7
S'f7'
p1727
sa(dp1728
g7
S'f8'
p1729
sa(dp1730
g7
S'g1'
p1731
sa(dp1732
g5
S'white_pawn'
p1733
sg7
S'g2'
p1734
sa(dp1735
g7
S'g3'
p1736
sa(dp1737
g7
S'g4'
p1738
sa(dp1739
g7
S'g5'
p1740
sa(dp1741
g7
S'g6'
p1742
sa(dp1743
g5
S'black_pawn'
p1744
sg7
S'g7'
p1745
sa(dp1746
g5
S'black_king'
p1747
sg7
S'g8'
p1748
sa(dp1749
g5
S'white_rook'
p1750
sg7
S'h1'
p1751
sa(dp1752
g5
S'white_pawn'
p1753
sg7
S'h2'
p1754
sa(dp1755
g7
S'h3'
p1756
sa(dp1757
g7
S'h4'
p1758
sa(dp1759
g7
S'h5'
p1760
sa(dp1761
g7
S'h6'
p1762
sa(dp1763
g5
S'black_pawn'
p1764
sg7
S'h7'
p1765
sa(dp1766
g7
S'h8'
p1767
saaVNh5 doesn't help (Qf3). 
p1768
aa(lp1769
S'13... Bb4+ 14. Bd2 Nd5 15. Bxd5'
p1770
a(lp1771
(dp1772
g5
S'white_rook'
p1773
sg7
S'a1'
p1774
sa(dp1775
g7
S'a2'
p1776
sa(dp1777
g7
S'a3'
p1778
sa(dp1779
g5
S'white_pawn'
p1780
sg7
S'a4'
p1781
sa(dp1782
g5
S'black_pawn'
p1783
sg7
S'a5'
p1784
sa(dp1785
g7
S'a6'
p1786
sa(dp1787
g7
S'a7'
p1788
sa(dp1789
g5
S'black_rook'
p1790
sg7
S'a8'
p1791
sa(dp1792
g7
S'b1'
p1793
sa(dp1794
g5
S'white_pawn'
p1795
sg7
S'b2'
p1796
sa(dp1797
g7
S'b3'
p1798
sa(dp1799
g5
S'black_bishop'
p1800
sg7
S'b4'
p1801
sa(dp1802
g7
S'b5'
p1803
sa(dp1804
g5
S'black_queen'
p1805
sg7
S'b6'
p1806
sa(dp1807
g5
S'black_pawn'
p1808
sg7
S'b7'
p1809
sa(dp1810
g5
S'black_knight'
p1811
sg7
S'b8'
p1812
sa(dp1813
g7
S'c1'
p1814
sa(dp1815
g5
S'white_pawn'
p1816
sg7
S'c2'
p1817
sa(dp1818
g7
S'c3'
p1819
sa(dp1820
g7
S'c4'
p1821
sa(dp1822
g7
S'c5'
p1823
sa(dp1824
g5
S'black_pawn'
p1825
sg7
S'c6'
p1826
sa(dp1827
g7
S'c7'
p1828
sa(dp1829
g7
S'c8'
p1830
sa(dp1831
g7
S'd1'
p1832
sa(dp1833
g5
S'white_bishop'
p1834
sg7
S'd2'
p1835
sa(dp1836
g5
S'white_pawn'
p1837
sg7
S'd3'
p1838
sa(dp1839
g7
S'd4'
p1840
sa(dp1841
g5
S'white_bishop'
p1842
sg7
S'd5'
p1843
sa(dp1844
g7
S'd6'
p1845
sa(dp1846
g7
S'd7'
p1847
sa(dp1848
g7
S'd8'
p1849
sa(dp1850
g5
S'white_king'
p1851
sg7
S'e1'
p1852
sa(dp1853
g5
S'white_knight'
p1854
sg7
S'e2'
p1855
sa(dp1856
g7
S'e3'
p1857
sa(dp1858
g7
S'e4'
p1859
sa(dp1860
g7
S'e5'
p1861
sa(dp1862
g7
S'e6'
p1863
sa(dp1864
g7
S'e7'
p1865
sa(dp1866
g5
S'black_rook'
p1867
sg7
S'e8'
p1868
sa(dp1869
g7
S'f1'
p1870
sa(dp1871
g5
S'white_pawn'
p1872
sg7
S'f2'
p1873
sa(dp1874
g7
S'f3'
p1875
sa(dp1876
g5
S'white_queen'
p1877
sg7
S'f4'
p1878
sa(dp1879
g7
S'f5'
p1880
sa(dp1881
g7
S'f6'
p1882
sa(dp1883
g5
S'black_pawn'
p1884
sg7
S'f7'
p1885
sa(dp1886
g7
S'f8'
p1887
sa(dp1888
g7
S'g1'
p1889
sa(dp1890
g5
S'white_pawn'
p1891
sg7
S'g2'
p1892
sa(dp1893
g7
S'g3'
p1894
sa(dp1895
g7
S'g4'
p1896
sa(dp1897
g7
S'g5'
p1898
sa(dp1899
g7
S'g6'
p1900
sa(dp1901
g5
S'black_pawn'
p1902
sg7
S'g7'
p1903
sa(dp1904
g5
S'black_king'
p1905
sg7
S'g8'
p1906
sa(dp1907
g5
S'white_rook'
p1908
sg7
S'h1'
p1909
sa(dp1910
g5
S'white_pawn'
p1911
sg7
S'h2'
p1912
sa(dp1913
g7
S'h3'
p1914
sa(dp1915
g7
S'h4'
p1916
sa(dp1917
g7
S'h5'
p1918
sa(dp1919
g7
S'h6'
p1920
sa(dp1921
g5
S'black_pawn'
p1922
sg7
S'h7'
p1923
sa(dp1924
g7
S'h8'
p1925
saaVChooses to lose the B pair... My isolated central pawn won't be such a terrible weak point to defend. 
p1926
aa(lp1927
S'15... Bxd2+ 16. Kxd2'
p1928
a(lp1929
(dp1930
g5
S'white_rook'
p1931
sg7
S'a1'
p1932
sa(dp1933
g7
S'a2'
p1934
sa(dp1935
g7
S'a3'
p1936
sa(dp1937
g5
S'white_pawn'
p1938
sg7
S'a4'
p1939
sa(dp1940
g5
S'black_pawn'
p1941
sg7
S'a5'
p1942
sa(dp1943
g7
S'a6'
p1944
sa(dp1945
g7
S'a7'
p1946
sa(dp1947
g5
S'black_rook'
p1948
sg7
S'a8'
p1949
sa(dp1950
g7
S'b1'
p1951
sa(dp1952
g5
S'white_pawn'
p1953
sg7
S'b2'
p1954
sa(dp1955
g7
S'b3'
p1956
sa(dp1957
g7
S'b4'
p1958
sa(dp1959
g7
S'b5'
p1960
sa(dp1961
g5
S'black_queen'
p1962
sg7
S'b6'
p1963
sa(dp1964
g5
S'black_pawn'
p1965
sg7
S'b7'
p1966
sa(dp1967
g5
S'black_knight'
p1968
sg7
S'b8'
p1969
sa(dp1970
g7
S'c1'
p1971
sa(dp1972
g5
S'white_pawn'
p1973
sg7
S'c2'
p1974
sa(dp1975
g7
S'c3'
p1976
sa(dp1977
g7
S'c4'
p1978
sa(dp1979
g7
S'c5'
p1980
sa(dp1981
g5
S'black_pawn'
p1982
sg7
S'c6'
p1983
sa(dp1984
g7
S'c7'
p1985
sa(dp1986
g7
S'c8'
p1987
sa(dp1988
g7
S'd1'
p1989
sa(dp1990
g5
S'white_king'
p1991
sg7
S'd2'
p1992
sa(dp1993
g5
S'white_pawn'
p1994
sg7
S'd3'
p1995
sa(dp1996
g7
S'd4'
p1997
sa(dp1998
g5
S'white_bishop'
p1999
sg7
S'd5'
p2000
sa(dp2001
g7
S'd6'
p2002
sa(dp2003
g7
S'd7'
p2004
sa(dp2005
g7
S'd8'
p2006
sa(dp2007
g7
S'e1'
p2008
sa(dp2009
g5
S'white_knight'
p2010
sg7
S'e2'
p2011
sa(dp2012
g7
S'e3'
p2013
sa(dp2014
g7
S'e4'
p2015
sa(dp2016
g7
S'e5'
p2017
sa(dp2018
g7
S'e6'
p2019
sa(dp2020
g7
S'e7'
p2021
sa(dp2022
g5
S'black_rook'
p2023
sg7
S'e8'
p2024
sa(dp2025
g7
S'f1'
p2026
sa(dp2027
g5
S'white_pawn'
p2028
sg7
S'f2'
p2029
sa(dp2030
g7
S'f3'
p2031
sa(dp2032
g5
S'white_queen'
p2033
sg7
S'f4'
p2034
sa(dp2035
g7
S'f5'
p2036
sa(dp2037
g7
S'f6'
p2038
sa(dp2039
g5
S'black_pawn'
p2040
sg7
S'f7'
p2041
sa(dp2042
g7
S'f8'
p2043
sa(dp2044
g7
S'g1'
p2045
sa(dp2046
g5
S'white_pawn'
p2047
sg7
S'g2'
p2048
sa(dp2049
g7
S'g3'
p2050
sa(dp2051
g7
S'g4'
p2052
sa(dp2053
g7
S'g5'
p2054
sa(dp2055
g7
S'g6'
p2056
sa(dp2057
g5
S'black_pawn'
p2058
sg7
S'g7'
p2059
sa(dp2060
g5
S'black_king'
p2061
sg7
S'g8'
p2062
sa(dp2063
g5
S'white_rook'
p2064
sg7
S'h1'
p2065
sa(dp2066
g5
S'white_pawn'
p2067
sg7
S'h2'
p2068
sa(dp2069
g7
S'h3'
p2070
sa(dp2071
g7
S'h4'
p2072
sa(dp2073
g7
S'h5'
p2074
sa(dp2075
g7
S'h6'
p2076
sa(dp2077
g5
S'black_pawn'
p2078
sg7
S'h7'
p2079
sa(dp2080
g7
S'h8'
p2081
saaVThe good recapture, to connect rooks and keep a defence on the central squares. Otherwise, cxb and Qxb2 is a serious threat. 
p2082
aa(lp2083
S'16... cxd5 17. b3'
p2084
a(lp2085
(dp2086
g5
S'white_rook'
p2087
sg7
S'a1'
p2088
sa(dp2089
g7
S'a2'
p2090
sa(dp2091
g7
S'a3'
p2092
sa(dp2093
g5
S'white_pawn'
p2094
sg7
S'a4'
p2095
sa(dp2096
g5
S'black_pawn'
p2097
sg7
S'a5'
p2098
sa(dp2099
g7
S'a6'
p2100
sa(dp2101
g7
S'a7'
p2102
sa(dp2103
g5
S'black_rook'
p2104
sg7
S'a8'
p2105
sa(dp2106
g7
S'b1'
p2107
sa(dp2108
g7
S'b2'
p2109
sa(dp2110
g5
S'white_pawn'
p2111
sg7
S'b3'
p2112
sa(dp2113
g7
S'b4'
p2114
sa(dp2115
g7
S'b5'
p2116
sa(dp2117
g5
S'black_queen'
p2118
sg7
S'b6'
p2119
sa(dp2120
g5
S'black_pawn'
p2121
sg7
S'b7'
p2122
sa(dp2123
g5
S'black_knight'
p2124
sg7
S'b8'
p2125
sa(dp2126
g7
S'c1'
p2127
sa(dp2128
g5
S'white_pawn'
p2129
sg7
S'c2'
p2130
sa(dp2131
g7
S'c3'
p2132
sa(dp2133
g7
S'c4'
p2134
sa(dp2135
g7
S'c5'
p2136
sa(dp2137
g7
S'c6'
p2138
sa(dp2139
g7
S'c7'
p2140
sa(dp2141
g7
S'c8'
p2142
sa(dp2143
g7
S'd1'
p2144
sa(dp2145
g5
S'white_king'
p2146
sg7
S'd2'
p2147
sa(dp2148
g5
S'white_pawn'
p2149
sg7
S'd3'
p2150
sa(dp2151
g7
S'd4'
p2152
sa(dp2153
g5
S'black_pawn'
p2154
sg7
S'd5'
p2155
sa(dp2156
g7
S'd6'
p2157
sa(dp2158
g7
S'd7'
p2159
sa(dp2160
g7
S'd8'
p2161
sa(dp2162
g7
S'e1'
p2163
sa(dp2164
g5
S'white_knight'
p2165
sg7
S'e2'
p2166
sa(dp2167
g7
S'e3'
p2168
sa(dp2169
g7
S'e4'
p2170
sa(dp2171
g7
S'e5'
p2172
sa(dp2173
g7
S'e6'
p2174
sa(dp2175
g7
S'e7'
p2176
sa(dp2177
g5
S'black_rook'
p2178
sg7
S'e8'
p2179
sa(dp2180
g7
S'f1'
p2181
sa(dp2182
g5
S'white_pawn'
p2183
sg7
S'f2'
p2184
sa(dp2185
g7
S'f3'
p2186
sa(dp2187
g5
S'white_queen'
p2188
sg7
S'f4'
p2189
sa(dp2190
g7
S'f5'
p2191
sa(dp2192
g7
S'f6'
p2193
sa(dp2194
g5
S'black_pawn'
p2195
sg7
S'f7'
p2196
sa(dp2197
g7
S'f8'
p2198
sa(dp2199
g7
S'g1'
p2200
sa(dp2201
g5
S'white_pawn'
p2202
sg7
S'g2'
p2203
sa(dp2204
g7
S'g3'
p2205
sa(dp2206
g7
S'g4'
p2207
sa(dp2208
g7
S'g5'
p2209
sa(dp2210
g7
S'g6'
p2211
sa(dp2212
g5
S'black_pawn'
p2213
sg7
S'g7'
p2214
sa(dp2215
g5
S'black_king'
p2216
sg7
S'g8'
p2217
sa(dp2218
g5
S'white_rook'
p2219
sg7
S'h1'
p2220
sa(dp2221
g5
S'white_pawn'
p2222
sg7
S'h2'
p2223
sa(dp2224
g7
S'h3'
p2225
sa(dp2226
g7
S'h4'
p2227
sa(dp2228
g7
S'h5'
p2229
sa(dp2230
g7
S'h6'
p2231
sa(dp2232
g5
S'black_pawn'
p2233
sg7
S'h7'
p2234
sa(dp2235
g7
S'h8'
p2236
saaVI still can't go Qb4+ because QxQ doesn't give me anything.
p2237
aa(lp2238
S'17... Nc6 18. Nc3 Nb4'
p2239
a(lp2240
(dp2241
g5
S'white_rook'
p2242
sg7
S'a1'
p2243
sa(dp2244
g7
S'a2'
p2245
sa(dp2246
g7
S'a3'
p2247
sa(dp2248
g5
S'white_pawn'
p2249
sg7
S'a4'
p2250
sa(dp2251
g5
S'black_pawn'
p2252
sg7
S'a5'
p2253
sa(dp2254
g7
S'a6'
p2255
sa(dp2256
g7
S'a7'
p2257
sa(dp2258
g5
S'black_rook'
p2259
sg7
S'a8'
p2260
sa(dp2261
g7
S'b1'
p2262
sa(dp2263
g7
S'b2'
p2264
sa(dp2265
g5
S'white_pawn'
p2266
sg7
S'b3'
p2267
sa(dp2268
g5
S'black_knight'
p2269
sg7
S'b4'
p2270
sa(dp2271
g7
S'b5'
p2272
sa(dp2273
g5
S'black_queen'
p2274
sg7
S'b6'
p2275
sa(dp2276
g5
S'black_pawn'
p2277
sg7
S'b7'
p2278
sa(dp2279
g7
S'b8'
p2280
sa(dp2281
g7
S'c1'
p2282
sa(dp2283
g5
S'white_pawn'
p2284
sg7
S'c2'
p2285
sa(dp2286
g5
S'white_knight'
p2287
sg7
S'c3'
p2288
sa(dp2289
g7
S'c4'
p2290
sa(dp2291
g7
S'c5'
p2292
sa(dp2293
g7
S'c6'
p2294
sa(dp2295
g7
S'c7'
p2296
sa(dp2297
g7
S'c8'
p2298
sa(dp2299
g7
S'd1'
p2300
sa(dp2301
g5
S'white_king'
p2302
sg7
S'd2'
p2303
sa(dp2304
g5
S'white_pawn'
p2305
sg7
S'd3'
p2306
sa(dp2307
g7
S'd4'
p2308
sa(dp2309
g5
S'black_pawn'
p2310
sg7
S'd5'
p2311
sa(dp2312
g7
S'd6'
p2313
sa(dp2314
g7
S'd7'
p2315
sa(dp2316
g7
S'd8'
p2317
sa(dp2318
g7
S'e1'
p2319
sa(dp2320
g7
S'e2'
p2321
sa(dp2322
g7
S'e3'
p2323
sa(dp2324
g7
S'e4'
p2325
sa(dp2326
g7
S'e5'
p2327
sa(dp2328
g7
S'e6'
p2329
sa(dp2330
g7
S'e7'
p2331
sa(dp2332
g5
S'black_rook'
p2333
sg7
S'e8'
p2334
sa(dp2335
g7
S'f1'
p2336
sa(dp2337
g5
S'white_pawn'
p2338
sg7
S'f2'
p2339
sa(dp2340
g7
S'f3'
p2341
sa(dp2342
g5
S'white_queen'
p2343
sg7
S'f4'
p2344
sa(dp2345
g7
S'f5'
p2346
sa(dp2347
g7
S'f6'
p2348
sa(dp2349
g5
S'black_pawn'
p2350
sg7
S'f7'
p2351
sa(dp2352
g7
S'f8'
p2353
sa(dp2354
g7
S'g1'
p2355
sa(dp2356
g5
S'white_pawn'
p2357
sg7
S'g2'
p2358
sa(dp2359
g7
S'g3'
p2360
sa(dp2361
g7
S'g4'
p2362
sa(dp2363
g7
S'g5'
p2364
sa(dp2365
g7
S'g6'
p2366
sa(dp2367
g5
S'black_pawn'
p2368
sg7
S'g7'
p2369
sa(dp2370
g5
S'black_king'
p2371
sg7
S'g8'
p2372
sa(dp2373
g5
S'white_rook'
p2374
sg7
S'h1'
p2375
sa(dp2376
g5
S'white_pawn'
p2377
sg7
S'h2'
p2378
sa(dp2379
g7
S'h3'
p2380
sa(dp2381
g7
S'h4'
p2382
sa(dp2383
g7
S'h5'
p2384
sa(dp2385
g7
S'h6'
p2386
sa(dp2387
g5
S'black_pawn'
p2388
sg7
S'h7'
p2389
sa(dp2390
g7
S'h8'
p2391
saaVVery well placed N of mine...
p2392
aa(lp2393
S'19. Rhe1'
p2394
a(lp2395
(dp2396
g5
S'white_rook'
p2397
sg7
S'a1'
p2398
sa(dp2399
g7
S'a2'
p2400
sa(dp2401
g7
S'a3'
p2402
sa(dp2403
g5
S'white_pawn'
p2404
sg7
S'a4'
p2405
sa(dp2406
g5
S'black_pawn'
p2407
sg7
S'a5'
p2408
sa(dp2409
g7
S'a6'
p2410
sa(dp2411
g7
S'a7'
p2412
sa(dp2413
g5
S'black_rook'
p2414
sg7
S'a8'
p2415
sa(dp2416
g7
S'b1'
p2417
sa(dp2418
g7
S'b2'
p2419
sa(dp2420
g5
S'white_pawn'
p2421
sg7
S'b3'
p2422
sa(dp2423
g5
S'black_knight'
p2424
sg7
S'b4'
p2425
sa(dp2426
g7
S'b5'
p2427
sa(dp2428
g5
S'black_queen'
p2429
sg7
S'b6'
p2430
sa(dp2431
g5
S'black_pawn'
p2432
sg7
S'b7'
p2433
sa(dp2434
g7
S'b8'
p2435
sa(dp2436
g7
S'c1'
p2437
sa(dp2438
g5
S'white_pawn'
p2439
sg7
S'c2'
p2440
sa(dp2441
g5
S'white_knight'
p2442
sg7
S'c3'
p2443
sa(dp2444
g7
S'c4'
p2445
sa(dp2446
g7
S'c5'
p2447
sa(dp2448
g7
S'c6'
p2449
sa(dp2450
g7
S'c7'
p2451
sa(dp2452
g7
S'c8'
p2453
sa(dp2454
g7
S'd1'
p2455
sa(dp2456
g5
S'white_king'
p2457
sg7
S'd2'
p2458
sa(dp2459
g5
S'white_pawn'
p2460
sg7
S'd3'
p2461
sa(dp2462
g7
S'd4'
p2463
sa(dp2464
g5
S'black_pawn'
p2465
sg7
S'd5'
p2466
sa(dp2467
g7
S'd6'
p2468
sa(dp2469
g7
S'd7'
p2470
sa(dp2471
g7
S'd8'
p2472
sa(dp2473
g5
S'white_rook'
p2474
sg7
S'e1'
p2475
sa(dp2476
g7
S'e2'
p2477
sa(dp2478
g7
S'e3'
p2479
sa(dp2480
g7
S'e4'
p2481
sa(dp2482
g7
S'e5'
p2483
sa(dp2484
g7
S'e6'
p2485
sa(dp2486
g7
S'e7'
p2487
sa(dp2488
g5
S'black_rook'
p2489
sg7
S'e8'
p2490
sa(dp2491
g7
S'f1'
p2492
sa(dp2493
g5
S'white_pawn'
p2494
sg7
S'f2'
p2495
sa(dp2496
g7
S'f3'
p2497
sa(dp2498
g5
S'white_queen'
p2499
sg7
S'f4'
p2500
sa(dp2501
g7
S'f5'
p2502
sa(dp2503
g7
S'f6'
p2504
sa(dp2505
g5
S'black_pawn'
p2506
sg7
S'f7'
p2507
sa(dp2508
g7
S'f8'
p2509
sa(dp2510
g7
S'g1'
p2511
sa(dp2512
g5
S'white_pawn'
p2513
sg7
S'g2'
p2514
sa(dp2515
g7
S'g3'
p2516
sa(dp2517
g7
S'g4'
p2518
sa(dp2519
g7
S'g5'
p2520
sa(dp2521
g7
S'g6'
p2522
sa(dp2523
g5
S'black_pawn'
p2524
sg7
S'g7'
p2525
sa(dp2526
g5
S'black_king'
p2527
sg7
S'g8'
p2528
sa(dp2529
g7
S'h1'
p2530
sa(dp2531
g5
S'white_pawn'
p2532
sg7
S'h2'
p2533
sa(dp2534
g7
S'h3'
p2535
sa(dp2536
g7
S'h4'
p2537
sa(dp2538
g7
S'h5'
p2539
sa(dp2540
g7
S'h6'
p2541
sa(dp2542
g5
S'black_pawn'
p2543
sg7
S'h7'
p2544
sa(dp2545
g7
S'h8'
p2546
saaV...and this aims for a hatefully drawn game... unless...
p2547
aa(lp2548
S'19... Re6'
p2549
a(lp2550
(dp2551
g5
S'white_rook'
p2552
sg7
S'a1'
p2553
sa(dp2554
g7
S'a2'
p2555
sa(dp2556
g7
S'a3'
p2557
sa(dp2558
g5
S'white_pawn'
p2559
sg7
S'a4'
p2560
sa(dp2561
g5
S'black_pawn'
p2562
sg7
S'a5'
p2563
sa(dp2564
g7
S'a6'
p2565
sa(dp2566
g7
S'a7'
p2567
sa(dp2568
g5
S'black_rook'
p2569
sg7
S'a8'
p2570
sa(dp2571
g7
S'b1'
p2572
sa(dp2573
g7
S'b2'
p2574
sa(dp2575
g5
S'white_pawn'
p2576
sg7
S'b3'
p2577
sa(dp2578
g5
S'black_knight'
p2579
sg7
S'b4'
p2580
sa(dp2581
g7
S'b5'
p2582
sa(dp2583
g5
S'black_queen'
p2584
sg7
S'b6'
p2585
sa(dp2586
g5
S'black_pawn'
p2587
sg7
S'b7'
p2588
sa(dp2589
g7
S'b8'
p2590
sa(dp2591
g7
S'c1'
p2592
sa(dp2593
g5
S'white_pawn'
p2594
sg7
S'c2'
p2595
sa(dp2596
g5
S'white_knight'
p2597
sg7
S'c3'
p2598
sa(dp2599
g7
S'c4'
p2600
sa(dp2601
g7
S'c5'
p2602
sa(dp2603
g7
S'c6'
p2604
sa(dp2605
g7
S'c7'
p2606
sa(dp2607
g7
S'c8'
p2608
sa(dp2609
g7
S'd1'
p2610
sa(dp2611
g5
S'white_king'
p2612
sg7
S'd2'
p2613
sa(dp2614
g5
S'white_pawn'
p2615
sg7
S'd3'
p2616
sa(dp2617
g7
S'd4'
p2618
sa(dp2619
g5
S'black_pawn'
p2620
sg7
S'd5'
p2621
sa(dp2622
g7
S'd6'
p2623
sa(dp2624
g7
S'd7'
p2625
sa(dp2626
g7
S'd8'
p2627
sa(dp2628
g5
S'white_rook'
p2629
sg7
S'e1'
p2630
sa(dp2631
g7
S'e2'
p2632
sa(dp2633
g7
S'e3'
p2634
sa(dp2635
g7
S'e4'
p2636
sa(dp2637
g7
S'e5'
p2638
sa(dp2639
g5
S'black_rook'
p2640
sg7
S'e6'
p2641
sa(dp2642
g7
S'e7'
p2643
sa(dp2644
g7
S'e8'
p2645
sa(dp2646
g7
S'f1'
p2647
sa(dp2648
g5
S'white_pawn'
p2649
sg7
S'f2'
p2650
sa(dp2651
g7
S'f3'
p2652
sa(dp2653
g5
S'white_queen'
p2654
sg7
S'f4'
p2655
sa(dp2656
g7
S'f5'
p2657
sa(dp2658
g7
S'f6'
p2659
sa(dp2660
g5
S'black_pawn'
p2661
sg7
S'f7'
p2662
sa(dp2663
g7
S'f8'
p2664
sa(dp2665
g7
S'g1'
p2666
sa(dp2667
g5
S'white_pawn'
p2668
sg7
S'g2'
p2669
sa(dp2670
g7
S'g3'
p2671
sa(dp2672
g7
S'g4'
p2673
sa(dp2674
g7
S'g5'
p2675
sa(dp2676
g7
S'g6'
p2677
sa(dp2678
g5
S'black_pawn'
p2679
sg7
S'g7'
p2680
sa(dp2681
g5
S'black_king'
p2682
sg7
S'g8'
p2683
sa(dp2684
g7
S'h1'
p2685
sa(dp2686
g5
S'white_pawn'
p2687
sg7
S'h2'
p2688
sa(dp2689
g7
S'h3'
p2690
sa(dp2691
g7
S'h4'
p2692
sa(dp2693
g7
S'h5'
p2694
sa(dp2695
g7
S'h6'
p2696
sa(dp2697
g5
S'black_pawn'
p2698
sg7
S'h7'
p2699
sa(dp2700
g7
S'h8'
p2701
saaVI force RxR, otherwise Rf6 will be very strong on f2.
p2702
aa(lp2703
S'20. Rxe6 fxe6'
p2704
a(lp2705
(dp2706
g5
S'white_rook'
p2707
sg7
S'a1'
p2708
sa(dp2709
g7
S'a2'
p2710
sa(dp2711
g7
S'a3'
p2712
sa(dp2713
g5
S'white_pawn'
p2714
sg7
S'a4'
p2715
sa(dp2716
g5
S'black_pawn'
p2717
sg7
S'a5'
p2718
sa(dp2719
g7
S'a6'
p2720
sa(dp2721
g7
S'a7'
p2722
sa(dp2723
g5
S'black_rook'
p2724
sg7
S'a8'
p2725
sa(dp2726
g7
S'b1'
p2727
sa(dp2728
g7
S'b2'
p2729
sa(dp2730
g5
S'white_pawn'
p2731
sg7
S'b3'
p2732
sa(dp2733
g5
S'black_knight'
p2734
sg7
S'b4'
p2735
sa(dp2736
g7
S'b5'
p2737
sa(dp2738
g5
S'black_queen'
p2739
sg7
S'b6'
p2740
sa(dp2741
g5
S'black_pawn'
p2742
sg7
S'b7'
p2743
sa(dp2744
g7
S'b8'
p2745
sa(dp2746
g7
S'c1'
p2747
sa(dp2748
g5
S'white_pawn'
p2749
sg7
S'c2'
p2750
sa(dp2751
g5
S'white_knight'
p2752
sg7
S'c3'
p2753
sa(dp2754
g7
S'c4'
p2755
sa(dp2756
g7
S'c5'
p2757
sa(dp2758
g7
S'c6'
p2759
sa(dp2760
g7
S'c7'
p2761
sa(dp2762
g7
S'c8'
p2763
sa(dp2764
g7
S'd1'
p2765
sa(dp2766
g5
S'white_king'
p2767
sg7
S'd2'
p2768
sa(dp2769
g5
S'white_pawn'
p2770
sg7
S'd3'
p2771
sa(dp2772
g7
S'd4'
p2773
sa(dp2774
g5
S'black_pawn'
p2775
sg7
S'd5'
p2776
sa(dp2777
g7
S'd6'
p2778
sa(dp2779
g7
S'd7'
p2780
sa(dp2781
g7
S'd8'
p2782
sa(dp2783
g7
S'e1'
p2784
sa(dp2785
g7
S'e2'
p2786
sa(dp2787
g7
S'e3'
p2788
sa(dp2789
g7
S'e4'
p2790
sa(dp2791
g7
S'e5'
p2792
sa(dp2793
g5
S'black_pawn'
p2794
sg7
S'e6'
p2795
sa(dp2796
g7
S'e7'
p2797
sa(dp2798
g7
S'e8'
p2799
sa(dp2800
g7
S'f1'
p2801
sa(dp2802
g5
S'white_pawn'
p2803
sg7
S'f2'
p2804
sa(dp2805
g7
S'f3'
p2806
sa(dp2807
g5
S'white_queen'
p2808
sg7
S'f4'
p2809
sa(dp2810
g7
S'f5'
p2811
sa(dp2812
g7
S'f6'
p2813
sa(dp2814
g7
S'f7'
p2815
sa(dp2816
g7
S'f8'
p2817
sa(dp2818
g7
S'g1'
p2819
sa(dp2820
g5
S'white_pawn'
p2821
sg7
S'g2'
p2822
sa(dp2823
g7
S'g3'
p2824
sa(dp2825
g7
S'g4'
p2826
sa(dp2827
g7
S'g5'
p2828
sa(dp2829
g7
S'g6'
p2830
sa(dp2831
g5
S'black_pawn'
p2832
sg7
S'g7'
p2833
sa(dp2834
g5
S'black_king'
p2835
sg7
S'g8'
p2836
sa(dp2837
g7
S'h1'
p2838
sa(dp2839
g5
S'white_pawn'
p2840
sg7
S'h2'
p2841
sa(dp2842
g7
S'h3'
p2843
sa(dp2844
g7
S'h4'
p2845
sa(dp2846
g7
S'h5'
p2847
sa(dp2848
g7
S'h6'
p2849
sa(dp2850
g5
S'black_pawn'
p2851
sg7
S'h7'
p2852
sa(dp2853
g7
S'h8'
p2854
saaV! leaving a dangerously weak pawn on e6, but an f column ready for my R to grab.
p2855
aa(lp2856
S'21. Re1 Rf8'
p2857
a(lp2858
(dp2859
g7
S'a1'
p2860
sa(dp2861
g7
S'a2'
p2862
sa(dp2863
g7
S'a3'
p2864
sa(dp2865
g5
S'white_pawn'
p2866
sg7
S'a4'
p2867
sa(dp2868
g5
S'black_pawn'
p2869
sg7
S'a5'
p2870
sa(dp2871
g7
S'a6'
p2872
sa(dp2873
g7
S'a7'
p2874
sa(dp2875
g7
S'a8'
p2876
sa(dp2877
g7
S'b1'
p2878
sa(dp2879
g7
S'b2'
p2880
sa(dp2881
g5
S'white_pawn'
p2882
sg7
S'b3'
p2883
sa(dp2884
g5
S'black_knight'
p2885
sg7
S'b4'
p2886
sa(dp2887
g7
S'b5'
p2888
sa(dp2889
g5
S'black_queen'
p2890
sg7
S'b6'
p2891
sa(dp2892
g5
S'black_pawn'
p2893
sg7
S'b7'
p2894
sa(dp2895
g7
S'b8'
p2896
sa(dp2897
g7
S'c1'
p2898
sa(dp2899
g5
S'white_pawn'
p2900
sg7
S'c2'
p2901
sa(dp2902
g5
S'white_knight'
p2903
sg7
S'c3'
p2904
sa(dp2905
g7
S'c4'
p2906
sa(dp2907
g7
S'c5'
p2908
sa(dp2909
g7
S'c6'
p2910
sa(dp2911
g7
S'c7'
p2912
sa(dp2913
g7
S'c8'
p2914
sa(dp2915
g7
S'd1'
p2916
sa(dp2917
g5
S'white_king'
p2918
sg7
S'd2'
p2919
sa(dp2920
g5
S'white_pawn'
p2921
sg7
S'd3'
p2922
sa(dp2923
g7
S'd4'
p2924
sa(dp2925
g5
S'black_pawn'
p2926
sg7
S'd5'
p2927
sa(dp2928
g7
S'd6'
p2929
sa(dp2930
g7
S'd7'
p2931
sa(dp2932
g7
S'd8'
p2933
sa(dp2934
g5
S'white_rook'
p2935
sg7
S'e1'
p2936
sa(dp2937
g7
S'e2'
p2938
sa(dp2939
g7
S'e3'
p2940
sa(dp2941
g7
S'e4'
p2942
sa(dp2943
g7
S'e5'
p2944
sa(dp2945
g5
S'black_pawn'
p2946
sg7
S'e6'
p2947
sa(dp2948
g7
S'e7'
p2949
sa(dp2950
g7
S'e8'
p2951
sa(dp2952
g7
S'f1'
p2953
sa(dp2954
g5
S'white_pawn'
p2955
sg7
S'f2'
p2956
sa(dp2957
g7
S'f3'
p2958
sa(dp2959
g5
S'white_queen'
p2960
sg7
S'f4'
p2961
sa(dp2962
g7
S'f5'
p2963
sa(dp2964
g7
S'f6'
p2965
sa(dp2966
g7
S'f7'
p2967
sa(dp2968
g5
S'black_rook'
p2969
sg7
S'f8'
p2970
sa(dp2971
g7
S'g1'
p2972
sa(dp2973
g5
S'white_pawn'
p2974
sg7
S'g2'
p2975
sa(dp2976
g7
S'g3'
p2977
sa(dp2978
g7
S'g4'
p2979
sa(dp2980
g7
S'g5'
p2981
sa(dp2982
g7
S'g6'
p2983
sa(dp2984
g5
S'black_pawn'
p2985
sg7
S'g7'
p2986
sa(dp2987
g5
S'black_king'
p2988
sg7
S'g8'
p2989
sa(dp2990
g7
S'h1'
p2991
sa(dp2992
g5
S'white_pawn'
p2993
sg7
S'h2'
p2994
sa(dp2995
g7
S'h3'
p2996
sa(dp2997
g7
S'h4'
p2998
sa(dp2999
g7
S'h5'
p3000
sa(dp3001
g7
S'h6'
p3002
sa(dp3003
g5
S'black_pawn'
p3004
sg7
S'h7'
p3005
sa(dp3006
g7
S'h8'
p3007
saaVMy R comes first.
p3008
aa(lp3009
S'22. Qg4'
p3010
a(lp3011
(dp3012
g7
S'a1'
p3013
sa(dp3014
g7
S'a2'
p3015
sa(dp3016
g7
S'a3'
p3017
sa(dp3018
g5
S'white_pawn'
p3019
sg7
S'a4'
p3020
sa(dp3021
g5
S'black_pawn'
p3022
sg7
S'a5'
p3023
sa(dp3024
g7
S'a6'
p3025
sa(dp3026
g7
S'a7'
p3027
sa(dp3028
g7
S'a8'
p3029
sa(dp3030
g7
S'b1'
p3031
sa(dp3032
g7
S'b2'
p3033
sa(dp3034
g5
S'white_pawn'
p3035
sg7
S'b3'
p3036
sa(dp3037
g5
S'black_knight'
p3038
sg7
S'b4'
p3039
sa(dp3040
g7
S'b5'
p3041
sa(dp3042
g5
S'black_queen'
p3043
sg7
S'b6'
p3044
sa(dp3045
g5
S'black_pawn'
p3046
sg7
S'b7'
p3047
sa(dp3048
g7
S'b8'
p3049
sa(dp3050
g7
S'c1'
p3051
sa(dp3052
g5
S'white_pawn'
p3053
sg7
S'c2'
p3054
sa(dp3055
g5
S'white_knight'
p3056
sg7
S'c3'
p3057
sa(dp3058
g7
S'c4'
p3059
sa(dp3060
g7
S'c5'
p3061
sa(dp3062
g7
S'c6'
p3063
sa(dp3064
g7
S'c7'
p3065
sa(dp3066
g7
S'c8'
p3067
sa(dp3068
g7
S'd1'
p3069
sa(dp3070
g5
S'white_king'
p3071
sg7
S'd2'
p3072
sa(dp3073
g5
S'white_pawn'
p3074
sg7
S'd3'
p3075
sa(dp3076
g7
S'd4'
p3077
sa(dp3078
g5
S'black_pawn'
p3079
sg7
S'd5'
p3080
sa(dp3081
g7
S'd6'
p3082
sa(dp3083
g7
S'd7'
p3084
sa(dp3085
g7
S'd8'
p3086
sa(dp3087
g5
S'white_rook'
p3088
sg7
S'e1'
p3089
sa(dp3090
g7
S'e2'
p3091
sa(dp3092
g7
S'e3'
p3093
sa(dp3094
g7
S'e4'
p3095
sa(dp3096
g7
S'e5'
p3097
sa(dp3098
g5
S'black_pawn'
p3099
sg7
S'e6'
p3100
sa(dp3101
g7
S'e7'
p3102
sa(dp3103
g7
S'e8'
p3104
sa(dp3105
g7
S'f1'
p3106
sa(dp3107
g5
S'white_pawn'
p3108
sg7
S'f2'
p3109
sa(dp3110
g7
S'f3'
p3111
sa(dp3112
g7
S'f4'
p3113
sa(dp3114
g7
S'f5'
p3115
sa(dp3116
g7
S'f6'
p3117
sa(dp3118
g7
S'f7'
p3119
sa(dp3120
g5
S'black_rook'
p3121
sg7
S'f8'
p3122
sa(dp3123
g7
S'g1'
p3124
sa(dp3125
g5
S'white_pawn'
p3126
sg7
S'g2'
p3127
sa(dp3128
g7
S'g3'
p3129
sa(dp3130
g5
S'white_queen'
p3131
sg7
S'g4'
p3132
sa(dp3133
g7
S'g5'
p3134
sa(dp3135
g7
S'g6'
p3136
sa(dp3137
g5
S'black_pawn'
p3138
sg7
S'g7'
p3139
sa(dp3140
g5
S'black_king'
p3141
sg7
S'g8'
p3142
sa(dp3143
g7
S'h1'
p3144
sa(dp3145
g5
S'white_pawn'
p3146
sg7
S'h2'
p3147
sa(dp3148
g7
S'h3'
p3149
sa(dp3150
g7
S'h4'
p3151
sa(dp3152
g7
S'h5'
p3153
sa(dp3154
g7
S'h6'
p3155
sa(dp3156
g5
S'black_pawn'
p3157
sg7
S'h7'
p3158
sa(dp3159
g7
S'h8'
p3160
saaVPlanning a revenge on e6, but my Q guards it...
p3161
aa.