(lp0
(lp1
S'29... Ra8 30. Rg4'
p2
a(lp3
(dp4
S'piece'
p5
S'white_rook'
p6
sS'location'
p7
S'a1'
p8
sa(dp9
g7
S'a2'
p10
sa(dp11
g7
S'a3'
p12
sa(dp13
g7
S'a4'
p14
sa(dp15
g7
S'a5'
p16
sa(dp17
g7
S'a6'
p18
sa(dp19
g5
S'white_pawn'
p20
sg7
S'a7'
p21
sa(dp22
g5
S'black_rook'
p23
sg7
S'a8'
p24
sa(dp25
g7
S'b1'
p26
sa(dp27
g5
S'black_rook'
p28
sg7
S'b2'
p29
sa(dp30
g7
S'b3'
p31
sa(dp32
g7
S'b4'
p33
sa(dp34
g7
S'b5'
p35
sa(dp36
g7
S'b6'
p37
sa(dp38
g7
S'b7'
p39
sa(dp40
g7
S'b8'
p41
sa(dp42
g7
S'c1'
p43
sa(dp44
g5
S'white_pawn'
p45
sg7
S'c2'
p46
sa(dp47
g7
S'c3'
p48
sa(dp49
g7
S'c4'
p50
sa(dp51
g7
S'c5'
p52
sa(dp53
g5
S'black_queen'
p54
sg7
S'c6'
p55
sa(dp56
g7
S'c7'
p57
sa(dp58
g7
S'c8'
p59
sa(dp60
g7
S'd1'
p61
sa(dp62
g5
S'white_bishop'
p63
sg7
S'd2'
p64
sa(dp65
g5
S'white_queen'
p66
sg7
S'd3'
p67
sa(dp68
g7
S'd4'
p69
sa(dp70
g7
S'd5'
p71
sa(dp72
g7
S'd6'
p73
sa(dp74
g7
S'd7'
p75
sa(dp76
g7
S'd8'
p77
sa(dp78
g5
S'white_king'
p79
sg7
S'e1'
p80
sa(dp81
g7
S'e2'
p82
sa(dp83
g7
S'e3'
p84
sa(dp85
g5
S'white_pawn'
p86
sg7
S'e4'
p87
sa(dp88
g5
S'black_pawn'
p89
sg7
S'e5'
p90
sa(dp91
g7
S'e6'
p92
sa(dp93
g7
S'e7'
p94
sa(dp95
g7
S'e8'
p96
sa(dp97
g7
S'f1'
p98
sa(dp99
g5
S'white_pawn'
p100
sg7
S'f2'
p101
sa(dp102
g7
S'f3'
p103
sa(dp104
g7
S'f4'
p105
sa(dp106
g7
S'f5'
p107
sa(dp108
g7
S'f6'
p109
sa(dp110
g5
S'black_pawn'
p111
sg7
S'f7'
p112
sa(dp113
g7
S'f8'
p114
sa(dp115
g7
S'g1'
p116
sa(dp117
g7
S'g2'
p118
sa(dp119
g7
S'g3'
p120
sa(dp121
g5
S'white_rook'
p122
sg7
S'g4'
p123
sa(dp124
g7
S'g5'
p125
sa(dp126
g7
S'g6'
p127
sa(dp128
g5
S'black_pawn'
p129
sg7
S'g7'
p130
sa(dp131
g7
S'g8'
p132
sa(dp133
g7
S'h1'
p134
sa(dp135
g5
S'white_pawn'
p136
sg7
S'h2'
p137
sa(dp138
g7
S'h3'
p139
sa(dp140
g5
S'black_bishop'
p141
sg7
S'h4'
p142
sa(dp143
g7
S'h5'
p144
sa(dp145
g5
S'black_pawn'
p146
sg7
S'h6'
p147
sa(dp148
g7
S'h7'
p149
sa(dp150
g5
S'black_king'
p151
sg7
S'h8'
p152
saaVI saw nothing after Qd5, Qc8; this holds more initiative...
p153
aa(lp154
S'30... Be7'
p155
a(lp156
(dp157
g5
S'white_rook'
p158
sg7
S'a1'
p159
sa(dp160
g7
S'a2'
p161
sa(dp162
g7
S'a3'
p163
sa(dp164
g7
S'a4'
p165
sa(dp166
g7
S'a5'
p167
sa(dp168
g7
S'a6'
p169
sa(dp170
g5
S'white_pawn'
p171
sg7
S'a7'
p172
sa(dp173
g5
S'black_rook'
p174
sg7
S'a8'
p175
sa(dp176
g7
S'b1'
p177
sa(dp178
g5
S'black_rook'
p179
sg7
S'b2'
p180
sa(dp181
g7
S'b3'
p182
sa(dp183
g7
S'b4'
p184
sa(dp185
g7
S'b5'
p186
sa(dp187
g7
S'b6'
p188
sa(dp189
g7
S'b7'
p190
sa(dp191
g7
S'b8'
p192
sa(dp193
g7
S'c1'
p194
sa(dp195
g5
S'white_pawn'
p196
sg7
S'c2'
p197
sa(dp198
g7
S'c3'
p199
sa(dp200
g7
S'c4'
p201
sa(dp202
g7
S'c5'
p203
sa(dp204
g5
S'black_queen'
p205
sg7
S'c6'
p206
sa(dp207
g7
S'c7'
p208
sa(dp209
g7
S'c8'
p210
sa(dp211
g7
S'd1'
p212
sa(dp213
g5
S'white_bishop'
p214
sg7
S'd2'
p215
sa(dp216
g5
S'white_queen'
p217
sg7
S'd3'
p218
sa(dp219
g7
S'd4'
p220
sa(dp221
g7
S'd5'
p222
sa(dp223
g7
S'd6'
p224
sa(dp225
g7
S'd7'
p226
sa(dp227
g7
S'd8'
p228
sa(dp229
g5
S'white_king'
p230
sg7
S'e1'
p231
sa(dp232
g7
S'e2'
p233
sa(dp234
g7
S'e3'
p235
sa(dp236
g5
S'white_pawn'
p237
sg7
S'e4'
p238
sa(dp239
g5
S'black_pawn'
p240
sg7
S'e5'
p241
sa(dp242
g7
S'e6'
p243
sa(dp244
g5
S'black_bishop'
p245
sg7
S'e7'
p246
sa(dp247
g7
S'e8'
p248
sa(dp249
g7
S'f1'
p250
sa(dp251
g5
S'white_pawn'
p252
sg7
S'f2'
p253
sa(dp254
g7
S'f3'
p255
sa(dp256
g7
S'f4'
p257
sa(dp258
g7
S'f5'
p259
sa(dp260
g7
S'f6'
p261
sa(dp262
g5
S'black_pawn'
p263
sg7
S'f7'
p264
sa(dp265
g7
S'f8'
p266
sa(dp267
g7
S'g1'
p268
sa(dp269
g7
S'g2'
p270
sa(dp271
g7
S'g3'
p272
sa(dp273
g5
S'white_rook'
p274
sg7
S'g4'
p275
sa(dp276
g7
S'g5'
p277
sa(dp278
g7
S'g6'
p279
sa(dp280
g5
S'black_pawn'
p281
sg7
S'g7'
p282
sa(dp283
g7
S'g8'
p284
sa(dp285
g7
S'h1'
p286
sa(dp287
g5
S'white_pawn'
p288
sg7
S'h2'
p289
sa(dp290
g7
S'h3'
p291
sa(dp292
g7
S'h4'
p293
sa(dp294
g7
S'h5'
p295
sa(dp296
g5
S'black_pawn'
p297
sg7
S'h6'
p298
sa(dp299
g7
S'h7'
p300
sa(dp301
g5
S'black_king'
p302
sg7
S'h8'
p303
saaVBf6 is somewhat better; no good is Bg5, Bxg5, hxg5, Kf1, Rxc2, Rg3, Qc8, Qd5... somehow, Black can afford not playing the best moves...
p304
aa(lp305
S'31. Qd5 Rxc2'
p306
a(lp307
(dp308
g5
S'white_rook'
p309
sg7
S'a1'
p310
sa(dp311
g7
S'a2'
p312
sa(dp313
g7
S'a3'
p314
sa(dp315
g7
S'a4'
p316
sa(dp317
g7
S'a5'
p318
sa(dp319
g7
S'a6'
p320
sa(dp321
g5
S'white_pawn'
p322
sg7
S'a7'
p323
sa(dp324
g5
S'black_rook'
p325
sg7
S'a8'
p326
sa(dp327
g7
S'b1'
p328
sa(dp329
g7
S'b2'
p330
sa(dp331
g7
S'b3'
p332
sa(dp333
g7
S'b4'
p334
sa(dp335
g7
S'b5'
p336
sa(dp337
g7
S'b6'
p338
sa(dp339
g7
S'b7'
p340
sa(dp341
g7
S'b8'
p342
sa(dp343
g7
S'c1'
p344
sa(dp345
g5
S'black_rook'
p346
sg7
S'c2'
p347
sa(dp348
g7
S'c3'
p349
sa(dp350
g7
S'c4'
p351
sa(dp352
g7
S'c5'
p353
sa(dp354
g5
S'black_queen'
p355
sg7
S'c6'
p356
sa(dp357
g7
S'c7'
p358
sa(dp359
g7
S'c8'
p360
sa(dp361
g7
S'd1'
p362
sa(dp363
g5
S'white_bishop'
p364
sg7
S'd2'
p365
sa(dp366
g7
S'd3'
p367
sa(dp368
g7
S'd4'
p369
sa(dp370
g5
S'white_queen'
p371
sg7
S'd5'
p372
sa(dp373
g7
S'd6'
p374
sa(dp375
g7
S'd7'
p376
sa(dp377
g7
S'd8'
p378
sa(dp379
g5
S'white_king'
p380
sg7
S'e1'
p381
sa(dp382
g7
S'e2'
p383
sa(dp384
g7
S'e3'
p385
sa(dp386
g5
S'white_pawn'
p387
sg7
S'e4'
p388
sa(dp389
g5
S'black_pawn'
p390
sg7
S'e5'
p391
sa(dp392
g7
S'e6'
p393
sa(dp394
g5
S'black_bishop'
p395
sg7
S'e7'
p396
sa(dp397
g7
S'e8'
p398
sa(dp399
g7
S'f1'
p400
sa(dp401
g5
S'white_pawn'
p402
sg7
S'f2'
p403
sa(dp404
g7
S'f3'
p405
sa(dp406
g7
S'f4'
p407
sa(dp408
g7
S'f5'
p409
sa(dp410
g7
S'f6'
p411
sa(dp412
g5
S'black_pawn'
p413
sg7
S'f7'
p414
sa(dp415
g7
S'f8'
p416
sa(dp417
g7
S'g1'
p418
sa(dp419
g7
S'g2'
p420
sa(dp421
g7
S'g3'
p422
sa(dp423
g5
S'white_rook'
p424
sg7
S'g4'
p425
sa(dp426
g7
S'g5'
p427
sa(dp428
g7
S'g6'
p429
sa(dp430
g5
S'black_pawn'
p431
sg7
S'g7'
p432
sa(dp433
g7
S'g8'
p434
sa(dp435
g7
S'h1'
p436
sa(dp437
g5
S'white_pawn'
p438
sg7
S'h2'
p439
sa(dp440
g7
S'h3'
p441
sa(dp442
g7
S'h4'
p443
sa(dp444
g7
S'h5'
p445
sa(dp446
g5
S'black_pawn'
p447
sg7
S'h6'
p448
sa(dp449
g7
S'h7'
p450
sa(dp451
g5
S'black_king'
p452
sg7
S'h8'
p453
saaVagain, not the best; Qc8, Rg3 holds more initiative...
p454
aa(lp455
S'32. Qxc6 Rxc6 33. Be3 Bc5 34. Rg3 Bxe3 35. Rxe3 Rc7 36. Rea3 Kg8'
p456
a(lp457
(dp458
g5
S'white_rook'
p459
sg7
S'a1'
p460
sa(dp461
g7
S'a2'
p462
sa(dp463
g5
S'white_rook'
p464
sg7
S'a3'
p465
sa(dp466
g7
S'a4'
p467
sa(dp468
g7
S'a5'
p469
sa(dp470
g7
S'a6'
p471
sa(dp472
g5
S'white_pawn'
p473
sg7
S'a7'
p474
sa(dp475
g5
S'black_rook'
p476
sg7
S'a8'
p477
sa(dp478
g7
S'b1'
p479
sa(dp480
g7
S'b2'
p481
sa(dp482
g7
S'b3'
p483
sa(dp484
g7
S'b4'
p485
sa(dp486
g7
S'b5'
p487
sa(dp488
g7
S'b6'
p489
sa(dp490
g7
S'b7'
p491
sa(dp492
g7
S'b8'
p493
sa(dp494
g7
S'c1'
p495
sa(dp496
g7
S'c2'
p497
sa(dp498
g7
S'c3'
p499
sa(dp500
g7
S'c4'
p501
sa(dp502
g7
S'c5'
p503
sa(dp504
g7
S'c6'
p505
sa(dp506
g5
S'black_rook'
p507
sg7
S'c7'
p508
sa(dp509
g7
S'c8'
p510
sa(dp511
g7
S'd1'
p512
sa(dp513
g7
S'd2'
p514
sa(dp515
g7
S'd3'
p516
sa(dp517
g7
S'd4'
p518
sa(dp519
g7
S'd5'
p520
sa(dp521
g7
S'd6'
p522
sa(dp523
g7
S'd7'
p524
sa(dp525
g7
S'd8'
p526
sa(dp527
g5
S'white_king'
p528
sg7
S'e1'
p529
sa(dp530
g7
S'e2'
p531
sa(dp532
g7
S'e3'
p533
sa(dp534
g5
S'white_pawn'
p535
sg7
S'e4'
p536
sa(dp537
g5
S'black_pawn'
p538
sg7
S'e5'
p539
sa(dp540
g7
S'e6'
p541
sa(dp542
g7
S'e7'
p543
sa(dp544
g7
S'e8'
p545
sa(dp546
g7
S'f1'
p547
sa(dp548
g5
S'white_pawn'
p549
sg7
S'f2'
p550
sa(dp551
g7
S'f3'
p552
sa(dp553
g7
S'f4'
p554
sa(dp555
g7
S'f5'
p556
sa(dp557
g7
S'f6'
p558
sa(dp559
g5
S'black_pawn'
p560
sg7
S'f7'
p561
sa(dp562
g7
S'f8'
p563
sa(dp564
g7
S'g1'
p565
sa(dp566
g7
S'g2'
p567
sa(dp568
g7
S'g3'
p569
sa(dp570
g7
S'g4'
p571
sa(dp572
g7
S'g5'
p573
sa(dp574
g7
S'g6'
p575
sa(dp576
g5
S'black_pawn'
p577
sg7
S'g7'
p578
sa(dp579
g5
S'black_king'
p580
sg7
S'g8'
p581
sa(dp582
g7
S'h1'
p583
sa(dp584
g5
S'white_pawn'
p585
sg7
S'h2'
p586
sa(dp587
g7
S'h3'
p588
sa(dp589
g7
S'h4'
p590
sa(dp591
g7
S'h5'
p592
sa(dp593
g5
S'black_pawn'
p594
sg7
S'h6'
p595
sa(dp596
g7
S'h7'
p597
sa(dp598
g7
S'h8'
p599
saaVat this point, Black offered a draw; which I declined for no particular reason... apart from the fact, that I saw no longer a way to win this for Black...
p600
aa(lp601
S'37. Ke2'
p602
a(lp603
(dp604
g5
S'white_rook'
p605
sg7
S'a1'
p606
sa(dp607
g7
S'a2'
p608
sa(dp609
g5
S'white_rook'
p610
sg7
S'a3'
p611
sa(dp612
g7
S'a4'
p613
sa(dp614
g7
S'a5'
p615
sa(dp616
g7
S'a6'
p617
sa(dp618
g5
S'white_pawn'
p619
sg7
S'a7'
p620
sa(dp621
g5
S'black_rook'
p622
sg7
S'a8'
p623
sa(dp624
g7
S'b1'
p625
sa(dp626
g7
S'b2'
p627
sa(dp628
g7
S'b3'
p629
sa(dp630
g7
S'b4'
p631
sa(dp632
g7
S'b5'
p633
sa(dp634
g7
S'b6'
p635
sa(dp636
g7
S'b7'
p637
sa(dp638
g7
S'b8'
p639
sa(dp640
g7
S'c1'
p641
sa(dp642
g7
S'c2'
p643
sa(dp644
g7
S'c3'
p645
sa(dp646
g7
S'c4'
p647
sa(dp648
g7
S'c5'
p649
sa(dp650
g7
S'c6'
p651
sa(dp652
g5
S'black_rook'
p653
sg7
S'c7'
p654
sa(dp655
g7
S'c8'
p656
sa(dp657
g7
S'd1'
p658
sa(dp659
g7
S'd2'
p660
sa(dp661
g7
S'd3'
p662
sa(dp663
g7
S'd4'
p664
sa(dp665
g7
S'd5'
p666
sa(dp667
g7
S'd6'
p668
sa(dp669
g7
S'd7'
p670
sa(dp671
g7
S'd8'
p672
sa(dp673
g7
S'e1'
p674
sa(dp675
g5
S'white_king'
p676
sg7
S'e2'
p677
sa(dp678
g7
S'e3'
p679
sa(dp680
g5
S'white_pawn'
p681
sg7
S'e4'
p682
sa(dp683
g5
S'black_pawn'
p684
sg7
S'e5'
p685
sa(dp686
g7
S'e6'
p687
sa(dp688
g7
S'e7'
p689
sa(dp690
g7
S'e8'
p691
sa(dp692
g7
S'f1'
p693
sa(dp694
g5
S'white_pawn'
p695
sg7
S'f2'
p696
sa(dp697
g7
S'f3'
p698
sa(dp699
g7
S'f4'
p700
sa(dp701
g7
S'f5'
p702
sa(dp703
g7
S'f6'
p704
sa(dp705
g5
S'black_pawn'
p706
sg7
S'f7'
p707
sa(dp708
g7
S'f8'
p709
sa(dp710
g7
S'g1'
p711
sa(dp712
g7
S'g2'
p713
sa(dp714
g7
S'g3'
p715
sa(dp716
g7
S'g4'
p717
sa(dp718
g7
S'g5'
p719
sa(dp720
g7
S'g6'
p721
sa(dp722
g5
S'black_pawn'
p723
sg7
S'g7'
p724
sa(dp725
g5
S'black_king'
p726
sg7
S'g8'
p727
sa(dp728
g7
S'h1'
p729
sa(dp730
g5
S'white_pawn'
p731
sg7
S'h2'
p732
sa(dp733
g7
S'h3'
p734
sa(dp735
g7
S'h4'
p736
sa(dp737
g7
S'h5'
p738
sa(dp739
g5
S'black_pawn'
p740
sg7
S'h6'
p741
sa(dp742
g7
S'h7'
p743
sa(dp744
g7
S'h8'
p745
saaVWhite needs to find a way to penetrate Blacks' Kings' wing... Ra6, Kf8, h4, will not work...
p746
aa(lp747
S'37... f6 38. Kf3 Kf7 39. Kg4 Rb7 40. h4 g6 41. f4 h5+ 42. Kf3 exf4 43. Kxf4 Rb5 44. Ke3 Rb7'
p748
a(lp749
(dp750
g5
S'white_rook'
p751
sg7
S'a1'
p752
sa(dp753
g7
S'a2'
p754
sa(dp755
g5
S'white_rook'
p756
sg7
S'a3'
p757
sa(dp758
g7
S'a4'
p759
sa(dp760
g7
S'a5'
p761
sa(dp762
g7
S'a6'
p763
sa(dp764
g5
S'white_pawn'
p765
sg7
S'a7'
p766
sa(dp767
g5
S'black_rook'
p768
sg7
S'a8'
p769
sa(dp770
g7
S'b1'
p771
sa(dp772
g7
S'b2'
p773
sa(dp774
g7
S'b3'
p775
sa(dp776
g7
S'b4'
p777
sa(dp778
g7
S'b5'
p779
sa(dp780
g7
S'b6'
p781
sa(dp782
g5
S'black_rook'
p783
sg7
S'b7'
p784
sa(dp785
g7
S'b8'
p786
sa(dp787
g7
S'c1'
p788
sa(dp789
g7
S'c2'
p790
sa(dp791
g7
S'c3'
p792
sa(dp793
g7
S'c4'
p794
sa(dp795
g7
S'c5'
p796
sa(dp797
g7
S'c6'
p798
sa(dp799
g7
S'c7'
p800
sa(dp801
g7
S'c8'
p802
sa(dp803
g7
S'd1'
p804
sa(dp805
g7
S'd2'
p806
sa(dp807
g7
S'd3'
p808
sa(dp809
g7
S'd4'
p810
sa(dp811
g7
S'd5'
p812
sa(dp813
g7
S'd6'
p814
sa(dp815
g7
S'd7'
p816
sa(dp817
g7
S'd8'
p818
sa(dp819
g7
S'e1'
p820
sa(dp821
g7
S'e2'
p822
sa(dp823
g5
S'white_king'
p824
sg7
S'e3'
p825
sa(dp826
g5
S'white_pawn'
p827
sg7
S'e4'
p828
sa(dp829
g7
S'e5'
p830
sa(dp831
g7
S'e6'
p832
sa(dp833
g7
S'e7'
p834
sa(dp835
g7
S'e8'
p836
sa(dp837
g7
S'f1'
p838
sa(dp839
g7
S'f2'
p840
sa(dp841
g7
S'f3'
p842
sa(dp843
g7
S'f4'
p844
sa(dp845
g7
S'f5'
p846
sa(dp847
g5
S'black_pawn'
p848
sg7
S'f6'
p849
sa(dp850
g5
S'black_king'
p851
sg7
S'f7'
p852
sa(dp853
g7
S'f8'
p854
sa(dp855
g7
S'g1'
p856
sa(dp857
g7
S'g2'
p858
sa(dp859
g7
S'g3'
p860
sa(dp861
g7
S'g4'
p862
sa(dp863
g7
S'g5'
p864
sa(dp865
g5
S'black_pawn'
p866
sg7
S'g6'
p867
sa(dp868
g7
S'g7'
p869
sa(dp870
g7
S'g8'
p871
sa(dp872
g7
S'h1'
p873
sa(dp874
g7
S'h2'
p875
sa(dp876
g7
S'h3'
p877
sa(dp878
g5
S'white_pawn'
p879
sg7
S'h4'
p880
sa(dp881
g5
S'black_pawn'
p882
sg7
S'h5'
p883
sa(dp884
g7
S'h6'
p885
sa(dp886
g7
S'h7'
p887
sa(dp888
g7
S'h8'
p889
saaVbest here is Re5, Ra5, Re7, but White cannot profit...
p890
aa(lp891
S'45. Ra3a6 Rd7 46. Ra1a5 Rb7 47. Kf4 Rb4 48. Rd5 Rb7'
p892
a(lp893
(dp894
g7
S'a1'
p895
sa(dp896
g7
S'a2'
p897
sa(dp898
g7
S'a3'
p899
sa(dp900
g7
S'a4'
p901
sa(dp902
g7
S'a5'
p903
sa(dp904
g5
S'white_rook'
p905
sg7
S'a6'
p906
sa(dp907
g5
S'white_pawn'
p908
sg7
S'a7'
p909
sa(dp910
g5
S'black_rook'
p911
sg7
S'a8'
p912
sa(dp913
g7
S'b1'
p914
sa(dp915
g7
S'b2'
p916
sa(dp917
g7
S'b3'
p918
sa(dp919
g7
S'b4'
p920
sa(dp921
g7
S'b5'
p922
sa(dp923
g7
S'b6'
p924
sa(dp925
g5
S'black_rook'
p926
sg7
S'b7'
p927
sa(dp928
g7
S'b8'
p929
sa(dp930
g7
S'c1'
p931
sa(dp932
g7
S'c2'
p933
sa(dp934
g7
S'c3'
p935
sa(dp936
g7
S'c4'
p937
sa(dp938
g7
S'c5'
p939
sa(dp940
g7
S'c6'
p941
sa(dp942
g7
S'c7'
p943
sa(dp944
g7
S'c8'
p945
sa(dp946
g7
S'd1'
p947
sa(dp948
g7
S'd2'
p949
sa(dp950
g7
S'd3'
p951
sa(dp952
g7
S'd4'
p953
sa(dp954
g5
S'white_rook'
p955
sg7
S'd5'
p956
sa(dp957
g7
S'd6'
p958
sa(dp959
g7
S'd7'
p960
sa(dp961
g7
S'd8'
p962
sa(dp963
g7
S'e1'
p964
sa(dp965
g7
S'e2'
p966
sa(dp967
g7
S'e3'
p968
sa(dp969
g5
S'white_pawn'
p970
sg7
S'e4'
p971
sa(dp972
g7
S'e5'
p973
sa(dp974
g7
S'e6'
p975
sa(dp976
g7
S'e7'
p977
sa(dp978
g7
S'e8'
p979
sa(dp980
g7
S'f1'
p981
sa(dp982
g7
S'f2'
p983
sa(dp984
g7
S'f3'
p985
sa(dp986
g5
S'white_king'
p987
sg7
S'f4'
p988
sa(dp989
g7
S'f5'
p990
sa(dp991
g5
S'black_pawn'
p992
sg7
S'f6'
p993
sa(dp994
g5
S'black_king'
p995
sg7
S'f7'
p996
sa(dp997
g7
S'f8'
p998
sa(dp999
g7
S'g1'
p1000
sa(dp1001
g7
S'g2'
p1002
sa(dp1003
g7
S'g3'
p1004
sa(dp1005
g7
S'g4'
p1006
sa(dp1007
g7
S'g5'
p1008
sa(dp1009
g5
S'black_pawn'
p1010
sg7
S'g6'
p1011
sa(dp1012
g7
S'g7'
p1013
sa(dp1014
g7
S'g8'
p1015
sa(dp1016
g7
S'h1'
p1017
sa(dp1018
g7
S'h2'
p1019
sa(dp1020
g7
S'h3'
p1021
sa(dp1022
g5
S'white_pawn'
p1023
sg7
S'h4'
p1024
sa(dp1025
g5
S'black_pawn'
p1026
sg7
S'h5'
p1027
sa(dp1028
g7
S'h6'
p1029
sa(dp1030
g7
S'h7'
p1031
sa(dp1032
g7
S'h8'
p1033
saaVby now, it was dawning on me; Rb7 would always guarantee a draw...
p1034
aa(lp1035
S'49. Rdd6 g5+ 50. Kf5 gxh4'
p1036
a(lp1037
(dp1038
g7
S'a1'
p1039
sa(dp1040
g7
S'a2'
p1041
sa(dp1042
g7
S'a3'
p1043
sa(dp1044
g7
S'a4'
p1045
sa(dp1046
g7
S'a5'
p1047
sa(dp1048
g5
S'white_rook'
p1049
sg7
S'a6'
p1050
sa(dp1051
g5
S'white_pawn'
p1052
sg7
S'a7'
p1053
sa(dp1054
g5
S'black_rook'
p1055
sg7
S'a8'
p1056
sa(dp1057
g7
S'b1'
p1058
sa(dp1059
g7
S'b2'
p1060
sa(dp1061
g7
S'b3'
p1062
sa(dp1063
g7
S'b4'
p1064
sa(dp1065
g7
S'b5'
p1066
sa(dp1067
g7
S'b6'
p1068
sa(dp1069
g5
S'black_rook'
p1070
sg7
S'b7'
p1071
sa(dp1072
g7
S'b8'
p1073
sa(dp1074
g7
S'c1'
p1075
sa(dp1076
g7
S'c2'
p1077
sa(dp1078
g7
S'c3'
p1079
sa(dp1080
g7
S'c4'
p1081
sa(dp1082
g7
S'c5'
p1083
sa(dp1084
g7
S'c6'
p1085
sa(dp1086
g7
S'c7'
p1087
sa(dp1088
g7
S'c8'
p1089
sa(dp1090
g7
S'd1'
p1091
sa(dp1092
g7
S'd2'
p1093
sa(dp1094
g7
S'd3'
p1095
sa(dp1096
g7
S'd4'
p1097
sa(dp1098
g7
S'd5'
p1099
sa(dp1100
g5
S'white_rook'
p1101
sg7
S'd6'
p1102
sa(dp1103
g7
S'd7'
p1104
sa(dp1105
g7
S'd8'
p1106
sa(dp1107
g7
S'e1'
p1108
sa(dp1109
g7
S'e2'
p1110
sa(dp1111
g7
S'e3'
p1112
sa(dp1113
g5
S'white_pawn'
p1114
sg7
S'e4'
p1115
sa(dp1116
g7
S'e5'
p1117
sa(dp1118
g7
S'e6'
p1119
sa(dp1120
g7
S'e7'
p1121
sa(dp1122
g7
S'e8'
p1123
sa(dp1124
g7
S'f1'
p1125
sa(dp1126
g7
S'f2'
p1127
sa(dp1128
g7
S'f3'
p1129
sa(dp1130
g7
S'f4'
p1131
sa(dp1132
g5
S'white_king'
p1133
sg7
S'f5'
p1134
sa(dp1135
g5
S'black_pawn'
p1136
sg7
S'f6'
p1137
sa(dp1138
g5
S'black_king'
p1139
sg7
S'f7'
p1140
sa(dp1141
g7
S'f8'
p1142
sa(dp1143
g7
S'g1'
p1144
sa(dp1145
g7
S'g2'
p1146
sa(dp1147
g7
S'g3'
p1148
sa(dp1149
g7
S'g4'
p1150
sa(dp1151
g7
S'g5'
p1152
sa(dp1153
g7
S'g6'
p1154
sa(dp1155
g7
S'g7'
p1156
sa(dp1157
g7
S'g8'
p1158
sa(dp1159
g7
S'h1'
p1160
sa(dp1161
g7
S'h2'
p1162
sa(dp1163
g7
S'h3'
p1164
sa(dp1165
g5
S'black_pawn'
p1166
sg7
S'h4'
p1167
sa(dp1168
g5
S'black_pawn'
p1169
sg7
S'h5'
p1170
sa(dp1171
g7
S'h6'
p1172
sa(dp1173
g7
S'h7'
p1174
sa(dp1175
g7
S'h8'
p1176
saaVor Rb5+, Rd5, Rxd5+, exd5, gxh4...
p1177
aa(lp1178
S'51. Rdxf6+ Kg7 52. Rfg6+ Kh7 53. Rgh6+ Kg8 54. Rxh5'
p1179
a(lp1180
(dp1181
g7
S'a1'
p1182
sa(dp1183
g7
S'a2'
p1184
sa(dp1185
g7
S'a3'
p1186
sa(dp1187
g7
S'a4'
p1188
sa(dp1189
g7
S'a5'
p1190
sa(dp1191
g5
S'white_rook'
p1192
sg7
S'a6'
p1193
sa(dp1194
g5
S'white_pawn'
p1195
sg7
S'a7'
p1196
sa(dp1197
g5
S'black_rook'
p1198
sg7
S'a8'
p1199
sa(dp1200
g7
S'b1'
p1201
sa(dp1202
g7
S'b2'
p1203
sa(dp1204
g7
S'b3'
p1205
sa(dp1206
g7
S'b4'
p1207
sa(dp1208
g7
S'b5'
p1209
sa(dp1210
g7
S'b6'
p1211
sa(dp1212
g5
S'black_rook'
p1213
sg7
S'b7'
p1214
sa(dp1215
g7
S'b8'
p1216
sa(dp1217
g7
S'c1'
p1218
sa(dp1219
g7
S'c2'
p1220
sa(dp1221
g7
S'c3'
p1222
sa(dp1223
g7
S'c4'
p1224
sa(dp1225
g7
S'c5'
p1226
sa(dp1227
g7
S'c6'
p1228
sa(dp1229
g7
S'c7'
p1230
sa(dp1231
g7
S'c8'
p1232
sa(dp1233
g7
S'd1'
p1234
sa(dp1235
g7
S'd2'
p1236
sa(dp1237
g7
S'd3'
p1238
sa(dp1239
g7
S'd4'
p1240
sa(dp1241
g7
S'd5'
p1242
sa(dp1243
g7
S'd6'
p1244
sa(dp1245
g7
S'd7'
p1246
sa(dp1247
g7
S'd8'
p1248
sa(dp1249
g7
S'e1'
p1250
sa(dp1251
g7
S'e2'
p1252
sa(dp1253
g7
S'e3'
p1254
sa(dp1255
g5
S'white_pawn'
p1256
sg7
S'e4'
p1257
sa(dp1258
g7
S'e5'
p1259
sa(dp1260
g7
S'e6'
p1261
sa(dp1262
g7
S'e7'
p1263
sa(dp1264
g7
S'e8'
p1265
sa(dp1266
g7
S'f1'
p1267
sa(dp1268
g7
S'f2'
p1269
sa(dp1270
g7
S'f3'
p1271
sa(dp1272
g7
S'f4'
p1273
sa(dp1274
g5
S'white_king'
p1275
sg7
S'f5'
p1276
sa(dp1277
g7
S'f6'
p1278
sa(dp1279
g7
S'f7'
p1280
sa(dp1281
g7
S'f8'
p1282
sa(dp1283
g7
S'g1'
p1284
sa(dp1285
g7
S'g2'
p1286
sa(dp1287
g7
S'g3'
p1288
sa(dp1289
g7
S'g4'
p1290
sa(dp1291
g7
S'g5'
p1292
sa(dp1293
g7
S'g6'
p1294
sa(dp1295
g7
S'g7'
p1296
sa(dp1297
g5
S'black_king'
p1298
sg7
S'g8'
p1299
sa(dp1300
g7
S'h1'
p1301
sa(dp1302
g7
S'h2'
p1303
sa(dp1304
g7
S'h3'
p1305
sa(dp1306
g5
S'black_pawn'
p1307
sg7
S'h4'
p1308
sa(dp1309
g5
S'white_rook'
p1310
sg7
S'h5'
p1311
sa(dp1312
g7
S'h6'
p1313
sa(dp1314
g7
S'h7'
p1315
sa(dp1316
g7
S'h8'
p1317
saaVafter Rag6+, Rg7, Rxg7+, Kxg7, Rxh5, Rxa7, Rxh4, White is also a pawn ahead, but after Re7, e5, Kf7, there is no way to win for White... all theory...
p1318
aa(lp1319
S'54... Raxa7 55. Rxa7 Rxa7 56. Rxh4 Ra6 57. e5 Kf7 58. Rh6'
p1320
a(lp1321
(dp1322
g7
S'a1'
p1323
sa(dp1324
g7
S'a2'
p1325
sa(dp1326
g7
S'a3'
p1327
sa(dp1328
g7
S'a4'
p1329
sa(dp1330
g7
S'a5'
p1331
sa(dp1332
g5
S'black_rook'
p1333
sg7
S'a6'
p1334
sa(dp1335
g7
S'a7'
p1336
sa(dp1337
g7
S'a8'
p1338
sa(dp1339
g7
S'b1'
p1340
sa(dp1341
g7
S'b2'
p1342
sa(dp1343
g7
S'b3'
p1344
sa(dp1345
g7
S'b4'
p1346
sa(dp1347
g7
S'b5'
p1348
sa(dp1349
g7
S'b6'
p1350
sa(dp1351
g7
S'b7'
p1352
sa(dp1353
g7
S'b8'
p1354
sa(dp1355
g7
S'c1'
p1356
sa(dp1357
g7
S'c2'
p1358
sa(dp1359
g7
S'c3'
p1360
sa(dp1361
g7
S'c4'
p1362
sa(dp1363
g7
S'c5'
p1364
sa(dp1365
g7
S'c6'
p1366
sa(dp1367
g7
S'c7'
p1368
sa(dp1369
g7
S'c8'
p1370
sa(dp1371
g7
S'd1'
p1372
sa(dp1373
g7
S'd2'
p1374
sa(dp1375
g7
S'd3'
p1376
sa(dp1377
g7
S'd4'
p1378
sa(dp1379
g7
S'd5'
p1380
sa(dp1381
g7
S'd6'
p1382
sa(dp1383
g7
S'd7'
p1384
sa(dp1385
g7
S'd8'
p1386
sa(dp1387
g7
S'e1'
p1388
sa(dp1389
g7
S'e2'
p1390
sa(dp1391
g7
S'e3'
p1392
sa(dp1393
g7
S'e4'
p1394
sa(dp1395
g5
S'white_pawn'
p1396
sg7
S'e5'
p1397
sa(dp1398
g7
S'e6'
p1399
sa(dp1400
g7
S'e7'
p1401
sa(dp1402
g7
S'e8'
p1403
sa(dp1404
g7
S'f1'
p1405
sa(dp1406
g7
S'f2'
p1407
sa(dp1408
g7
S'f3'
p1409
sa(dp1410
g7
S'f4'
p1411
sa(dp1412
g5
S'white_king'
p1413
sg7
S'f5'
p1414
sa(dp1415
g7
S'f6'
p1416
sa(dp1417
g5
S'black_king'
p1418
sg7
S'f7'
p1419
sa(dp1420
g7
S'f8'
p1421
sa(dp1422
g7
S'g1'
p1423
sa(dp1424
g7
S'g2'
p1425
sa(dp1426
g7
S'g3'
p1427
sa(dp1428
g7
S'g4'
p1429
sa(dp1430
g7
S'g5'
p1431
sa(dp1432
g7
S'g6'
p1433
sa(dp1434
g7
S'g7'
p1435
sa(dp1436
g7
S'g8'
p1437
sa(dp1438
g7
S'h1'
p1439
sa(dp1440
g7
S'h2'
p1441
sa(dp1442
g7
S'h3'
p1443
sa(dp1444
g7
S'h4'
p1445
sa(dp1446
g7
S'h5'
p1447
sa(dp1448
g5
S'white_rook'
p1449
sg7
S'h6'
p1450
sa(dp1451
g7
S'h7'
p1452
sa(dp1453
g7
S'h8'
p1454
saaVof course meaning to play Rh7+, Ke8, to drive the Black King out of opposition, only to realize that e5 can never enter the sixth row, due to eternal checks by the Black rook; instead, I managed to produce this losing blunder... lucky for me, this opponent was courteous enough to accept a draw...
p1455
aa.