(lp0
(lp1
S'25. c5'
p2
a(lp3
(dp4
S'location'
p5
S'a1'
p6
sa(dp7
S'piece'
p8
S'white_pawn'
p9
sg5
S'a2'
p10
sa(dp11
g5
S'a3'
p12
sa(dp13
g8
S'white_queen'
p14
sg5
S'a4'
p15
sa(dp16
g5
S'a5'
p17
sa(dp18
g8
S'black_knight'
p19
sg5
S'a6'
p20
sa(dp21
g5
S'a7'
p22
sa(dp23
g5
S'a8'
p24
sa(dp25
g5
S'b1'
p26
sa(dp27
g5
S'b2'
p28
sa(dp29
g8
S'white_pawn'
p30
sg5
S'b3'
p31
sa(dp32
g5
S'b4'
p33
sa(dp34
g5
S'b5'
p35
sa(dp36
g8
S'black_queen'
p37
sg5
S'b6'
p38
sa(dp39
g5
S'b7'
p40
sa(dp41
g5
S'b8'
p42
sa(dp43
g5
S'c1'
p44
sa(dp45
g5
S'c2'
p46
sa(dp47
g5
S'c3'
p48
sa(dp49
g5
S'c4'
p50
sa(dp51
g8
S'white_pawn'
p52
sg5
S'c5'
p53
sa(dp54
g8
S'black_pawn'
p55
sg5
S'c6'
p56
sa(dp57
g5
S'c7'
p58
sa(dp59
g8
S'black_king'
p60
sg5
S'c8'
p61
sa(dp62
g5
S'd1'
p63
sa(dp64
g8
S'black_rook'
p65
sg5
S'd2'
p66
sa(dp67
g5
S'd3'
p68
sa(dp69
g5
S'd4'
p70
sa(dp71
g5
S'd5'
p72
sa(dp73
g5
S'd6'
p74
sa(dp75
g5
S'd7'
p76
sa(dp77
g5
S'd8'
p78
sa(dp79
g8
S'white_rook'
p80
sg5
S'e1'
p81
sa(dp82
g5
S'e2'
p83
sa(dp84
g5
S'e3'
p85
sa(dp86
g5
S'e4'
p87
sa(dp88
g8
S'white_knight'
p89
sg5
S'e5'
p90
sa(dp91
g8
S'black_bishop'
p92
sg5
S'e6'
p93
sa(dp94
g5
S'e7'
p95
sa(dp96
g5
S'e8'
p97
sa(dp98
g5
S'f1'
p99
sa(dp100
g8
S'white_pawn'
p101
sg5
S'f2'
p102
sa(dp103
g5
S'f3'
p104
sa(dp105
g5
S'f4'
p106
sa(dp107
g5
S'f5'
p108
sa(dp109
g5
S'f6'
p110
sa(dp111
g8
S'black_pawn'
p112
sg5
S'f7'
p113
sa(dp114
g5
S'f8'
p115
sa(dp116
g8
S'white_king'
p117
sg5
S'g1'
p118
sa(dp119
g8
S'white_pawn'
p120
sg5
S'g2'
p121
sa(dp122
g5
S'g3'
p123
sa(dp124
g5
S'g4'
p125
sa(dp126
g8
S'black_pawn'
p127
sg5
S'g5'
p128
sa(dp129
g5
S'g6'
p130
sa(dp131
g5
S'g7'
p132
sa(dp133
g5
S'g8'
p134
sa(dp135
g5
S'h1'
p136
sa(dp137
g8
S'white_pawn'
p138
sg5
S'h2'
p139
sa(dp140
g5
S'h3'
p141
sa(dp142
g5
S'h4'
p143
sa(dp144
g5
S'h5'
p145
sa(dp146
g8
S'black_pawn'
p147
sg5
S'h6'
p148
sa(dp149
g5
S'h7'
p150
sa(dp151
g5
S'h8'
p152
saaVOuch! Of course if Qxc4, QxN+ and so on for a perpetual. 
p153
aa(lp154
S'25... Nxc5'
p155
a(lp156
(dp157
g5
S'a1'
p158
sa(dp159
g8
S'white_pawn'
p160
sg5
S'a2'
p161
sa(dp162
g5
S'a3'
p163
sa(dp164
g8
S'white_queen'
p165
sg5
S'a4'
p166
sa(dp167
g5
S'a5'
p168
sa(dp169
g5
S'a6'
p170
sa(dp171
g5
S'a7'
p172
sa(dp173
g5
S'a8'
p174
sa(dp175
g5
S'b1'
p176
sa(dp177
g5
S'b2'
p178
sa(dp179
g8
S'white_pawn'
p180
sg5
S'b3'
p181
sa(dp182
g5
S'b4'
p183
sa(dp184
g5
S'b5'
p185
sa(dp186
g8
S'black_queen'
p187
sg5
S'b6'
p188
sa(dp189
g5
S'b7'
p190
sa(dp191
g5
S'b8'
p192
sa(dp193
g5
S'c1'
p194
sa(dp195
g5
S'c2'
p196
sa(dp197
g5
S'c3'
p198
sa(dp199
g5
S'c4'
p200
sa(dp201
g8
S'black_knight'
p202
sg5
S'c5'
p203
sa(dp204
g8
S'black_pawn'
p205
sg5
S'c6'
p206
sa(dp207
g5
S'c7'
p208
sa(dp209
g8
S'black_king'
p210
sg5
S'c8'
p211
sa(dp212
g5
S'd1'
p213
sa(dp214
g8
S'black_rook'
p215
sg5
S'd2'
p216
sa(dp217
g5
S'd3'
p218
sa(dp219
g5
S'd4'
p220
sa(dp221
g5
S'd5'
p222
sa(dp223
g5
S'd6'
p224
sa(dp225
g5
S'd7'
p226
sa(dp227
g5
S'd8'
p228
sa(dp229
g8
S'white_rook'
p230
sg5
S'e1'
p231
sa(dp232
g5
S'e2'
p233
sa(dp234
g5
S'e3'
p235
sa(dp236
g5
S'e4'
p237
sa(dp238
g8
S'white_knight'
p239
sg5
S'e5'
p240
sa(dp241
g8
S'black_bishop'
p242
sg5
S'e6'
p243
sa(dp244
g5
S'e7'
p245
sa(dp246
g5
S'e8'
p247
sa(dp248
g5
S'f1'
p249
sa(dp250
g8
S'white_pawn'
p251
sg5
S'f2'
p252
sa(dp253
g5
S'f3'
p254
sa(dp255
g5
S'f4'
p256
sa(dp257
g5
S'f5'
p258
sa(dp259
g5
S'f6'
p260
sa(dp261
g8
S'black_pawn'
p262
sg5
S'f7'
p263
sa(dp264
g5
S'f8'
p265
sa(dp266
g8
S'white_king'
p267
sg5
S'g1'
p268
sa(dp269
g8
S'white_pawn'
p270
sg5
S'g2'
p271
sa(dp272
g5
S'g3'
p273
sa(dp274
g5
S'g4'
p275
sa(dp276
g8
S'black_pawn'
p277
sg5
S'g5'
p278
sa(dp279
g5
S'g6'
p280
sa(dp281
g5
S'g7'
p282
sa(dp283
g5
S'g8'
p284
sa(dp285
g5
S'h1'
p286
sa(dp287
g8
S'white_pawn'
p288
sg5
S'h2'
p289
sa(dp290
g5
S'h3'
p291
sa(dp292
g5
S'h4'
p293
sa(dp294
g5
S'h5'
p295
sa(dp296
g8
S'black_pawn'
p297
sg5
S'h6'
p298
sa(dp299
g5
S'h7'
p300
sa(dp301
g5
S'h8'
p302
saaVI think there is nothing to do, but let's see...
p303
aa(lp304
S'26. Qa8+ Kc7 27. Rc1'
p305
a(lp306
(dp307
g5
S'a1'
p308
sa(dp309
g8
S'white_pawn'
p310
sg5
S'a2'
p311
sa(dp312
g5
S'a3'
p313
sa(dp314
g5
S'a4'
p315
sa(dp316
g5
S'a5'
p317
sa(dp318
g5
S'a6'
p319
sa(dp320
g5
S'a7'
p321
sa(dp322
g8
S'white_queen'
p323
sg5
S'a8'
p324
sa(dp325
g5
S'b1'
p326
sa(dp327
g5
S'b2'
p328
sa(dp329
g8
S'white_pawn'
p330
sg5
S'b3'
p331
sa(dp332
g5
S'b4'
p333
sa(dp334
g5
S'b5'
p335
sa(dp336
g8
S'black_queen'
p337
sg5
S'b6'
p338
sa(dp339
g5
S'b7'
p340
sa(dp341
g5
S'b8'
p342
sa(dp343
g8
S'white_rook'
p344
sg5
S'c1'
p345
sa(dp346
g5
S'c2'
p347
sa(dp348
g5
S'c3'
p349
sa(dp350
g5
S'c4'
p351
sa(dp352
g8
S'black_knight'
p353
sg5
S'c5'
p354
sa(dp355
g8
S'black_pawn'
p356
sg5
S'c6'
p357
sa(dp358
g8
S'black_king'
p359
sg5
S'c7'
p360
sa(dp361
g5
S'c8'
p362
sa(dp363
g5
S'd1'
p364
sa(dp365
g8
S'black_rook'
p366
sg5
S'd2'
p367
sa(dp368
g5
S'd3'
p369
sa(dp370
g5
S'd4'
p371
sa(dp372
g5
S'd5'
p373
sa(dp374
g5
S'd6'
p375
sa(dp376
g5
S'd7'
p377
sa(dp378
g5
S'd8'
p379
sa(dp380
g5
S'e1'
p381
sa(dp382
g5
S'e2'
p383
sa(dp384
g5
S'e3'
p385
sa(dp386
g5
S'e4'
p387
sa(dp388
g8
S'white_knight'
p389
sg5
S'e5'
p390
sa(dp391
g8
S'black_bishop'
p392
sg5
S'e6'
p393
sa(dp394
g5
S'e7'
p395
sa(dp396
g5
S'e8'
p397
sa(dp398
g5
S'f1'
p399
sa(dp400
g8
S'white_pawn'
p401
sg5
S'f2'
p402
sa(dp403
g5
S'f3'
p404
sa(dp405
g5
S'f4'
p406
sa(dp407
g5
S'f5'
p408
sa(dp409
g5
S'f6'
p410
sa(dp411
g8
S'black_pawn'
p412
sg5
S'f7'
p413
sa(dp414
g5
S'f8'
p415
sa(dp416
g8
S'white_king'
p417
sg5
S'g1'
p418
sa(dp419
g8
S'white_pawn'
p420
sg5
S'g2'
p421
sa(dp422
g5
S'g3'
p423
sa(dp424
g5
S'g4'
p425
sa(dp426
g8
S'black_pawn'
p427
sg5
S'g5'
p428
sa(dp429
g5
S'g6'
p430
sa(dp431
g5
S'g7'
p432
sa(dp433
g5
S'g8'
p434
sa(dp435
g5
S'h1'
p436
sa(dp437
g8
S'white_pawn'
p438
sg5
S'h2'
p439
sa(dp440
g5
S'h3'
p441
sa(dp442
g5
S'h4'
p443
sa(dp444
g5
S'h5'
p445
sa(dp446
g8
S'black_pawn'
p447
sg5
S'h6'
p448
sa(dp449
g5
S'h7'
p450
sa(dp451
g5
S'h8'
p452
saaVOuch! Pinning my N! Now, I coudn't thinh in Rxf2, and if KxR, Nd3++, followed by NxR. I couldn't be sure KxR was forced, and if RxN instead? I didn't have the "tactic spirit" to play it, and I choosed to defend c6.
p453
aa(lp454
S'27... Bd5 28. Qe8'
p455
a(lp456
(dp457
g5
S'a1'
p458
sa(dp459
g8
S'white_pawn'
p460
sg5
S'a2'
p461
sa(dp462
g5
S'a3'
p463
sa(dp464
g5
S'a4'
p465
sa(dp466
g5
S'a5'
p467
sa(dp468
g5
S'a6'
p469
sa(dp470
g5
S'a7'
p471
sa(dp472
g5
S'a8'
p473
sa(dp474
g5
S'b1'
p475
sa(dp476
g5
S'b2'
p477
sa(dp478
g8
S'white_pawn'
p479
sg5
S'b3'
p480
sa(dp481
g5
S'b4'
p482
sa(dp483
g5
S'b5'
p484
sa(dp485
g8
S'black_queen'
p486
sg5
S'b6'
p487
sa(dp488
g5
S'b7'
p489
sa(dp490
g5
S'b8'
p491
sa(dp492
g8
S'white_rook'
p493
sg5
S'c1'
p494
sa(dp495
g5
S'c2'
p496
sa(dp497
g5
S'c3'
p498
sa(dp499
g5
S'c4'
p500
sa(dp501
g8
S'black_knight'
p502
sg5
S'c5'
p503
sa(dp504
g8
S'black_pawn'
p505
sg5
S'c6'
p506
sa(dp507
g8
S'black_king'
p508
sg5
S'c7'
p509
sa(dp510
g5
S'c8'
p511
sa(dp512
g5
S'd1'
p513
sa(dp514
g8
S'black_rook'
p515
sg5
S'd2'
p516
sa(dp517
g5
S'd3'
p518
sa(dp519
g5
S'd4'
p520
sa(dp521
g8
S'black_bishop'
p522
sg5
S'd5'
p523
sa(dp524
g5
S'd6'
p525
sa(dp526
g5
S'd7'
p527
sa(dp528
g5
S'd8'
p529
sa(dp530
g5
S'e1'
p531
sa(dp532
g5
S'e2'
p533
sa(dp534
g5
S'e3'
p535
sa(dp536
g5
S'e4'
p537
sa(dp538
g8
S'white_knight'
p539
sg5
S'e5'
p540
sa(dp541
g5
S'e6'
p542
sa(dp543
g5
S'e7'
p544
sa(dp545
g8
S'white_queen'
p546
sg5
S'e8'
p547
sa(dp548
g5
S'f1'
p549
sa(dp550
g8
S'white_pawn'
p551
sg5
S'f2'
p552
sa(dp553
g5
S'f3'
p554
sa(dp555
g5
S'f4'
p556
sa(dp557
g5
S'f5'
p558
sa(dp559
g5
S'f6'
p560
sa(dp561
g8
S'black_pawn'
p562
sg5
S'f7'
p563
sa(dp564
g5
S'f8'
p565
sa(dp566
g8
S'white_king'
p567
sg5
S'g1'
p568
sa(dp569
g8
S'white_pawn'
p570
sg5
S'g2'
p571
sa(dp572
g5
S'g3'
p573
sa(dp574
g5
S'g4'
p575
sa(dp576
g8
S'black_pawn'
p577
sg5
S'g5'
p578
sa(dp579
g5
S'g6'
p580
sa(dp581
g5
S'g7'
p582
sa(dp583
g5
S'g8'
p584
sa(dp585
g5
S'h1'
p586
sa(dp587
g8
S'white_pawn'
p588
sg5
S'h2'
p589
sa(dp590
g5
S'h3'
p591
sa(dp592
g5
S'h4'
p593
sa(dp594
g5
S'h5'
p595
sa(dp596
g8
S'black_pawn'
p597
sg5
S'h6'
p598
sa(dp599
g5
S'h7'
p600
sa(dp601
g5
S'h8'
p602
saaV! Now Qd7+ is theatened! I can't move the N. Again, I sensed I had Rxf2, but I feared any possible in-between move, like Qe7+, followed by QxN. Fortunately, this threat is not possible due to back rank mate threat! Shall I explain it all? :-)
p603
aa(lp604
S'28... Kb7'
p605
a(lp606
(dp607
g5
S'a1'
p608
sa(dp609
g8
S'white_pawn'
p610
sg5
S'a2'
p611
sa(dp612
g5
S'a3'
p613
sa(dp614
g5
S'a4'
p615
sa(dp616
g5
S'a5'
p617
sa(dp618
g5
S'a6'
p619
sa(dp620
g5
S'a7'
p621
sa(dp622
g5
S'a8'
p623
sa(dp624
g5
S'b1'
p625
sa(dp626
g5
S'b2'
p627
sa(dp628
g8
S'white_pawn'
p629
sg5
S'b3'
p630
sa(dp631
g5
S'b4'
p632
sa(dp633
g5
S'b5'
p634
sa(dp635
g8
S'black_queen'
p636
sg5
S'b6'
p637
sa(dp638
g8
S'black_king'
p639
sg5
S'b7'
p640
sa(dp641
g5
S'b8'
p642
sa(dp643
g8
S'white_rook'
p644
sg5
S'c1'
p645
sa(dp646
g5
S'c2'
p647
sa(dp648
g5
S'c3'
p649
sa(dp650
g5
S'c4'
p651
sa(dp652
g8
S'black_knight'
p653
sg5
S'c5'
p654
sa(dp655
g8
S'black_pawn'
p656
sg5
S'c6'
p657
sa(dp658
g5
S'c7'
p659
sa(dp660
g5
S'c8'
p661
sa(dp662
g5
S'd1'
p663
sa(dp664
g8
S'black_rook'
p665
sg5
S'd2'
p666
sa(dp667
g5
S'd3'
p668
sa(dp669
g5
S'd4'
p670
sa(dp671
g8
S'black_bishop'
p672
sg5
S'd5'
p673
sa(dp674
g5
S'd6'
p675
sa(dp676
g5
S'd7'
p677
sa(dp678
g5
S'd8'
p679
sa(dp680
g5
S'e1'
p681
sa(dp682
g5
S'e2'
p683
sa(dp684
g5
S'e3'
p685
sa(dp686
g5
S'e4'
p687
sa(dp688
g8
S'white_knight'
p689
sg5
S'e5'
p690
sa(dp691
g5
S'e6'
p692
sa(dp693
g5
S'e7'
p694
sa(dp695
g8
S'white_queen'
p696
sg5
S'e8'
p697
sa(dp698
g5
S'f1'
p699
sa(dp700
g8
S'white_pawn'
p701
sg5
S'f2'
p702
sa(dp703
g5
S'f3'
p704
sa(dp705
g5
S'f4'
p706
sa(dp707
g5
S'f5'
p708
sa(dp709
g5
S'f6'
p710
sa(dp711
g8
S'black_pawn'
p712
sg5
S'f7'
p713
sa(dp714
g5
S'f8'
p715
sa(dp716
g8
S'white_king'
p717
sg5
S'g1'
p718
sa(dp719
g8
S'white_pawn'
p720
sg5
S'g2'
p721
sa(dp722
g5
S'g3'
p723
sa(dp724
g5
S'g4'
p725
sa(dp726
g8
S'black_pawn'
p727
sg5
S'g5'
p728
sa(dp729
g5
S'g6'
p730
sa(dp731
g5
S'g7'
p732
sa(dp733
g5
S'g8'
p734
sa(dp735
g5
S'h1'
p736
sa(dp737
g8
S'white_pawn'
p738
sg5
S'h2'
p739
sa(dp740
g5
S'h3'
p741
sa(dp742
g5
S'h4'
p743
sa(dp744
g5
S'h5'
p745
sa(dp746
g8
S'black_pawn'
p747
sg5
S'h6'
p748
sa(dp749
g5
S'h7'
p750
sa(dp751
g5
S'h8'
p752
saaVThis is to escape via a6. 
p753
aa(lp754
S'29. Qe7+ Ka6 30. h3'
p755
a(lp756
(dp757
g5
S'a1'
p758
sa(dp759
g8
S'white_pawn'
p760
sg5
S'a2'
p761
sa(dp762
g5
S'a3'
p763
sa(dp764
g5
S'a4'
p765
sa(dp766
g5
S'a5'
p767
sa(dp768
g8
S'black_king'
p769
sg5
S'a6'
p770
sa(dp771
g5
S'a7'
p772
sa(dp773
g5
S'a8'
p774
sa(dp775
g5
S'b1'
p776
sa(dp777
g5
S'b2'
p778
sa(dp779
g8
S'white_pawn'
p780
sg5
S'b3'
p781
sa(dp782
g5
S'b4'
p783
sa(dp784
g5
S'b5'
p785
sa(dp786
g8
S'black_queen'
p787
sg5
S'b6'
p788
sa(dp789
g5
S'b7'
p790
sa(dp791
g5
S'b8'
p792
sa(dp793
g8
S'white_rook'
p794
sg5
S'c1'
p795
sa(dp796
g5
S'c2'
p797
sa(dp798
g5
S'c3'
p799
sa(dp800
g5
S'c4'
p801
sa(dp802
g8
S'black_knight'
p803
sg5
S'c5'
p804
sa(dp805
g8
S'black_pawn'
p806
sg5
S'c6'
p807
sa(dp808
g5
S'c7'
p809
sa(dp810
g5
S'c8'
p811
sa(dp812
g5
S'd1'
p813
sa(dp814
g8
S'black_rook'
p815
sg5
S'd2'
p816
sa(dp817
g5
S'd3'
p818
sa(dp819
g5
S'd4'
p820
sa(dp821
g8
S'black_bishop'
p822
sg5
S'd5'
p823
sa(dp824
g5
S'd6'
p825
sa(dp826
g5
S'd7'
p827
sa(dp828
g5
S'd8'
p829
sa(dp830
g5
S'e1'
p831
sa(dp832
g5
S'e2'
p833
sa(dp834
g5
S'e3'
p835
sa(dp836
g5
S'e4'
p837
sa(dp838
g8
S'white_knight'
p839
sg5
S'e5'
p840
sa(dp841
g5
S'e6'
p842
sa(dp843
g8
S'white_queen'
p844
sg5
S'e7'
p845
sa(dp846
g5
S'e8'
p847
sa(dp848
g5
S'f1'
p849
sa(dp850
g8
S'white_pawn'
p851
sg5
S'f2'
p852
sa(dp853
g5
S'f3'
p854
sa(dp855
g5
S'f4'
p856
sa(dp857
g5
S'f5'
p858
sa(dp859
g5
S'f6'
p860
sa(dp861
g8
S'black_pawn'
p862
sg5
S'f7'
p863
sa(dp864
g5
S'f8'
p865
sa(dp866
g8
S'white_king'
p867
sg5
S'g1'
p868
sa(dp869
g8
S'white_pawn'
p870
sg5
S'g2'
p871
sa(dp872
g5
S'g3'
p873
sa(dp874
g5
S'g4'
p875
sa(dp876
g8
S'black_pawn'
p877
sg5
S'g5'
p878
sa(dp879
g5
S'g6'
p880
sa(dp881
g5
S'g7'
p882
sa(dp883
g5
S'g8'
p884
sa(dp885
g5
S'h1'
p886
sa(dp887
g5
S'h2'
p888
sa(dp889
g8
S'white_pawn'
p890
sg5
S'h3'
p891
sa(dp892
g5
S'h4'
p893
sa(dp894
g5
S'h5'
p895
sa(dp896
g8
S'black_pawn'
p897
sg5
S'h6'
p898
sa(dp899
g5
S'h7'
p900
sa(dp901
g5
S'h8'
p902
saaVEscaping the back rank mate, thus threatening Nc5 "for real".
p903
aa(lp904
S'30... Ne4'
p905
a(lp906
(dp907
g5
S'a1'
p908
sa(dp909
g8
S'white_pawn'
p910
sg5
S'a2'
p911
sa(dp912
g5
S'a3'
p913
sa(dp914
g5
S'a4'
p915
sa(dp916
g5
S'a5'
p917
sa(dp918
g8
S'black_king'
p919
sg5
S'a6'
p920
sa(dp921
g5
S'a7'
p922
sa(dp923
g5
S'a8'
p924
sa(dp925
g5
S'b1'
p926
sa(dp927
g5
S'b2'
p928
sa(dp929
g8
S'white_pawn'
p930
sg5
S'b3'
p931
sa(dp932
g5
S'b4'
p933
sa(dp934
g5
S'b5'
p935
sa(dp936
g8
S'black_queen'
p937
sg5
S'b6'
p938
sa(dp939
g5
S'b7'
p940
sa(dp941
g5
S'b8'
p942
sa(dp943
g8
S'white_rook'
p944
sg5
S'c1'
p945
sa(dp946
g5
S'c2'
p947
sa(dp948
g5
S'c3'
p949
sa(dp950
g5
S'c4'
p951
sa(dp952
g5
S'c5'
p953
sa(dp954
g8
S'black_pawn'
p955
sg5
S'c6'
p956
sa(dp957
g5
S'c7'
p958
sa(dp959
g5
S'c8'
p960
sa(dp961
g5
S'd1'
p962
sa(dp963
g8
S'black_rook'
p964
sg5
S'd2'
p965
sa(dp966
g5
S'd3'
p967
sa(dp968
g5
S'd4'
p969
sa(dp970
g8
S'black_bishop'
p971
sg5
S'd5'
p972
sa(dp973
g5
S'd6'
p974
sa(dp975
g5
S'd7'
p976
sa(dp977
g5
S'd8'
p978
sa(dp979
g5
S'e1'
p980
sa(dp981
g5
S'e2'
p982
sa(dp983
g5
S'e3'
p984
sa(dp985
g8
S'black_knight'
p986
sg5
S'e4'
p987
sa(dp988
g8
S'white_knight'
p989
sg5
S'e5'
p990
sa(dp991
g5
S'e6'
p992
sa(dp993
g8
S'white_queen'
p994
sg5
S'e7'
p995
sa(dp996
g5
S'e8'
p997
sa(dp998
g5
S'f1'
p999
sa(dp1000
g8
S'white_pawn'
p1001
sg5
S'f2'
p1002
sa(dp1003
g5
S'f3'
p1004
sa(dp1005
g5
S'f4'
p1006
sa(dp1007
g5
S'f5'
p1008
sa(dp1009
g5
S'f6'
p1010
sa(dp1011
g8
S'black_pawn'
p1012
sg5
S'f7'
p1013
sa(dp1014
g5
S'f8'
p1015
sa(dp1016
g8
S'white_king'
p1017
sg5
S'g1'
p1018
sa(dp1019
g8
S'white_pawn'
p1020
sg5
S'g2'
p1021
sa(dp1022
g5
S'g3'
p1023
sa(dp1024
g5
S'g4'
p1025
sa(dp1026
g8
S'black_pawn'
p1027
sg5
S'g5'
p1028
sa(dp1029
g5
S'g6'
p1030
sa(dp1031
g5
S'g7'
p1032
sa(dp1033
g5
S'g8'
p1034
sa(dp1035
g5
S'h1'
p1036
sa(dp1037
g5
S'h2'
p1038
sa(dp1039
g8
S'white_pawn'
p1040
sg5
S'h3'
p1041
sa(dp1042
g5
S'h4'
p1043
sa(dp1044
g5
S'h5'
p1045
sa(dp1046
g8
S'black_pawn'
p1047
sg5
S'h6'
p1048
sa(dp1049
g5
S'h7'
p1050
sa(dp1051
g5
S'h8'
p1052
saaVWell, finally I managed to play this move. But now, white can still pursue the perpetual.
p1053
aa(lp1054
S'31. Qa3+ Kb7 32. Qe7+'
p1055
a(lp1056
(dp1057
g5
S'a1'
p1058
sa(dp1059
g8
S'white_pawn'
p1060
sg5
S'a2'
p1061
sa(dp1062
g5
S'a3'
p1063
sa(dp1064
g5
S'a4'
p1065
sa(dp1066
g5
S'a5'
p1067
sa(dp1068
g5
S'a6'
p1069
sa(dp1070
g5
S'a7'
p1071
sa(dp1072
g5
S'a8'
p1073
sa(dp1074
g5
S'b1'
p1075
sa(dp1076
g5
S'b2'
p1077
sa(dp1078
g8
S'white_pawn'
p1079
sg5
S'b3'
p1080
sa(dp1081
g5
S'b4'
p1082
sa(dp1083
g5
S'b5'
p1084
sa(dp1085
g8
S'black_queen'
p1086
sg5
S'b6'
p1087
sa(dp1088
g8
S'black_king'
p1089
sg5
S'b7'
p1090
sa(dp1091
g5
S'b8'
p1092
sa(dp1093
g8
S'white_rook'
p1094
sg5
S'c1'
p1095
sa(dp1096
g5
S'c2'
p1097
sa(dp1098
g5
S'c3'
p1099
sa(dp1100
g5
S'c4'
p1101
sa(dp1102
g5
S'c5'
p1103
sa(dp1104
g8
S'black_pawn'
p1105
sg5
S'c6'
p1106
sa(dp1107
g5
S'c7'
p1108
sa(dp1109
g5
S'c8'
p1110
sa(dp1111
g5
S'd1'
p1112
sa(dp1113
g8
S'black_rook'
p1114
sg5
S'd2'
p1115
sa(dp1116
g5
S'd3'
p1117
sa(dp1118
g5
S'd4'
p1119
sa(dp1120
g8
S'black_bishop'
p1121
sg5
S'd5'
p1122
sa(dp1123
g5
S'd6'
p1124
sa(dp1125
g5
S'd7'
p1126
sa(dp1127
g5
S'd8'
p1128
sa(dp1129
g5
S'e1'
p1130
sa(dp1131
g5
S'e2'
p1132
sa(dp1133
g5
S'e3'
p1134
sa(dp1135
g8
S'black_knight'
p1136
sg5
S'e4'
p1137
sa(dp1138
g8
S'white_knight'
p1139
sg5
S'e5'
p1140
sa(dp1141
g5
S'e6'
p1142
sa(dp1143
g8
S'white_queen'
p1144
sg5
S'e7'
p1145
sa(dp1146
g5
S'e8'
p1147
sa(dp1148
g5
S'f1'
p1149
sa(dp1150
g8
S'white_pawn'
p1151
sg5
S'f2'
p1152
sa(dp1153
g5
S'f3'
p1154
sa(dp1155
g5
S'f4'
p1156
sa(dp1157
g5
S'f5'
p1158
sa(dp1159
g5
S'f6'
p1160
sa(dp1161
g8
S'black_pawn'
p1162
sg5
S'f7'
p1163
sa(dp1164
g5
S'f8'
p1165
sa(dp1166
g8
S'white_king'
p1167
sg5
S'g1'
p1168
sa(dp1169
g8
S'white_pawn'
p1170
sg5
S'g2'
p1171
sa(dp1172
g5
S'g3'
p1173
sa(dp1174
g5
S'g4'
p1175
sa(dp1176
g8
S'black_pawn'
p1177
sg5
S'g5'
p1178
sa(dp1179
g5
S'g6'
p1180
sa(dp1181
g5
S'g7'
p1182
sa(dp1183
g5
S'g8'
p1184
sa(dp1185
g5
S'h1'
p1186
sa(dp1187
g5
S'h2'
p1188
sa(dp1189
g8
S'white_pawn'
p1190
sg5
S'h3'
p1191
sa(dp1192
g5
S'h4'
p1193
sa(dp1194
g5
S'h5'
p1195
sa(dp1196
g8
S'black_pawn'
p1197
sg5
S'h6'
p1198
sa(dp1199
g5
S'h7'
p1200
sa(dp1201
g5
S'h8'
p1202
saaVI had no escape, and I should have accepted the perpetual and that's all, but I wanted to be smarter... and I blundered. 
p1203
aa(lp1204
S'32... Kb8 33. Nd7+'
p1205
a(lp1206
(dp1207
g5
S'a1'
p1208
sa(dp1209
g8
S'white_pawn'
p1210
sg5
S'a2'
p1211
sa(dp1212
g5
S'a3'
p1213
sa(dp1214
g5
S'a4'
p1215
sa(dp1216
g5
S'a5'
p1217
sa(dp1218
g5
S'a6'
p1219
sa(dp1220
g5
S'a7'
p1221
sa(dp1222
g5
S'a8'
p1223
sa(dp1224
g5
S'b1'
p1225
sa(dp1226
g5
S'b2'
p1227
sa(dp1228
g8
S'white_pawn'
p1229
sg5
S'b3'
p1230
sa(dp1231
g5
S'b4'
p1232
sa(dp1233
g5
S'b5'
p1234
sa(dp1235
g8
S'black_queen'
p1236
sg5
S'b6'
p1237
sa(dp1238
g5
S'b7'
p1239
sa(dp1240
g8
S'black_king'
p1241
sg5
S'b8'
p1242
sa(dp1243
g8
S'white_rook'
p1244
sg5
S'c1'
p1245
sa(dp1246
g5
S'c2'
p1247
sa(dp1248
g5
S'c3'
p1249
sa(dp1250
g5
S'c4'
p1251
sa(dp1252
g5
S'c5'
p1253
sa(dp1254
g8
S'black_pawn'
p1255
sg5
S'c6'
p1256
sa(dp1257
g5
S'c7'
p1258
sa(dp1259
g5
S'c8'
p1260
sa(dp1261
g5
S'd1'
p1262
sa(dp1263
g8
S'black_rook'
p1264
sg5
S'd2'
p1265
sa(dp1266
g5
S'd3'
p1267
sa(dp1268
g5
S'd4'
p1269
sa(dp1270
g8
S'black_bishop'
p1271
sg5
S'd5'
p1272
sa(dp1273
g5
S'd6'
p1274
sa(dp1275
g8
S'white_knight'
p1276
sg5
S'd7'
p1277
sa(dp1278
g5
S'd8'
p1279
sa(dp1280
g5
S'e1'
p1281
sa(dp1282
g5
S'e2'
p1283
sa(dp1284
g5
S'e3'
p1285
sa(dp1286
g8
S'black_knight'
p1287
sg5
S'e4'
p1288
sa(dp1289
g5
S'e5'
p1290
sa(dp1291
g5
S'e6'
p1292
sa(dp1293
g8
S'white_queen'
p1294
sg5
S'e7'
p1295
sa(dp1296
g5
S'e8'
p1297
sa(dp1298
g5
S'f1'
p1299
sa(dp1300
g8
S'white_pawn'
p1301
sg5
S'f2'
p1302
sa(dp1303
g5
S'f3'
p1304
sa(dp1305
g5
S'f4'
p1306
sa(dp1307
g5
S'f5'
p1308
sa(dp1309
g5
S'f6'
p1310
sa(dp1311
g8
S'black_pawn'
p1312
sg5
S'f7'
p1313
sa(dp1314
g5
S'f8'
p1315
sa(dp1316
g8
S'white_king'
p1317
sg5
S'g1'
p1318
sa(dp1319
g8
S'white_pawn'
p1320
sg5
S'g2'
p1321
sa(dp1322
g5
S'g3'
p1323
sa(dp1324
g5
S'g4'
p1325
sa(dp1326
g8
S'black_pawn'
p1327
sg5
S'g5'
p1328
sa(dp1329
g5
S'g6'
p1330
sa(dp1331
g5
S'g7'
p1332
sa(dp1333
g5
S'g8'
p1334
sa(dp1335
g5
S'h1'
p1336
sa(dp1337
g5
S'h2'
p1338
sa(dp1339
g8
S'white_pawn'
p1340
sg5
S'h3'
p1341
sa(dp1342
g5
S'h4'
p1343
sa(dp1344
g5
S'h5'
p1345
sa(dp1346
g8
S'black_pawn'
p1347
sg5
S'h6'
p1348
sa(dp1349
g5
S'h7'
p1350
sa(dp1351
g5
S'h8'
p1352
saaVI resigned. I was punished by my overpretensions. I wonder if I could have driven the game into a winning endgame, after the Q's exchange. Thanks you for reading and comments are welcomed!
p1353
aa.