(lp0
(lp1
S'22... Rxf2+'
p2
a(lp3
(dp4
S'location'
p5
S'a1'
p6
sa(dp7
g5
S'a2'
p8
sa(dp9
g5
S'a3'
p10
sa(dp11
S'piece'
p12
S'white_pawn'
p13
sg5
S'a4'
p14
sa(dp15
g12
S'black_pawn'
p16
sg5
S'a5'
p17
sa(dp18
g5
S'a6'
p19
sa(dp20
g5
S'a7'
p21
sa(dp22
g5
S'a8'
p23
sa(dp24
g5
S'b1'
p25
sa(dp26
g5
S'b2'
p27
sa(dp28
g12
S'white_pawn'
p29
sg5
S'b3'
p30
sa(dp31
g12
S'black_knight'
p32
sg5
S'b4'
p33
sa(dp34
g5
S'b5'
p35
sa(dp36
g12
S'black_queen'
p37
sg5
S'b6'
p38
sa(dp39
g12
S'black_pawn'
p40
sg5
S'b7'
p41
sa(dp42
g5
S'b8'
p43
sa(dp44
g5
S'c1'
p45
sa(dp46
g12
S'white_pawn'
p47
sg5
S'c2'
p48
sa(dp49
g12
S'white_knight'
p50
sg5
S'c3'
p51
sa(dp52
g5
S'c4'
p53
sa(dp54
g5
S'c5'
p55
sa(dp56
g5
S'c6'
p57
sa(dp58
g5
S'c7'
p59
sa(dp60
g5
S'c8'
p61
sa(dp62
g5
S'd1'
p63
sa(dp64
g12
S'white_king'
p65
sg5
S'd2'
p66
sa(dp67
g12
S'white_pawn'
p68
sg5
S'd3'
p69
sa(dp70
g5
S'd4'
p71
sa(dp72
g12
S'black_pawn'
p73
sg5
S'd5'
p74
sa(dp75
g5
S'd6'
p76
sa(dp77
g5
S'd7'
p78
sa(dp79
g5
S'd8'
p80
sa(dp81
g12
S'white_rook'
p82
sg5
S'e1'
p83
sa(dp84
g5
S'e2'
p85
sa(dp86
g5
S'e3'
p87
sa(dp88
g5
S'e4'
p89
sa(dp90
g5
S'e5'
p91
sa(dp92
g12
S'black_pawn'
p93
sg5
S'e6'
p94
sa(dp95
g5
S'e7'
p96
sa(dp97
g5
S'e8'
p98
sa(dp99
g5
S'f1'
p100
sa(dp101
g12
S'black_rook'
p102
sg5
S'f2'
p103
sa(dp104
g5
S'f3'
p105
sa(dp106
g5
S'f4'
p107
sa(dp108
g5
S'f5'
p109
sa(dp110
g5
S'f6'
p111
sa(dp112
g5
S'f7'
p113
sa(dp114
g5
S'f8'
p115
sa(dp116
g5
S'g1'
p117
sa(dp118
g12
S'white_pawn'
p119
sg5
S'g2'
p120
sa(dp121
g5
S'g3'
p122
sa(dp123
g12
S'white_queen'
p124
sg5
S'g4'
p125
sa(dp126
g5
S'g5'
p127
sa(dp128
g5
S'g6'
p129
sa(dp130
g12
S'black_pawn'
p131
sg5
S'g7'
p132
sa(dp133
g12
S'black_king'
p134
sg5
S'g8'
p135
sa(dp136
g5
S'h1'
p137
sa(dp138
g12
S'white_pawn'
p139
sg5
S'h2'
p140
sa(dp141
g5
S'h3'
p142
sa(dp143
g5
S'h4'
p144
sa(dp145
g5
S'h5'
p146
sa(dp147
g5
S'h6'
p148
sa(dp149
g12
S'black_pawn'
p150
sg5
S'h7'
p151
sa(dp152
g5
S'h8'
p153
saaVMy Q would have been more vulnerable to Re2.
p154
aa(lp155
S'23. Kc1'
p156
a(lp157
(dp158
g5
S'a1'
p159
sa(dp160
g5
S'a2'
p161
sa(dp162
g5
S'a3'
p163
sa(dp164
g12
S'white_pawn'
p165
sg5
S'a4'
p166
sa(dp167
g12
S'black_pawn'
p168
sg5
S'a5'
p169
sa(dp170
g5
S'a6'
p171
sa(dp172
g5
S'a7'
p173
sa(dp174
g5
S'a8'
p175
sa(dp176
g5
S'b1'
p177
sa(dp178
g5
S'b2'
p179
sa(dp180
g12
S'white_pawn'
p181
sg5
S'b3'
p182
sa(dp183
g12
S'black_knight'
p184
sg5
S'b4'
p185
sa(dp186
g5
S'b5'
p187
sa(dp188
g12
S'black_queen'
p189
sg5
S'b6'
p190
sa(dp191
g12
S'black_pawn'
p192
sg5
S'b7'
p193
sa(dp194
g5
S'b8'
p195
sa(dp196
g12
S'white_king'
p197
sg5
S'c1'
p198
sa(dp199
g12
S'white_pawn'
p200
sg5
S'c2'
p201
sa(dp202
g12
S'white_knight'
p203
sg5
S'c3'
p204
sa(dp205
g5
S'c4'
p206
sa(dp207
g5
S'c5'
p208
sa(dp209
g5
S'c6'
p210
sa(dp211
g5
S'c7'
p212
sa(dp213
g5
S'c8'
p214
sa(dp215
g5
S'd1'
p216
sa(dp217
g5
S'd2'
p218
sa(dp219
g12
S'white_pawn'
p220
sg5
S'd3'
p221
sa(dp222
g5
S'd4'
p223
sa(dp224
g12
S'black_pawn'
p225
sg5
S'd5'
p226
sa(dp227
g5
S'd6'
p228
sa(dp229
g5
S'd7'
p230
sa(dp231
g5
S'd8'
p232
sa(dp233
g12
S'white_rook'
p234
sg5
S'e1'
p235
sa(dp236
g5
S'e2'
p237
sa(dp238
g5
S'e3'
p239
sa(dp240
g5
S'e4'
p241
sa(dp242
g5
S'e5'
p243
sa(dp244
g12
S'black_pawn'
p245
sg5
S'e6'
p246
sa(dp247
g5
S'e7'
p248
sa(dp249
g5
S'e8'
p250
sa(dp251
g5
S'f1'
p252
sa(dp253
g12
S'black_rook'
p254
sg5
S'f2'
p255
sa(dp256
g5
S'f3'
p257
sa(dp258
g5
S'f4'
p259
sa(dp260
g5
S'f5'
p261
sa(dp262
g5
S'f6'
p263
sa(dp264
g5
S'f7'
p265
sa(dp266
g5
S'f8'
p267
sa(dp268
g5
S'g1'
p269
sa(dp270
g12
S'white_pawn'
p271
sg5
S'g2'
p272
sa(dp273
g5
S'g3'
p274
sa(dp275
g12
S'white_queen'
p276
sg5
S'g4'
p277
sa(dp278
g5
S'g5'
p279
sa(dp280
g5
S'g6'
p281
sa(dp282
g12
S'black_pawn'
p283
sg5
S'g7'
p284
sa(dp285
g12
S'black_king'
p286
sg5
S'g8'
p287
sa(dp288
g5
S'h1'
p289
sa(dp290
g12
S'white_pawn'
p291
sg5
S'h2'
p292
sa(dp293
g5
S'h3'
p294
sa(dp295
g5
S'h4'
p296
sa(dp297
g5
S'h5'
p298
sa(dp299
g5
S'h6'
p300
sa(dp301
g12
S'black_pawn'
p302
sg5
S'h7'
p303
sa(dp304
g5
S'h8'
p305
saaV? Kd1 provided some more resistance at least.
p306
aa(lp307
S'23... Rxc2+ 24. Kb1 Rxc3'
p308
a(lp309
(dp310
g5
S'a1'
p311
sa(dp312
g5
S'a2'
p313
sa(dp314
g5
S'a3'
p315
sa(dp316
g12
S'white_pawn'
p317
sg5
S'a4'
p318
sa(dp319
g12
S'black_pawn'
p320
sg5
S'a5'
p321
sa(dp322
g5
S'a6'
p323
sa(dp324
g5
S'a7'
p325
sa(dp326
g5
S'a8'
p327
sa(dp328
g12
S'white_king'
p329
sg5
S'b1'
p330
sa(dp331
g5
S'b2'
p332
sa(dp333
g12
S'white_pawn'
p334
sg5
S'b3'
p335
sa(dp336
g12
S'black_knight'
p337
sg5
S'b4'
p338
sa(dp339
g5
S'b5'
p340
sa(dp341
g12
S'black_queen'
p342
sg5
S'b6'
p343
sa(dp344
g12
S'black_pawn'
p345
sg5
S'b7'
p346
sa(dp347
g5
S'b8'
p348
sa(dp349
g5
S'c1'
p350
sa(dp351
g5
S'c2'
p352
sa(dp353
g12
S'black_rook'
p354
sg5
S'c3'
p355
sa(dp356
g5
S'c4'
p357
sa(dp358
g5
S'c5'
p359
sa(dp360
g5
S'c6'
p361
sa(dp362
g5
S'c7'
p363
sa(dp364
g5
S'c8'
p365
sa(dp366
g5
S'd1'
p367
sa(dp368
g5
S'd2'
p369
sa(dp370
g12
S'white_pawn'
p371
sg5
S'd3'
p372
sa(dp373
g5
S'd4'
p374
sa(dp375
g12
S'black_pawn'
p376
sg5
S'd5'
p377
sa(dp378
g5
S'd6'
p379
sa(dp380
g5
S'd7'
p381
sa(dp382
g5
S'd8'
p383
sa(dp384
g12
S'white_rook'
p385
sg5
S'e1'
p386
sa(dp387
g5
S'e2'
p388
sa(dp389
g5
S'e3'
p390
sa(dp391
g5
S'e4'
p392
sa(dp393
g5
S'e5'
p394
sa(dp395
g12
S'black_pawn'
p396
sg5
S'e6'
p397
sa(dp398
g5
S'e7'
p399
sa(dp400
g5
S'e8'
p401
sa(dp402
g5
S'f1'
p403
sa(dp404
g5
S'f2'
p405
sa(dp406
g5
S'f3'
p407
sa(dp408
g5
S'f4'
p409
sa(dp410
g5
S'f5'
p411
sa(dp412
g5
S'f6'
p413
sa(dp414
g5
S'f7'
p415
sa(dp416
g5
S'f8'
p417
sa(dp418
g5
S'g1'
p419
sa(dp420
g12
S'white_pawn'
p421
sg5
S'g2'
p422
sa(dp423
g5
S'g3'
p424
sa(dp425
g12
S'white_queen'
p426
sg5
S'g4'
p427
sa(dp428
g5
S'g5'
p429
sa(dp430
g5
S'g6'
p431
sa(dp432
g12
S'black_pawn'
p433
sg5
S'g7'
p434
sa(dp435
g12
S'black_king'
p436
sg5
S'g8'
p437
sa(dp438
g5
S'h1'
p439
sa(dp440
g12
S'white_pawn'
p441
sg5
S'h2'
p442
sa(dp443
g5
S'h3'
p444
sa(dp445
g5
S'h4'
p446
sa(dp447
g5
S'h5'
p448
sa(dp449
g5
S'h6'
p450
sa(dp451
g12
S'black_pawn'
p452
sg5
S'h7'
p453
sa(dp454
g5
S'h8'
p455
saaVThreats are multiple, and if White goes Qxe6+, after the exchanges black is clearly winning.
p456
aa(lp457
S'25. Rxe6'
p458
a(lp459
(dp460
g5
S'a1'
p461
sa(dp462
g5
S'a2'
p463
sa(dp464
g5
S'a3'
p465
sa(dp466
g12
S'white_pawn'
p467
sg5
S'a4'
p468
sa(dp469
g12
S'black_pawn'
p470
sg5
S'a5'
p471
sa(dp472
g5
S'a6'
p473
sa(dp474
g5
S'a7'
p475
sa(dp476
g5
S'a8'
p477
sa(dp478
g12
S'white_king'
p479
sg5
S'b1'
p480
sa(dp481
g5
S'b2'
p482
sa(dp483
g12
S'white_pawn'
p484
sg5
S'b3'
p485
sa(dp486
g12
S'black_knight'
p487
sg5
S'b4'
p488
sa(dp489
g5
S'b5'
p490
sa(dp491
g12
S'black_queen'
p492
sg5
S'b6'
p493
sa(dp494
g12
S'black_pawn'
p495
sg5
S'b7'
p496
sa(dp497
g5
S'b8'
p498
sa(dp499
g5
S'c1'
p500
sa(dp501
g5
S'c2'
p502
sa(dp503
g12
S'black_rook'
p504
sg5
S'c3'
p505
sa(dp506
g5
S'c4'
p507
sa(dp508
g5
S'c5'
p509
sa(dp510
g5
S'c6'
p511
sa(dp512
g5
S'c7'
p513
sa(dp514
g5
S'c8'
p515
sa(dp516
g5
S'd1'
p517
sa(dp518
g5
S'd2'
p519
sa(dp520
g12
S'white_pawn'
p521
sg5
S'd3'
p522
sa(dp523
g5
S'd4'
p524
sa(dp525
g12
S'black_pawn'
p526
sg5
S'd5'
p527
sa(dp528
g5
S'd6'
p529
sa(dp530
g5
S'd7'
p531
sa(dp532
g5
S'd8'
p533
sa(dp534
g5
S'e1'
p535
sa(dp536
g5
S'e2'
p537
sa(dp538
g5
S'e3'
p539
sa(dp540
g5
S'e4'
p541
sa(dp542
g5
S'e5'
p543
sa(dp544
g12
S'white_rook'
p545
sg5
S'e6'
p546
sa(dp547
g5
S'e7'
p548
sa(dp549
g5
S'e8'
p550
sa(dp551
g5
S'f1'
p552
sa(dp553
g5
S'f2'
p554
sa(dp555
g5
S'f3'
p556
sa(dp557
g5
S'f4'
p558
sa(dp559
g5
S'f5'
p560
sa(dp561
g5
S'f6'
p562
sa(dp563
g5
S'f7'
p564
sa(dp565
g5
S'f8'
p566
sa(dp567
g5
S'g1'
p568
sa(dp569
g12
S'white_pawn'
p570
sg5
S'g2'
p571
sa(dp572
g5
S'g3'
p573
sa(dp574
g12
S'white_queen'
p575
sg5
S'g4'
p576
sa(dp577
g5
S'g5'
p578
sa(dp579
g5
S'g6'
p580
sa(dp581
g12
S'black_pawn'
p582
sg5
S'g7'
p583
sa(dp584
g12
S'black_king'
p585
sg5
S'g8'
p586
sa(dp587
g5
S'h1'
p588
sa(dp589
g12
S'white_pawn'
p590
sg5
S'h2'
p591
sa(dp592
g5
S'h3'
p593
sa(dp594
g5
S'h4'
p595
sa(dp596
g5
S'h5'
p597
sa(dp598
g5
S'h6'
p599
sa(dp600
g12
S'black_pawn'
p601
sg5
S'h7'
p602
sa(dp603
g5
S'h8'
p604
saaVThis move would be a serious threat, if not for... Rxb3+, Kf1, Qc5+, Kd2, Rb2+, etc., or...
p605
aa(lp606
S'25... Qg1+'
p607
a(lp608
(dp609
g5
S'a1'
p610
sa(dp611
g5
S'a2'
p612
sa(dp613
g5
S'a3'
p614
sa(dp615
g12
S'white_pawn'
p616
sg5
S'a4'
p617
sa(dp618
g12
S'black_pawn'
p619
sg5
S'a5'
p620
sa(dp621
g5
S'a6'
p622
sa(dp623
g5
S'a7'
p624
sa(dp625
g5
S'a8'
p626
sa(dp627
g12
S'white_king'
p628
sg5
S'b1'
p629
sa(dp630
g5
S'b2'
p631
sa(dp632
g12
S'white_pawn'
p633
sg5
S'b3'
p634
sa(dp635
g12
S'black_knight'
p636
sg5
S'b4'
p637
sa(dp638
g5
S'b5'
p639
sa(dp640
g5
S'b6'
p641
sa(dp642
g12
S'black_pawn'
p643
sg5
S'b7'
p644
sa(dp645
g5
S'b8'
p646
sa(dp647
g5
S'c1'
p648
sa(dp649
g5
S'c2'
p650
sa(dp651
g12
S'black_rook'
p652
sg5
S'c3'
p653
sa(dp654
g5
S'c4'
p655
sa(dp656
g5
S'c5'
p657
sa(dp658
g5
S'c6'
p659
sa(dp660
g5
S'c7'
p661
sa(dp662
g5
S'c8'
p663
sa(dp664
g5
S'd1'
p665
sa(dp666
g5
S'd2'
p667
sa(dp668
g12
S'white_pawn'
p669
sg5
S'd3'
p670
sa(dp671
g5
S'd4'
p672
sa(dp673
g12
S'black_pawn'
p674
sg5
S'd5'
p675
sa(dp676
g5
S'd6'
p677
sa(dp678
g5
S'd7'
p679
sa(dp680
g5
S'd8'
p681
sa(dp682
g5
S'e1'
p683
sa(dp684
g5
S'e2'
p685
sa(dp686
g5
S'e3'
p687
sa(dp688
g5
S'e4'
p689
sa(dp690
g5
S'e5'
p691
sa(dp692
g12
S'white_rook'
p693
sg5
S'e6'
p694
sa(dp695
g5
S'e7'
p696
sa(dp697
g5
S'e8'
p698
sa(dp699
g5
S'f1'
p700
sa(dp701
g5
S'f2'
p702
sa(dp703
g5
S'f3'
p704
sa(dp705
g5
S'f4'
p706
sa(dp707
g5
S'f5'
p708
sa(dp709
g5
S'f6'
p710
sa(dp711
g5
S'f7'
p712
sa(dp713
g5
S'f8'
p714
sa(dp715
g12
S'black_queen'
p716
sg5
S'g1'
p717
sa(dp718
g12
S'white_pawn'
p719
sg5
S'g2'
p720
sa(dp721
g5
S'g3'
p722
sa(dp723
g12
S'white_queen'
p724
sg5
S'g4'
p725
sa(dp726
g5
S'g5'
p727
sa(dp728
g5
S'g6'
p729
sa(dp730
g12
S'black_pawn'
p731
sg5
S'g7'
p732
sa(dp733
g12
S'black_king'
p734
sg5
S'g8'
p735
sa(dp736
g5
S'h1'
p737
sa(dp738
g12
S'white_pawn'
p739
sg5
S'h2'
p740
sa(dp741
g5
S'h3'
p742
sa(dp743
g5
S'h4'
p744
sa(dp745
g5
S'h5'
p746
sa(dp747
g5
S'h6'
p748
sa(dp749
g12
S'black_pawn'
p750
sg5
S'h7'
p751
sa(dp752
g5
S'h8'
p753
saaV! A nice mate net.
p754
aa(lp755
S'26. Kb2 Rc2+'
p756
a(lp757
(dp758
g5
S'a1'
p759
sa(dp760
g5
S'a2'
p761
sa(dp762
g5
S'a3'
p763
sa(dp764
g12
S'white_pawn'
p765
sg5
S'a4'
p766
sa(dp767
g12
S'black_pawn'
p768
sg5
S'a5'
p769
sa(dp770
g5
S'a6'
p771
sa(dp772
g5
S'a7'
p773
sa(dp774
g5
S'a8'
p775
sa(dp776
g5
S'b1'
p777
sa(dp778
g12
S'white_king'
p779
sg5
S'b2'
p780
sa(dp781
g12
S'white_pawn'
p782
sg5
S'b3'
p783
sa(dp784
g12
S'black_knight'
p785
sg5
S'b4'
p786
sa(dp787
g5
S'b5'
p788
sa(dp789
g5
S'b6'
p790
sa(dp791
g12
S'black_pawn'
p792
sg5
S'b7'
p793
sa(dp794
g5
S'b8'
p795
sa(dp796
g5
S'c1'
p797
sa(dp798
g12
S'black_rook'
p799
sg5
S'c2'
p800
sa(dp801
g5
S'c3'
p802
sa(dp803
g5
S'c4'
p804
sa(dp805
g5
S'c5'
p806
sa(dp807
g5
S'c6'
p808
sa(dp809
g5
S'c7'
p810
sa(dp811
g5
S'c8'
p812
sa(dp813
g5
S'd1'
p814
sa(dp815
g5
S'd2'
p816
sa(dp817
g12
S'white_pawn'
p818
sg5
S'd3'
p819
sa(dp820
g5
S'd4'
p821
sa(dp822
g12
S'black_pawn'
p823
sg5
S'd5'
p824
sa(dp825
g5
S'd6'
p826
sa(dp827
g5
S'd7'
p828
sa(dp829
g5
S'd8'
p830
sa(dp831
g5
S'e1'
p832
sa(dp833
g5
S'e2'
p834
sa(dp835
g5
S'e3'
p836
sa(dp837
g5
S'e4'
p838
sa(dp839
g5
S'e5'
p840
sa(dp841
g12
S'white_rook'
p842
sg5
S'e6'
p843
sa(dp844
g5
S'e7'
p845
sa(dp846
g5
S'e8'
p847
sa(dp848
g5
S'f1'
p849
sa(dp850
g5
S'f2'
p851
sa(dp852
g5
S'f3'
p853
sa(dp854
g5
S'f4'
p855
sa(dp856
g5
S'f5'
p857
sa(dp858
g5
S'f6'
p859
sa(dp860
g5
S'f7'
p861
sa(dp862
g5
S'f8'
p863
sa(dp864
g12
S'black_queen'
p865
sg5
S'g1'
p866
sa(dp867
g12
S'white_pawn'
p868
sg5
S'g2'
p869
sa(dp870
g5
S'g3'
p871
sa(dp872
g12
S'white_queen'
p873
sg5
S'g4'
p874
sa(dp875
g5
S'g5'
p876
sa(dp877
g5
S'g6'
p878
sa(dp879
g12
S'black_pawn'
p880
sg5
S'g7'
p881
sa(dp882
g12
S'black_king'
p883
sg5
S'g8'
p884
sa(dp885
g5
S'h1'
p886
sa(dp887
g12
S'white_pawn'
p888
sg5
S'h2'
p889
sa(dp890
g5
S'h3'
p891
sa(dp892
g5
S'h4'
p893
sa(dp894
g5
S'h5'
p895
sa(dp896
g5
S'h6'
p897
sa(dp898
g12
S'black_pawn'
p899
sg5
S'h7'
p900
sa(dp901
g5
S'h8'
p902
saaVMy opp resigned here. Of course...
p903
aa(lp904
S'27. Ka3 Ra2#'
p905
a(lp906
(dp907
g5
S'a1'
p908
sa(dp909
g12
S'black_rook'
p910
sg5
S'a2'
p911
sa(dp912
g12
S'white_king'
p913
sg5
S'a3'
p914
sa(dp915
g12
S'white_pawn'
p916
sg5
S'a4'
p917
sa(dp918
g12
S'black_pawn'
p919
sg5
S'a5'
p920
sa(dp921
g5
S'a6'
p922
sa(dp923
g5
S'a7'
p924
sa(dp925
g5
S'a8'
p926
sa(dp927
g5
S'b1'
p928
sa(dp929
g5
S'b2'
p930
sa(dp931
g12
S'white_pawn'
p932
sg5
S'b3'
p933
sa(dp934
g12
S'black_knight'
p935
sg5
S'b4'
p936
sa(dp937
g5
S'b5'
p938
sa(dp939
g5
S'b6'
p940
sa(dp941
g12
S'black_pawn'
p942
sg5
S'b7'
p943
sa(dp944
g5
S'b8'
p945
sa(dp946
g5
S'c1'
p947
sa(dp948
g5
S'c2'
p949
sa(dp950
g5
S'c3'
p951
sa(dp952
g5
S'c4'
p953
sa(dp954
g5
S'c5'
p955
sa(dp956
g5
S'c6'
p957
sa(dp958
g5
S'c7'
p959
sa(dp960
g5
S'c8'
p961
sa(dp962
g5
S'd1'
p963
sa(dp964
g5
S'd2'
p965
sa(dp966
g12
S'white_pawn'
p967
sg5
S'd3'
p968
sa(dp969
g5
S'd4'
p970
sa(dp971
g12
S'black_pawn'
p972
sg5
S'd5'
p973
sa(dp974
g5
S'd6'
p975
sa(dp976
g5
S'd7'
p977
sa(dp978
g5
S'd8'
p979
sa(dp980
g5
S'e1'
p981
sa(dp982
g5
S'e2'
p983
sa(dp984
g5
S'e3'
p985
sa(dp986
g5
S'e4'
p987
sa(dp988
g5
S'e5'
p989
sa(dp990
g12
S'white_rook'
p991
sg5
S'e6'
p992
sa(dp993
g5
S'e7'
p994
sa(dp995
g5
S'e8'
p996
sa(dp997
g5
S'f1'
p998
sa(dp999
g5
S'f2'
p1000
sa(dp1001
g5
S'f3'
p1002
sa(dp1003
g5
S'f4'
p1004
sa(dp1005
g5
S'f5'
p1006
sa(dp1007
g5
S'f6'
p1008
sa(dp1009
g5
S'f7'
p1010
sa(dp1011
g5
S'f8'
p1012
sa(dp1013
g12
S'black_queen'
p1014
sg5
S'g1'
p1015
sa(dp1016
g12
S'white_pawn'
p1017
sg5
S'g2'
p1018
sa(dp1019
g5
S'g3'
p1020
sa(dp1021
g12
S'white_queen'
p1022
sg5
S'g4'
p1023
sa(dp1024
g5
S'g5'
p1025
sa(dp1026
g5
S'g6'
p1027
sa(dp1028
g12
S'black_pawn'
p1029
sg5
S'g7'
p1030
sa(dp1031
g12
S'black_king'
p1032
sg5
S'g8'
p1033
sa(dp1034
g5
S'h1'
p1035
sa(dp1036
g12
S'white_pawn'
p1037
sg5
S'h2'
p1038
sa(dp1039
g5
S'h3'
p1040
sa(dp1041
g5
S'h4'
p1042
sa(dp1043
g5
S'h5'
p1044
sa(dp1045
g5
S'h6'
p1046
sa(dp1047
g12
S'black_pawn'
p1048
sg5
S'h7'
p1049
sa(dp1050
g5
S'h8'
p1051
saaV...is a very elegant mate. Thanks for reading, comments are welcomed!
p1052
aa.