(lp0
(lp1
S'31. Rc8'
p2
a(lp3
(dp4
S'location'
p5
S'a1'
p6
sa(dp7
S'piece'
p8
S'white_pawn'
p9
sg5
S'a2'
p10
sa(dp11
g8
S'white_bishop'
p12
sg5
S'a3'
p13
sa(dp14
g8
S'black_pawn'
p15
sg5
S'a4'
p16
sa(dp17
g8
S'black_rook'
p18
sg5
S'a5'
p19
sa(dp20
g5
S'a6'
p21
sa(dp22
g5
S'a7'
p23
sa(dp24
g5
S'a8'
p25
sa(dp26
g5
S'b1'
p27
sa(dp28
g8
S'white_pawn'
p29
sg5
S'b2'
p30
sa(dp31
g5
S'b3'
p32
sa(dp33
g5
S'b4'
p34
sa(dp35
g5
S'b5'
p36
sa(dp37
g5
S'b6'
p38
sa(dp39
g5
S'b7'
p40
sa(dp41
g5
S'b8'
p42
sa(dp43
g5
S'c1'
p44
sa(dp45
g5
S'c2'
p46
sa(dp47
g5
S'c3'
p48
sa(dp49
g5
S'c4'
p50
sa(dp51
g5
S'c5'
p52
sa(dp53
g5
S'c6'
p54
sa(dp55
g5
S'c7'
p56
sa(dp57
g8
S'white_rook'
p58
sg5
S'c8'
p59
sa(dp60
g5
S'd1'
p61
sa(dp62
g5
S'd2'
p63
sa(dp64
g5
S'd3'
p65
sa(dp66
g5
S'd4'
p67
sa(dp68
g8
S'white_pawn'
p69
sg5
S'd5'
p70
sa(dp71
g8
S'black_pawn'
p72
sg5
S'd6'
p73
sa(dp74
g8
S'black_rook'
p75
sg5
S'd7'
p76
sa(dp77
g5
S'd8'
p78
sa(dp79
g5
S'e1'
p80
sa(dp81
g5
S'e2'
p82
sa(dp83
g5
S'e3'
p84
sa(dp85
g5
S'e4'
p86
sa(dp87
g5
S'e5'
p88
sa(dp89
g8
S'white_knight'
p90
sg5
S'e6'
p91
sa(dp92
g5
S'e7'
p93
sa(dp94
g8
S'black_knight'
p95
sg5
S'e8'
p96
sa(dp97
g5
S'f1'
p98
sa(dp99
g8
S'white_king'
p100
sg5
S'f2'
p101
sa(dp102
g5
S'f3'
p103
sa(dp104
g8
S'white_pawn'
p105
sg5
S'f4'
p106
sa(dp107
g8
S'black_pawn'
p108
sg5
S'f5'
p109
sa(dp110
g5
S'f6'
p111
sa(dp112
g5
S'f7'
p113
sa(dp114
g5
S'f8'
p115
sa(dp116
g5
S'g1'
p117
sa(dp118
g8
S'white_pawn'
p119
sg5
S'g2'
p120
sa(dp121
g5
S'g3'
p122
sa(dp123
g5
S'g4'
p124
sa(dp125
g5
S'g5'
p126
sa(dp127
g8
S'black_pawn'
p128
sg5
S'g6'
p129
sa(dp130
g5
S'g7'
p131
sa(dp132
g8
S'black_king'
p133
sg5
S'g8'
p134
sa(dp135
g5
S'h1'
p136
sa(dp137
g8
S'white_pawn'
p138
sg5
S'h2'
p139
sa(dp140
g5
S'h3'
p141
sa(dp142
g5
S'h4'
p143
sa(dp144
g5
S'h5'
p145
sa(dp146
g8
S'black_pawn'
p147
sg5
S'h6'
p148
sa(dp149
g5
S'h7'
p150
sa(dp151
g5
S'h8'
p152
saaVAttacking the knight.
p153
aa(lp154
S'31... Kf7'
p155
a(lp156
(dp157
g5
S'a1'
p158
sa(dp159
g8
S'white_pawn'
p160
sg5
S'a2'
p161
sa(dp162
g8
S'white_bishop'
p163
sg5
S'a3'
p164
sa(dp165
g8
S'black_pawn'
p166
sg5
S'a4'
p167
sa(dp168
g8
S'black_rook'
p169
sg5
S'a5'
p170
sa(dp171
g5
S'a6'
p172
sa(dp173
g5
S'a7'
p174
sa(dp175
g5
S'a8'
p176
sa(dp177
g5
S'b1'
p178
sa(dp179
g8
S'white_pawn'
p180
sg5
S'b2'
p181
sa(dp182
g5
S'b3'
p183
sa(dp184
g5
S'b4'
p185
sa(dp186
g5
S'b5'
p187
sa(dp188
g5
S'b6'
p189
sa(dp190
g5
S'b7'
p191
sa(dp192
g5
S'b8'
p193
sa(dp194
g5
S'c1'
p195
sa(dp196
g5
S'c2'
p197
sa(dp198
g5
S'c3'
p199
sa(dp200
g5
S'c4'
p201
sa(dp202
g5
S'c5'
p203
sa(dp204
g5
S'c6'
p205
sa(dp206
g5
S'c7'
p207
sa(dp208
g8
S'white_rook'
p209
sg5
S'c8'
p210
sa(dp211
g5
S'd1'
p212
sa(dp213
g5
S'd2'
p214
sa(dp215
g5
S'd3'
p216
sa(dp217
g5
S'd4'
p218
sa(dp219
g8
S'white_pawn'
p220
sg5
S'd5'
p221
sa(dp222
g8
S'black_pawn'
p223
sg5
S'd6'
p224
sa(dp225
g8
S'black_rook'
p226
sg5
S'd7'
p227
sa(dp228
g5
S'd8'
p229
sa(dp230
g5
S'e1'
p231
sa(dp232
g5
S'e2'
p233
sa(dp234
g5
S'e3'
p235
sa(dp236
g5
S'e4'
p237
sa(dp238
g5
S'e5'
p239
sa(dp240
g8
S'white_knight'
p241
sg5
S'e6'
p242
sa(dp243
g5
S'e7'
p244
sa(dp245
g8
S'black_knight'
p246
sg5
S'e8'
p247
sa(dp248
g5
S'f1'
p249
sa(dp250
g8
S'white_king'
p251
sg5
S'f2'
p252
sa(dp253
g5
S'f3'
p254
sa(dp255
g8
S'white_pawn'
p256
sg5
S'f4'
p257
sa(dp258
g8
S'black_pawn'
p259
sg5
S'f5'
p260
sa(dp261
g5
S'f6'
p262
sa(dp263
g8
S'black_king'
p264
sg5
S'f7'
p265
sa(dp266
g5
S'f8'
p267
sa(dp268
g5
S'g1'
p269
sa(dp270
g8
S'white_pawn'
p271
sg5
S'g2'
p272
sa(dp273
g5
S'g3'
p274
sa(dp275
g5
S'g4'
p276
sa(dp277
g5
S'g5'
p278
sa(dp279
g8
S'black_pawn'
p280
sg5
S'g6'
p281
sa(dp282
g5
S'g7'
p283
sa(dp284
g5
S'g8'
p285
sa(dp286
g5
S'h1'
p287
sa(dp288
g8
S'white_pawn'
p289
sg5
S'h2'
p290
sa(dp291
g5
S'h3'
p292
sa(dp293
g5
S'h4'
p294
sa(dp295
g5
S'h5'
p296
sa(dp297
g8
S'black_pawn'
p298
sg5
S'h6'
p299
sa(dp300
g5
S'h7'
p301
sa(dp302
g5
S'h8'
p303
saaVHe protects.
p304
aa(lp305
S'32. Nd8+'
p306
a(lp307
(dp308
g5
S'a1'
p309
sa(dp310
g8
S'white_pawn'
p311
sg5
S'a2'
p312
sa(dp313
g8
S'white_bishop'
p314
sg5
S'a3'
p315
sa(dp316
g8
S'black_pawn'
p317
sg5
S'a4'
p318
sa(dp319
g8
S'black_rook'
p320
sg5
S'a5'
p321
sa(dp322
g5
S'a6'
p323
sa(dp324
g5
S'a7'
p325
sa(dp326
g5
S'a8'
p327
sa(dp328
g5
S'b1'
p329
sa(dp330
g8
S'white_pawn'
p331
sg5
S'b2'
p332
sa(dp333
g5
S'b3'
p334
sa(dp335
g5
S'b4'
p336
sa(dp337
g5
S'b5'
p338
sa(dp339
g5
S'b6'
p340
sa(dp341
g5
S'b7'
p342
sa(dp343
g5
S'b8'
p344
sa(dp345
g5
S'c1'
p346
sa(dp347
g5
S'c2'
p348
sa(dp349
g5
S'c3'
p350
sa(dp351
g5
S'c4'
p352
sa(dp353
g5
S'c5'
p354
sa(dp355
g5
S'c6'
p356
sa(dp357
g5
S'c7'
p358
sa(dp359
g8
S'white_rook'
p360
sg5
S'c8'
p361
sa(dp362
g5
S'd1'
p363
sa(dp364
g5
S'd2'
p365
sa(dp366
g5
S'd3'
p367
sa(dp368
g5
S'd4'
p369
sa(dp370
g8
S'white_pawn'
p371
sg5
S'd5'
p372
sa(dp373
g8
S'black_pawn'
p374
sg5
S'd6'
p375
sa(dp376
g8
S'black_rook'
p377
sg5
S'd7'
p378
sa(dp379
g8
S'white_knight'
p380
sg5
S'd8'
p381
sa(dp382
g5
S'e1'
p383
sa(dp384
g5
S'e2'
p385
sa(dp386
g5
S'e3'
p387
sa(dp388
g5
S'e4'
p389
sa(dp390
g5
S'e5'
p391
sa(dp392
g5
S'e6'
p393
sa(dp394
g5
S'e7'
p395
sa(dp396
g8
S'black_knight'
p397
sg5
S'e8'
p398
sa(dp399
g5
S'f1'
p400
sa(dp401
g8
S'white_king'
p402
sg5
S'f2'
p403
sa(dp404
g5
S'f3'
p405
sa(dp406
g8
S'white_pawn'
p407
sg5
S'f4'
p408
sa(dp409
g8
S'black_pawn'
p410
sg5
S'f5'
p411
sa(dp412
g5
S'f6'
p413
sa(dp414
g8
S'black_king'
p415
sg5
S'f7'
p416
sa(dp417
g5
S'f8'
p418
sa(dp419
g5
S'g1'
p420
sa(dp421
g8
S'white_pawn'
p422
sg5
S'g2'
p423
sa(dp424
g5
S'g3'
p425
sa(dp426
g5
S'g4'
p427
sa(dp428
g5
S'g5'
p429
sa(dp430
g8
S'black_pawn'
p431
sg5
S'g6'
p432
sa(dp433
g5
S'g7'
p434
sa(dp435
g5
S'g8'
p436
sa(dp437
g5
S'h1'
p438
sa(dp439
g8
S'white_pawn'
p440
sg5
S'h2'
p441
sa(dp442
g5
S'h3'
p443
sa(dp444
g5
S'h4'
p445
sa(dp446
g5
S'h5'
p447
sa(dp448
g8
S'black_pawn'
p449
sg5
S'h6'
p450
sa(dp451
g5
S'h7'
p452
sa(dp453
g5
S'h8'
p454
saaVI check.
p455
aa(lp456
S'32... Kf8'
p457
a(lp458
(dp459
g5
S'a1'
p460
sa(dp461
g8
S'white_pawn'
p462
sg5
S'a2'
p463
sa(dp464
g8
S'white_bishop'
p465
sg5
S'a3'
p466
sa(dp467
g8
S'black_pawn'
p468
sg5
S'a4'
p469
sa(dp470
g8
S'black_rook'
p471
sg5
S'a5'
p472
sa(dp473
g5
S'a6'
p474
sa(dp475
g5
S'a7'
p476
sa(dp477
g5
S'a8'
p478
sa(dp479
g5
S'b1'
p480
sa(dp481
g8
S'white_pawn'
p482
sg5
S'b2'
p483
sa(dp484
g5
S'b3'
p485
sa(dp486
g5
S'b4'
p487
sa(dp488
g5
S'b5'
p489
sa(dp490
g5
S'b6'
p491
sa(dp492
g5
S'b7'
p493
sa(dp494
g5
S'b8'
p495
sa(dp496
g5
S'c1'
p497
sa(dp498
g5
S'c2'
p499
sa(dp500
g5
S'c3'
p501
sa(dp502
g5
S'c4'
p503
sa(dp504
g5
S'c5'
p505
sa(dp506
g5
S'c6'
p507
sa(dp508
g5
S'c7'
p509
sa(dp510
g8
S'white_rook'
p511
sg5
S'c8'
p512
sa(dp513
g5
S'd1'
p514
sa(dp515
g5
S'd2'
p516
sa(dp517
g5
S'd3'
p518
sa(dp519
g5
S'd4'
p520
sa(dp521
g8
S'white_pawn'
p522
sg5
S'd5'
p523
sa(dp524
g8
S'black_pawn'
p525
sg5
S'd6'
p526
sa(dp527
g8
S'black_rook'
p528
sg5
S'd7'
p529
sa(dp530
g8
S'white_knight'
p531
sg5
S'd8'
p532
sa(dp533
g5
S'e1'
p534
sa(dp535
g5
S'e2'
p536
sa(dp537
g5
S'e3'
p538
sa(dp539
g5
S'e4'
p540
sa(dp541
g5
S'e5'
p542
sa(dp543
g5
S'e6'
p544
sa(dp545
g5
S'e7'
p546
sa(dp547
g8
S'black_knight'
p548
sg5
S'e8'
p549
sa(dp550
g5
S'f1'
p551
sa(dp552
g8
S'white_king'
p553
sg5
S'f2'
p554
sa(dp555
g5
S'f3'
p556
sa(dp557
g8
S'white_pawn'
p558
sg5
S'f4'
p559
sa(dp560
g8
S'black_pawn'
p561
sg5
S'f5'
p562
sa(dp563
g5
S'f6'
p564
sa(dp565
g5
S'f7'
p566
sa(dp567
g8
S'black_king'
p568
sg5
S'f8'
p569
sa(dp570
g5
S'g1'
p571
sa(dp572
g8
S'white_pawn'
p573
sg5
S'g2'
p574
sa(dp575
g5
S'g3'
p576
sa(dp577
g5
S'g4'
p578
sa(dp579
g5
S'g5'
p580
sa(dp581
g8
S'black_pawn'
p582
sg5
S'g6'
p583
sa(dp584
g5
S'g7'
p585
sa(dp586
g5
S'g8'
p587
sa(dp588
g5
S'h1'
p589
sa(dp590
g8
S'white_pawn'
p591
sg5
S'h2'
p592
sa(dp593
g5
S'h3'
p594
sa(dp595
g5
S'h4'
p596
sa(dp597
g5
S'h5'
p598
sa(dp599
g8
S'black_pawn'
p600
sg5
S'h6'
p601
sa(dp602
g5
S'h7'
p603
sa(dp604
g5
S'h8'
p605
saaVNot 32..... Ke7?? 33. Nc6+ winning! Now if I check again on e6 he just moves his king to e7 and I have run out of checks.
p606
aa(lp607
S'33. Nc6'
p608
a(lp609
(dp610
g5
S'a1'
p611
sa(dp612
g8
S'white_pawn'
p613
sg5
S'a2'
p614
sa(dp615
g8
S'white_bishop'
p616
sg5
S'a3'
p617
sa(dp618
g8
S'black_pawn'
p619
sg5
S'a4'
p620
sa(dp621
g8
S'black_rook'
p622
sg5
S'a5'
p623
sa(dp624
g5
S'a6'
p625
sa(dp626
g5
S'a7'
p627
sa(dp628
g5
S'a8'
p629
sa(dp630
g5
S'b1'
p631
sa(dp632
g8
S'white_pawn'
p633
sg5
S'b2'
p634
sa(dp635
g5
S'b3'
p636
sa(dp637
g5
S'b4'
p638
sa(dp639
g5
S'b5'
p640
sa(dp641
g5
S'b6'
p642
sa(dp643
g5
S'b7'
p644
sa(dp645
g5
S'b8'
p646
sa(dp647
g5
S'c1'
p648
sa(dp649
g5
S'c2'
p650
sa(dp651
g5
S'c3'
p652
sa(dp653
g5
S'c4'
p654
sa(dp655
g5
S'c5'
p656
sa(dp657
g8
S'white_knight'
p658
sg5
S'c6'
p659
sa(dp660
g5
S'c7'
p661
sa(dp662
g8
S'white_rook'
p663
sg5
S'c8'
p664
sa(dp665
g5
S'd1'
p666
sa(dp667
g5
S'd2'
p668
sa(dp669
g5
S'd3'
p670
sa(dp671
g5
S'd4'
p672
sa(dp673
g8
S'white_pawn'
p674
sg5
S'd5'
p675
sa(dp676
g8
S'black_pawn'
p677
sg5
S'd6'
p678
sa(dp679
g8
S'black_rook'
p680
sg5
S'd7'
p681
sa(dp682
g5
S'd8'
p683
sa(dp684
g5
S'e1'
p685
sa(dp686
g5
S'e2'
p687
sa(dp688
g5
S'e3'
p689
sa(dp690
g5
S'e4'
p691
sa(dp692
g5
S'e5'
p693
sa(dp694
g5
S'e6'
p695
sa(dp696
g5
S'e7'
p697
sa(dp698
g8
S'black_knight'
p699
sg5
S'e8'
p700
sa(dp701
g5
S'f1'
p702
sa(dp703
g8
S'white_king'
p704
sg5
S'f2'
p705
sa(dp706
g5
S'f3'
p707
sa(dp708
g8
S'white_pawn'
p709
sg5
S'f4'
p710
sa(dp711
g8
S'black_pawn'
p712
sg5
S'f5'
p713
sa(dp714
g5
S'f6'
p715
sa(dp716
g5
S'f7'
p717
sa(dp718
g8
S'black_king'
p719
sg5
S'f8'
p720
sa(dp721
g5
S'g1'
p722
sa(dp723
g8
S'white_pawn'
p724
sg5
S'g2'
p725
sa(dp726
g5
S'g3'
p727
sa(dp728
g5
S'g4'
p729
sa(dp730
g5
S'g5'
p731
sa(dp732
g8
S'black_pawn'
p733
sg5
S'g6'
p734
sa(dp735
g5
S'g7'
p736
sa(dp737
g5
S'g8'
p738
sa(dp739
g5
S'h1'
p740
sa(dp741
g8
S'white_pawn'
p742
sg5
S'h2'
p743
sa(dp744
g5
S'h3'
p745
sa(dp746
g5
S'h4'
p747
sa(dp748
g5
S'h5'
p749
sa(dp750
g8
S'black_pawn'
p751
sg5
S'h6'
p752
sa(dp753
g5
S'h7'
p754
sa(dp755
g5
S'h8'
p756
saaVSo I played this.
p757
aa(lp758
S'33... Rxd5'
p759
a(lp760
(dp761
g5
S'a1'
p762
sa(dp763
g8
S'white_pawn'
p764
sg5
S'a2'
p765
sa(dp766
g8
S'white_bishop'
p767
sg5
S'a3'
p768
sa(dp769
g8
S'black_pawn'
p770
sg5
S'a4'
p771
sa(dp772
g5
S'a5'
p773
sa(dp774
g5
S'a6'
p775
sa(dp776
g5
S'a7'
p777
sa(dp778
g5
S'a8'
p779
sa(dp780
g5
S'b1'
p781
sa(dp782
g8
S'white_pawn'
p783
sg5
S'b2'
p784
sa(dp785
g5
S'b3'
p786
sa(dp787
g5
S'b4'
p788
sa(dp789
g5
S'b5'
p790
sa(dp791
g5
S'b6'
p792
sa(dp793
g5
S'b7'
p794
sa(dp795
g5
S'b8'
p796
sa(dp797
g5
S'c1'
p798
sa(dp799
g5
S'c2'
p800
sa(dp801
g5
S'c3'
p802
sa(dp803
g5
S'c4'
p804
sa(dp805
g5
S'c5'
p806
sa(dp807
g8
S'white_knight'
p808
sg5
S'c6'
p809
sa(dp810
g5
S'c7'
p811
sa(dp812
g8
S'white_rook'
p813
sg5
S'c8'
p814
sa(dp815
g5
S'd1'
p816
sa(dp817
g5
S'd2'
p818
sa(dp819
g5
S'd3'
p820
sa(dp821
g5
S'd4'
p822
sa(dp823
g8
S'black_rook'
p824
sg5
S'd5'
p825
sa(dp826
g8
S'black_pawn'
p827
sg5
S'd6'
p828
sa(dp829
g8
S'black_rook'
p830
sg5
S'd7'
p831
sa(dp832
g5
S'd8'
p833
sa(dp834
g5
S'e1'
p835
sa(dp836
g5
S'e2'
p837
sa(dp838
g5
S'e3'
p839
sa(dp840
g5
S'e4'
p841
sa(dp842
g5
S'e5'
p843
sa(dp844
g5
S'e6'
p845
sa(dp846
g5
S'e7'
p847
sa(dp848
g8
S'black_knight'
p849
sg5
S'e8'
p850
sa(dp851
g5
S'f1'
p852
sa(dp853
g8
S'white_king'
p854
sg5
S'f2'
p855
sa(dp856
g5
S'f3'
p857
sa(dp858
g8
S'white_pawn'
p859
sg5
S'f4'
p860
sa(dp861
g8
S'black_pawn'
p862
sg5
S'f5'
p863
sa(dp864
g5
S'f6'
p865
sa(dp866
g5
S'f7'
p867
sa(dp868
g8
S'black_king'
p869
sg5
S'f8'
p870
sa(dp871
g5
S'g1'
p872
sa(dp873
g8
S'white_pawn'
p874
sg5
S'g2'
p875
sa(dp876
g5
S'g3'
p877
sa(dp878
g5
S'g4'
p879
sa(dp880
g5
S'g5'
p881
sa(dp882
g8
S'black_pawn'
p883
sg5
S'g6'
p884
sa(dp885
g5
S'g7'
p886
sa(dp887
g5
S'g8'
p888
sa(dp889
g5
S'h1'
p890
sa(dp891
g8
S'white_pawn'
p892
sg5
S'h2'
p893
sa(dp894
g5
S'h3'
p895
sa(dp896
g5
S'h4'
p897
sa(dp898
g5
S'h5'
p899
sa(dp900
g8
S'black_pawn'
p901
sg5
S'h6'
p902
sa(dp903
g5
S'h7'
p904
sa(dp905
g5
S'h8'
p906
saaVHe takes.
p907
aa(lp908
S'34. Ra8'
p909
a(lp910
(dp911
g5
S'a1'
p912
sa(dp913
g8
S'white_pawn'
p914
sg5
S'a2'
p915
sa(dp916
g8
S'white_bishop'
p917
sg5
S'a3'
p918
sa(dp919
g8
S'black_pawn'
p920
sg5
S'a4'
p921
sa(dp922
g5
S'a5'
p923
sa(dp924
g5
S'a6'
p925
sa(dp926
g5
S'a7'
p927
sa(dp928
g8
S'white_rook'
p929
sg5
S'a8'
p930
sa(dp931
g5
S'b1'
p932
sa(dp933
g8
S'white_pawn'
p934
sg5
S'b2'
p935
sa(dp936
g5
S'b3'
p937
sa(dp938
g5
S'b4'
p939
sa(dp940
g5
S'b5'
p941
sa(dp942
g5
S'b6'
p943
sa(dp944
g5
S'b7'
p945
sa(dp946
g5
S'b8'
p947
sa(dp948
g5
S'c1'
p949
sa(dp950
g5
S'c2'
p951
sa(dp952
g5
S'c3'
p953
sa(dp954
g5
S'c4'
p955
sa(dp956
g5
S'c5'
p957
sa(dp958
g8
S'white_knight'
p959
sg5
S'c6'
p960
sa(dp961
g5
S'c7'
p962
sa(dp963
g5
S'c8'
p964
sa(dp965
g5
S'd1'
p966
sa(dp967
g5
S'd2'
p968
sa(dp969
g5
S'd3'
p970
sa(dp971
g5
S'd4'
p972
sa(dp973
g8
S'black_rook'
p974
sg5
S'd5'
p975
sa(dp976
g8
S'black_pawn'
p977
sg5
S'd6'
p978
sa(dp979
g8
S'black_rook'
p980
sg5
S'd7'
p981
sa(dp982
g5
S'd8'
p983
sa(dp984
g5
S'e1'
p985
sa(dp986
g5
S'e2'
p987
sa(dp988
g5
S'e3'
p989
sa(dp990
g5
S'e4'
p991
sa(dp992
g5
S'e5'
p993
sa(dp994
g5
S'e6'
p995
sa(dp996
g5
S'e7'
p997
sa(dp998
g8
S'black_knight'
p999
sg5
S'e8'
p1000
sa(dp1001
g5
S'f1'
p1002
sa(dp1003
g8
S'white_king'
p1004
sg5
S'f2'
p1005
sa(dp1006
g5
S'f3'
p1007
sa(dp1008
g8
S'white_pawn'
p1009
sg5
S'f4'
p1010
sa(dp1011
g8
S'black_pawn'
p1012
sg5
S'f5'
p1013
sa(dp1014
g5
S'f6'
p1015
sa(dp1016
g5
S'f7'
p1017
sa(dp1018
g8
S'black_king'
p1019
sg5
S'f8'
p1020
sa(dp1021
g5
S'g1'
p1022
sa(dp1023
g8
S'white_pawn'
p1024
sg5
S'g2'
p1025
sa(dp1026
g5
S'g3'
p1027
sa(dp1028
g5
S'g4'
p1029
sa(dp1030
g5
S'g5'
p1031
sa(dp1032
g8
S'black_pawn'
p1033
sg5
S'g6'
p1034
sa(dp1035
g5
S'g7'
p1036
sa(dp1037
g5
S'g8'
p1038
sa(dp1039
g5
S'h1'
p1040
sa(dp1041
g8
S'white_pawn'
p1042
sg5
S'h2'
p1043
sa(dp1044
g5
S'h3'
p1045
sa(dp1046
g5
S'h4'
p1047
sa(dp1048
g5
S'h5'
p1049
sa(dp1050
g8
S'black_pawn'
p1051
sg5
S'h6'
p1052
sa(dp1053
g5
S'h7'
p1054
sa(dp1055
g5
S'h8'
p1056
saaVI attack the a pawn.
p1057
aa(lp1058
S'34... Rc7'
p1059
a(lp1060
(dp1061
g5
S'a1'
p1062
sa(dp1063
g8
S'white_pawn'
p1064
sg5
S'a2'
p1065
sa(dp1066
g8
S'white_bishop'
p1067
sg5
S'a3'
p1068
sa(dp1069
g8
S'black_pawn'
p1070
sg5
S'a4'
p1071
sa(dp1072
g5
S'a5'
p1073
sa(dp1074
g5
S'a6'
p1075
sa(dp1076
g5
S'a7'
p1077
sa(dp1078
g8
S'white_rook'
p1079
sg5
S'a8'
p1080
sa(dp1081
g5
S'b1'
p1082
sa(dp1083
g8
S'white_pawn'
p1084
sg5
S'b2'
p1085
sa(dp1086
g5
S'b3'
p1087
sa(dp1088
g5
S'b4'
p1089
sa(dp1090
g5
S'b5'
p1091
sa(dp1092
g5
S'b6'
p1093
sa(dp1094
g5
S'b7'
p1095
sa(dp1096
g5
S'b8'
p1097
sa(dp1098
g5
S'c1'
p1099
sa(dp1100
g5
S'c2'
p1101
sa(dp1102
g5
S'c3'
p1103
sa(dp1104
g5
S'c4'
p1105
sa(dp1106
g5
S'c5'
p1107
sa(dp1108
g8
S'white_knight'
p1109
sg5
S'c6'
p1110
sa(dp1111
g8
S'black_rook'
p1112
sg5
S'c7'
p1113
sa(dp1114
g5
S'c8'
p1115
sa(dp1116
g5
S'd1'
p1117
sa(dp1118
g5
S'd2'
p1119
sa(dp1120
g5
S'd3'
p1121
sa(dp1122
g5
S'd4'
p1123
sa(dp1124
g8
S'black_rook'
p1125
sg5
S'd5'
p1126
sa(dp1127
g8
S'black_pawn'
p1128
sg5
S'd6'
p1129
sa(dp1130
g5
S'd7'
p1131
sa(dp1132
g5
S'd8'
p1133
sa(dp1134
g5
S'e1'
p1135
sa(dp1136
g5
S'e2'
p1137
sa(dp1138
g5
S'e3'
p1139
sa(dp1140
g5
S'e4'
p1141
sa(dp1142
g5
S'e5'
p1143
sa(dp1144
g5
S'e6'
p1145
sa(dp1146
g5
S'e7'
p1147
sa(dp1148
g8
S'black_knight'
p1149
sg5
S'e8'
p1150
sa(dp1151
g5
S'f1'
p1152
sa(dp1153
g8
S'white_king'
p1154
sg5
S'f2'
p1155
sa(dp1156
g5
S'f3'
p1157
sa(dp1158
g8
S'white_pawn'
p1159
sg5
S'f4'
p1160
sa(dp1161
g8
S'black_pawn'
p1162
sg5
S'f5'
p1163
sa(dp1164
g5
S'f6'
p1165
sa(dp1166
g5
S'f7'
p1167
sa(dp1168
g8
S'black_king'
p1169
sg5
S'f8'
p1170
sa(dp1171
g5
S'g1'
p1172
sa(dp1173
g8
S'white_pawn'
p1174
sg5
S'g2'
p1175
sa(dp1176
g5
S'g3'
p1177
sa(dp1178
g5
S'g4'
p1179
sa(dp1180
g5
S'g5'
p1181
sa(dp1182
g8
S'black_pawn'
p1183
sg5
S'g6'
p1184
sa(dp1185
g5
S'g7'
p1186
sa(dp1187
g5
S'g8'
p1188
sa(dp1189
g5
S'h1'
p1190
sa(dp1191
g8
S'white_pawn'
p1192
sg5
S'h2'
p1193
sa(dp1194
g5
S'h3'
p1195
sa(dp1196
g5
S'h4'
p1197
sa(dp1198
g5
S'h5'
p1199
sa(dp1200
g8
S'black_pawn'
p1201
sg5
S'h6'
p1202
sa(dp1203
g5
S'h7'
p1204
sa(dp1205
g5
S'h8'
p1206
saaVHe hits my knight.
p1207
aa(lp1208
S'35. Nb4'
p1209
a(lp1210
(dp1211
g5
S'a1'
p1212
sa(dp1213
g8
S'white_pawn'
p1214
sg5
S'a2'
p1215
sa(dp1216
g8
S'white_bishop'
p1217
sg5
S'a3'
p1218
sa(dp1219
g8
S'black_pawn'
p1220
sg5
S'a4'
p1221
sa(dp1222
g5
S'a5'
p1223
sa(dp1224
g5
S'a6'
p1225
sa(dp1226
g5
S'a7'
p1227
sa(dp1228
g8
S'white_rook'
p1229
sg5
S'a8'
p1230
sa(dp1231
g5
S'b1'
p1232
sa(dp1233
g8
S'white_pawn'
p1234
sg5
S'b2'
p1235
sa(dp1236
g5
S'b3'
p1237
sa(dp1238
g8
S'white_knight'
p1239
sg5
S'b4'
p1240
sa(dp1241
g5
S'b5'
p1242
sa(dp1243
g5
S'b6'
p1244
sa(dp1245
g5
S'b7'
p1246
sa(dp1247
g5
S'b8'
p1248
sa(dp1249
g5
S'c1'
p1250
sa(dp1251
g5
S'c2'
p1252
sa(dp1253
g5
S'c3'
p1254
sa(dp1255
g5
S'c4'
p1256
sa(dp1257
g5
S'c5'
p1258
sa(dp1259
g5
S'c6'
p1260
sa(dp1261
g8
S'black_rook'
p1262
sg5
S'c7'
p1263
sa(dp1264
g5
S'c8'
p1265
sa(dp1266
g5
S'd1'
p1267
sa(dp1268
g5
S'd2'
p1269
sa(dp1270
g5
S'd3'
p1271
sa(dp1272
g5
S'd4'
p1273
sa(dp1274
g8
S'black_rook'
p1275
sg5
S'd5'
p1276
sa(dp1277
g8
S'black_pawn'
p1278
sg5
S'd6'
p1279
sa(dp1280
g5
S'd7'
p1281
sa(dp1282
g5
S'd8'
p1283
sa(dp1284
g5
S'e1'
p1285
sa(dp1286
g5
S'e2'
p1287
sa(dp1288
g5
S'e3'
p1289
sa(dp1290
g5
S'e4'
p1291
sa(dp1292
g5
S'e5'
p1293
sa(dp1294
g5
S'e6'
p1295
sa(dp1296
g5
S'e7'
p1297
sa(dp1298
g8
S'black_knight'
p1299
sg5
S'e8'
p1300
sa(dp1301
g5
S'f1'
p1302
sa(dp1303
g8
S'white_king'
p1304
sg5
S'f2'
p1305
sa(dp1306
g5
S'f3'
p1307
sa(dp1308
g8
S'white_pawn'
p1309
sg5
S'f4'
p1310
sa(dp1311
g8
S'black_pawn'
p1312
sg5
S'f5'
p1313
sa(dp1314
g5
S'f6'
p1315
sa(dp1316
g5
S'f7'
p1317
sa(dp1318
g8
S'black_king'
p1319
sg5
S'f8'
p1320
sa(dp1321
g5
S'g1'
p1322
sa(dp1323
g8
S'white_pawn'
p1324
sg5
S'g2'
p1325
sa(dp1326
g5
S'g3'
p1327
sa(dp1328
g5
S'g4'
p1329
sa(dp1330
g5
S'g5'
p1331
sa(dp1332
g8
S'black_pawn'
p1333
sg5
S'g6'
p1334
sa(dp1335
g5
S'g7'
p1336
sa(dp1337
g5
S'g8'
p1338
sa(dp1339
g5
S'h1'
p1340
sa(dp1341
g8
S'white_pawn'
p1342
sg5
S'h2'
p1343
sa(dp1344
g5
S'h3'
p1345
sa(dp1346
g5
S'h4'
p1347
sa(dp1348
g5
S'h5'
p1349
sa(dp1350
g8
S'black_pawn'
p1351
sg5
S'h6'
p1352
sa(dp1353
g5
S'h7'
p1354
sa(dp1355
g5
S'h8'
p1356
saaVI hit his rook.
p1357
aa(lp1358
S'35... Rd2+'
p1359
a(lp1360
(dp1361
g5
S'a1'
p1362
sa(dp1363
g8
S'white_pawn'
p1364
sg5
S'a2'
p1365
sa(dp1366
g8
S'white_bishop'
p1367
sg5
S'a3'
p1368
sa(dp1369
g8
S'black_pawn'
p1370
sg5
S'a4'
p1371
sa(dp1372
g5
S'a5'
p1373
sa(dp1374
g5
S'a6'
p1375
sa(dp1376
g5
S'a7'
p1377
sa(dp1378
g8
S'white_rook'
p1379
sg5
S'a8'
p1380
sa(dp1381
g5
S'b1'
p1382
sa(dp1383
g8
S'white_pawn'
p1384
sg5
S'b2'
p1385
sa(dp1386
g5
S'b3'
p1387
sa(dp1388
g8
S'white_knight'
p1389
sg5
S'b4'
p1390
sa(dp1391
g5
S'b5'
p1392
sa(dp1393
g5
S'b6'
p1394
sa(dp1395
g5
S'b7'
p1396
sa(dp1397
g5
S'b8'
p1398
sa(dp1399
g5
S'c1'
p1400
sa(dp1401
g5
S'c2'
p1402
sa(dp1403
g5
S'c3'
p1404
sa(dp1405
g5
S'c4'
p1406
sa(dp1407
g5
S'c5'
p1408
sa(dp1409
g5
S'c6'
p1410
sa(dp1411
g8
S'black_rook'
p1412
sg5
S'c7'
p1413
sa(dp1414
g5
S'c8'
p1415
sa(dp1416
g5
S'd1'
p1417
sa(dp1418
g8
S'black_rook'
p1419
sg5
S'd2'
p1420
sa(dp1421
g5
S'd3'
p1422
sa(dp1423
g5
S'd4'
p1424
sa(dp1425
g5
S'd5'
p1426
sa(dp1427
g8
S'black_pawn'
p1428
sg5
S'd6'
p1429
sa(dp1430
g5
S'd7'
p1431
sa(dp1432
g5
S'd8'
p1433
sa(dp1434
g5
S'e1'
p1435
sa(dp1436
g5
S'e2'
p1437
sa(dp1438
g5
S'e3'
p1439
sa(dp1440
g5
S'e4'
p1441
sa(dp1442
g5
S'e5'
p1443
sa(dp1444
g5
S'e6'
p1445
sa(dp1446
g5
S'e7'
p1447
sa(dp1448
g8
S'black_knight'
p1449
sg5
S'e8'
p1450
sa(dp1451
g5
S'f1'
p1452
sa(dp1453
g8
S'white_king'
p1454
sg5
S'f2'
p1455
sa(dp1456
g5
S'f3'
p1457
sa(dp1458
g8
S'white_pawn'
p1459
sg5
S'f4'
p1460
sa(dp1461
g8
S'black_pawn'
p1462
sg5
S'f5'
p1463
sa(dp1464
g5
S'f6'
p1465
sa(dp1466
g5
S'f7'
p1467
sa(dp1468
g8
S'black_king'
p1469
sg5
S'f8'
p1470
sa(dp1471
g5
S'g1'
p1472
sa(dp1473
g8
S'white_pawn'
p1474
sg5
S'g2'
p1475
sa(dp1476
g5
S'g3'
p1477
sa(dp1478
g5
S'g4'
p1479
sa(dp1480
g5
S'g5'
p1481
sa(dp1482
g8
S'black_pawn'
p1483
sg5
S'g6'
p1484
sa(dp1485
g5
S'g7'
p1486
sa(dp1487
g5
S'g8'
p1488
sa(dp1489
g5
S'h1'
p1490
sa(dp1491
g8
S'white_pawn'
p1492
sg5
S'h2'
p1493
sa(dp1494
g5
S'h3'
p1495
sa(dp1496
g5
S'h4'
p1497
sa(dp1498
g5
S'h5'
p1499
sa(dp1500
g8
S'black_pawn'
p1501
sg5
S'h6'
p1502
sa(dp1503
g5
S'h7'
p1504
sa(dp1505
g5
S'h8'
p1506
saaVHe checks.
p1507
aa(lp1508
S'36. Ke3'
p1509
a(lp1510
(dp1511
g5
S'a1'
p1512
sa(dp1513
g8
S'white_pawn'
p1514
sg5
S'a2'
p1515
sa(dp1516
g8
S'white_bishop'
p1517
sg5
S'a3'
p1518
sa(dp1519
g8
S'black_pawn'
p1520
sg5
S'a4'
p1521
sa(dp1522
g5
S'a5'
p1523
sa(dp1524
g5
S'a6'
p1525
sa(dp1526
g5
S'a7'
p1527
sa(dp1528
g8
S'white_rook'
p1529
sg5
S'a8'
p1530
sa(dp1531
g5
S'b1'
p1532
sa(dp1533
g8
S'white_pawn'
p1534
sg5
S'b2'
p1535
sa(dp1536
g5
S'b3'
p1537
sa(dp1538
g8
S'white_knight'
p1539
sg5
S'b4'
p1540
sa(dp1541
g5
S'b5'
p1542
sa(dp1543
g5
S'b6'
p1544
sa(dp1545
g5
S'b7'
p1546
sa(dp1547
g5
S'b8'
p1548
sa(dp1549
g5
S'c1'
p1550
sa(dp1551
g5
S'c2'
p1552
sa(dp1553
g5
S'c3'
p1554
sa(dp1555
g5
S'c4'
p1556
sa(dp1557
g5
S'c5'
p1558
sa(dp1559
g5
S'c6'
p1560
sa(dp1561
g8
S'black_rook'
p1562
sg5
S'c7'
p1563
sa(dp1564
g5
S'c8'
p1565
sa(dp1566
g5
S'd1'
p1567
sa(dp1568
g8
S'black_rook'
p1569
sg5
S'd2'
p1570
sa(dp1571
g5
S'd3'
p1572
sa(dp1573
g5
S'd4'
p1574
sa(dp1575
g5
S'd5'
p1576
sa(dp1577
g8
S'black_pawn'
p1578
sg5
S'd6'
p1579
sa(dp1580
g5
S'd7'
p1581
sa(dp1582
g5
S'd8'
p1583
sa(dp1584
g5
S'e1'
p1585
sa(dp1586
g5
S'e2'
p1587
sa(dp1588
g8
S'white_king'
p1589
sg5
S'e3'
p1590
sa(dp1591
g5
S'e4'
p1592
sa(dp1593
g5
S'e5'
p1594
sa(dp1595
g5
S'e6'
p1596
sa(dp1597
g5
S'e7'
p1598
sa(dp1599
g8
S'black_knight'
p1600
sg5
S'e8'
p1601
sa(dp1602
g5
S'f1'
p1603
sa(dp1604
g5
S'f2'
p1605
sa(dp1606
g5
S'f3'
p1607
sa(dp1608
g8
S'white_pawn'
p1609
sg5
S'f4'
p1610
sa(dp1611
g8
S'black_pawn'
p1612
sg5
S'f5'
p1613
sa(dp1614
g5
S'f6'
p1615
sa(dp1616
g5
S'f7'
p1617
sa(dp1618
g8
S'black_king'
p1619
sg5
S'f8'
p1620
sa(dp1621
g5
S'g1'
p1622
sa(dp1623
g8
S'white_pawn'
p1624
sg5
S'g2'
p1625
sa(dp1626
g5
S'g3'
p1627
sa(dp1628
g5
S'g4'
p1629
sa(dp1630
g5
S'g5'
p1631
sa(dp1632
g8
S'black_pawn'
p1633
sg5
S'g6'
p1634
sa(dp1635
g5
S'g7'
p1636
sa(dp1637
g5
S'g8'
p1638
sa(dp1639
g5
S'h1'
p1640
sa(dp1641
g8
S'white_pawn'
p1642
sg5
S'h2'
p1643
sa(dp1644
g5
S'h3'
p1645
sa(dp1646
g5
S'h4'
p1647
sa(dp1648
g5
S'h5'
p1649
sa(dp1650
g8
S'black_pawn'
p1651
sg5
S'h6'
p1652
sa(dp1653
g5
S'h7'
p1654
sa(dp1655
g5
S'h8'
p1656
saaVAnother mistake by me. Simply Kf3, I am picking up his a pawn, and I am still in the game. This is the losing mistake.
p1657
aa(lp1658
S'36... Rxg2'
p1659
a(lp1660
(dp1661
g5
S'a1'
p1662
sa(dp1663
g8
S'white_pawn'
p1664
sg5
S'a2'
p1665
sa(dp1666
g8
S'white_bishop'
p1667
sg5
S'a3'
p1668
sa(dp1669
g8
S'black_pawn'
p1670
sg5
S'a4'
p1671
sa(dp1672
g5
S'a5'
p1673
sa(dp1674
g5
S'a6'
p1675
sa(dp1676
g5
S'a7'
p1677
sa(dp1678
g8
S'white_rook'
p1679
sg5
S'a8'
p1680
sa(dp1681
g5
S'b1'
p1682
sa(dp1683
g8
S'white_pawn'
p1684
sg5
S'b2'
p1685
sa(dp1686
g5
S'b3'
p1687
sa(dp1688
g8
S'white_knight'
p1689
sg5
S'b4'
p1690
sa(dp1691
g5
S'b5'
p1692
sa(dp1693
g5
S'b6'
p1694
sa(dp1695
g5
S'b7'
p1696
sa(dp1697
g5
S'b8'
p1698
sa(dp1699
g5
S'c1'
p1700
sa(dp1701
g5
S'c2'
p1702
sa(dp1703
g5
S'c3'
p1704
sa(dp1705
g5
S'c4'
p1706
sa(dp1707
g5
S'c5'
p1708
sa(dp1709
g5
S'c6'
p1710
sa(dp1711
g8
S'black_rook'
p1712
sg5
S'c7'
p1713
sa(dp1714
g5
S'c8'
p1715
sa(dp1716
g5
S'd1'
p1717
sa(dp1718
g5
S'd2'
p1719
sa(dp1720
g5
S'd3'
p1721
sa(dp1722
g5
S'd4'
p1723
sa(dp1724
g5
S'd5'
p1725
sa(dp1726
g8
S'black_pawn'
p1727
sg5
S'd6'
p1728
sa(dp1729
g5
S'd7'
p1730
sa(dp1731
g5
S'd8'
p1732
sa(dp1733
g5
S'e1'
p1734
sa(dp1735
g5
S'e2'
p1736
sa(dp1737
g8
S'white_king'
p1738
sg5
S'e3'
p1739
sa(dp1740
g5
S'e4'
p1741
sa(dp1742
g5
S'e5'
p1743
sa(dp1744
g5
S'e6'
p1745
sa(dp1746
g5
S'e7'
p1747
sa(dp1748
g8
S'black_knight'
p1749
sg5
S'e8'
p1750
sa(dp1751
g5
S'f1'
p1752
sa(dp1753
g5
S'f2'
p1754
sa(dp1755
g5
S'f3'
p1756
sa(dp1757
g8
S'white_pawn'
p1758
sg5
S'f4'
p1759
sa(dp1760
g8
S'black_pawn'
p1761
sg5
S'f5'
p1762
sa(dp1763
g5
S'f6'
p1764
sa(dp1765
g5
S'f7'
p1766
sa(dp1767
g8
S'black_king'
p1768
sg5
S'f8'
p1769
sa(dp1770
g5
S'g1'
p1771
sa(dp1772
g8
S'black_rook'
p1773
sg5
S'g2'
p1774
sa(dp1775
g5
S'g3'
p1776
sa(dp1777
g5
S'g4'
p1778
sa(dp1779
g5
S'g5'
p1780
sa(dp1781
g8
S'black_pawn'
p1782
sg5
S'g6'
p1783
sa(dp1784
g5
S'g7'
p1785
sa(dp1786
g5
S'g8'
p1787
sa(dp1788
g5
S'h1'
p1789
sa(dp1790
g8
S'white_pawn'
p1791
sg5
S'h2'
p1792
sa(dp1793
g5
S'h3'
p1794
sa(dp1795
g5
S'h4'
p1796
sa(dp1797
g5
S'h5'
p1798
sa(dp1799
g8
S'black_pawn'
p1800
sg5
S'h6'
p1801
sa(dp1802
g5
S'h7'
p1803
sa(dp1804
g5
S'h8'
p1805
saaVHe takes.
p1806
aa(lp1807
S'37. Nd5'
p1808
a(lp1809
(dp1810
g5
S'a1'
p1811
sa(dp1812
g8
S'white_pawn'
p1813
sg5
S'a2'
p1814
sa(dp1815
g8
S'white_bishop'
p1816
sg5
S'a3'
p1817
sa(dp1818
g8
S'black_pawn'
p1819
sg5
S'a4'
p1820
sa(dp1821
g5
S'a5'
p1822
sa(dp1823
g5
S'a6'
p1824
sa(dp1825
g5
S'a7'
p1826
sa(dp1827
g8
S'white_rook'
p1828
sg5
S'a8'
p1829
sa(dp1830
g5
S'b1'
p1831
sa(dp1832
g8
S'white_pawn'
p1833
sg5
S'b2'
p1834
sa(dp1835
g5
S'b3'
p1836
sa(dp1837
g5
S'b4'
p1838
sa(dp1839
g5
S'b5'
p1840
sa(dp1841
g5
S'b6'
p1842
sa(dp1843
g5
S'b7'
p1844
sa(dp1845
g5
S'b8'
p1846
sa(dp1847
g5
S'c1'
p1848
sa(dp1849
g5
S'c2'
p1850
sa(dp1851
g5
S'c3'
p1852
sa(dp1853
g5
S'c4'
p1854
sa(dp1855
g5
S'c5'
p1856
sa(dp1857
g5
S'c6'
p1858
sa(dp1859
g8
S'black_rook'
p1860
sg5
S'c7'
p1861
sa(dp1862
g5
S'c8'
p1863
sa(dp1864
g5
S'd1'
p1865
sa(dp1866
g5
S'd2'
p1867
sa(dp1868
g5
S'd3'
p1869
sa(dp1870
g5
S'd4'
p1871
sa(dp1872
g8
S'white_knight'
p1873
sg5
S'd5'
p1874
sa(dp1875
g8
S'black_pawn'
p1876
sg5
S'd6'
p1877
sa(dp1878
g5
S'd7'
p1879
sa(dp1880
g5
S'd8'
p1881
sa(dp1882
g5
S'e1'
p1883
sa(dp1884
g5
S'e2'
p1885
sa(dp1886
g8
S'white_king'
p1887
sg5
S'e3'
p1888
sa(dp1889
g5
S'e4'
p1890
sa(dp1891
g5
S'e5'
p1892
sa(dp1893
g5
S'e6'
p1894
sa(dp1895
g5
S'e7'
p1896
sa(dp1897
g8
S'black_knight'
p1898
sg5
S'e8'
p1899
sa(dp1900
g5
S'f1'
p1901
sa(dp1902
g5
S'f2'
p1903
sa(dp1904
g5
S'f3'
p1905
sa(dp1906
g8
S'white_pawn'
p1907
sg5
S'f4'
p1908
sa(dp1909
g8
S'black_pawn'
p1910
sg5
S'f5'
p1911
sa(dp1912
g5
S'f6'
p1913
sa(dp1914
g5
S'f7'
p1915
sa(dp1916
g8
S'black_king'
p1917
sg5
S'f8'
p1918
sa(dp1919
g5
S'g1'
p1920
sa(dp1921
g8
S'black_rook'
p1922
sg5
S'g2'
p1923
sa(dp1924
g5
S'g3'
p1925
sa(dp1926
g5
S'g4'
p1927
sa(dp1928
g5
S'g5'
p1929
sa(dp1930
g8
S'black_pawn'
p1931
sg5
S'g6'
p1932
sa(dp1933
g5
S'g7'
p1934
sa(dp1935
g5
S'g8'
p1936
sa(dp1937
g5
S'h1'
p1938
sa(dp1939
g8
S'white_pawn'
p1940
sg5
S'h2'
p1941
sa(dp1942
g5
S'h3'
p1943
sa(dp1944
g5
S'h4'
p1945
sa(dp1946
g5
S'h5'
p1947
sa(dp1948
g8
S'black_pawn'
p1949
sg5
S'h6'
p1950
sa(dp1951
g5
S'h7'
p1952
sa(dp1953
g5
S'h8'
p1954
saaVI hit his rook.
p1955
aa(lp1956
S'37... Rd7'
p1957
a(lp1958
(dp1959
g5
S'a1'
p1960
sa(dp1961
g8
S'white_pawn'
p1962
sg5
S'a2'
p1963
sa(dp1964
g8
S'white_bishop'
p1965
sg5
S'a3'
p1966
sa(dp1967
g8
S'black_pawn'
p1968
sg5
S'a4'
p1969
sa(dp1970
g5
S'a5'
p1971
sa(dp1972
g5
S'a6'
p1973
sa(dp1974
g5
S'a7'
p1975
sa(dp1976
g8
S'white_rook'
p1977
sg5
S'a8'
p1978
sa(dp1979
g5
S'b1'
p1980
sa(dp1981
g8
S'white_pawn'
p1982
sg5
S'b2'
p1983
sa(dp1984
g5
S'b3'
p1985
sa(dp1986
g5
S'b4'
p1987
sa(dp1988
g5
S'b5'
p1989
sa(dp1990
g5
S'b6'
p1991
sa(dp1992
g5
S'b7'
p1993
sa(dp1994
g5
S'b8'
p1995
sa(dp1996
g5
S'c1'
p1997
sa(dp1998
g5
S'c2'
p1999
sa(dp2000
g5
S'c3'
p2001
sa(dp2002
g5
S'c4'
p2003
sa(dp2004
g5
S'c5'
p2005
sa(dp2006
g5
S'c6'
p2007
sa(dp2008
g5
S'c7'
p2009
sa(dp2010
g5
S'c8'
p2011
sa(dp2012
g5
S'd1'
p2013
sa(dp2014
g5
S'd2'
p2015
sa(dp2016
g5
S'd3'
p2017
sa(dp2018
g5
S'd4'
p2019
sa(dp2020
g8
S'white_knight'
p2021
sg5
S'd5'
p2022
sa(dp2023
g8
S'black_pawn'
p2024
sg5
S'd6'
p2025
sa(dp2026
g8
S'black_rook'
p2027
sg5
S'd7'
p2028
sa(dp2029
g5
S'd8'
p2030
sa(dp2031
g5
S'e1'
p2032
sa(dp2033
g5
S'e2'
p2034
sa(dp2035
g8
S'white_king'
p2036
sg5
S'e3'
p2037
sa(dp2038
g5
S'e4'
p2039
sa(dp2040
g5
S'e5'
p2041
sa(dp2042
g5
S'e6'
p2043
sa(dp2044
g5
S'e7'
p2045
sa(dp2046
g8
S'black_knight'
p2047
sg5
S'e8'
p2048
sa(dp2049
g5
S'f1'
p2050
sa(dp2051
g5
S'f2'
p2052
sa(dp2053
g5
S'f3'
p2054
sa(dp2055
g8
S'white_pawn'
p2056
sg5
S'f4'
p2057
sa(dp2058
g8
S'black_pawn'
p2059
sg5
S'f5'
p2060
sa(dp2061
g5
S'f6'
p2062
sa(dp2063
g5
S'f7'
p2064
sa(dp2065
g8
S'black_king'
p2066
sg5
S'f8'
p2067
sa(dp2068
g5
S'g1'
p2069
sa(dp2070
g8
S'black_rook'
p2071
sg5
S'g2'
p2072
sa(dp2073
g5
S'g3'
p2074
sa(dp2075
g5
S'g4'
p2076
sa(dp2077
g5
S'g5'
p2078
sa(dp2079
g8
S'black_pawn'
p2080
sg5
S'g6'
p2081
sa(dp2082
g5
S'g7'
p2083
sa(dp2084
g5
S'g8'
p2085
sa(dp2086
g5
S'h1'
p2087
sa(dp2088
g8
S'white_pawn'
p2089
sg5
S'h2'
p2090
sa(dp2091
g5
S'h3'
p2092
sa(dp2093
g5
S'h4'
p2094
sa(dp2095
g5
S'h5'
p2096
sa(dp2097
g8
S'black_pawn'
p2098
sg5
S'h6'
p2099
sa(dp2100
g5
S'h7'
p2101
sa(dp2102
g5
S'h8'
p2103
saaVHe defends d6. Now when I played Ke3 I though that 38. Nf6 won. 38....Re7 is forced. I thought that after 39. Kf3 I was threatening both the rook on g2 and the pawn on d6, but he has Rd2 saving the rook and protecting d6.
p2104
aa(lp2105
S'38. Nc7'
p2106
a(lp2107
(dp2108
g5
S'a1'
p2109
sa(dp2110
g8
S'white_pawn'
p2111
sg5
S'a2'
p2112
sa(dp2113
g8
S'white_bishop'
p2114
sg5
S'a3'
p2115
sa(dp2116
g8
S'black_pawn'
p2117
sg5
S'a4'
p2118
sa(dp2119
g5
S'a5'
p2120
sa(dp2121
g5
S'a6'
p2122
sa(dp2123
g5
S'a7'
p2124
sa(dp2125
g8
S'white_rook'
p2126
sg5
S'a8'
p2127
sa(dp2128
g5
S'b1'
p2129
sa(dp2130
g8
S'white_pawn'
p2131
sg5
S'b2'
p2132
sa(dp2133
g5
S'b3'
p2134
sa(dp2135
g5
S'b4'
p2136
sa(dp2137
g5
S'b5'
p2138
sa(dp2139
g5
S'b6'
p2140
sa(dp2141
g5
S'b7'
p2142
sa(dp2143
g5
S'b8'
p2144
sa(dp2145
g5
S'c1'
p2146
sa(dp2147
g5
S'c2'
p2148
sa(dp2149
g5
S'c3'
p2150
sa(dp2151
g5
S'c4'
p2152
sa(dp2153
g5
S'c5'
p2154
sa(dp2155
g5
S'c6'
p2156
sa(dp2157
g8
S'white_knight'
p2158
sg5
S'c7'
p2159
sa(dp2160
g5
S'c8'
p2161
sa(dp2162
g5
S'd1'
p2163
sa(dp2164
g5
S'd2'
p2165
sa(dp2166
g5
S'd3'
p2167
sa(dp2168
g5
S'd4'
p2169
sa(dp2170
g5
S'd5'
p2171
sa(dp2172
g8
S'black_pawn'
p2173
sg5
S'd6'
p2174
sa(dp2175
g8
S'black_rook'
p2176
sg5
S'd7'
p2177
sa(dp2178
g5
S'd8'
p2179
sa(dp2180
g5
S'e1'
p2181
sa(dp2182
g5
S'e2'
p2183
sa(dp2184
g8
S'white_king'
p2185
sg5
S'e3'
p2186
sa(dp2187
g5
S'e4'
p2188
sa(dp2189
g5
S'e5'
p2190
sa(dp2191
g5
S'e6'
p2192
sa(dp2193
g5
S'e7'
p2194
sa(dp2195
g8
S'black_knight'
p2196
sg5
S'e8'
p2197
sa(dp2198
g5
S'f1'
p2199
sa(dp2200
g5
S'f2'
p2201
sa(dp2202
g5
S'f3'
p2203
sa(dp2204
g8
S'white_pawn'
p2205
sg5
S'f4'
p2206
sa(dp2207
g8
S'black_pawn'
p2208
sg5
S'f5'
p2209
sa(dp2210
g5
S'f6'
p2211
sa(dp2212
g5
S'f7'
p2213
sa(dp2214
g8
S'black_king'
p2215
sg5
S'f8'
p2216
sa(dp2217
g5
S'g1'
p2218
sa(dp2219
g8
S'black_rook'
p2220
sg5
S'g2'
p2221
sa(dp2222
g5
S'g3'
p2223
sa(dp2224
g5
S'g4'
p2225
sa(dp2226
g5
S'g5'
p2227
sa(dp2228
g8
S'black_pawn'
p2229
sg5
S'g6'
p2230
sa(dp2231
g5
S'g7'
p2232
sa(dp2233
g5
S'g8'
p2234
sa(dp2235
g5
S'h1'
p2236
sa(dp2237
g8
S'white_pawn'
p2238
sg5
S'h2'
p2239
sa(dp2240
g5
S'h3'
p2241
sa(dp2242
g5
S'h4'
p2243
sa(dp2244
g5
S'h5'
p2245
sa(dp2246
g8
S'black_pawn'
p2247
sg5
S'h6'
p2248
sa(dp2249
g5
S'h7'
p2250
sa(dp2251
g5
S'h8'
p2252
saaVSo I tried this, with a similar threat. If 38....Rxc7 39. Bxd6+ although even there he has Rd7 winning.
p2253
aa(lp2254
S'38... Re7+'
p2255
a(lp2256
(dp2257
g5
S'a1'
p2258
sa(dp2259
g8
S'white_pawn'
p2260
sg5
S'a2'
p2261
sa(dp2262
g8
S'white_bishop'
p2263
sg5
S'a3'
p2264
sa(dp2265
g8
S'black_pawn'
p2266
sg5
S'a4'
p2267
sa(dp2268
g5
S'a5'
p2269
sa(dp2270
g5
S'a6'
p2271
sa(dp2272
g5
S'a7'
p2273
sa(dp2274
g8
S'white_rook'
p2275
sg5
S'a8'
p2276
sa(dp2277
g5
S'b1'
p2278
sa(dp2279
g8
S'white_pawn'
p2280
sg5
S'b2'
p2281
sa(dp2282
g5
S'b3'
p2283
sa(dp2284
g5
S'b4'
p2285
sa(dp2286
g5
S'b5'
p2287
sa(dp2288
g5
S'b6'
p2289
sa(dp2290
g5
S'b7'
p2291
sa(dp2292
g5
S'b8'
p2293
sa(dp2294
g5
S'c1'
p2295
sa(dp2296
g5
S'c2'
p2297
sa(dp2298
g5
S'c3'
p2299
sa(dp2300
g5
S'c4'
p2301
sa(dp2302
g5
S'c5'
p2303
sa(dp2304
g5
S'c6'
p2305
sa(dp2306
g8
S'white_knight'
p2307
sg5
S'c7'
p2308
sa(dp2309
g5
S'c8'
p2310
sa(dp2311
g5
S'd1'
p2312
sa(dp2313
g5
S'd2'
p2314
sa(dp2315
g5
S'd3'
p2316
sa(dp2317
g5
S'd4'
p2318
sa(dp2319
g5
S'd5'
p2320
sa(dp2321
g8
S'black_pawn'
p2322
sg5
S'd6'
p2323
sa(dp2324
g5
S'd7'
p2325
sa(dp2326
g5
S'd8'
p2327
sa(dp2328
g5
S'e1'
p2329
sa(dp2330
g5
S'e2'
p2331
sa(dp2332
g8
S'white_king'
p2333
sg5
S'e3'
p2334
sa(dp2335
g5
S'e4'
p2336
sa(dp2337
g5
S'e5'
p2338
sa(dp2339
g5
S'e6'
p2340
sa(dp2341
g8
S'black_rook'
p2342
sg5
S'e7'
p2343
sa(dp2344
g8
S'black_knight'
p2345
sg5
S'e8'
p2346
sa(dp2347
g5
S'f1'
p2348
sa(dp2349
g5
S'f2'
p2350
sa(dp2351
g5
S'f3'
p2352
sa(dp2353
g8
S'white_pawn'
p2354
sg5
S'f4'
p2355
sa(dp2356
g8
S'black_pawn'
p2357
sg5
S'f5'
p2358
sa(dp2359
g5
S'f6'
p2360
sa(dp2361
g5
S'f7'
p2362
sa(dp2363
g8
S'black_king'
p2364
sg5
S'f8'
p2365
sa(dp2366
g5
S'g1'
p2367
sa(dp2368
g8
S'black_rook'
p2369
sg5
S'g2'
p2370
sa(dp2371
g5
S'g3'
p2372
sa(dp2373
g5
S'g4'
p2374
sa(dp2375
g5
S'g5'
p2376
sa(dp2377
g8
S'black_pawn'
p2378
sg5
S'g6'
p2379
sa(dp2380
g5
S'g7'
p2381
sa(dp2382
g5
S'g8'
p2383
sa(dp2384
g5
S'h1'
p2385
sa(dp2386
g8
S'white_pawn'
p2387
sg5
S'h2'
p2388
sa(dp2389
g5
S'h3'
p2390
sa(dp2391
g5
S'h4'
p2392
sa(dp2393
g5
S'h5'
p2394
sa(dp2395
g8
S'black_pawn'
p2396
sg5
S'h6'
p2397
sa(dp2398
g5
S'h7'
p2399
sa(dp2400
g5
S'h8'
p2401
saaVBut he chose this way to win.
p2402
aa(lp2403
S'39. Kd3'
p2404
a(lp2405
(dp2406
g5
S'a1'
p2407
sa(dp2408
g8
S'white_pawn'
p2409
sg5
S'a2'
p2410
sa(dp2411
g8
S'white_bishop'
p2412
sg5
S'a3'
p2413
sa(dp2414
g8
S'black_pawn'
p2415
sg5
S'a4'
p2416
sa(dp2417
g5
S'a5'
p2418
sa(dp2419
g5
S'a6'
p2420
sa(dp2421
g5
S'a7'
p2422
sa(dp2423
g8
S'white_rook'
p2424
sg5
S'a8'
p2425
sa(dp2426
g5
S'b1'
p2427
sa(dp2428
g8
S'white_pawn'
p2429
sg5
S'b2'
p2430
sa(dp2431
g5
S'b3'
p2432
sa(dp2433
g5
S'b4'
p2434
sa(dp2435
g5
S'b5'
p2436
sa(dp2437
g5
S'b6'
p2438
sa(dp2439
g5
S'b7'
p2440
sa(dp2441
g5
S'b8'
p2442
sa(dp2443
g5
S'c1'
p2444
sa(dp2445
g5
S'c2'
p2446
sa(dp2447
g5
S'c3'
p2448
sa(dp2449
g5
S'c4'
p2450
sa(dp2451
g5
S'c5'
p2452
sa(dp2453
g5
S'c6'
p2454
sa(dp2455
g8
S'white_knight'
p2456
sg5
S'c7'
p2457
sa(dp2458
g5
S'c8'
p2459
sa(dp2460
g5
S'd1'
p2461
sa(dp2462
g5
S'd2'
p2463
sa(dp2464
g8
S'white_king'
p2465
sg5
S'd3'
p2466
sa(dp2467
g5
S'd4'
p2468
sa(dp2469
g5
S'd5'
p2470
sa(dp2471
g8
S'black_pawn'
p2472
sg5
S'd6'
p2473
sa(dp2474
g5
S'd7'
p2475
sa(dp2476
g5
S'd8'
p2477
sa(dp2478
g5
S'e1'
p2479
sa(dp2480
g5
S'e2'
p2481
sa(dp2482
g5
S'e3'
p2483
sa(dp2484
g5
S'e4'
p2485
sa(dp2486
g5
S'e5'
p2487
sa(dp2488
g5
S'e6'
p2489
sa(dp2490
g8
S'black_rook'
p2491
sg5
S'e7'
p2492
sa(dp2493
g8
S'black_knight'
p2494
sg5
S'e8'
p2495
sa(dp2496
g5
S'f1'
p2497
sa(dp2498
g5
S'f2'
p2499
sa(dp2500
g5
S'f3'
p2501
sa(dp2502
g8
S'white_pawn'
p2503
sg5
S'f4'
p2504
sa(dp2505
g8
S'black_pawn'
p2506
sg5
S'f5'
p2507
sa(dp2508
g5
S'f6'
p2509
sa(dp2510
g5
S'f7'
p2511
sa(dp2512
g8
S'black_king'
p2513
sg5
S'f8'
p2514
sa(dp2515
g5
S'g1'
p2516
sa(dp2517
g8
S'black_rook'
p2518
sg5
S'g2'
p2519
sa(dp2520
g5
S'g3'
p2521
sa(dp2522
g5
S'g4'
p2523
sa(dp2524
g5
S'g5'
p2525
sa(dp2526
g8
S'black_pawn'
p2527
sg5
S'g6'
p2528
sa(dp2529
g5
S'g7'
p2530
sa(dp2531
g5
S'g8'
p2532
sa(dp2533
g5
S'h1'
p2534
sa(dp2535
g8
S'white_pawn'
p2536
sg5
S'h2'
p2537
sa(dp2538
g5
S'h3'
p2539
sa(dp2540
g5
S'h4'
p2541
sa(dp2542
g5
S'h5'
p2543
sa(dp2544
g8
S'black_pawn'
p2545
sg5
S'h6'
p2546
sa(dp2547
g5
S'h7'
p2548
sa(dp2549
g5
S'h8'
p2550
saaVI stop his Rg2 from protecting the d pawn.
p2551
aa(lp2552
S'39... Kf7'
p2553
a(lp2554
(dp2555
g5
S'a1'
p2556
sa(dp2557
g8
S'white_pawn'
p2558
sg5
S'a2'
p2559
sa(dp2560
g8
S'white_bishop'
p2561
sg5
S'a3'
p2562
sa(dp2563
g8
S'black_pawn'
p2564
sg5
S'a4'
p2565
sa(dp2566
g5
S'a5'
p2567
sa(dp2568
g5
S'a6'
p2569
sa(dp2570
g5
S'a7'
p2571
sa(dp2572
g8
S'white_rook'
p2573
sg5
S'a8'
p2574
sa(dp2575
g5
S'b1'
p2576
sa(dp2577
g8
S'white_pawn'
p2578
sg5
S'b2'
p2579
sa(dp2580
g5
S'b3'
p2581
sa(dp2582
g5
S'b4'
p2583
sa(dp2584
g5
S'b5'
p2585
sa(dp2586
g5
S'b6'
p2587
sa(dp2588
g5
S'b7'
p2589
sa(dp2590
g5
S'b8'
p2591
sa(dp2592
g5
S'c1'
p2593
sa(dp2594
g5
S'c2'
p2595
sa(dp2596
g5
S'c3'
p2597
sa(dp2598
g5
S'c4'
p2599
sa(dp2600
g5
S'c5'
p2601
sa(dp2602
g5
S'c6'
p2603
sa(dp2604
g8
S'white_knight'
p2605
sg5
S'c7'
p2606
sa(dp2607
g5
S'c8'
p2608
sa(dp2609
g5
S'd1'
p2610
sa(dp2611
g5
S'd2'
p2612
sa(dp2613
g8
S'white_king'
p2614
sg5
S'd3'
p2615
sa(dp2616
g5
S'd4'
p2617
sa(dp2618
g5
S'd5'
p2619
sa(dp2620
g8
S'black_pawn'
p2621
sg5
S'd6'
p2622
sa(dp2623
g5
S'd7'
p2624
sa(dp2625
g5
S'd8'
p2626
sa(dp2627
g5
S'e1'
p2628
sa(dp2629
g5
S'e2'
p2630
sa(dp2631
g5
S'e3'
p2632
sa(dp2633
g5
S'e4'
p2634
sa(dp2635
g5
S'e5'
p2636
sa(dp2637
g5
S'e6'
p2638
sa(dp2639
g8
S'black_rook'
p2640
sg5
S'e7'
p2641
sa(dp2642
g8
S'black_knight'
p2643
sg5
S'e8'
p2644
sa(dp2645
g5
S'f1'
p2646
sa(dp2647
g5
S'f2'
p2648
sa(dp2649
g5
S'f3'
p2650
sa(dp2651
g8
S'white_pawn'
p2652
sg5
S'f4'
p2653
sa(dp2654
g8
S'black_pawn'
p2655
sg5
S'f5'
p2656
sa(dp2657
g5
S'f6'
p2658
sa(dp2659
g8
S'black_king'
p2660
sg5
S'f7'
p2661
sa(dp2662
g5
S'f8'
p2663
sa(dp2664
g5
S'g1'
p2665
sa(dp2666
g8
S'black_rook'
p2667
sg5
S'g2'
p2668
sa(dp2669
g5
S'g3'
p2670
sa(dp2671
g5
S'g4'
p2672
sa(dp2673
g5
S'g5'
p2674
sa(dp2675
g8
S'black_pawn'
p2676
sg5
S'g6'
p2677
sa(dp2678
g5
S'g7'
p2679
sa(dp2680
g5
S'g8'
p2681
sa(dp2682
g5
S'h1'
p2683
sa(dp2684
g8
S'white_pawn'
p2685
sg5
S'h2'
p2686
sa(dp2687
g5
S'h3'
p2688
sa(dp2689
g5
S'h4'
p2690
sa(dp2691
g5
S'h5'
p2692
sa(dp2693
g8
S'black_pawn'
p2694
sg5
S'h6'
p2695
sa(dp2696
g5
S'h7'
p2697
sa(dp2698
g5
S'h8'
p2699
saaVBut this simple move wins easily.
p2700
aa(lp2701
S'40. Nd5'
p2702
a(lp2703
(dp2704
g5
S'a1'
p2705
sa(dp2706
g8
S'white_pawn'
p2707
sg5
S'a2'
p2708
sa(dp2709
g8
S'white_bishop'
p2710
sg5
S'a3'
p2711
sa(dp2712
g8
S'black_pawn'
p2713
sg5
S'a4'
p2714
sa(dp2715
g5
S'a5'
p2716
sa(dp2717
g5
S'a6'
p2718
sa(dp2719
g5
S'a7'
p2720
sa(dp2721
g8
S'white_rook'
p2722
sg5
S'a8'
p2723
sa(dp2724
g5
S'b1'
p2725
sa(dp2726
g8
S'white_pawn'
p2727
sg5
S'b2'
p2728
sa(dp2729
g5
S'b3'
p2730
sa(dp2731
g5
S'b4'
p2732
sa(dp2733
g5
S'b5'
p2734
sa(dp2735
g5
S'b6'
p2736
sa(dp2737
g5
S'b7'
p2738
sa(dp2739
g5
S'b8'
p2740
sa(dp2741
g5
S'c1'
p2742
sa(dp2743
g5
S'c2'
p2744
sa(dp2745
g5
S'c3'
p2746
sa(dp2747
g5
S'c4'
p2748
sa(dp2749
g5
S'c5'
p2750
sa(dp2751
g5
S'c6'
p2752
sa(dp2753
g5
S'c7'
p2754
sa(dp2755
g5
S'c8'
p2756
sa(dp2757
g5
S'd1'
p2758
sa(dp2759
g5
S'd2'
p2760
sa(dp2761
g8
S'white_king'
p2762
sg5
S'd3'
p2763
sa(dp2764
g5
S'd4'
p2765
sa(dp2766
g8
S'white_knight'
p2767
sg5
S'd5'
p2768
sa(dp2769
g8
S'black_pawn'
p2770
sg5
S'd6'
p2771
sa(dp2772
g5
S'd7'
p2773
sa(dp2774
g5
S'd8'
p2775
sa(dp2776
g5
S'e1'
p2777
sa(dp2778
g5
S'e2'
p2779
sa(dp2780
g5
S'e3'
p2781
sa(dp2782
g5
S'e4'
p2783
sa(dp2784
g5
S'e5'
p2785
sa(dp2786
g5
S'e6'
p2787
sa(dp2788
g8
S'black_rook'
p2789
sg5
S'e7'
p2790
sa(dp2791
g8
S'black_knight'
p2792
sg5
S'e8'
p2793
sa(dp2794
g5
S'f1'
p2795
sa(dp2796
g5
S'f2'
p2797
sa(dp2798
g5
S'f3'
p2799
sa(dp2800
g8
S'white_pawn'
p2801
sg5
S'f4'
p2802
sa(dp2803
g8
S'black_pawn'
p2804
sg5
S'f5'
p2805
sa(dp2806
g5
S'f6'
p2807
sa(dp2808
g8
S'black_king'
p2809
sg5
S'f7'
p2810
sa(dp2811
g5
S'f8'
p2812
sa(dp2813
g5
S'g1'
p2814
sa(dp2815
g8
S'black_rook'
p2816
sg5
S'g2'
p2817
sa(dp2818
g5
S'g3'
p2819
sa(dp2820
g5
S'g4'
p2821
sa(dp2822
g5
S'g5'
p2823
sa(dp2824
g8
S'black_pawn'
p2825
sg5
S'g6'
p2826
sa(dp2827
g5
S'g7'
p2828
sa(dp2829
g5
S'g8'
p2830
sa(dp2831
g5
S'h1'
p2832
sa(dp2833
g8
S'white_pawn'
p2834
sg5
S'h2'
p2835
sa(dp2836
g5
S'h3'
p2837
sa(dp2838
g5
S'h4'
p2839
sa(dp2840
g5
S'h5'
p2841
sa(dp2842
g8
S'black_pawn'
p2843
sg5
S'h6'
p2844
sa(dp2845
g5
S'h7'
p2846
sa(dp2847
g5
S'h8'
p2848
saaVI hit his rook.
p2849
aa(lp2850
S'40... Re4'
p2851
a(lp2852
(dp2853
g5
S'a1'
p2854
sa(dp2855
g8
S'white_pawn'
p2856
sg5
S'a2'
p2857
sa(dp2858
g8
S'white_bishop'
p2859
sg5
S'a3'
p2860
sa(dp2861
g8
S'black_pawn'
p2862
sg5
S'a4'
p2863
sa(dp2864
g5
S'a5'
p2865
sa(dp2866
g5
S'a6'
p2867
sa(dp2868
g5
S'a7'
p2869
sa(dp2870
g8
S'white_rook'
p2871
sg5
S'a8'
p2872
sa(dp2873
g5
S'b1'
p2874
sa(dp2875
g8
S'white_pawn'
p2876
sg5
S'b2'
p2877
sa(dp2878
g5
S'b3'
p2879
sa(dp2880
g5
S'b4'
p2881
sa(dp2882
g5
S'b5'
p2883
sa(dp2884
g5
S'b6'
p2885
sa(dp2886
g5
S'b7'
p2887
sa(dp2888
g5
S'b8'
p2889
sa(dp2890
g5
S'c1'
p2891
sa(dp2892
g5
S'c2'
p2893
sa(dp2894
g5
S'c3'
p2895
sa(dp2896
g5
S'c4'
p2897
sa(dp2898
g5
S'c5'
p2899
sa(dp2900
g5
S'c6'
p2901
sa(dp2902
g5
S'c7'
p2903
sa(dp2904
g5
S'c8'
p2905
sa(dp2906
g5
S'd1'
p2907
sa(dp2908
g5
S'd2'
p2909
sa(dp2910
g8
S'white_king'
p2911
sg5
S'd3'
p2912
sa(dp2913
g5
S'd4'
p2914
sa(dp2915
g8
S'white_knight'
p2916
sg5
S'd5'
p2917
sa(dp2918
g8
S'black_pawn'
p2919
sg5
S'd6'
p2920
sa(dp2921
g5
S'd7'
p2922
sa(dp2923
g5
S'd8'
p2924
sa(dp2925
g5
S'e1'
p2926
sa(dp2927
g5
S'e2'
p2928
sa(dp2929
g5
S'e3'
p2930
sa(dp2931
g8
S'black_rook'
p2932
sg5
S'e4'
p2933
sa(dp2934
g5
S'e5'
p2935
sa(dp2936
g5
S'e6'
p2937
sa(dp2938
g5
S'e7'
p2939
sa(dp2940
g8
S'black_knight'
p2941
sg5
S'e8'
p2942
sa(dp2943
g5
S'f1'
p2944
sa(dp2945
g5
S'f2'
p2946
sa(dp2947
g5
S'f3'
p2948
sa(dp2949
g8
S'white_pawn'
p2950
sg5
S'f4'
p2951
sa(dp2952
g8
S'black_pawn'
p2953
sg5
S'f5'
p2954
sa(dp2955
g5
S'f6'
p2956
sa(dp2957
g8
S'black_king'
p2958
sg5
S'f7'
p2959
sa(dp2960
g5
S'f8'
p2961
sa(dp2962
g5
S'g1'
p2963
sa(dp2964
g8
S'black_rook'
p2965
sg5
S'g2'
p2966
sa(dp2967
g5
S'g3'
p2968
sa(dp2969
g5
S'g4'
p2970
sa(dp2971
g5
S'g5'
p2972
sa(dp2973
g8
S'black_pawn'
p2974
sg5
S'g6'
p2975
sa(dp2976
g5
S'g7'
p2977
sa(dp2978
g5
S'g8'
p2979
sa(dp2980
g5
S'h1'
p2981
sa(dp2982
g8
S'white_pawn'
p2983
sg5
S'h2'
p2984
sa(dp2985
g5
S'h3'
p2986
sa(dp2987
g5
S'h4'
p2988
sa(dp2989
g5
S'h5'
p2990
sa(dp2991
g8
S'black_pawn'
p2992
sg5
S'h6'
p2993
sa(dp2994
g5
S'h7'
p2995
sa(dp2996
g5
S'h8'
p2997
saaVI am just the exchange and a pawn down. I played it out, but really it is hopeless now. Further comment is unnecessary.
p2998
aa.