(lp0
(lp1
S'11. Rd1'
p2
a(lp3
(dp4
S'piece'
p5
S'white_rook'
p6
sS'location'
p7
S'a1'
p8
sa(dp9
g5
S'white_pawn'
p10
sg7
S'a2'
p11
sa(dp12
g7
S'a3'
p13
sa(dp14
g5
S'white_queen'
p15
sg7
S'a4'
p16
sa(dp17
g7
S'a5'
p18
sa(dp19
g7
S'a6'
p20
sa(dp21
g5
S'black_pawn'
p22
sg7
S'a7'
p23
sa(dp24
g5
S'black_rook'
p25
sg7
S'a8'
p26
sa(dp27
g7
S'b1'
p28
sa(dp29
g5
S'white_pawn'
p30
sg7
S'b2'
p31
sa(dp32
g7
S'b3'
p33
sa(dp34
g7
S'b4'
p35
sa(dp36
g7
S'b5'
p37
sa(dp38
g7
S'b6'
p39
sa(dp40
g5
S'black_pawn'
p41
sg7
S'b7'
p42
sa(dp43
g7
S'b8'
p44
sa(dp45
g5
S'white_bishop'
p46
sg7
S'c1'
p47
sa(dp48
g7
S'c2'
p49
sa(dp50
g5
S'white_knight'
p51
sg7
S'c3'
p52
sa(dp53
g5
S'black_pawn'
p54
sg7
S'c4'
p55
sa(dp56
g5
S'white_pawn'
p57
sg7
S'c5'
p58
sa(dp59
g5
S'black_knight'
p60
sg7
S'c6'
p61
sa(dp62
g7
S'c7'
p63
sa(dp64
g5
S'black_queen'
p65
sg7
S'c8'
p66
sa(dp67
g5
S'white_rook'
p68
sg7
S'd1'
p69
sa(dp70
g7
S'd2'
p71
sa(dp72
g7
S'd3'
p73
sa(dp74
g7
S'd4'
p75
sa(dp76
g7
S'd5'
p77
sa(dp78
g7
S'd6'
p79
sa(dp80
g7
S'd7'
p81
sa(dp82
g7
S'd8'
p83
sa(dp84
g7
S'e1'
p85
sa(dp86
g5
S'white_pawn'
p87
sg7
S'e2'
p88
sa(dp89
g7
S'e3'
p90
sa(dp91
g7
S'e4'
p92
sa(dp93
g7
S'e5'
p94
sa(dp95
g5
S'black_bishop'
p96
sg7
S'e6'
p97
sa(dp98
g5
S'black_pawn'
p99
sg7
S'e7'
p100
sa(dp101
g7
S'e8'
p102
sa(dp103
g7
S'f1'
p104
sa(dp105
g5
S'white_pawn'
p106
sg7
S'f2'
p107
sa(dp108
g7
S'f3'
p109
sa(dp110
g7
S'f4'
p111
sa(dp112
g7
S'f5'
p113
sa(dp114
g5
S'black_knight'
p115
sg7
S'f6'
p116
sa(dp117
g5
S'black_pawn'
p118
sg7
S'f7'
p119
sa(dp120
g5
S'black_rook'
p121
sg7
S'f8'
p122
sa(dp123
g5
S'white_king'
p124
sg7
S'g1'
p125
sa(dp126
g5
S'white_bishop'
p127
sg7
S'g2'
p128
sa(dp129
g5
S'white_pawn'
p130
sg7
S'g3'
p131
sa(dp132
g7
S'g4'
p133
sa(dp134
g5
S'white_knight'
p135
sg7
S'g5'
p136
sa(dp137
g5
S'black_pawn'
p138
sg7
S'g6'
p139
sa(dp140
g5
S'black_bishop'
p141
sg7
S'g7'
p142
sa(dp143
g5
S'black_king'
p144
sg7
S'g8'
p145
sa(dp146
g7
S'h1'
p147
sa(dp148
g5
S'white_pawn'
p149
sg7
S'h2'
p150
sa(dp151
g7
S'h3'
p152
sa(dp153
g7
S'h4'
p154
sa(dp155
g7
S'h5'
p156
sa(dp157
g7
S'h6'
p158
sa(dp159
g5
S'black_pawn'
p160
sg7
S'h7'
p161
sa(dp162
g7
S'h8'
p163
saaVHe takes the open file.
p164
aa(lp165
S'11... Rd8'
p166
a(lp167
(dp168
g5
S'white_rook'
p169
sg7
S'a1'
p170
sa(dp171
g5
S'white_pawn'
p172
sg7
S'a2'
p173
sa(dp174
g7
S'a3'
p175
sa(dp176
g5
S'white_queen'
p177
sg7
S'a4'
p178
sa(dp179
g7
S'a5'
p180
sa(dp181
g7
S'a6'
p182
sa(dp183
g5
S'black_pawn'
p184
sg7
S'a7'
p185
sa(dp186
g5
S'black_rook'
p187
sg7
S'a8'
p188
sa(dp189
g7
S'b1'
p190
sa(dp191
g5
S'white_pawn'
p192
sg7
S'b2'
p193
sa(dp194
g7
S'b3'
p195
sa(dp196
g7
S'b4'
p197
sa(dp198
g7
S'b5'
p199
sa(dp200
g7
S'b6'
p201
sa(dp202
g5
S'black_pawn'
p203
sg7
S'b7'
p204
sa(dp205
g7
S'b8'
p206
sa(dp207
g5
S'white_bishop'
p208
sg7
S'c1'
p209
sa(dp210
g7
S'c2'
p211
sa(dp212
g5
S'white_knight'
p213
sg7
S'c3'
p214
sa(dp215
g5
S'black_pawn'
p216
sg7
S'c4'
p217
sa(dp218
g5
S'white_pawn'
p219
sg7
S'c5'
p220
sa(dp221
g5
S'black_knight'
p222
sg7
S'c6'
p223
sa(dp224
g7
S'c7'
p225
sa(dp226
g5
S'black_queen'
p227
sg7
S'c8'
p228
sa(dp229
g5
S'white_rook'
p230
sg7
S'd1'
p231
sa(dp232
g7
S'd2'
p233
sa(dp234
g7
S'd3'
p235
sa(dp236
g7
S'd4'
p237
sa(dp238
g7
S'd5'
p239
sa(dp240
g7
S'd6'
p241
sa(dp242
g7
S'd7'
p243
sa(dp244
g5
S'black_rook'
p245
sg7
S'd8'
p246
sa(dp247
g7
S'e1'
p248
sa(dp249
g5
S'white_pawn'
p250
sg7
S'e2'
p251
sa(dp252
g7
S'e3'
p253
sa(dp254
g7
S'e4'
p255
sa(dp256
g7
S'e5'
p257
sa(dp258
g5
S'black_bishop'
p259
sg7
S'e6'
p260
sa(dp261
g5
S'black_pawn'
p262
sg7
S'e7'
p263
sa(dp264
g7
S'e8'
p265
sa(dp266
g7
S'f1'
p267
sa(dp268
g5
S'white_pawn'
p269
sg7
S'f2'
p270
sa(dp271
g7
S'f3'
p272
sa(dp273
g7
S'f4'
p274
sa(dp275
g7
S'f5'
p276
sa(dp277
g5
S'black_knight'
p278
sg7
S'f6'
p279
sa(dp280
g5
S'black_pawn'
p281
sg7
S'f7'
p282
sa(dp283
g7
S'f8'
p284
sa(dp285
g5
S'white_king'
p286
sg7
S'g1'
p287
sa(dp288
g5
S'white_bishop'
p289
sg7
S'g2'
p290
sa(dp291
g5
S'white_pawn'
p292
sg7
S'g3'
p293
sa(dp294
g7
S'g4'
p295
sa(dp296
g5
S'white_knight'
p297
sg7
S'g5'
p298
sa(dp299
g5
S'black_pawn'
p300
sg7
S'g6'
p301
sa(dp302
g5
S'black_bishop'
p303
sg7
S'g7'
p304
sa(dp305
g5
S'black_king'
p306
sg7
S'g8'
p307
sa(dp308
g7
S'h1'
p309
sa(dp310
g5
S'white_pawn'
p311
sg7
S'h2'
p312
sa(dp313
g7
S'h3'
p314
sa(dp315
g7
S'h4'
p316
sa(dp317
g7
S'h5'
p318
sa(dp319
g7
S'h6'
p320
sa(dp321
g5
S'black_pawn'
p322
sg7
S'h7'
p323
sa(dp324
g7
S'h8'
p325
saaVI contest it.
p326
aa(lp327
S'12. Rxd8+'
p328
a(lp329
(dp330
g5
S'white_rook'
p331
sg7
S'a1'
p332
sa(dp333
g5
S'white_pawn'
p334
sg7
S'a2'
p335
sa(dp336
g7
S'a3'
p337
sa(dp338
g5
S'white_queen'
p339
sg7
S'a4'
p340
sa(dp341
g7
S'a5'
p342
sa(dp343
g7
S'a6'
p344
sa(dp345
g5
S'black_pawn'
p346
sg7
S'a7'
p347
sa(dp348
g5
S'black_rook'
p349
sg7
S'a8'
p350
sa(dp351
g7
S'b1'
p352
sa(dp353
g5
S'white_pawn'
p354
sg7
S'b2'
p355
sa(dp356
g7
S'b3'
p357
sa(dp358
g7
S'b4'
p359
sa(dp360
g7
S'b5'
p361
sa(dp362
g7
S'b6'
p363
sa(dp364
g5
S'black_pawn'
p365
sg7
S'b7'
p366
sa(dp367
g7
S'b8'
p368
sa(dp369
g5
S'white_bishop'
p370
sg7
S'c1'
p371
sa(dp372
g7
S'c2'
p373
sa(dp374
g5
S'white_knight'
p375
sg7
S'c3'
p376
sa(dp377
g5
S'black_pawn'
p378
sg7
S'c4'
p379
sa(dp380
g5
S'white_pawn'
p381
sg7
S'c5'
p382
sa(dp383
g5
S'black_knight'
p384
sg7
S'c6'
p385
sa(dp386
g7
S'c7'
p387
sa(dp388
g5
S'black_queen'
p389
sg7
S'c8'
p390
sa(dp391
g7
S'd1'
p392
sa(dp393
g7
S'd2'
p394
sa(dp395
g7
S'd3'
p396
sa(dp397
g7
S'd4'
p398
sa(dp399
g7
S'd5'
p400
sa(dp401
g7
S'd6'
p402
sa(dp403
g7
S'd7'
p404
sa(dp405
g5
S'white_rook'
p406
sg7
S'd8'
p407
sa(dp408
g7
S'e1'
p409
sa(dp410
g5
S'white_pawn'
p411
sg7
S'e2'
p412
sa(dp413
g7
S'e3'
p414
sa(dp415
g7
S'e4'
p416
sa(dp417
g7
S'e5'
p418
sa(dp419
g5
S'black_bishop'
p420
sg7
S'e6'
p421
sa(dp422
g5
S'black_pawn'
p423
sg7
S'e7'
p424
sa(dp425
g7
S'e8'
p426
sa(dp427
g7
S'f1'
p428
sa(dp429
g5
S'white_pawn'
p430
sg7
S'f2'
p431
sa(dp432
g7
S'f3'
p433
sa(dp434
g7
S'f4'
p435
sa(dp436
g7
S'f5'
p437
sa(dp438
g5
S'black_knight'
p439
sg7
S'f6'
p440
sa(dp441
g5
S'black_pawn'
p442
sg7
S'f7'
p443
sa(dp444
g7
S'f8'
p445
sa(dp446
g5
S'white_king'
p447
sg7
S'g1'
p448
sa(dp449
g5
S'white_bishop'
p450
sg7
S'g2'
p451
sa(dp452
g5
S'white_pawn'
p453
sg7
S'g3'
p454
sa(dp455
g7
S'g4'
p456
sa(dp457
g5
S'white_knight'
p458
sg7
S'g5'
p459
sa(dp460
g5
S'black_pawn'
p461
sg7
S'g6'
p462
sa(dp463
g5
S'black_bishop'
p464
sg7
S'g7'
p465
sa(dp466
g5
S'black_king'
p467
sg7
S'g8'
p468
sa(dp469
g7
S'h1'
p470
sa(dp471
g5
S'white_pawn'
p472
sg7
S'h2'
p473
sa(dp474
g7
S'h3'
p475
sa(dp476
g7
S'h4'
p477
sa(dp478
g7
S'h5'
p479
sa(dp480
g7
S'h6'
p481
sa(dp482
g5
S'black_pawn'
p483
sg7
S'h7'
p484
sa(dp485
g7
S'h8'
p486
saaVHe takes.
p487
aa(lp488
S'12... Nxd8'
p489
a(lp490
(dp491
g5
S'white_rook'
p492
sg7
S'a1'
p493
sa(dp494
g5
S'white_pawn'
p495
sg7
S'a2'
p496
sa(dp497
g7
S'a3'
p498
sa(dp499
g5
S'white_queen'
p500
sg7
S'a4'
p501
sa(dp502
g7
S'a5'
p503
sa(dp504
g7
S'a6'
p505
sa(dp506
g5
S'black_pawn'
p507
sg7
S'a7'
p508
sa(dp509
g5
S'black_rook'
p510
sg7
S'a8'
p511
sa(dp512
g7
S'b1'
p513
sa(dp514
g5
S'white_pawn'
p515
sg7
S'b2'
p516
sa(dp517
g7
S'b3'
p518
sa(dp519
g7
S'b4'
p520
sa(dp521
g7
S'b5'
p522
sa(dp523
g7
S'b6'
p524
sa(dp525
g5
S'black_pawn'
p526
sg7
S'b7'
p527
sa(dp528
g7
S'b8'
p529
sa(dp530
g5
S'white_bishop'
p531
sg7
S'c1'
p532
sa(dp533
g7
S'c2'
p534
sa(dp535
g5
S'white_knight'
p536
sg7
S'c3'
p537
sa(dp538
g5
S'black_pawn'
p539
sg7
S'c4'
p540
sa(dp541
g5
S'white_pawn'
p542
sg7
S'c5'
p543
sa(dp544
g7
S'c6'
p545
sa(dp546
g7
S'c7'
p547
sa(dp548
g5
S'black_queen'
p549
sg7
S'c8'
p550
sa(dp551
g7
S'd1'
p552
sa(dp553
g7
S'd2'
p554
sa(dp555
g7
S'd3'
p556
sa(dp557
g7
S'd4'
p558
sa(dp559
g7
S'd5'
p560
sa(dp561
g7
S'd6'
p562
sa(dp563
g7
S'd7'
p564
sa(dp565
g5
S'black_knight'
p566
sg7
S'd8'
p567
sa(dp568
g7
S'e1'
p569
sa(dp570
g5
S'white_pawn'
p571
sg7
S'e2'
p572
sa(dp573
g7
S'e3'
p574
sa(dp575
g7
S'e4'
p576
sa(dp577
g7
S'e5'
p578
sa(dp579
g5
S'black_bishop'
p580
sg7
S'e6'
p581
sa(dp582
g5
S'black_pawn'
p583
sg7
S'e7'
p584
sa(dp585
g7
S'e8'
p586
sa(dp587
g7
S'f1'
p588
sa(dp589
g5
S'white_pawn'
p590
sg7
S'f2'
p591
sa(dp592
g7
S'f3'
p593
sa(dp594
g7
S'f4'
p595
sa(dp596
g7
S'f5'
p597
sa(dp598
g5
S'black_knight'
p599
sg7
S'f6'
p600
sa(dp601
g5
S'black_pawn'
p602
sg7
S'f7'
p603
sa(dp604
g7
S'f8'
p605
sa(dp606
g5
S'white_king'
p607
sg7
S'g1'
p608
sa(dp609
g5
S'white_bishop'
p610
sg7
S'g2'
p611
sa(dp612
g5
S'white_pawn'
p613
sg7
S'g3'
p614
sa(dp615
g7
S'g4'
p616
sa(dp617
g5
S'white_knight'
p618
sg7
S'g5'
p619
sa(dp620
g5
S'black_pawn'
p621
sg7
S'g6'
p622
sa(dp623
g5
S'black_bishop'
p624
sg7
S'g7'
p625
sa(dp626
g5
S'black_king'
p627
sg7
S'g8'
p628
sa(dp629
g7
S'h1'
p630
sa(dp631
g5
S'white_pawn'
p632
sg7
S'h2'
p633
sa(dp634
g7
S'h3'
p635
sa(dp636
g7
S'h4'
p637
sa(dp638
g7
S'h5'
p639
sa(dp640
g7
S'h6'
p641
sa(dp642
g5
S'black_pawn'
p643
sg7
S'h7'
p644
sa(dp645
g7
S'h8'
p646
saaVI take back.
p647
aa(lp648
S'13. Be3'
p649
a(lp650
(dp651
g5
S'white_rook'
p652
sg7
S'a1'
p653
sa(dp654
g5
S'white_pawn'
p655
sg7
S'a2'
p656
sa(dp657
g7
S'a3'
p658
sa(dp659
g5
S'white_queen'
p660
sg7
S'a4'
p661
sa(dp662
g7
S'a5'
p663
sa(dp664
g7
S'a6'
p665
sa(dp666
g5
S'black_pawn'
p667
sg7
S'a7'
p668
sa(dp669
g5
S'black_rook'
p670
sg7
S'a8'
p671
sa(dp672
g7
S'b1'
p673
sa(dp674
g5
S'white_pawn'
p675
sg7
S'b2'
p676
sa(dp677
g7
S'b3'
p678
sa(dp679
g7
S'b4'
p680
sa(dp681
g7
S'b5'
p682
sa(dp683
g7
S'b6'
p684
sa(dp685
g5
S'black_pawn'
p686
sg7
S'b7'
p687
sa(dp688
g7
S'b8'
p689
sa(dp690
g7
S'c1'
p691
sa(dp692
g7
S'c2'
p693
sa(dp694
g5
S'white_knight'
p695
sg7
S'c3'
p696
sa(dp697
g5
S'black_pawn'
p698
sg7
S'c4'
p699
sa(dp700
g5
S'white_pawn'
p701
sg7
S'c5'
p702
sa(dp703
g7
S'c6'
p704
sa(dp705
g7
S'c7'
p706
sa(dp707
g5
S'black_queen'
p708
sg7
S'c8'
p709
sa(dp710
g7
S'd1'
p711
sa(dp712
g7
S'd2'
p713
sa(dp714
g7
S'd3'
p715
sa(dp716
g7
S'd4'
p717
sa(dp718
g7
S'd5'
p719
sa(dp720
g7
S'd6'
p721
sa(dp722
g7
S'd7'
p723
sa(dp724
g5
S'black_knight'
p725
sg7
S'd8'
p726
sa(dp727
g7
S'e1'
p728
sa(dp729
g5
S'white_pawn'
p730
sg7
S'e2'
p731
sa(dp732
g5
S'white_bishop'
p733
sg7
S'e3'
p734
sa(dp735
g7
S'e4'
p736
sa(dp737
g7
S'e5'
p738
sa(dp739
g5
S'black_bishop'
p740
sg7
S'e6'
p741
sa(dp742
g5
S'black_pawn'
p743
sg7
S'e7'
p744
sa(dp745
g7
S'e8'
p746
sa(dp747
g7
S'f1'
p748
sa(dp749
g5
S'white_pawn'
p750
sg7
S'f2'
p751
sa(dp752
g7
S'f3'
p753
sa(dp754
g7
S'f4'
p755
sa(dp756
g7
S'f5'
p757
sa(dp758
g5
S'black_knight'
p759
sg7
S'f6'
p760
sa(dp761
g5
S'black_pawn'
p762
sg7
S'f7'
p763
sa(dp764
g7
S'f8'
p765
sa(dp766
g5
S'white_king'
p767
sg7
S'g1'
p768
sa(dp769
g5
S'white_bishop'
p770
sg7
S'g2'
p771
sa(dp772
g5
S'white_pawn'
p773
sg7
S'g3'
p774
sa(dp775
g7
S'g4'
p776
sa(dp777
g5
S'white_knight'
p778
sg7
S'g5'
p779
sa(dp780
g5
S'black_pawn'
p781
sg7
S'g6'
p782
sa(dp783
g5
S'black_bishop'
p784
sg7
S'g7'
p785
sa(dp786
g5
S'black_king'
p787
sg7
S'g8'
p788
sa(dp789
g7
S'h1'
p790
sa(dp791
g5
S'white_pawn'
p792
sg7
S'h2'
p793
sa(dp794
g7
S'h3'
p795
sa(dp796
g7
S'h4'
p797
sa(dp798
g7
S'h5'
p799
sa(dp800
g7
S'h6'
p801
sa(dp802
g5
S'black_pawn'
p803
sg7
S'h7'
p804
sa(dp805
g7
S'h8'
p806
saaVHe develops.
p807
aa(lp808
S'13... Ng4'
p809
a(lp810
(dp811
g5
S'white_rook'
p812
sg7
S'a1'
p813
sa(dp814
g5
S'white_pawn'
p815
sg7
S'a2'
p816
sa(dp817
g7
S'a3'
p818
sa(dp819
g5
S'white_queen'
p820
sg7
S'a4'
p821
sa(dp822
g7
S'a5'
p823
sa(dp824
g7
S'a6'
p825
sa(dp826
g5
S'black_pawn'
p827
sg7
S'a7'
p828
sa(dp829
g5
S'black_rook'
p830
sg7
S'a8'
p831
sa(dp832
g7
S'b1'
p833
sa(dp834
g5
S'white_pawn'
p835
sg7
S'b2'
p836
sa(dp837
g7
S'b3'
p838
sa(dp839
g7
S'b4'
p840
sa(dp841
g7
S'b5'
p842
sa(dp843
g7
S'b6'
p844
sa(dp845
g5
S'black_pawn'
p846
sg7
S'b7'
p847
sa(dp848
g7
S'b8'
p849
sa(dp850
g7
S'c1'
p851
sa(dp852
g7
S'c2'
p853
sa(dp854
g5
S'white_knight'
p855
sg7
S'c3'
p856
sa(dp857
g5
S'black_pawn'
p858
sg7
S'c4'
p859
sa(dp860
g5
S'white_pawn'
p861
sg7
S'c5'
p862
sa(dp863
g7
S'c6'
p864
sa(dp865
g7
S'c7'
p866
sa(dp867
g5
S'black_queen'
p868
sg7
S'c8'
p869
sa(dp870
g7
S'd1'
p871
sa(dp872
g7
S'd2'
p873
sa(dp874
g7
S'd3'
p875
sa(dp876
g7
S'd4'
p877
sa(dp878
g7
S'd5'
p879
sa(dp880
g7
S'd6'
p881
sa(dp882
g7
S'd7'
p883
sa(dp884
g5
S'black_knight'
p885
sg7
S'd8'
p886
sa(dp887
g7
S'e1'
p888
sa(dp889
g5
S'white_pawn'
p890
sg7
S'e2'
p891
sa(dp892
g5
S'white_bishop'
p893
sg7
S'e3'
p894
sa(dp895
g7
S'e4'
p896
sa(dp897
g7
S'e5'
p898
sa(dp899
g5
S'black_bishop'
p900
sg7
S'e6'
p901
sa(dp902
g5
S'black_pawn'
p903
sg7
S'e7'
p904
sa(dp905
g7
S'e8'
p906
sa(dp907
g7
S'f1'
p908
sa(dp909
g5
S'white_pawn'
p910
sg7
S'f2'
p911
sa(dp912
g7
S'f3'
p913
sa(dp914
g7
S'f4'
p915
sa(dp916
g7
S'f5'
p917
sa(dp918
g7
S'f6'
p919
sa(dp920
g5
S'black_pawn'
p921
sg7
S'f7'
p922
sa(dp923
g7
S'f8'
p924
sa(dp925
g5
S'white_king'
p926
sg7
S'g1'
p927
sa(dp928
g5
S'white_bishop'
p929
sg7
S'g2'
p930
sa(dp931
g5
S'white_pawn'
p932
sg7
S'g3'
p933
sa(dp934
g5
S'black_knight'
p935
sg7
S'g4'
p936
sa(dp937
g5
S'white_knight'
p938
sg7
S'g5'
p939
sa(dp940
g5
S'black_pawn'
p941
sg7
S'g6'
p942
sa(dp943
g5
S'black_bishop'
p944
sg7
S'g7'
p945
sa(dp946
g5
S'black_king'
p947
sg7
S'g8'
p948
sa(dp949
g7
S'h1'
p950
sa(dp951
g5
S'white_pawn'
p952
sg7
S'h2'
p953
sa(dp954
g7
S'h3'
p955
sa(dp956
g7
S'h4'
p957
sa(dp958
g7
S'h5'
p959
sa(dp960
g7
S'h6'
p961
sa(dp962
g5
S'black_pawn'
p963
sg7
S'h7'
p964
sa(dp965
g7
S'h8'
p966
saaVI attack his rook, and drawn on my suggestion. As we were already 3-0 down in a five board match, my opponent agreed. After the game we found that white actually has a combination here, which wins a pawn - 14. Qe8+ Bf8 15. Nxh7! Many thanks for reading, please rate this on the star system, and leave a comment or two to let me know who is reading my annotations! Until next time dear reader!
p967
aa.