(lp0
(lp1
S'11. Ng3'
p2
a(lp3
(dp4
S'piece'
p5
S'white_rook'
p6
sS'location'
p7
S'a1'
p8
sa(dp9
g5
S'white_pawn'
p10
sg7
S'a2'
p11
sa(dp12
g7
S'a3'
p13
sa(dp14
g7
S'a4'
p15
sa(dp16
g7
S'a5'
p17
sa(dp18
g5
S'black_knight'
p19
sg7
S'a6'
p20
sa(dp21
g5
S'black_pawn'
p22
sg7
S'a7'
p23
sa(dp24
g5
S'black_rook'
p25
sg7
S'a8'
p26
sa(dp27
g7
S'b1'
p28
sa(dp29
g5
S'white_pawn'
p30
sg7
S'b2'
p31
sa(dp32
g7
S'b3'
p33
sa(dp34
g7
S'b4'
p35
sa(dp36
g7
S'b5'
p37
sa(dp38
g7
S'b6'
p39
sa(dp40
g7
S'b7'
p41
sa(dp42
g7
S'b8'
p43
sa(dp44
g5
S'white_bishop'
p45
sg7
S'c1'
p46
sa(dp47
g7
S'c2'
p48
sa(dp49
g5
S'white_knight'
p50
sg7
S'c3'
p51
sa(dp52
g5
S'white_bishop'
p53
sg7
S'c4'
p54
sa(dp55
g5
S'black_pawn'
p56
sg7
S'c5'
p57
sa(dp58
g7
S'c6'
p59
sa(dp60
g7
S'c7'
p61
sa(dp62
g5
S'black_bishop'
p63
sg7
S'c8'
p64
sa(dp65
g5
S'white_queen'
p66
sg7
S'd1'
p67
sa(dp68
g7
S'd2'
p69
sa(dp70
g7
S'd3'
p71
sa(dp72
g7
S'd4'
p73
sa(dp74
g5
S'white_pawn'
p75
sg7
S'd5'
p76
sa(dp77
g5
S'black_pawn'
p78
sg7
S'd6'
p79
sa(dp80
g7
S'd7'
p81
sa(dp82
g5
S'black_queen'
p83
sg7
S'd8'
p84
sa(dp85
g7
S'e1'
p86
sa(dp87
g7
S'e2'
p88
sa(dp89
g7
S'e3'
p90
sa(dp91
g7
S'e4'
p92
sa(dp93
g7
S'e5'
p94
sa(dp95
g7
S'e6'
p96
sa(dp97
g5
S'black_bishop'
p98
sg7
S'e7'
p99
sa(dp100
g7
S'e8'
p101
sa(dp102
g5
S'white_rook'
p103
sg7
S'f1'
p104
sa(dp105
g7
S'f2'
p106
sa(dp107
g5
S'white_pawn'
p108
sg7
S'f3'
p109
sa(dp110
g7
S'f4'
p111
sa(dp112
g7
S'f5'
p113
sa(dp114
g5
S'black_knight'
p115
sg7
S'f6'
p116
sa(dp117
g5
S'black_pawn'
p118
sg7
S'f7'
p119
sa(dp120
g5
S'black_rook'
p121
sg7
S'f8'
p122
sa(dp123
g5
S'white_king'
p124
sg7
S'g1'
p125
sa(dp126
g5
S'white_pawn'
p127
sg7
S'g2'
p128
sa(dp129
g5
S'white_knight'
p130
sg7
S'g3'
p131
sa(dp132
g7
S'g4'
p133
sa(dp134
g7
S'g5'
p135
sa(dp136
g7
S'g6'
p137
sa(dp138
g5
S'black_pawn'
p139
sg7
S'g7'
p140
sa(dp141
g5
S'black_king'
p142
sg7
S'g8'
p143
sa(dp144
g7
S'h1'
p145
sa(dp146
g5
S'white_pawn'
p147
sg7
S'h2'
p148
sa(dp149
g7
S'h3'
p150
sa(dp151
g7
S'h4'
p152
sa(dp153
g7
S'h5'
p154
sa(dp155
g7
S'h6'
p156
sa(dp157
g5
S'black_pawn'
p158
sg7
S'h7'
p159
sa(dp160
g7
S'h8'
p161
saaVThe natural square for the knight. I can also gang up on his d pawn with a knight to e4 and bishop to f4. On this square I am also restricting the development of his Bc8. I think white is doing OK here.
p162
aa(lp163
S'11... Nc7'
p164
a(lp165
(dp166
g5
S'white_rook'
p167
sg7
S'a1'
p168
sa(dp169
g5
S'white_pawn'
p170
sg7
S'a2'
p171
sa(dp172
g7
S'a3'
p173
sa(dp174
g7
S'a4'
p175
sa(dp176
g7
S'a5'
p177
sa(dp178
g7
S'a6'
p179
sa(dp180
g5
S'black_pawn'
p181
sg7
S'a7'
p182
sa(dp183
g5
S'black_rook'
p184
sg7
S'a8'
p185
sa(dp186
g7
S'b1'
p187
sa(dp188
g5
S'white_pawn'
p189
sg7
S'b2'
p190
sa(dp191
g7
S'b3'
p192
sa(dp193
g7
S'b4'
p194
sa(dp195
g7
S'b5'
p196
sa(dp197
g7
S'b6'
p198
sa(dp199
g7
S'b7'
p200
sa(dp201
g7
S'b8'
p202
sa(dp203
g5
S'white_bishop'
p204
sg7
S'c1'
p205
sa(dp206
g7
S'c2'
p207
sa(dp208
g5
S'white_knight'
p209
sg7
S'c3'
p210
sa(dp211
g5
S'white_bishop'
p212
sg7
S'c4'
p213
sa(dp214
g5
S'black_pawn'
p215
sg7
S'c5'
p216
sa(dp217
g7
S'c6'
p218
sa(dp219
g5
S'black_knight'
p220
sg7
S'c7'
p221
sa(dp222
g5
S'black_bishop'
p223
sg7
S'c8'
p224
sa(dp225
g5
S'white_queen'
p226
sg7
S'd1'
p227
sa(dp228
g7
S'd2'
p229
sa(dp230
g7
S'd3'
p231
sa(dp232
g7
S'd4'
p233
sa(dp234
g5
S'white_pawn'
p235
sg7
S'd5'
p236
sa(dp237
g5
S'black_pawn'
p238
sg7
S'd6'
p239
sa(dp240
g7
S'd7'
p241
sa(dp242
g5
S'black_queen'
p243
sg7
S'd8'
p244
sa(dp245
g7
S'e1'
p246
sa(dp247
g7
S'e2'
p248
sa(dp249
g7
S'e3'
p250
sa(dp251
g7
S'e4'
p252
sa(dp253
g7
S'e5'
p254
sa(dp255
g7
S'e6'
p256
sa(dp257
g5
S'black_bishop'
p258
sg7
S'e7'
p259
sa(dp260
g7
S'e8'
p261
sa(dp262
g5
S'white_rook'
p263
sg7
S'f1'
p264
sa(dp265
g7
S'f2'
p266
sa(dp267
g5
S'white_pawn'
p268
sg7
S'f3'
p269
sa(dp270
g7
S'f4'
p271
sa(dp272
g7
S'f5'
p273
sa(dp274
g5
S'black_knight'
p275
sg7
S'f6'
p276
sa(dp277
g5
S'black_pawn'
p278
sg7
S'f7'
p279
sa(dp280
g5
S'black_rook'
p281
sg7
S'f8'
p282
sa(dp283
g5
S'white_king'
p284
sg7
S'g1'
p285
sa(dp286
g5
S'white_pawn'
p287
sg7
S'g2'
p288
sa(dp289
g5
S'white_knight'
p290
sg7
S'g3'
p291
sa(dp292
g7
S'g4'
p293
sa(dp294
g7
S'g5'
p295
sa(dp296
g7
S'g6'
p297
sa(dp298
g5
S'black_pawn'
p299
sg7
S'g7'
p300
sa(dp301
g5
S'black_king'
p302
sg7
S'g8'
p303
sa(dp304
g7
S'h1'
p305
sa(dp306
g5
S'white_pawn'
p307
sg7
S'h2'
p308
sa(dp309
g7
S'h3'
p310
sa(dp311
g7
S'h4'
p312
sa(dp313
g7
S'h5'
p314
sa(dp315
g7
S'h6'
p316
sa(dp317
g5
S'black_pawn'
p318
sg7
S'h7'
p319
sa(dp320
g7
S'h8'
p321
saaVContinuing with his plan.
p322
aa(lp323
S'12. Re1'
p324
a(lp325
(dp326
g5
S'white_rook'
p327
sg7
S'a1'
p328
sa(dp329
g5
S'white_pawn'
p330
sg7
S'a2'
p331
sa(dp332
g7
S'a3'
p333
sa(dp334
g7
S'a4'
p335
sa(dp336
g7
S'a5'
p337
sa(dp338
g7
S'a6'
p339
sa(dp340
g5
S'black_pawn'
p341
sg7
S'a7'
p342
sa(dp343
g5
S'black_rook'
p344
sg7
S'a8'
p345
sa(dp346
g7
S'b1'
p347
sa(dp348
g5
S'white_pawn'
p349
sg7
S'b2'
p350
sa(dp351
g7
S'b3'
p352
sa(dp353
g7
S'b4'
p354
sa(dp355
g7
S'b5'
p356
sa(dp357
g7
S'b6'
p358
sa(dp359
g7
S'b7'
p360
sa(dp361
g7
S'b8'
p362
sa(dp363
g5
S'white_bishop'
p364
sg7
S'c1'
p365
sa(dp366
g7
S'c2'
p367
sa(dp368
g5
S'white_knight'
p369
sg7
S'c3'
p370
sa(dp371
g5
S'white_bishop'
p372
sg7
S'c4'
p373
sa(dp374
g5
S'black_pawn'
p375
sg7
S'c5'
p376
sa(dp377
g7
S'c6'
p378
sa(dp379
g5
S'black_knight'
p380
sg7
S'c7'
p381
sa(dp382
g5
S'black_bishop'
p383
sg7
S'c8'
p384
sa(dp385
g5
S'white_queen'
p386
sg7
S'd1'
p387
sa(dp388
g7
S'd2'
p389
sa(dp390
g7
S'd3'
p391
sa(dp392
g7
S'd4'
p393
sa(dp394
g5
S'white_pawn'
p395
sg7
S'd5'
p396
sa(dp397
g5
S'black_pawn'
p398
sg7
S'd6'
p399
sa(dp400
g7
S'd7'
p401
sa(dp402
g5
S'black_queen'
p403
sg7
S'd8'
p404
sa(dp405
g5
S'white_rook'
p406
sg7
S'e1'
p407
sa(dp408
g7
S'e2'
p409
sa(dp410
g7
S'e3'
p411
sa(dp412
g7
S'e4'
p413
sa(dp414
g7
S'e5'
p415
sa(dp416
g7
S'e6'
p417
sa(dp418
g5
S'black_bishop'
p419
sg7
S'e7'
p420
sa(dp421
g7
S'e8'
p422
sa(dp423
g7
S'f1'
p424
sa(dp425
g7
S'f2'
p426
sa(dp427
g5
S'white_pawn'
p428
sg7
S'f3'
p429
sa(dp430
g7
S'f4'
p431
sa(dp432
g7
S'f5'
p433
sa(dp434
g5
S'black_knight'
p435
sg7
S'f6'
p436
sa(dp437
g5
S'black_pawn'
p438
sg7
S'f7'
p439
sa(dp440
g5
S'black_rook'
p441
sg7
S'f8'
p442
sa(dp443
g5
S'white_king'
p444
sg7
S'g1'
p445
sa(dp446
g5
S'white_pawn'
p447
sg7
S'g2'
p448
sa(dp449
g5
S'white_knight'
p450
sg7
S'g3'
p451
sa(dp452
g7
S'g4'
p453
sa(dp454
g7
S'g5'
p455
sa(dp456
g7
S'g6'
p457
sa(dp458
g5
S'black_pawn'
p459
sg7
S'g7'
p460
sa(dp461
g5
S'black_king'
p462
sg7
S'g8'
p463
sa(dp464
g7
S'h1'
p465
sa(dp466
g5
S'white_pawn'
p467
sg7
S'h2'
p468
sa(dp469
g7
S'h3'
p470
sa(dp471
g7
S'h4'
p472
sa(dp473
g7
S'h5'
p474
sa(dp475
g7
S'h6'
p476
sa(dp477
g5
S'black_pawn'
p478
sg7
S'h7'
p479
sa(dp480
g7
S'h8'
p481
saaVAgain, the natural place to put the rook.
p482
aa(lp483
S'12... a6'
p484
a(lp485
(dp486
g5
S'white_rook'
p487
sg7
S'a1'
p488
sa(dp489
g5
S'white_pawn'
p490
sg7
S'a2'
p491
sa(dp492
g7
S'a3'
p493
sa(dp494
g7
S'a4'
p495
sa(dp496
g7
S'a5'
p497
sa(dp498
g5
S'black_pawn'
p499
sg7
S'a6'
p500
sa(dp501
g7
S'a7'
p502
sa(dp503
g5
S'black_rook'
p504
sg7
S'a8'
p505
sa(dp506
g7
S'b1'
p507
sa(dp508
g5
S'white_pawn'
p509
sg7
S'b2'
p510
sa(dp511
g7
S'b3'
p512
sa(dp513
g7
S'b4'
p514
sa(dp515
g7
S'b5'
p516
sa(dp517
g7
S'b6'
p518
sa(dp519
g7
S'b7'
p520
sa(dp521
g7
S'b8'
p522
sa(dp523
g5
S'white_bishop'
p524
sg7
S'c1'
p525
sa(dp526
g7
S'c2'
p527
sa(dp528
g5
S'white_knight'
p529
sg7
S'c3'
p530
sa(dp531
g5
S'white_bishop'
p532
sg7
S'c4'
p533
sa(dp534
g5
S'black_pawn'
p535
sg7
S'c5'
p536
sa(dp537
g7
S'c6'
p538
sa(dp539
g5
S'black_knight'
p540
sg7
S'c7'
p541
sa(dp542
g5
S'black_bishop'
p543
sg7
S'c8'
p544
sa(dp545
g5
S'white_queen'
p546
sg7
S'd1'
p547
sa(dp548
g7
S'd2'
p549
sa(dp550
g7
S'd3'
p551
sa(dp552
g7
S'd4'
p553
sa(dp554
g5
S'white_pawn'
p555
sg7
S'd5'
p556
sa(dp557
g5
S'black_pawn'
p558
sg7
S'd6'
p559
sa(dp560
g7
S'd7'
p561
sa(dp562
g5
S'black_queen'
p563
sg7
S'd8'
p564
sa(dp565
g5
S'white_rook'
p566
sg7
S'e1'
p567
sa(dp568
g7
S'e2'
p569
sa(dp570
g7
S'e3'
p571
sa(dp572
g7
S'e4'
p573
sa(dp574
g7
S'e5'
p575
sa(dp576
g7
S'e6'
p577
sa(dp578
g5
S'black_bishop'
p579
sg7
S'e7'
p580
sa(dp581
g7
S'e8'
p582
sa(dp583
g7
S'f1'
p584
sa(dp585
g7
S'f2'
p586
sa(dp587
g5
S'white_pawn'
p588
sg7
S'f3'
p589
sa(dp590
g7
S'f4'
p591
sa(dp592
g7
S'f5'
p593
sa(dp594
g5
S'black_knight'
p595
sg7
S'f6'
p596
sa(dp597
g5
S'black_pawn'
p598
sg7
S'f7'
p599
sa(dp600
g5
S'black_rook'
p601
sg7
S'f8'
p602
sa(dp603
g5
S'white_king'
p604
sg7
S'g1'
p605
sa(dp606
g5
S'white_pawn'
p607
sg7
S'g2'
p608
sa(dp609
g5
S'white_knight'
p610
sg7
S'g3'
p611
sa(dp612
g7
S'g4'
p613
sa(dp614
g7
S'g5'
p615
sa(dp616
g7
S'g6'
p617
sa(dp618
g5
S'black_pawn'
p619
sg7
S'g7'
p620
sa(dp621
g5
S'black_king'
p622
sg7
S'g8'
p623
sa(dp624
g7
S'h1'
p625
sa(dp626
g5
S'white_pawn'
p627
sg7
S'h2'
p628
sa(dp629
g7
S'h3'
p630
sa(dp631
g7
S'h4'
p632
sa(dp633
g7
S'h5'
p634
sa(dp635
g7
S'h6'
p636
sa(dp637
g5
S'black_pawn'
p638
sg7
S'h7'
p639
sa(dp640
g7
S'h8'
p641
saaVPresumably to prevent my knight from going to b5 and maybe preparing to put his knight on b5 in some variations.
p642
aa(lp643
S'13. Qd3'
p644
a(lp645
(dp646
g5
S'white_rook'
p647
sg7
S'a1'
p648
sa(dp649
g5
S'white_pawn'
p650
sg7
S'a2'
p651
sa(dp652
g7
S'a3'
p653
sa(dp654
g7
S'a4'
p655
sa(dp656
g7
S'a5'
p657
sa(dp658
g5
S'black_pawn'
p659
sg7
S'a6'
p660
sa(dp661
g7
S'a7'
p662
sa(dp663
g5
S'black_rook'
p664
sg7
S'a8'
p665
sa(dp666
g7
S'b1'
p667
sa(dp668
g5
S'white_pawn'
p669
sg7
S'b2'
p670
sa(dp671
g7
S'b3'
p672
sa(dp673
g7
S'b4'
p674
sa(dp675
g7
S'b5'
p676
sa(dp677
g7
S'b6'
p678
sa(dp679
g7
S'b7'
p680
sa(dp681
g7
S'b8'
p682
sa(dp683
g5
S'white_bishop'
p684
sg7
S'c1'
p685
sa(dp686
g7
S'c2'
p687
sa(dp688
g5
S'white_knight'
p689
sg7
S'c3'
p690
sa(dp691
g5
S'white_bishop'
p692
sg7
S'c4'
p693
sa(dp694
g5
S'black_pawn'
p695
sg7
S'c5'
p696
sa(dp697
g7
S'c6'
p698
sa(dp699
g5
S'black_knight'
p700
sg7
S'c7'
p701
sa(dp702
g5
S'black_bishop'
p703
sg7
S'c8'
p704
sa(dp705
g7
S'd1'
p706
sa(dp707
g7
S'd2'
p708
sa(dp709
g5
S'white_queen'
p710
sg7
S'd3'
p711
sa(dp712
g7
S'd4'
p713
sa(dp714
g5
S'white_pawn'
p715
sg7
S'd5'
p716
sa(dp717
g5
S'black_pawn'
p718
sg7
S'd6'
p719
sa(dp720
g7
S'd7'
p721
sa(dp722
g5
S'black_queen'
p723
sg7
S'd8'
p724
sa(dp725
g5
S'white_rook'
p726
sg7
S'e1'
p727
sa(dp728
g7
S'e2'
p729
sa(dp730
g7
S'e3'
p731
sa(dp732
g7
S'e4'
p733
sa(dp734
g7
S'e5'
p735
sa(dp736
g7
S'e6'
p737
sa(dp738
g5
S'black_bishop'
p739
sg7
S'e7'
p740
sa(dp741
g7
S'e8'
p742
sa(dp743
g7
S'f1'
p744
sa(dp745
g7
S'f2'
p746
sa(dp747
g5
S'white_pawn'
p748
sg7
S'f3'
p749
sa(dp750
g7
S'f4'
p751
sa(dp752
g7
S'f5'
p753
sa(dp754
g5
S'black_knight'
p755
sg7
S'f6'
p756
sa(dp757
g5
S'black_pawn'
p758
sg7
S'f7'
p759
sa(dp760
g5
S'black_rook'
p761
sg7
S'f8'
p762
sa(dp763
g5
S'white_king'
p764
sg7
S'g1'
p765
sa(dp766
g5
S'white_pawn'
p767
sg7
S'g2'
p768
sa(dp769
g5
S'white_knight'
p770
sg7
S'g3'
p771
sa(dp772
g7
S'g4'
p773
sa(dp774
g7
S'g5'
p775
sa(dp776
g7
S'g6'
p777
sa(dp778
g5
S'black_pawn'
p779
sg7
S'g7'
p780
sa(dp781
g5
S'black_king'
p782
sg7
S'g8'
p783
sa(dp784
g7
S'h1'
p785
sa(dp786
g5
S'white_pawn'
p787
sg7
S'h2'
p788
sa(dp789
g7
S'h3'
p790
sa(dp791
g7
S'h4'
p792
sa(dp793
g7
S'h5'
p794
sa(dp795
g7
S'h6'
p796
sa(dp797
g5
S'black_pawn'
p798
sg7
S'h7'
p799
sa(dp800
g7
S'h8'
p801
saaVThreat - Nf5.
p802
aa(lp803
S'13... g6'
p804
a(lp805
(dp806
g5
S'white_rook'
p807
sg7
S'a1'
p808
sa(dp809
g5
S'white_pawn'
p810
sg7
S'a2'
p811
sa(dp812
g7
S'a3'
p813
sa(dp814
g7
S'a4'
p815
sa(dp816
g7
S'a5'
p817
sa(dp818
g5
S'black_pawn'
p819
sg7
S'a6'
p820
sa(dp821
g7
S'a7'
p822
sa(dp823
g5
S'black_rook'
p824
sg7
S'a8'
p825
sa(dp826
g7
S'b1'
p827
sa(dp828
g5
S'white_pawn'
p829
sg7
S'b2'
p830
sa(dp831
g7
S'b3'
p832
sa(dp833
g7
S'b4'
p834
sa(dp835
g7
S'b5'
p836
sa(dp837
g7
S'b6'
p838
sa(dp839
g7
S'b7'
p840
sa(dp841
g7
S'b8'
p842
sa(dp843
g5
S'white_bishop'
p844
sg7
S'c1'
p845
sa(dp846
g7
S'c2'
p847
sa(dp848
g5
S'white_knight'
p849
sg7
S'c3'
p850
sa(dp851
g5
S'white_bishop'
p852
sg7
S'c4'
p853
sa(dp854
g5
S'black_pawn'
p855
sg7
S'c5'
p856
sa(dp857
g7
S'c6'
p858
sa(dp859
g5
S'black_knight'
p860
sg7
S'c7'
p861
sa(dp862
g5
S'black_bishop'
p863
sg7
S'c8'
p864
sa(dp865
g7
S'd1'
p866
sa(dp867
g7
S'd2'
p868
sa(dp869
g5
S'white_queen'
p870
sg7
S'd3'
p871
sa(dp872
g7
S'd4'
p873
sa(dp874
g5
S'white_pawn'
p875
sg7
S'd5'
p876
sa(dp877
g5
S'black_pawn'
p878
sg7
S'd6'
p879
sa(dp880
g7
S'd7'
p881
sa(dp882
g5
S'black_queen'
p883
sg7
S'd8'
p884
sa(dp885
g5
S'white_rook'
p886
sg7
S'e1'
p887
sa(dp888
g7
S'e2'
p889
sa(dp890
g7
S'e3'
p891
sa(dp892
g7
S'e4'
p893
sa(dp894
g7
S'e5'
p895
sa(dp896
g7
S'e6'
p897
sa(dp898
g5
S'black_bishop'
p899
sg7
S'e7'
p900
sa(dp901
g7
S'e8'
p902
sa(dp903
g7
S'f1'
p904
sa(dp905
g7
S'f2'
p906
sa(dp907
g5
S'white_pawn'
p908
sg7
S'f3'
p909
sa(dp910
g7
S'f4'
p911
sa(dp912
g7
S'f5'
p913
sa(dp914
g5
S'black_knight'
p915
sg7
S'f6'
p916
sa(dp917
g5
S'black_pawn'
p918
sg7
S'f7'
p919
sa(dp920
g5
S'black_rook'
p921
sg7
S'f8'
p922
sa(dp923
g5
S'white_king'
p924
sg7
S'g1'
p925
sa(dp926
g5
S'white_pawn'
p927
sg7
S'g2'
p928
sa(dp929
g5
S'white_knight'
p930
sg7
S'g3'
p931
sa(dp932
g7
S'g4'
p933
sa(dp934
g7
S'g5'
p935
sa(dp936
g5
S'black_pawn'
p937
sg7
S'g6'
p938
sa(dp939
g7
S'g7'
p940
sa(dp941
g5
S'black_king'
p942
sg7
S'g8'
p943
sa(dp944
g7
S'h1'
p945
sa(dp946
g5
S'white_pawn'
p947
sg7
S'h2'
p948
sa(dp949
g7
S'h3'
p950
sa(dp951
g7
S'h4'
p952
sa(dp953
g7
S'h5'
p954
sa(dp955
g7
S'h6'
p956
sa(dp957
g5
S'black_pawn'
p958
sg7
S'h7'
p959
sa(dp960
g7
S'h8'
p961
saaVA somewhat drastic way of preventing Nf5. Black weakens his dark squares significantly. I should just play Bh6 here and double rooks on the e file and white is doing fine, or maybe Bg5, but....
p962
aa(lp963
S'14. Rxe7'
p964
a(lp965
(dp966
g5
S'white_rook'
p967
sg7
S'a1'
p968
sa(dp969
g5
S'white_pawn'
p970
sg7
S'a2'
p971
sa(dp972
g7
S'a3'
p973
sa(dp974
g7
S'a4'
p975
sa(dp976
g7
S'a5'
p977
sa(dp978
g5
S'black_pawn'
p979
sg7
S'a6'
p980
sa(dp981
g7
S'a7'
p982
sa(dp983
g5
S'black_rook'
p984
sg7
S'a8'
p985
sa(dp986
g7
S'b1'
p987
sa(dp988
g5
S'white_pawn'
p989
sg7
S'b2'
p990
sa(dp991
g7
S'b3'
p992
sa(dp993
g7
S'b4'
p994
sa(dp995
g7
S'b5'
p996
sa(dp997
g7
S'b6'
p998
sa(dp999
g7
S'b7'
p1000
sa(dp1001
g7
S'b8'
p1002
sa(dp1003
g5
S'white_bishop'
p1004
sg7
S'c1'
p1005
sa(dp1006
g7
S'c2'
p1007
sa(dp1008
g5
S'white_knight'
p1009
sg7
S'c3'
p1010
sa(dp1011
g5
S'white_bishop'
p1012
sg7
S'c4'
p1013
sa(dp1014
g5
S'black_pawn'
p1015
sg7
S'c5'
p1016
sa(dp1017
g7
S'c6'
p1018
sa(dp1019
g5
S'black_knight'
p1020
sg7
S'c7'
p1021
sa(dp1022
g5
S'black_bishop'
p1023
sg7
S'c8'
p1024
sa(dp1025
g7
S'd1'
p1026
sa(dp1027
g7
S'd2'
p1028
sa(dp1029
g5
S'white_queen'
p1030
sg7
S'd3'
p1031
sa(dp1032
g7
S'd4'
p1033
sa(dp1034
g5
S'white_pawn'
p1035
sg7
S'd5'
p1036
sa(dp1037
g5
S'black_pawn'
p1038
sg7
S'd6'
p1039
sa(dp1040
g7
S'd7'
p1041
sa(dp1042
g5
S'black_queen'
p1043
sg7
S'd8'
p1044
sa(dp1045
g7
S'e1'
p1046
sa(dp1047
g7
S'e2'
p1048
sa(dp1049
g7
S'e3'
p1050
sa(dp1051
g7
S'e4'
p1052
sa(dp1053
g7
S'e5'
p1054
sa(dp1055
g7
S'e6'
p1056
sa(dp1057
g5
S'white_rook'
p1058
sg7
S'e7'
p1059
sa(dp1060
g7
S'e8'
p1061
sa(dp1062
g7
S'f1'
p1063
sa(dp1064
g7
S'f2'
p1065
sa(dp1066
g5
S'white_pawn'
p1067
sg7
S'f3'
p1068
sa(dp1069
g7
S'f4'
p1070
sa(dp1071
g7
S'f5'
p1072
sa(dp1073
g5
S'black_knight'
p1074
sg7
S'f6'
p1075
sa(dp1076
g5
S'black_pawn'
p1077
sg7
S'f7'
p1078
sa(dp1079
g5
S'black_rook'
p1080
sg7
S'f8'
p1081
sa(dp1082
g5
S'white_king'
p1083
sg7
S'g1'
p1084
sa(dp1085
g5
S'white_pawn'
p1086
sg7
S'g2'
p1087
sa(dp1088
g5
S'white_knight'
p1089
sg7
S'g3'
p1090
sa(dp1091
g7
S'g4'
p1092
sa(dp1093
g7
S'g5'
p1094
sa(dp1095
g5
S'black_pawn'
p1096
sg7
S'g6'
p1097
sa(dp1098
g7
S'g7'
p1099
sa(dp1100
g5
S'black_king'
p1101
sg7
S'g8'
p1102
sa(dp1103
g7
S'h1'
p1104
sa(dp1105
g5
S'white_pawn'
p1106
sg7
S'h2'
p1107
sa(dp1108
g7
S'h3'
p1109
sa(dp1110
g7
S'h4'
p1111
sa(dp1112
g7
S'h5'
p1113
sa(dp1114
g7
S'h6'
p1115
sa(dp1116
g5
S'black_pawn'
p1117
sg7
S'h7'
p1118
sa(dp1119
g7
S'h8'
p1120
saaVI thought I was winning back enough material.
p1121
aa(lp1122
S'8765432'
p1123
a(lp1124
(dp1125
g7
S'a1'
p1126
sa(dp1127
g5
S'white_pawn'
p1128
sg7
S'a2'
p1129
sa(dp1130
g7
S'a3'
p1131
sa(dp1132
g7
S'a4'
p1133
sa(dp1134
g7
S'a5'
p1135
sa(dp1136
g5
S'black_pawn'
p1137
sg7
S'a6'
p1138
sa(dp1139
g7
S'a7'
p1140
sa(dp1141
g5
S'black_knight'
p1142
sg7
S'a8'
p1143
sa(dp1144
g7
S'b1'
p1145
sa(dp1146
g5
S'white_pawn'
p1147
sg7
S'b2'
p1148
sa(dp1149
g7
S'b3'
p1150
sa(dp1151
g7
S'b4'
p1152
sa(dp1153
g7
S'b5'
p1154
sa(dp1155
g7
S'b6'
p1156
sa(dp1157
g7
S'b7'
p1158
sa(dp1159
g7
S'b8'
p1160
sa(dp1161
g7
S'c1'
p1162
sa(dp1163
g7
S'c2'
p1164
sa(dp1165
g5
S'white_knight'
p1166
sg7
S'c3'
p1167
sa(dp1168
g7
S'c4'
p1169
sa(dp1170
g5
S'black_pawn'
p1171
sg7
S'c5'
p1172
sa(dp1173
g7
S'c6'
p1174
sa(dp1175
g7
S'c7'
p1176
sa(dp1177
g5
S'black_bishop'
p1178
sg7
S'c8'
p1179
sa(dp1180
g5
S'white_rook'
p1181
sg7
S'd1'
p1182
sa(dp1183
g7
S'd2'
p1184
sa(dp1185
g5
S'white_queen'
p1186
sg7
S'd3'
p1187
sa(dp1188
g7
S'd4'
p1189
sa(dp1190
g7
S'd5'
p1191
sa(dp1192
g5
S'black_pawn'
p1193
sg7
S'd6'
p1194
sa(dp1195
g7
S'd7'
p1196
sa(dp1197
g5
S'black_queen'
p1198
sg7
S'd8'
p1199
sa(dp1200
g5
S'white_rook'
p1201
sg7
S'e1'
p1202
sa(dp1203
g7
S'e2'
p1204
sa(dp1205
g7
S'e3'
p1206
sa(dp1207
g7
S'e4'
p1208
sa(dp1209
g7
S'e5'
p1210
sa(dp1211
g7
S'e6'
p1212
sa(dp1213
g7
S'e7'
p1214
sa(dp1215
g7
S'e8'
p1216
sa(dp1217
g7
S'f1'
p1218
sa(dp1219
g7
S'f2'
p1220
sa(dp1221
g5
S'white_pawn'
p1222
sg7
S'f3'
p1223
sa(dp1224
g7
S'f4'
p1225
sa(dp1226
g7
S'f5'
p1227
sa(dp1228
g7
S'f6'
p1229
sa(dp1230
g5
S'black_pawn'
p1231
sg7
S'f7'
p1232
sa(dp1233
g5
S'black_rook'
p1234
sg7
S'f8'
p1235
sa(dp1236
g5
S'white_king'
p1237
sg7
S'g1'
p1238
sa(dp1239
g5
S'white_pawn'
p1240
sg7
S'g2'
p1241
sa(dp1242
g5
S'white_knight'
p1243
sg7
S'g3'
p1244
sa(dp1245
g7
S'g4'
p1246
sa(dp1247
g5
S'black_bishop'
p1248
sg7
S'g5'
p1249
sa(dp1250
g5
S'black_pawn'
p1251
sg7
S'g6'
p1252
sa(dp1253
g7
S'g7'
p1254
sa(dp1255
g5
S'black_king'
p1256
sg7
S'g8'
p1257
sa(dp1258
g7
S'h1'
p1259
sa(dp1260
g5
S'white_pawn'
p1261
sg7
S'h2'
p1262
sa(dp1263
g7
S'h3'
p1264
sa(dp1265
g7
S'h4'
p1266
sa(dp1267
g7
S'h5'
p1268
sa(dp1269
g7
S'h6'
p1270
sa(dp1271
g5
S'black_pawn'
p1272
sg7
S'h7'
p1273
sa(dp1274
g7
S'h8'
p1275
saaV
p1276
aa(lp1277
S'8765432'
p1278
a(lp1279
(dp1280
g5
S'white_rook'
p1281
sg7
S'a1'
p1282
sa(dp1283
g5
S'white_pawn'
p1284
sg7
S'a2'
p1285
sa(dp1286
g7
S'a3'
p1287
sa(dp1288
g7
S'a4'
p1289
sa(dp1290
g7
S'a5'
p1291
sa(dp1292
g5
S'black_pawn'
p1293
sg7
S'a6'
p1294
sa(dp1295
g7
S'a7'
p1296
sa(dp1297
g5
S'black_rook'
p1298
sg7
S'a8'
p1299
sa(dp1300
g7
S'b1'
p1301
sa(dp1302
g5
S'white_pawn'
p1303
sg7
S'b2'
p1304
sa(dp1305
g7
S'b3'
p1306
sa(dp1307
g7
S'b4'
p1308
sa(dp1309
g7
S'b5'
p1310
sa(dp1311
g7
S'b6'
p1312
sa(dp1313
g7
S'b7'
p1314
sa(dp1315
g7
S'b8'
p1316
sa(dp1317
g5
S'white_bishop'
p1318
sg7
S'c1'
p1319
sa(dp1320
g7
S'c2'
p1321
sa(dp1322
g5
S'white_knight'
p1323
sg7
S'c3'
p1324
sa(dp1325
g5
S'white_bishop'
p1326
sg7
S'c4'
p1327
sa(dp1328
g5
S'black_pawn'
p1329
sg7
S'c5'
p1330
sa(dp1331
g7
S'c6'
p1332
sa(dp1333
g5
S'black_knight'
p1334
sg7
S'c7'
p1335
sa(dp1336
g5
S'black_bishop'
p1337
sg7
S'c8'
p1338
sa(dp1339
g7
S'd1'
p1340
sa(dp1341
g7
S'd2'
p1342
sa(dp1343
g5
S'white_queen'
p1344
sg7
S'd3'
p1345
sa(dp1346
g7
S'd4'
p1347
sa(dp1348
g5
S'white_pawn'
p1349
sg7
S'd5'
p1350
sa(dp1351
g5
S'black_pawn'
p1352
sg7
S'd6'
p1353
sa(dp1354
g7
S'd7'
p1355
sa(dp1356
g7
S'd8'
p1357
sa(dp1358
g7
S'e1'
p1359
sa(dp1360
g7
S'e2'
p1361
sa(dp1362
g7
S'e3'
p1363
sa(dp1364
g7
S'e4'
p1365
sa(dp1366
g7
S'e5'
p1367
sa(dp1368
g7
S'e6'
p1369
sa(dp1370
g5
S'black_queen'
p1371
sg7
S'e7'
p1372
sa(dp1373
g7
S'e8'
p1374
sa(dp1375
g7
S'f1'
p1376
sa(dp1377
g7
S'f2'
p1378
sa(dp1379
g5
S'white_pawn'
p1380
sg7
S'f3'
p1381
sa(dp1382
g7
S'f4'
p1383
sa(dp1384
g7
S'f5'
p1385
sa(dp1386
g5
S'black_knight'
p1387
sg7
S'f6'
p1388
sa(dp1389
g5
S'black_pawn'
p1390
sg7
S'f7'
p1391
sa(dp1392
g5
S'black_rook'
p1393
sg7
S'f8'
p1394
sa(dp1395
g5
S'white_king'
p1396
sg7
S'g1'
p1397
sa(dp1398
g5
S'white_pawn'
p1399
sg7
S'g2'
p1400
sa(dp1401
g5
S'white_knight'
p1402
sg7
S'g3'
p1403
sa(dp1404
g7
S'g4'
p1405
sa(dp1406
g7
S'g5'
p1407
sa(dp1408
g5
S'black_pawn'
p1409
sg7
S'g6'
p1410
sa(dp1411
g7
S'g7'
p1412
sa(dp1413
g5
S'black_king'
p1414
sg7
S'g8'
p1415
sa(dp1416
g7
S'h1'
p1417
sa(dp1418
g5
S'white_pawn'
p1419
sg7
S'h2'
p1420
sa(dp1421
g7
S'h3'
p1422
sa(dp1423
g7
S'h4'
p1424
sa(dp1425
g7
S'h5'
p1426
sa(dp1427
g7
S'h6'
p1428
sa(dp1429
g5
S'black_pawn'
p1430
sg7
S'h7'
p1431
sa(dp1432
g7
S'h8'
p1433
saag1276
aa(lp1434
S'8765432'
p1435
a(lp1436
(dp1437
g5
S'white_rook'
p1438
sg7
S'a1'
p1439
sa(dp1440
g5
S'white_pawn'
p1441
sg7
S'a2'
p1442
sa(dp1443
g7
S'a3'
p1444
sa(dp1445
g7
S'a4'
p1446
sa(dp1447
g7
S'a5'
p1448
sa(dp1449
g5
S'black_pawn'
p1450
sg7
S'a6'
p1451
sa(dp1452
g7
S'a7'
p1453
sa(dp1454
g5
S'black_rook'
p1455
sg7
S'a8'
p1456
sa(dp1457
g7
S'b1'
p1458
sa(dp1459
g5
S'white_pawn'
p1460
sg7
S'b2'
p1461
sa(dp1462
g7
S'b3'
p1463
sa(dp1464
g7
S'b4'
p1465
sa(dp1466
g7
S'b5'
p1467
sa(dp1468
g7
S'b6'
p1469
sa(dp1470
g7
S'b7'
p1471
sa(dp1472
g7
S'b8'
p1473
sa(dp1474
g7
S'c1'
p1475
sa(dp1476
g7
S'c2'
p1477
sa(dp1478
g5
S'white_knight'
p1479
sg7
S'c3'
p1480
sa(dp1481
g5
S'white_bishop'
p1482
sg7
S'c4'
p1483
sa(dp1484
g5
S'black_pawn'
p1485
sg7
S'c5'
p1486
sa(dp1487
g7
S'c6'
p1488
sa(dp1489
g5
S'black_knight'
p1490
sg7
S'c7'
p1491
sa(dp1492
g5
S'black_bishop'
p1493
sg7
S'c8'
p1494
sa(dp1495
g7
S'd1'
p1496
sa(dp1497
g7
S'd2'
p1498
sa(dp1499
g5
S'white_queen'
p1500
sg7
S'd3'
p1501
sa(dp1502
g7
S'd4'
p1503
sa(dp1504
g5
S'white_pawn'
p1505
sg7
S'd5'
p1506
sa(dp1507
g5
S'black_pawn'
p1508
sg7
S'd6'
p1509
sa(dp1510
g7
S'd7'
p1511
sa(dp1512
g7
S'd8'
p1513
sa(dp1514
g7
S'e1'
p1515
sa(dp1516
g7
S'e2'
p1517
sa(dp1518
g7
S'e3'
p1519
sa(dp1520
g7
S'e4'
p1521
sa(dp1522
g7
S'e5'
p1523
sa(dp1524
g7
S'e6'
p1525
sa(dp1526
g5
S'black_queen'
p1527
sg7
S'e7'
p1528
sa(dp1529
g7
S'e8'
p1530
sa(dp1531
g7
S'f1'
p1532
sa(dp1533
g7
S'f2'
p1534
sa(dp1535
g5
S'white_pawn'
p1536
sg7
S'f3'
p1537
sa(dp1538
g7
S'f4'
p1539
sa(dp1540
g7
S'f5'
p1541
sa(dp1542
g5
S'black_knight'
p1543
sg7
S'f6'
p1544
sa(dp1545
g5
S'black_pawn'
p1546
sg7
S'f7'
p1547
sa(dp1548
g5
S'black_rook'
p1549
sg7
S'f8'
p1550
sa(dp1551
g5
S'white_king'
p1552
sg7
S'g1'
p1553
sa(dp1554
g5
S'white_pawn'
p1555
sg7
S'g2'
p1556
sa(dp1557
g5
S'white_knight'
p1558
sg7
S'g3'
p1559
sa(dp1560
g7
S'g4'
p1561
sa(dp1562
g5
S'white_bishop'
p1563
sg7
S'g5'
p1564
sa(dp1565
g5
S'black_pawn'
p1566
sg7
S'g6'
p1567
sa(dp1568
g7
S'g7'
p1569
sa(dp1570
g5
S'black_king'
p1571
sg7
S'g8'
p1572
sa(dp1573
g7
S'h1'
p1574
sa(dp1575
g5
S'white_pawn'
p1576
sg7
S'h2'
p1577
sa(dp1578
g7
S'h3'
p1579
sa(dp1580
g7
S'h4'
p1581
sa(dp1582
g7
S'h5'
p1583
sa(dp1584
g7
S'h6'
p1585
sa(dp1586
g5
S'black_pawn'
p1587
sg7
S'h7'
p1588
sa(dp1589
g7
S'h8'
p1590
saag1276
aa(lp1591
S'8765432'
p1592
a(lp1593
(dp1594
g5
S'white_rook'
p1595
sg7
S'a1'
p1596
sa(dp1597
g5
S'white_pawn'
p1598
sg7
S'a2'
p1599
sa(dp1600
g7
S'a3'
p1601
sa(dp1602
g7
S'a4'
p1603
sa(dp1604
g7
S'a5'
p1605
sa(dp1606
g5
S'black_pawn'
p1607
sg7
S'a6'
p1608
sa(dp1609
g7
S'a7'
p1610
sa(dp1611
g5
S'black_rook'
p1612
sg7
S'a8'
p1613
sa(dp1614
g7
S'b1'
p1615
sa(dp1616
g5
S'white_pawn'
p1617
sg7
S'b2'
p1618
sa(dp1619
g7
S'b3'
p1620
sa(dp1621
g7
S'b4'
p1622
sa(dp1623
g7
S'b5'
p1624
sa(dp1625
g7
S'b6'
p1626
sa(dp1627
g7
S'b7'
p1628
sa(dp1629
g7
S'b8'
p1630
sa(dp1631
g7
S'c1'
p1632
sa(dp1633
g7
S'c2'
p1634
sa(dp1635
g5
S'white_knight'
p1636
sg7
S'c3'
p1637
sa(dp1638
g5
S'white_bishop'
p1639
sg7
S'c4'
p1640
sa(dp1641
g5
S'black_pawn'
p1642
sg7
S'c5'
p1643
sa(dp1644
g7
S'c6'
p1645
sa(dp1646
g5
S'black_knight'
p1647
sg7
S'c7'
p1648
sa(dp1649
g5
S'black_bishop'
p1650
sg7
S'c8'
p1651
sa(dp1652
g7
S'd1'
p1653
sa(dp1654
g7
S'd2'
p1655
sa(dp1656
g5
S'white_queen'
p1657
sg7
S'd3'
p1658
sa(dp1659
g7
S'd4'
p1660
sa(dp1661
g5
S'white_pawn'
p1662
sg7
S'd5'
p1663
sa(dp1664
g5
S'black_pawn'
p1665
sg7
S'd6'
p1666
sa(dp1667
g7
S'd7'
p1668
sa(dp1669
g7
S'd8'
p1670
sa(dp1671
g7
S'e1'
p1672
sa(dp1673
g7
S'e2'
p1674
sa(dp1675
g7
S'e3'
p1676
sa(dp1677
g7
S'e4'
p1678
sa(dp1679
g5
S'black_queen'
p1680
sg7
S'e5'
p1681
sa(dp1682
g7
S'e6'
p1683
sa(dp1684
g7
S'e7'
p1685
sa(dp1686
g7
S'e8'
p1687
sa(dp1688
g7
S'f1'
p1689
sa(dp1690
g7
S'f2'
p1691
sa(dp1692
g5
S'white_pawn'
p1693
sg7
S'f3'
p1694
sa(dp1695
g7
S'f4'
p1696
sa(dp1697
g7
S'f5'
p1698
sa(dp1699
g5
S'black_knight'
p1700
sg7
S'f6'
p1701
sa(dp1702
g5
S'black_pawn'
p1703
sg7
S'f7'
p1704
sa(dp1705
g5
S'black_rook'
p1706
sg7
S'f8'
p1707
sa(dp1708
g5
S'white_king'
p1709
sg7
S'g1'
p1710
sa(dp1711
g5
S'white_pawn'
p1712
sg7
S'g2'
p1713
sa(dp1714
g5
S'white_knight'
p1715
sg7
S'g3'
p1716
sa(dp1717
g7
S'g4'
p1718
sa(dp1719
g5
S'white_bishop'
p1720
sg7
S'g5'
p1721
sa(dp1722
g5
S'black_pawn'
p1723
sg7
S'g6'
p1724
sa(dp1725
g7
S'g7'
p1726
sa(dp1727
g5
S'black_king'
p1728
sg7
S'g8'
p1729
sa(dp1730
g7
S'h1'
p1731
sa(dp1732
g5
S'white_pawn'
p1733
sg7
S'h2'
p1734
sa(dp1735
g7
S'h3'
p1736
sa(dp1737
g7
S'h4'
p1738
sa(dp1739
g7
S'h5'
p1740
sa(dp1741
g7
S'h6'
p1742
sa(dp1743
g5
S'black_pawn'
p1744
sg7
S'h7'
p1745
sa(dp1746
g7
S'h8'
p1747
saag1276
aa(lp1748
S'8765432'
p1749
a(lp1750
(dp1751
g5
S'white_rook'
p1752
sg7
S'a1'
p1753
sa(dp1754
g5
S'white_pawn'
p1755
sg7
S'a2'
p1756
sa(dp1757
g7
S'a3'
p1758
sa(dp1759
g7
S'a4'
p1760
sa(dp1761
g7
S'a5'
p1762
sa(dp1763
g5
S'black_pawn'
p1764
sg7
S'a6'
p1765
sa(dp1766
g7
S'a7'
p1767
sa(dp1768
g5
S'black_rook'
p1769
sg7
S'a8'
p1770
sa(dp1771
g7
S'b1'
p1772
sa(dp1773
g5
S'white_pawn'
p1774
sg7
S'b2'
p1775
sa(dp1776
g7
S'b3'
p1777
sa(dp1778
g7
S'b4'
p1779
sa(dp1780
g7
S'b5'
p1781
sa(dp1782
g7
S'b6'
p1783
sa(dp1784
g7
S'b7'
p1785
sa(dp1786
g7
S'b8'
p1787
sa(dp1788
g7
S'c1'
p1789
sa(dp1790
g7
S'c2'
p1791
sa(dp1792
g5
S'white_knight'
p1793
sg7
S'c3'
p1794
sa(dp1795
g5
S'white_bishop'
p1796
sg7
S'c4'
p1797
sa(dp1798
g5
S'black_pawn'
p1799
sg7
S'c5'
p1800
sa(dp1801
g7
S'c6'
p1802
sa(dp1803
g5
S'black_knight'
p1804
sg7
S'c7'
p1805
sa(dp1806
g5
S'black_bishop'
p1807
sg7
S'c8'
p1808
sa(dp1809
g7
S'd1'
p1810
sa(dp1811
g7
S'd2'
p1812
sa(dp1813
g5
S'white_queen'
p1814
sg7
S'd3'
p1815
sa(dp1816
g7
S'd4'
p1817
sa(dp1818
g5
S'white_pawn'
p1819
sg7
S'd5'
p1820
sa(dp1821
g5
S'black_pawn'
p1822
sg7
S'd6'
p1823
sa(dp1824
g7
S'd7'
p1825
sa(dp1826
g7
S'd8'
p1827
sa(dp1828
g7
S'e1'
p1829
sa(dp1830
g7
S'e2'
p1831
sa(dp1832
g7
S'e3'
p1833
sa(dp1834
g7
S'e4'
p1835
sa(dp1836
g5
S'black_queen'
p1837
sg7
S'e5'
p1838
sa(dp1839
g7
S'e6'
p1840
sa(dp1841
g7
S'e7'
p1842
sa(dp1843
g7
S'e8'
p1844
sa(dp1845
g7
S'f1'
p1846
sa(dp1847
g7
S'f2'
p1848
sa(dp1849
g7
S'f3'
p1850
sa(dp1851
g5
S'white_pawn'
p1852
sg7
S'f4'
p1853
sa(dp1854
g7
S'f5'
p1855
sa(dp1856
g5
S'black_knight'
p1857
sg7
S'f6'
p1858
sa(dp1859
g5
S'black_pawn'
p1860
sg7
S'f7'
p1861
sa(dp1862
g5
S'black_rook'
p1863
sg7
S'f8'
p1864
sa(dp1865
g5
S'white_king'
p1866
sg7
S'g1'
p1867
sa(dp1868
g5
S'white_pawn'
p1869
sg7
S'g2'
p1870
sa(dp1871
g5
S'white_knight'
p1872
sg7
S'g3'
p1873
sa(dp1874
g7
S'g4'
p1875
sa(dp1876
g5
S'white_bishop'
p1877
sg7
S'g5'
p1878
sa(dp1879
g5
S'black_pawn'
p1880
sg7
S'g6'
p1881
sa(dp1882
g7
S'g7'
p1883
sa(dp1884
g5
S'black_king'
p1885
sg7
S'g8'
p1886
sa(dp1887
g7
S'h1'
p1888
sa(dp1889
g5
S'white_pawn'
p1890
sg7
S'h2'
p1891
sa(dp1892
g7
S'h3'
p1893
sa(dp1894
g7
S'h4'
p1895
sa(dp1896
g7
S'h5'
p1897
sa(dp1898
g7
S'h6'
p1899
sa(dp1900
g5
S'black_pawn'
p1901
sg7
S'h7'
p1902
sa(dp1903
g7
S'h8'
p1904
saag1276
aa(lp1905
S'8765432'
p1906
a(lp1907
(dp1908
g5
S'white_rook'
p1909
sg7
S'a1'
p1910
sa(dp1911
g5
S'white_pawn'
p1912
sg7
S'a2'
p1913
sa(dp1914
g7
S'a3'
p1915
sa(dp1916
g7
S'a4'
p1917
sa(dp1918
g7
S'a5'
p1919
sa(dp1920
g5
S'black_pawn'
p1921
sg7
S'a6'
p1922
sa(dp1923
g7
S'a7'
p1924
sa(dp1925
g5
S'black_rook'
p1926
sg7
S'a8'
p1927
sa(dp1928
g7
S'b1'
p1929
sa(dp1930
g5
S'white_pawn'
p1931
sg7
S'b2'
p1932
sa(dp1933
g7
S'b3'
p1934
sa(dp1935
g7
S'b4'
p1936
sa(dp1937
g7
S'b5'
p1938
sa(dp1939
g7
S'b6'
p1940
sa(dp1941
g7
S'b7'
p1942
sa(dp1943
g7
S'b8'
p1944
sa(dp1945
g7
S'c1'
p1946
sa(dp1947
g7
S'c2'
p1948
sa(dp1949
g5
S'white_knight'
p1950
sg7
S'c3'
p1951
sa(dp1952
g5
S'white_bishop'
p1953
sg7
S'c4'
p1954
sa(dp1955
g5
S'black_pawn'
p1956
sg7
S'c5'
p1957
sa(dp1958
g7
S'c6'
p1959
sa(dp1960
g5
S'black_knight'
p1961
sg7
S'c7'
p1962
sa(dp1963
g5
S'black_bishop'
p1964
sg7
S'c8'
p1965
sa(dp1966
g7
S'd1'
p1967
sa(dp1968
g7
S'd2'
p1969
sa(dp1970
g5
S'white_queen'
p1971
sg7
S'd3'
p1972
sa(dp1973
g5
S'black_queen'
p1974
sg7
S'd4'
p1975
sa(dp1976
g5
S'white_pawn'
p1977
sg7
S'd5'
p1978
sa(dp1979
g5
S'black_pawn'
p1980
sg7
S'd6'
p1981
sa(dp1982
g7
S'd7'
p1983
sa(dp1984
g7
S'd8'
p1985
sa(dp1986
g7
S'e1'
p1987
sa(dp1988
g7
S'e2'
p1989
sa(dp1990
g7
S'e3'
p1991
sa(dp1992
g7
S'e4'
p1993
sa(dp1994
g7
S'e5'
p1995
sa(dp1996
g7
S'e6'
p1997
sa(dp1998
g7
S'e7'
p1999
sa(dp2000
g7
S'e8'
p2001
sa(dp2002
g7
S'f1'
p2003
sa(dp2004
g7
S'f2'
p2005
sa(dp2006
g7
S'f3'
p2007
sa(dp2008
g5
S'white_pawn'
p2009
sg7
S'f4'
p2010
sa(dp2011
g7
S'f5'
p2012
sa(dp2013
g5
S'black_knight'
p2014
sg7
S'f6'
p2015
sa(dp2016
g5
S'black_pawn'
p2017
sg7
S'f7'
p2018
sa(dp2019
g5
S'black_rook'
p2020
sg7
S'f8'
p2021
sa(dp2022
g5
S'white_king'
p2023
sg7
S'g1'
p2024
sa(dp2025
g5
S'white_pawn'
p2026
sg7
S'g2'
p2027
sa(dp2028
g5
S'white_knight'
p2029
sg7
S'g3'
p2030
sa(dp2031
g7
S'g4'
p2032
sa(dp2033
g5
S'white_bishop'
p2034
sg7
S'g5'
p2035
sa(dp2036
g5
S'black_pawn'
p2037
sg7
S'g6'
p2038
sa(dp2039
g7
S'g7'
p2040
sa(dp2041
g5
S'black_king'
p2042
sg7
S'g8'
p2043
sa(dp2044
g7
S'h1'
p2045
sa(dp2046
g5
S'white_pawn'
p2047
sg7
S'h2'
p2048
sa(dp2049
g7
S'h3'
p2050
sa(dp2051
g7
S'h4'
p2052
sa(dp2053
g7
S'h5'
p2054
sa(dp2055
g7
S'h6'
p2056
sa(dp2057
g5
S'black_pawn'
p2058
sg7
S'h7'
p2059
sa(dp2060
g7
S'h8'
p2061
saag1276
aa(lp2062
S'8765432'
p2063
a(lp2064
(dp2065
g5
S'white_rook'
p2066
sg7
S'a1'
p2067
sa(dp2068
g5
S'white_pawn'
p2069
sg7
S'a2'
p2070
sa(dp2071
g7
S'a3'
p2072
sa(dp2073
g7
S'a4'
p2074
sa(dp2075
g7
S'a5'
p2076
sa(dp2077
g5
S'black_pawn'
p2078
sg7
S'a6'
p2079
sa(dp2080
g7
S'a7'
p2081
sa(dp2082
g5
S'black_rook'
p2083
sg7
S'a8'
p2084
sa(dp2085
g7
S'b1'
p2086
sa(dp2087
g5
S'white_pawn'
p2088
sg7
S'b2'
p2089
sa(dp2090
g7
S'b3'
p2091
sa(dp2092
g7
S'b4'
p2093
sa(dp2094
g7
S'b5'
p2095
sa(dp2096
g7
S'b6'
p2097
sa(dp2098
g7
S'b7'
p2099
sa(dp2100
g7
S'b8'
p2101
sa(dp2102
g7
S'c1'
p2103
sa(dp2104
g7
S'c2'
p2105
sa(dp2106
g5
S'white_knight'
p2107
sg7
S'c3'
p2108
sa(dp2109
g5
S'white_bishop'
p2110
sg7
S'c4'
p2111
sa(dp2112
g5
S'black_pawn'
p2113
sg7
S'c5'
p2114
sa(dp2115
g7
S'c6'
p2116
sa(dp2117
g5
S'black_knight'
p2118
sg7
S'c7'
p2119
sa(dp2120
g5
S'black_bishop'
p2121
sg7
S'c8'
p2122
sa(dp2123
g7
S'd1'
p2124
sa(dp2125
g7
S'd2'
p2126
sa(dp2127
g7
S'd3'
p2128
sa(dp2129
g5
S'white_queen'
p2130
sg7
S'd4'
p2131
sa(dp2132
g5
S'white_pawn'
p2133
sg7
S'd5'
p2134
sa(dp2135
g5
S'black_pawn'
p2136
sg7
S'd6'
p2137
sa(dp2138
g7
S'd7'
p2139
sa(dp2140
g7
S'd8'
p2141
sa(dp2142
g7
S'e1'
p2143
sa(dp2144
g7
S'e2'
p2145
sa(dp2146
g7
S'e3'
p2147
sa(dp2148
g7
S'e4'
p2149
sa(dp2150
g7
S'e5'
p2151
sa(dp2152
g7
S'e6'
p2153
sa(dp2154
g7
S'e7'
p2155
sa(dp2156
g7
S'e8'
p2157
sa(dp2158
g7
S'f1'
p2159
sa(dp2160
g7
S'f2'
p2161
sa(dp2162
g7
S'f3'
p2163
sa(dp2164
g5
S'white_pawn'
p2165
sg7
S'f4'
p2166
sa(dp2167
g7
S'f5'
p2168
sa(dp2169
g5
S'black_knight'
p2170
sg7
S'f6'
p2171
sa(dp2172
g5
S'black_pawn'
p2173
sg7
S'f7'
p2174
sa(dp2175
g5
S'black_rook'
p2176
sg7
S'f8'
p2177
sa(dp2178
g5
S'white_king'
p2179
sg7
S'g1'
p2180
sa(dp2181
g5
S'white_pawn'
p2182
sg7
S'g2'
p2183
sa(dp2184
g5
S'white_knight'
p2185
sg7
S'g3'
p2186
sa(dp2187
g7
S'g4'
p2188
sa(dp2189
g5
S'white_bishop'
p2190
sg7
S'g5'
p2191
sa(dp2192
g5
S'black_pawn'
p2193
sg7
S'g6'
p2194
sa(dp2195
g7
S'g7'
p2196
sa(dp2197
g5
S'black_king'
p2198
sg7
S'g8'
p2199
sa(dp2200
g7
S'h1'
p2201
sa(dp2202
g5
S'white_pawn'
p2203
sg7
S'h2'
p2204
sa(dp2205
g7
S'h3'
p2206
sa(dp2207
g7
S'h4'
p2208
sa(dp2209
g7
S'h5'
p2210
sa(dp2211
g7
S'h6'
p2212
sa(dp2213
g5
S'black_pawn'
p2214
sg7
S'h7'
p2215
sa(dp2216
g7
S'h8'
p2217
saag1276
aa(lp2218
S'8765432'
p2219
a(lp2220
(dp2221
g5
S'white_rook'
p2222
sg7
S'a1'
p2223
sa(dp2224
g5
S'white_pawn'
p2225
sg7
S'a2'
p2226
sa(dp2227
g7
S'a3'
p2228
sa(dp2229
g7
S'a4'
p2230
sa(dp2231
g7
S'a5'
p2232
sa(dp2233
g5
S'black_pawn'
p2234
sg7
S'a6'
p2235
sa(dp2236
g7
S'a7'
p2237
sa(dp2238
g5
S'black_rook'
p2239
sg7
S'a8'
p2240
sa(dp2241
g7
S'b1'
p2242
sa(dp2243
g5
S'white_pawn'
p2244
sg7
S'b2'
p2245
sa(dp2246
g7
S'b3'
p2247
sa(dp2248
g7
S'b4'
p2249
sa(dp2250
g7
S'b5'
p2251
sa(dp2252
g7
S'b6'
p2253
sa(dp2254
g7
S'b7'
p2255
sa(dp2256
g7
S'b8'
p2257
sa(dp2258
g7
S'c1'
p2259
sa(dp2260
g7
S'c2'
p2261
sa(dp2262
g5
S'white_knight'
p2263
sg7
S'c3'
p2264
sa(dp2265
g5
S'white_bishop'
p2266
sg7
S'c4'
p2267
sa(dp2268
g7
S'c5'
p2269
sa(dp2270
g7
S'c6'
p2271
sa(dp2272
g5
S'black_knight'
p2273
sg7
S'c7'
p2274
sa(dp2275
g5
S'black_bishop'
p2276
sg7
S'c8'
p2277
sa(dp2278
g7
S'd1'
p2279
sa(dp2280
g7
S'd2'
p2281
sa(dp2282
g7
S'd3'
p2283
sa(dp2284
g5
S'black_pawn'
p2285
sg7
S'd4'
p2286
sa(dp2287
g5
S'white_pawn'
p2288
sg7
S'd5'
p2289
sa(dp2290
g5
S'black_pawn'
p2291
sg7
S'd6'
p2292
sa(dp2293
g7
S'd7'
p2294
sa(dp2295
g7
S'd8'
p2296
sa(dp2297
g7
S'e1'
p2298
sa(dp2299
g7
S'e2'
p2300
sa(dp2301
g7
S'e3'
p2302
sa(dp2303
g7
S'e4'
p2304
sa(dp2305
g7
S'e5'
p2306
sa(dp2307
g7
S'e6'
p2308
sa(dp2309
g7
S'e7'
p2310
sa(dp2311
g7
S'e8'
p2312
sa(dp2313
g7
S'f1'
p2314
sa(dp2315
g7
S'f2'
p2316
sa(dp2317
g7
S'f3'
p2318
sa(dp2319
g5
S'white_pawn'
p2320
sg7
S'f4'
p2321
sa(dp2322
g7
S'f5'
p2323
sa(dp2324
g5
S'black_knight'
p2325
sg7
S'f6'
p2326
sa(dp2327
g5
S'black_pawn'
p2328
sg7
S'f7'
p2329
sa(dp2330
g5
S'black_rook'
p2331
sg7
S'f8'
p2332
sa(dp2333
g5
S'white_king'
p2334
sg7
S'g1'
p2335
sa(dp2336
g5
S'white_pawn'
p2337
sg7
S'g2'
p2338
sa(dp2339
g5
S'white_knight'
p2340
sg7
S'g3'
p2341
sa(dp2342
g7
S'g4'
p2343
sa(dp2344
g5
S'white_bishop'
p2345
sg7
S'g5'
p2346
sa(dp2347
g5
S'black_pawn'
p2348
sg7
S'g6'
p2349
sa(dp2350
g7
S'g7'
p2351
sa(dp2352
g5
S'black_king'
p2353
sg7
S'g8'
p2354
sa(dp2355
g7
S'h1'
p2356
sa(dp2357
g5
S'white_pawn'
p2358
sg7
S'h2'
p2359
sa(dp2360
g7
S'h3'
p2361
sa(dp2362
g7
S'h4'
p2363
sa(dp2364
g7
S'h5'
p2365
sa(dp2366
g7
S'h6'
p2367
sa(dp2368
g5
S'black_pawn'
p2369
sg7
S'h7'
p2370
sa(dp2371
g7
S'h8'
p2372
saag1276
aa(lp2373
S'8765432'
p2374
a(lp2375
(dp2376
g5
S'white_rook'
p2377
sg7
S'a1'
p2378
sa(dp2379
g5
S'white_pawn'
p2380
sg7
S'a2'
p2381
sa(dp2382
g7
S'a3'
p2383
sa(dp2384
g7
S'a4'
p2385
sa(dp2386
g7
S'a5'
p2387
sa(dp2388
g5
S'black_pawn'
p2389
sg7
S'a6'
p2390
sa(dp2391
g7
S'a7'
p2392
sa(dp2393
g5
S'black_rook'
p2394
sg7
S'a8'
p2395
sa(dp2396
g7
S'b1'
p2397
sa(dp2398
g5
S'white_pawn'
p2399
sg7
S'b2'
p2400
sa(dp2401
g7
S'b3'
p2402
sa(dp2403
g7
S'b4'
p2404
sa(dp2405
g7
S'b5'
p2406
sa(dp2407
g7
S'b6'
p2408
sa(dp2409
g7
S'b7'
p2410
sa(dp2411
g7
S'b8'
p2412
sa(dp2413
g7
S'c1'
p2414
sa(dp2415
g7
S'c2'
p2416
sa(dp2417
g5
S'white_knight'
p2418
sg7
S'c3'
p2419
sa(dp2420
g5
S'white_bishop'
p2421
sg7
S'c4'
p2422
sa(dp2423
g7
S'c5'
p2424
sa(dp2425
g7
S'c6'
p2426
sa(dp2427
g5
S'black_knight'
p2428
sg7
S'c7'
p2429
sa(dp2430
g5
S'black_bishop'
p2431
sg7
S'c8'
p2432
sa(dp2433
g7
S'd1'
p2434
sa(dp2435
g7
S'd2'
p2436
sa(dp2437
g7
S'd3'
p2438
sa(dp2439
g5
S'black_pawn'
p2440
sg7
S'd4'
p2441
sa(dp2442
g5
S'white_pawn'
p2443
sg7
S'd5'
p2444
sa(dp2445
g5
S'black_pawn'
p2446
sg7
S'd6'
p2447
sa(dp2448
g7
S'd7'
p2449
sa(dp2450
g7
S'd8'
p2451
sa(dp2452
g7
S'e1'
p2453
sa(dp2454
g7
S'e2'
p2455
sa(dp2456
g7
S'e3'
p2457
sa(dp2458
g7
S'e4'
p2459
sa(dp2460
g7
S'e5'
p2461
sa(dp2462
g7
S'e6'
p2463
sa(dp2464
g7
S'e7'
p2465
sa(dp2466
g7
S'e8'
p2467
sa(dp2468
g7
S'f1'
p2469
sa(dp2470
g7
S'f2'
p2471
sa(dp2472
g7
S'f3'
p2473
sa(dp2474
g5
S'white_pawn'
p2475
sg7
S'f4'
p2476
sa(dp2477
g7
S'f5'
p2478
sa(dp2479
g5
S'white_bishop'
p2480
sg7
S'f6'
p2481
sa(dp2482
g5
S'black_pawn'
p2483
sg7
S'f7'
p2484
sa(dp2485
g5
S'black_rook'
p2486
sg7
S'f8'
p2487
sa(dp2488
g5
S'white_king'
p2489
sg7
S'g1'
p2490
sa(dp2491
g5
S'white_pawn'
p2492
sg7
S'g2'
p2493
sa(dp2494
g5
S'white_knight'
p2495
sg7
S'g3'
p2496
sa(dp2497
g7
S'g4'
p2498
sa(dp2499
g7
S'g5'
p2500
sa(dp2501
g5
S'black_pawn'
p2502
sg7
S'g6'
p2503
sa(dp2504
g7
S'g7'
p2505
sa(dp2506
g5
S'black_king'
p2507
sg7
S'g8'
p2508
sa(dp2509
g7
S'h1'
p2510
sa(dp2511
g5
S'white_pawn'
p2512
sg7
S'h2'
p2513
sa(dp2514
g7
S'h3'
p2515
sa(dp2516
g7
S'h4'
p2517
sa(dp2518
g7
S'h5'
p2519
sa(dp2520
g7
S'h6'
p2521
sa(dp2522
g5
S'black_pawn'
p2523
sg7
S'h7'
p2524
sa(dp2525
g7
S'h8'
p2526
saag1276
aa(lp2527
S'8765432'
p2528
a(lp2529
(dp2530
g5
S'white_rook'
p2531
sg7
S'a1'
p2532
sa(dp2533
g5
S'white_pawn'
p2534
sg7
S'a2'
p2535
sa(dp2536
g7
S'a3'
p2537
sa(dp2538
g7
S'a4'
p2539
sa(dp2540
g7
S'a5'
p2541
sa(dp2542
g5
S'black_pawn'
p2543
sg7
S'a6'
p2544
sa(dp2545
g7
S'a7'
p2546
sa(dp2547
g5
S'black_rook'
p2548
sg7
S'a8'
p2549
sa(dp2550
g7
S'b1'
p2551
sa(dp2552
g5
S'white_pawn'
p2553
sg7
S'b2'
p2554
sa(dp2555
g7
S'b3'
p2556
sa(dp2557
g7
S'b4'
p2558
sa(dp2559
g7
S'b5'
p2560
sa(dp2561
g7
S'b6'
p2562
sa(dp2563
g7
S'b7'
p2564
sa(dp2565
g7
S'b8'
p2566
sa(dp2567
g7
S'c1'
p2568
sa(dp2569
g7
S'c2'
p2570
sa(dp2571
g5
S'black_pawn'
p2572
sg7
S'c3'
p2573
sa(dp2574
g5
S'white_bishop'
p2575
sg7
S'c4'
p2576
sa(dp2577
g7
S'c5'
p2578
sa(dp2579
g7
S'c6'
p2580
sa(dp2581
g5
S'black_knight'
p2582
sg7
S'c7'
p2583
sa(dp2584
g5
S'black_bishop'
p2585
sg7
S'c8'
p2586
sa(dp2587
g7
S'd1'
p2588
sa(dp2589
g7
S'd2'
p2590
sa(dp2591
g7
S'd3'
p2592
sa(dp2593
g7
S'd4'
p2594
sa(dp2595
g5
S'white_pawn'
p2596
sg7
S'd5'
p2597
sa(dp2598
g5
S'black_pawn'
p2599
sg7
S'd6'
p2600
sa(dp2601
g7
S'd7'
p2602
sa(dp2603
g7
S'd8'
p2604
sa(dp2605
g7
S'e1'
p2606
sa(dp2607
g7
S'e2'
p2608
sa(dp2609
g7
S'e3'
p2610
sa(dp2611
g7
S'e4'
p2612
sa(dp2613
g7
S'e5'
p2614
sa(dp2615
g7
S'e6'
p2616
sa(dp2617
g7
S'e7'
p2618
sa(dp2619
g7
S'e8'
p2620
sa(dp2621
g7
S'f1'
p2622
sa(dp2623
g7
S'f2'
p2624
sa(dp2625
g7
S'f3'
p2626
sa(dp2627
g5
S'white_pawn'
p2628
sg7
S'f4'
p2629
sa(dp2630
g7
S'f5'
p2631
sa(dp2632
g5
S'white_bishop'
p2633
sg7
S'f6'
p2634
sa(dp2635
g5
S'black_pawn'
p2636
sg7
S'f7'
p2637
sa(dp2638
g5
S'black_rook'
p2639
sg7
S'f8'
p2640
sa(dp2641
g5
S'white_king'
p2642
sg7
S'g1'
p2643
sa(dp2644
g5
S'white_pawn'
p2645
sg7
S'g2'
p2646
sa(dp2647
g5
S'white_knight'
p2648
sg7
S'g3'
p2649
sa(dp2650
g7
S'g4'
p2651
sa(dp2652
g7
S'g5'
p2653
sa(dp2654
g5
S'black_pawn'
p2655
sg7
S'g6'
p2656
sa(dp2657
g7
S'g7'
p2658
sa(dp2659
g5
S'black_king'
p2660
sg7
S'g8'
p2661
sa(dp2662
g7
S'h1'
p2663
sa(dp2664
g5
S'white_pawn'
p2665
sg7
S'h2'
p2666
sa(dp2667
g7
S'h3'
p2668
sa(dp2669
g7
S'h4'
p2670
sa(dp2671
g7
S'h5'
p2672
sa(dp2673
g7
S'h6'
p2674
sa(dp2675
g5
S'black_pawn'
p2676
sg7
S'h7'
p2677
sa(dp2678
g7
S'h8'
p2679
saag1276
aa(lp2680
S'8765432'
p2681
a(lp2682
(dp2683
g5
S'white_rook'
p2684
sg7
S'a1'
p2685
sa(dp2686
g5
S'white_pawn'
p2687
sg7
S'a2'
p2688
sa(dp2689
g7
S'a3'
p2690
sa(dp2691
g7
S'a4'
p2692
sa(dp2693
g7
S'a5'
p2694
sa(dp2695
g5
S'black_pawn'
p2696
sg7
S'a6'
p2697
sa(dp2698
g7
S'a7'
p2699
sa(dp2700
g5
S'black_rook'
p2701
sg7
S'a8'
p2702
sa(dp2703
g7
S'b1'
p2704
sa(dp2705
g5
S'white_pawn'
p2706
sg7
S'b2'
p2707
sa(dp2708
g7
S'b3'
p2709
sa(dp2710
g7
S'b4'
p2711
sa(dp2712
g7
S'b5'
p2713
sa(dp2714
g7
S'b6'
p2715
sa(dp2716
g7
S'b7'
p2717
sa(dp2718
g7
S'b8'
p2719
sa(dp2720
g7
S'c1'
p2721
sa(dp2722
g7
S'c2'
p2723
sa(dp2724
g5
S'white_bishop'
p2725
sg7
S'c3'
p2726
sa(dp2727
g5
S'white_bishop'
p2728
sg7
S'c4'
p2729
sa(dp2730
g7
S'c5'
p2731
sa(dp2732
g7
S'c6'
p2733
sa(dp2734
g5
S'black_knight'
p2735
sg7
S'c7'
p2736
sa(dp2737
g5
S'black_bishop'
p2738
sg7
S'c8'
p2739
sa(dp2740
g7
S'd1'
p2741
sa(dp2742
g7
S'd2'
p2743
sa(dp2744
g7
S'd3'
p2745
sa(dp2746
g7
S'd4'
p2747
sa(dp2748
g5
S'white_pawn'
p2749
sg7
S'd5'
p2750
sa(dp2751
g5
S'black_pawn'
p2752
sg7
S'd6'
p2753
sa(dp2754
g7
S'd7'
p2755
sa(dp2756
g7
S'd8'
p2757
sa(dp2758
g7
S'e1'
p2759
sa(dp2760
g7
S'e2'
p2761
sa(dp2762
g7
S'e3'
p2763
sa(dp2764
g7
S'e4'
p2765
sa(dp2766
g7
S'e5'
p2767
sa(dp2768
g7
S'e6'
p2769
sa(dp2770
g7
S'e7'
p2771
sa(dp2772
g7
S'e8'
p2773
sa(dp2774
g7
S'f1'
p2775
sa(dp2776
g7
S'f2'
p2777
sa(dp2778
g7
S'f3'
p2779
sa(dp2780
g5
S'white_pawn'
p2781
sg7
S'f4'
p2782
sa(dp2783
g7
S'f5'
p2784
sa(dp2785
g7
S'f6'
p2786
sa(dp2787
g5
S'black_pawn'
p2788
sg7
S'f7'
p2789
sa(dp2790
g5
S'black_rook'
p2791
sg7
S'f8'
p2792
sa(dp2793
g5
S'white_king'
p2794
sg7
S'g1'
p2795
sa(dp2796
g5
S'white_pawn'
p2797
sg7
S'g2'
p2798
sa(dp2799
g5
S'white_knight'
p2800
sg7
S'g3'
p2801
sa(dp2802
g7
S'g4'
p2803
sa(dp2804
g7
S'g5'
p2805
sa(dp2806
g5
S'black_pawn'
p2807
sg7
S'g6'
p2808
sa(dp2809
g7
S'g7'
p2810
sa(dp2811
g5
S'black_king'
p2812
sg7
S'g8'
p2813
sa(dp2814
g7
S'h1'
p2815
sa(dp2816
g5
S'white_pawn'
p2817
sg7
S'h2'
p2818
sa(dp2819
g7
S'h3'
p2820
sa(dp2821
g7
S'h4'
p2822
sa(dp2823
g7
S'h5'
p2824
sa(dp2825
g7
S'h6'
p2826
sa(dp2827
g5
S'black_pawn'
p2828
sg7
S'h7'
p2829
sa(dp2830
g7
S'h8'
p2831
saag1276
aa(lp2832
S'8765432'
p2833
a(lp2834
(dp2835
g5
S'white_rook'
p2836
sg7
S'a1'
p2837
sa(dp2838
g5
S'white_pawn'
p2839
sg7
S'a2'
p2840
sa(dp2841
g7
S'a3'
p2842
sa(dp2843
g7
S'a4'
p2844
sa(dp2845
g7
S'a5'
p2846
sa(dp2847
g5
S'black_pawn'
p2848
sg7
S'a6'
p2849
sa(dp2850
g7
S'a7'
p2851
sa(dp2852
g5
S'black_rook'
p2853
sg7
S'a8'
p2854
sa(dp2855
g7
S'b1'
p2856
sa(dp2857
g5
S'white_pawn'
p2858
sg7
S'b2'
p2859
sa(dp2860
g7
S'b3'
p2861
sa(dp2862
g7
S'b4'
p2863
sa(dp2864
g7
S'b5'
p2865
sa(dp2866
g7
S'b6'
p2867
sa(dp2868
g5
S'black_bishop'
p2869
sg7
S'b7'
p2870
sa(dp2871
g7
S'b8'
p2872
sa(dp2873
g7
S'c1'
p2874
sa(dp2875
g7
S'c2'
p2876
sa(dp2877
g5
S'white_bishop'
p2878
sg7
S'c3'
p2879
sa(dp2880
g5
S'white_bishop'
p2881
sg7
S'c4'
p2882
sa(dp2883
g7
S'c5'
p2884
sa(dp2885
g7
S'c6'
p2886
sa(dp2887
g5
S'black_knight'
p2888
sg7
S'c7'
p2889
sa(dp2890
g7
S'c8'
p2891
sa(dp2892
g7
S'd1'
p2893
sa(dp2894
g7
S'd2'
p2895
sa(dp2896
g7
S'd3'
p2897
sa(dp2898
g7
S'd4'
p2899
sa(dp2900
g5
S'white_pawn'
p2901
sg7
S'd5'
p2902
sa(dp2903
g5
S'black_pawn'
p2904
sg7
S'd6'
p2905
sa(dp2906
g7
S'd7'
p2907
sa(dp2908
g7
S'd8'
p2909
sa(dp2910
g7
S'e1'
p2911
sa(dp2912
g7
S'e2'
p2913
sa(dp2914
g7
S'e3'
p2915
sa(dp2916
g7
S'e4'
p2917
sa(dp2918
g7
S'e5'
p2919
sa(dp2920
g7
S'e6'
p2921
sa(dp2922
g7
S'e7'
p2923
sa(dp2924
g7
S'e8'
p2925
sa(dp2926
g7
S'f1'
p2927
sa(dp2928
g7
S'f2'
p2929
sa(dp2930
g7
S'f3'
p2931
sa(dp2932
g5
S'white_pawn'
p2933
sg7
S'f4'
p2934
sa(dp2935
g7
S'f5'
p2936
sa(dp2937
g7
S'f6'
p2938
sa(dp2939
g5
S'black_pawn'
p2940
sg7
S'f7'
p2941
sa(dp2942
g5
S'black_rook'
p2943
sg7
S'f8'
p2944
sa(dp2945
g5
S'white_king'
p2946
sg7
S'g1'
p2947
sa(dp2948
g5
S'white_pawn'
p2949
sg7
S'g2'
p2950
sa(dp2951
g5
S'white_knight'
p2952
sg7
S'g3'
p2953
sa(dp2954
g7
S'g4'
p2955
sa(dp2956
g7
S'g5'
p2957
sa(dp2958
g5
S'black_pawn'
p2959
sg7
S'g6'
p2960
sa(dp2961
g7
S'g7'
p2962
sa(dp2963
g5
S'black_king'
p2964
sg7
S'g8'
p2965
sa(dp2966
g7
S'h1'
p2967
sa(dp2968
g5
S'white_pawn'
p2969
sg7
S'h2'
p2970
sa(dp2971
g7
S'h3'
p2972
sa(dp2973
g7
S'h4'
p2974
sa(dp2975
g7
S'h5'
p2976
sa(dp2977
g7
S'h6'
p2978
sa(dp2979
g5
S'black_pawn'
p2980
sg7
S'h7'
p2981
sa(dp2982
g7
S'h8'
p2983
saag1276
aa(lp2984
S'8765432'
p2985
a(lp2986
(dp2987
g5
S'white_rook'
p2988
sg7
S'a1'
p2989
sa(dp2990
g5
S'white_pawn'
p2991
sg7
S'a2'
p2992
sa(dp2993
g7
S'a3'
p2994
sa(dp2995
g7
S'a4'
p2996
sa(dp2997
g7
S'a5'
p2998
sa(dp2999
g5
S'black_pawn'
p3000
sg7
S'a6'
p3001
sa(dp3002
g7
S'a7'
p3003
sa(dp3004
g5
S'black_rook'
p3005
sg7
S'a8'
p3006
sa(dp3007
g7
S'b1'
p3008
sa(dp3009
g5
S'white_pawn'
p3010
sg7
S'b2'
p3011
sa(dp3012
g7
S'b3'
p3013
sa(dp3014
g7
S'b4'
p3015
sa(dp3016
g7
S'b5'
p3017
sa(dp3018
g7
S'b6'
p3019
sa(dp3020
g5
S'black_bishop'
p3021
sg7
S'b7'
p3022
sa(dp3023
g7
S'b8'
p3024
sa(dp3025
g7
S'c1'
p3026
sa(dp3027
g7
S'c2'
p3028
sa(dp3029
g5
S'white_bishop'
p3030
sg7
S'c3'
p3031
sa(dp3032
g5
S'white_bishop'
p3033
sg7
S'c4'
p3034
sa(dp3035
g7
S'c5'
p3036
sa(dp3037
g7
S'c6'
p3038
sa(dp3039
g5
S'black_knight'
p3040
sg7
S'c7'
p3041
sa(dp3042
g7
S'c8'
p3043
sa(dp3044
g7
S'd1'
p3045
sa(dp3046
g7
S'd2'
p3047
sa(dp3048
g7
S'd3'
p3049
sa(dp3050
g7
S'd4'
p3051
sa(dp3052
g5
S'white_pawn'
p3053
sg7
S'd5'
p3054
sa(dp3055
g5
S'black_pawn'
p3056
sg7
S'd6'
p3057
sa(dp3058
g7
S'd7'
p3059
sa(dp3060
g7
S'd8'
p3061
sa(dp3062
g7
S'e1'
p3063
sa(dp3064
g7
S'e2'
p3065
sa(dp3066
g7
S'e3'
p3067
sa(dp3068
g5
S'white_knight'
p3069
sg7
S'e4'
p3070
sa(dp3071
g7
S'e5'
p3072
sa(dp3073
g7
S'e6'
p3074
sa(dp3075
g7
S'e7'
p3076
sa(dp3077
g7
S'e8'
p3078
sa(dp3079
g7
S'f1'
p3080
sa(dp3081
g7
S'f2'
p3082
sa(dp3083
g7
S'f3'
p3084
sa(dp3085
g5
S'white_pawn'
p3086
sg7
S'f4'
p3087
sa(dp3088
g7
S'f5'
p3089
sa(dp3090
g7
S'f6'
p3091
sa(dp3092
g5
S'black_pawn'
p3093
sg7
S'f7'
p3094
sa(dp3095
g5
S'black_rook'
p3096
sg7
S'f8'
p3097
sa(dp3098
g5
S'white_king'
p3099
sg7
S'g1'
p3100
sa(dp3101
g5
S'white_pawn'
p3102
sg7
S'g2'
p3103
sa(dp3104
g7
S'g3'
p3105
sa(dp3106
g7
S'g4'
p3107
sa(dp3108
g7
S'g5'
p3109
sa(dp3110
g5
S'black_pawn'
p3111
sg7
S'g6'
p3112
sa(dp3113
g7
S'g7'
p3114
sa(dp3115
g5
S'black_king'
p3116
sg7
S'g8'
p3117
sa(dp3118
g7
S'h1'
p3119
sa(dp3120
g5
S'white_pawn'
p3121
sg7
S'h2'
p3122
sa(dp3123
g7
S'h3'
p3124
sa(dp3125
g7
S'h4'
p3126
sa(dp3127
g7
S'h5'
p3128
sa(dp3129
g7
S'h6'
p3130
sa(dp3131
g5
S'black_pawn'
p3132
sg7
S'h7'
p3133
sa(dp3134
g7
S'h8'
p3135
saag1276
aa(lp3136
S'8765432'
p3137
a(lp3138
(dp3139
g5
S'white_rook'
p3140
sg7
S'a1'
p3141
sa(dp3142
g5
S'white_pawn'
p3143
sg7
S'a2'
p3144
sa(dp3145
g7
S'a3'
p3146
sa(dp3147
g7
S'a4'
p3148
sa(dp3149
g7
S'a5'
p3150
sa(dp3151
g5
S'black_pawn'
p3152
sg7
S'a6'
p3153
sa(dp3154
g7
S'a7'
p3155
sa(dp3156
g5
S'black_rook'
p3157
sg7
S'a8'
p3158
sa(dp3159
g7
S'b1'
p3160
sa(dp3161
g5
S'white_pawn'
p3162
sg7
S'b2'
p3163
sa(dp3164
g7
S'b3'
p3165
sa(dp3166
g7
S'b4'
p3167
sa(dp3168
g7
S'b5'
p3169
sa(dp3170
g7
S'b6'
p3171
sa(dp3172
g5
S'black_bishop'
p3173
sg7
S'b7'
p3174
sa(dp3175
g7
S'b8'
p3176
sa(dp3177
g7
S'c1'
p3178
sa(dp3179
g7
S'c2'
p3180
sa(dp3181
g5
S'white_bishop'
p3182
sg7
S'c3'
p3183
sa(dp3184
g5
S'white_bishop'
p3185
sg7
S'c4'
p3186
sa(dp3187
g7
S'c5'
p3188
sa(dp3189
g7
S'c6'
p3190
sa(dp3191
g7
S'c7'
p3192
sa(dp3193
g7
S'c8'
p3194
sa(dp3195
g7
S'd1'
p3196
sa(dp3197
g7
S'd2'
p3198
sa(dp3199
g7
S'd3'
p3200
sa(dp3201
g7
S'd4'
p3202
sa(dp3203
g5
S'white_pawn'
p3204
sg7
S'd5'
p3205
sa(dp3206
g5
S'black_pawn'
p3207
sg7
S'd6'
p3208
sa(dp3209
g7
S'd7'
p3210
sa(dp3211
g7
S'd8'
p3212
sa(dp3213
g7
S'e1'
p3214
sa(dp3215
g7
S'e2'
p3216
sa(dp3217
g7
S'e3'
p3218
sa(dp3219
g5
S'white_knight'
p3220
sg7
S'e4'
p3221
sa(dp3222
g7
S'e5'
p3223
sa(dp3224
g7
S'e6'
p3225
sa(dp3226
g7
S'e7'
p3227
sa(dp3228
g5
S'black_knight'
p3229
sg7
S'e8'
p3230
sa(dp3231
g7
S'f1'
p3232
sa(dp3233
g7
S'f2'
p3234
sa(dp3235
g7
S'f3'
p3236
sa(dp3237
g5
S'white_pawn'
p3238
sg7
S'f4'
p3239
sa(dp3240
g7
S'f5'
p3241
sa(dp3242
g7
S'f6'
p3243
sa(dp3244
g5
S'black_pawn'
p3245
sg7
S'f7'
p3246
sa(dp3247
g5
S'black_rook'
p3248
sg7
S'f8'
p3249
sa(dp3250
g5
S'white_king'
p3251
sg7
S'g1'
p3252
sa(dp3253
g5
S'white_pawn'
p3254
sg7
S'g2'
p3255
sa(dp3256
g7
S'g3'
p3257
sa(dp3258
g7
S'g4'
p3259
sa(dp3260
g7
S'g5'
p3261
sa(dp3262
g5
S'black_pawn'
p3263
sg7
S'g6'
p3264
sa(dp3265
g7
S'g7'
p3266
sa(dp3267
g5
S'black_king'
p3268
sg7
S'g8'
p3269
sa(dp3270
g7
S'h1'
p3271
sa(dp3272
g5
S'white_pawn'
p3273
sg7
S'h2'
p3274
sa(dp3275
g7
S'h3'
p3276
sa(dp3277
g7
S'h4'
p3278
sa(dp3279
g7
S'h5'
p3280
sa(dp3281
g7
S'h6'
p3282
sa(dp3283
g5
S'black_pawn'
p3284
sg7
S'h7'
p3285
sa(dp3286
g7
S'h8'
p3287
saag1276
aa.