(lp0
(lp1
S'11. Nxd3'
p2
a(lp3
(dp4
S'piece'
p5
S'white_rook'
p6
sS'location'
p7
S'a1'
p8
sa(dp9
g5
S'white_pawn'
p10
sg7
S'a2'
p11
sa(dp12
g7
S'a3'
p13
sa(dp14
g7
S'a4'
p15
sa(dp16
g7
S'a5'
p17
sa(dp18
g5
S'black_pawn'
p19
sg7
S'a6'
p20
sa(dp21
g7
S'a7'
p22
sa(dp23
g5
S'black_rook'
p24
sg7
S'a8'
p25
sa(dp26
g5
S'white_knight'
p27
sg7
S'b1'
p28
sa(dp29
g5
S'white_bishop'
p30
sg7
S'b2'
p31
sa(dp32
g5
S'white_pawn'
p33
sg7
S'b3'
p34
sa(dp35
g7
S'b4'
p36
sa(dp37
g7
S'b5'
p38
sa(dp39
g7
S'b6'
p40
sa(dp41
g5
S'black_pawn'
p42
sg7
S'b7'
p43
sa(dp44
g7
S'b8'
p45
sa(dp46
g7
S'c1'
p47
sa(dp48
g7
S'c2'
p49
sa(dp50
g7
S'c3'
p51
sa(dp52
g7
S'c4'
p53
sa(dp54
g7
S'c5'
p55
sa(dp56
g7
S'c6'
p57
sa(dp58
g7
S'c7'
p59
sa(dp60
g5
S'black_bishop'
p61
sg7
S'c8'
p62
sa(dp63
g7
S'd1'
p64
sa(dp65
g5
S'white_pawn'
p66
sg7
S'd2'
p67
sa(dp68
g5
S'white_knight'
p69
sg7
S'd3'
p70
sa(dp71
g7
S'd4'
p72
sa(dp73
g7
S'd5'
p74
sa(dp75
g7
S'd6'
p76
sa(dp77
g7
S'd7'
p78
sa(dp79
g7
S'd8'
p80
sa(dp81
g5
S'white_king'
p82
sg7
S'e1'
p83
sa(dp84
g7
S'e2'
p85
sa(dp86
g7
S'e3'
p87
sa(dp88
g5
S'white_pawn'
p89
sg7
S'e4'
p90
sa(dp91
g7
S'e5'
p92
sa(dp93
g5
S'black_queen'
p94
sg7
S'e6'
p95
sa(dp96
g5
S'black_pawn'
p97
sg7
S'e7'
p98
sa(dp99
g5
S'black_king'
p100
sg7
S'e8'
p101
sa(dp102
g7
S'f1'
p103
sa(dp104
g5
S'white_pawn'
p105
sg7
S'f2'
p106
sa(dp107
g5
S'white_queen'
p108
sg7
S'f3'
p109
sa(dp110
g7
S'f4'
p111
sa(dp112
g7
S'f5'
p113
sa(dp114
g5
S'black_pawn'
p115
sg7
S'f6'
p116
sa(dp117
g7
S'f7'
p118
sa(dp119
g5
S'black_bishop'
p120
sg7
S'f8'
p121
sa(dp122
g7
S'g1'
p123
sa(dp124
g5
S'white_pawn'
p125
sg7
S'g2'
p126
sa(dp127
g7
S'g3'
p128
sa(dp129
g7
S'g4'
p130
sa(dp131
g7
S'g5'
p132
sa(dp133
g7
S'g6'
p134
sa(dp135
g5
S'black_pawn'
p136
sg7
S'g7'
p137
sa(dp138
g5
S'black_knight'
p139
sg7
S'g8'
p140
sa(dp141
g5
S'white_rook'
p142
sg7
S'h1'
p143
sa(dp144
g5
S'white_pawn'
p145
sg7
S'h2'
p146
sa(dp147
g7
S'h3'
p148
sa(dp149
g7
S'h4'
p150
sa(dp151
g7
S'h5'
p152
sa(dp153
g7
S'h6'
p154
sa(dp155
g5
S'black_pawn'
p156
sg7
S'h7'
p157
sa(dp158
g5
S'black_rook'
p159
sg7
S'h8'
p160
saaVHe takes. Now he is a pawn up, and better development. It should be a winning advantage for white.
p161
aa(lp162
S'11... Qc6'
p163
a(lp164
(dp165
g5
S'white_rook'
p166
sg7
S'a1'
p167
sa(dp168
g5
S'white_pawn'
p169
sg7
S'a2'
p170
sa(dp171
g7
S'a3'
p172
sa(dp173
g7
S'a4'
p174
sa(dp175
g7
S'a5'
p176
sa(dp177
g5
S'black_pawn'
p178
sg7
S'a6'
p179
sa(dp180
g7
S'a7'
p181
sa(dp182
g5
S'black_rook'
p183
sg7
S'a8'
p184
sa(dp185
g5
S'white_knight'
p186
sg7
S'b1'
p187
sa(dp188
g5
S'white_bishop'
p189
sg7
S'b2'
p190
sa(dp191
g5
S'white_pawn'
p192
sg7
S'b3'
p193
sa(dp194
g7
S'b4'
p195
sa(dp196
g7
S'b5'
p197
sa(dp198
g7
S'b6'
p199
sa(dp200
g5
S'black_pawn'
p201
sg7
S'b7'
p202
sa(dp203
g7
S'b8'
p204
sa(dp205
g7
S'c1'
p206
sa(dp207
g7
S'c2'
p208
sa(dp209
g7
S'c3'
p210
sa(dp211
g7
S'c4'
p212
sa(dp213
g7
S'c5'
p214
sa(dp215
g5
S'black_queen'
p216
sg7
S'c6'
p217
sa(dp218
g7
S'c7'
p219
sa(dp220
g5
S'black_bishop'
p221
sg7
S'c8'
p222
sa(dp223
g7
S'd1'
p224
sa(dp225
g5
S'white_pawn'
p226
sg7
S'd2'
p227
sa(dp228
g5
S'white_knight'
p229
sg7
S'd3'
p230
sa(dp231
g7
S'd4'
p232
sa(dp233
g7
S'd5'
p234
sa(dp235
g7
S'd6'
p236
sa(dp237
g7
S'd7'
p238
sa(dp239
g7
S'd8'
p240
sa(dp241
g5
S'white_king'
p242
sg7
S'e1'
p243
sa(dp244
g7
S'e2'
p245
sa(dp246
g7
S'e3'
p247
sa(dp248
g5
S'white_pawn'
p249
sg7
S'e4'
p250
sa(dp251
g7
S'e5'
p252
sa(dp253
g7
S'e6'
p254
sa(dp255
g5
S'black_pawn'
p256
sg7
S'e7'
p257
sa(dp258
g5
S'black_king'
p259
sg7
S'e8'
p260
sa(dp261
g7
S'f1'
p262
sa(dp263
g5
S'white_pawn'
p264
sg7
S'f2'
p265
sa(dp266
g5
S'white_queen'
p267
sg7
S'f3'
p268
sa(dp269
g7
S'f4'
p270
sa(dp271
g7
S'f5'
p272
sa(dp273
g5
S'black_pawn'
p274
sg7
S'f6'
p275
sa(dp276
g7
S'f7'
p277
sa(dp278
g5
S'black_bishop'
p279
sg7
S'f8'
p280
sa(dp281
g7
S'g1'
p282
sa(dp283
g5
S'white_pawn'
p284
sg7
S'g2'
p285
sa(dp286
g7
S'g3'
p287
sa(dp288
g7
S'g4'
p289
sa(dp290
g7
S'g5'
p291
sa(dp292
g7
S'g6'
p293
sa(dp294
g5
S'black_pawn'
p295
sg7
S'g7'
p296
sa(dp297
g5
S'black_knight'
p298
sg7
S'g8'
p299
sa(dp300
g5
S'white_rook'
p301
sg7
S'h1'
p302
sa(dp303
g5
S'white_pawn'
p304
sg7
S'h2'
p305
sa(dp306
g7
S'h3'
p307
sa(dp308
g7
S'h4'
p309
sa(dp310
g7
S'h5'
p311
sa(dp312
g7
S'h6'
p313
sa(dp314
g5
S'black_pawn'
p315
sg7
S'h7'
p316
sa(dp317
g5
S'black_rook'
p318
sg7
S'h8'
p319
saaVMy plan is to play e7-e5 and make his extra pawn on d2 backward on a semi-open file.
p320
aa(lp321
S'12. Nb4'
p322
a(lp323
(dp324
g5
S'white_rook'
p325
sg7
S'a1'
p326
sa(dp327
g5
S'white_pawn'
p328
sg7
S'a2'
p329
sa(dp330
g7
S'a3'
p331
sa(dp332
g7
S'a4'
p333
sa(dp334
g7
S'a5'
p335
sa(dp336
g5
S'black_pawn'
p337
sg7
S'a6'
p338
sa(dp339
g7
S'a7'
p340
sa(dp341
g5
S'black_rook'
p342
sg7
S'a8'
p343
sa(dp344
g5
S'white_knight'
p345
sg7
S'b1'
p346
sa(dp347
g5
S'white_bishop'
p348
sg7
S'b2'
p349
sa(dp350
g5
S'white_pawn'
p351
sg7
S'b3'
p352
sa(dp353
g5
S'white_knight'
p354
sg7
S'b4'
p355
sa(dp356
g7
S'b5'
p357
sa(dp358
g7
S'b6'
p359
sa(dp360
g5
S'black_pawn'
p361
sg7
S'b7'
p362
sa(dp363
g7
S'b8'
p364
sa(dp365
g7
S'c1'
p366
sa(dp367
g7
S'c2'
p368
sa(dp369
g7
S'c3'
p370
sa(dp371
g7
S'c4'
p372
sa(dp373
g7
S'c5'
p374
sa(dp375
g5
S'black_queen'
p376
sg7
S'c6'
p377
sa(dp378
g7
S'c7'
p379
sa(dp380
g5
S'black_bishop'
p381
sg7
S'c8'
p382
sa(dp383
g7
S'd1'
p384
sa(dp385
g5
S'white_pawn'
p386
sg7
S'd2'
p387
sa(dp388
g7
S'd3'
p389
sa(dp390
g7
S'd4'
p391
sa(dp392
g7
S'd5'
p393
sa(dp394
g7
S'd6'
p395
sa(dp396
g7
S'd7'
p397
sa(dp398
g7
S'd8'
p399
sa(dp400
g5
S'white_king'
p401
sg7
S'e1'
p402
sa(dp403
g7
S'e2'
p404
sa(dp405
g7
S'e3'
p406
sa(dp407
g5
S'white_pawn'
p408
sg7
S'e4'
p409
sa(dp410
g7
S'e5'
p411
sa(dp412
g7
S'e6'
p413
sa(dp414
g5
S'black_pawn'
p415
sg7
S'e7'
p416
sa(dp417
g5
S'black_king'
p418
sg7
S'e8'
p419
sa(dp420
g7
S'f1'
p421
sa(dp422
g5
S'white_pawn'
p423
sg7
S'f2'
p424
sa(dp425
g5
S'white_queen'
p426
sg7
S'f3'
p427
sa(dp428
g7
S'f4'
p429
sa(dp430
g7
S'f5'
p431
sa(dp432
g5
S'black_pawn'
p433
sg7
S'f6'
p434
sa(dp435
g7
S'f7'
p436
sa(dp437
g5
S'black_bishop'
p438
sg7
S'f8'
p439
sa(dp440
g7
S'g1'
p441
sa(dp442
g5
S'white_pawn'
p443
sg7
S'g2'
p444
sa(dp445
g7
S'g3'
p446
sa(dp447
g7
S'g4'
p448
sa(dp449
g7
S'g5'
p450
sa(dp451
g7
S'g6'
p452
sa(dp453
g5
S'black_pawn'
p454
sg7
S'g7'
p455
sa(dp456
g5
S'black_knight'
p457
sg7
S'g8'
p458
sa(dp459
g5
S'white_rook'
p460
sg7
S'h1'
p461
sa(dp462
g5
S'white_pawn'
p463
sg7
S'h2'
p464
sa(dp465
g7
S'h3'
p466
sa(dp467
g7
S'h4'
p468
sa(dp469
g7
S'h5'
p470
sa(dp471
g7
S'h6'
p472
sa(dp473
g5
S'black_pawn'
p474
sg7
S'h7'
p475
sa(dp476
g5
S'black_rook'
p477
sg7
S'h8'
p478
saaVHe hits my queen.
p479
aa(lp480
S'12... Qc5'
p481
a(lp482
(dp483
g5
S'white_rook'
p484
sg7
S'a1'
p485
sa(dp486
g5
S'white_pawn'
p487
sg7
S'a2'
p488
sa(dp489
g7
S'a3'
p490
sa(dp491
g7
S'a4'
p492
sa(dp493
g7
S'a5'
p494
sa(dp495
g5
S'black_pawn'
p496
sg7
S'a6'
p497
sa(dp498
g7
S'a7'
p499
sa(dp500
g5
S'black_rook'
p501
sg7
S'a8'
p502
sa(dp503
g5
S'white_knight'
p504
sg7
S'b1'
p505
sa(dp506
g5
S'white_bishop'
p507
sg7
S'b2'
p508
sa(dp509
g5
S'white_pawn'
p510
sg7
S'b3'
p511
sa(dp512
g5
S'white_knight'
p513
sg7
S'b4'
p514
sa(dp515
g7
S'b5'
p516
sa(dp517
g7
S'b6'
p518
sa(dp519
g5
S'black_pawn'
p520
sg7
S'b7'
p521
sa(dp522
g7
S'b8'
p523
sa(dp524
g7
S'c1'
p525
sa(dp526
g7
S'c2'
p527
sa(dp528
g7
S'c3'
p529
sa(dp530
g7
S'c4'
p531
sa(dp532
g5
S'black_queen'
p533
sg7
S'c5'
p534
sa(dp535
g7
S'c6'
p536
sa(dp537
g7
S'c7'
p538
sa(dp539
g5
S'black_bishop'
p540
sg7
S'c8'
p541
sa(dp542
g7
S'd1'
p543
sa(dp544
g5
S'white_pawn'
p545
sg7
S'd2'
p546
sa(dp547
g7
S'd3'
p548
sa(dp549
g7
S'd4'
p550
sa(dp551
g7
S'd5'
p552
sa(dp553
g7
S'd6'
p554
sa(dp555
g7
S'd7'
p556
sa(dp557
g7
S'd8'
p558
sa(dp559
g5
S'white_king'
p560
sg7
S'e1'
p561
sa(dp562
g7
S'e2'
p563
sa(dp564
g7
S'e3'
p565
sa(dp566
g5
S'white_pawn'
p567
sg7
S'e4'
p568
sa(dp569
g7
S'e5'
p570
sa(dp571
g7
S'e6'
p572
sa(dp573
g5
S'black_pawn'
p574
sg7
S'e7'
p575
sa(dp576
g5
S'black_king'
p577
sg7
S'e8'
p578
sa(dp579
g7
S'f1'
p580
sa(dp581
g5
S'white_pawn'
p582
sg7
S'f2'
p583
sa(dp584
g5
S'white_queen'
p585
sg7
S'f3'
p586
sa(dp587
g7
S'f4'
p588
sa(dp589
g7
S'f5'
p590
sa(dp591
g5
S'black_pawn'
p592
sg7
S'f6'
p593
sa(dp594
g7
S'f7'
p595
sa(dp596
g5
S'black_bishop'
p597
sg7
S'f8'
p598
sa(dp599
g7
S'g1'
p600
sa(dp601
g5
S'white_pawn'
p602
sg7
S'g2'
p603
sa(dp604
g7
S'g3'
p605
sa(dp606
g7
S'g4'
p607
sa(dp608
g7
S'g5'
p609
sa(dp610
g7
S'g6'
p611
sa(dp612
g5
S'black_pawn'
p613
sg7
S'g7'
p614
sa(dp615
g5
S'black_knight'
p616
sg7
S'g8'
p617
sa(dp618
g5
S'white_rook'
p619
sg7
S'h1'
p620
sa(dp621
g5
S'white_pawn'
p622
sg7
S'h2'
p623
sa(dp624
g7
S'h3'
p625
sa(dp626
g7
S'h4'
p627
sa(dp628
g7
S'h5'
p629
sa(dp630
g7
S'h6'
p631
sa(dp632
g5
S'black_pawn'
p633
sg7
S'h7'
p634
sa(dp635
g5
S'black_rook'
p636
sg7
S'h8'
p637
saaVQueen moves.
p638
aa(lp639
S'13. Nd5'
p640
a(lp641
(dp642
g5
S'white_rook'
p643
sg7
S'a1'
p644
sa(dp645
g5
S'white_pawn'
p646
sg7
S'a2'
p647
sa(dp648
g7
S'a3'
p649
sa(dp650
g7
S'a4'
p651
sa(dp652
g7
S'a5'
p653
sa(dp654
g5
S'black_pawn'
p655
sg7
S'a6'
p656
sa(dp657
g7
S'a7'
p658
sa(dp659
g5
S'black_rook'
p660
sg7
S'a8'
p661
sa(dp662
g5
S'white_knight'
p663
sg7
S'b1'
p664
sa(dp665
g5
S'white_bishop'
p666
sg7
S'b2'
p667
sa(dp668
g5
S'white_pawn'
p669
sg7
S'b3'
p670
sa(dp671
g7
S'b4'
p672
sa(dp673
g7
S'b5'
p674
sa(dp675
g7
S'b6'
p676
sa(dp677
g5
S'black_pawn'
p678
sg7
S'b7'
p679
sa(dp680
g7
S'b8'
p681
sa(dp682
g7
S'c1'
p683
sa(dp684
g7
S'c2'
p685
sa(dp686
g7
S'c3'
p687
sa(dp688
g7
S'c4'
p689
sa(dp690
g5
S'black_queen'
p691
sg7
S'c5'
p692
sa(dp693
g7
S'c6'
p694
sa(dp695
g7
S'c7'
p696
sa(dp697
g5
S'black_bishop'
p698
sg7
S'c8'
p699
sa(dp700
g7
S'd1'
p701
sa(dp702
g5
S'white_pawn'
p703
sg7
S'd2'
p704
sa(dp705
g7
S'd3'
p706
sa(dp707
g7
S'd4'
p708
sa(dp709
g5
S'white_knight'
p710
sg7
S'd5'
p711
sa(dp712
g7
S'd6'
p713
sa(dp714
g7
S'd7'
p715
sa(dp716
g7
S'd8'
p717
sa(dp718
g5
S'white_king'
p719
sg7
S'e1'
p720
sa(dp721
g7
S'e2'
p722
sa(dp723
g7
S'e3'
p724
sa(dp725
g5
S'white_pawn'
p726
sg7
S'e4'
p727
sa(dp728
g7
S'e5'
p729
sa(dp730
g7
S'e6'
p731
sa(dp732
g5
S'black_pawn'
p733
sg7
S'e7'
p734
sa(dp735
g5
S'black_king'
p736
sg7
S'e8'
p737
sa(dp738
g7
S'f1'
p739
sa(dp740
g5
S'white_pawn'
p741
sg7
S'f2'
p742
sa(dp743
g5
S'white_queen'
p744
sg7
S'f3'
p745
sa(dp746
g7
S'f4'
p747
sa(dp748
g7
S'f5'
p749
sa(dp750
g5
S'black_pawn'
p751
sg7
S'f6'
p752
sa(dp753
g7
S'f7'
p754
sa(dp755
g5
S'black_bishop'
p756
sg7
S'f8'
p757
sa(dp758
g7
S'g1'
p759
sa(dp760
g5
S'white_pawn'
p761
sg7
S'g2'
p762
sa(dp763
g7
S'g3'
p764
sa(dp765
g7
S'g4'
p766
sa(dp767
g7
S'g5'
p768
sa(dp769
g7
S'g6'
p770
sa(dp771
g5
S'black_pawn'
p772
sg7
S'g7'
p773
sa(dp774
g5
S'black_knight'
p775
sg7
S'g8'
p776
sa(dp777
g5
S'white_rook'
p778
sg7
S'h1'
p779
sa(dp780
g5
S'white_pawn'
p781
sg7
S'h2'
p782
sa(dp783
g7
S'h3'
p784
sa(dp785
g7
S'h4'
p786
sa(dp787
g7
S'h5'
p788
sa(dp789
g7
S'h6'
p790
sa(dp791
g5
S'black_pawn'
p792
sg7
S'h7'
p793
sa(dp794
g5
S'black_rook'
p795
sg7
S'h8'
p796
saaVKnight comes in.
p797
aa(lp798
S'13... e6'
p799
a(lp800
(dp801
g5
S'white_rook'
p802
sg7
S'a1'
p803
sa(dp804
g5
S'white_pawn'
p805
sg7
S'a2'
p806
sa(dp807
g7
S'a3'
p808
sa(dp809
g7
S'a4'
p810
sa(dp811
g7
S'a5'
p812
sa(dp813
g5
S'black_pawn'
p814
sg7
S'a6'
p815
sa(dp816
g7
S'a7'
p817
sa(dp818
g5
S'black_rook'
p819
sg7
S'a8'
p820
sa(dp821
g5
S'white_knight'
p822
sg7
S'b1'
p823
sa(dp824
g5
S'white_bishop'
p825
sg7
S'b2'
p826
sa(dp827
g5
S'white_pawn'
p828
sg7
S'b3'
p829
sa(dp830
g7
S'b4'
p831
sa(dp832
g7
S'b5'
p833
sa(dp834
g7
S'b6'
p835
sa(dp836
g5
S'black_pawn'
p837
sg7
S'b7'
p838
sa(dp839
g7
S'b8'
p840
sa(dp841
g7
S'c1'
p842
sa(dp843
g7
S'c2'
p844
sa(dp845
g7
S'c3'
p846
sa(dp847
g7
S'c4'
p848
sa(dp849
g5
S'black_queen'
p850
sg7
S'c5'
p851
sa(dp852
g7
S'c6'
p853
sa(dp854
g7
S'c7'
p855
sa(dp856
g5
S'black_bishop'
p857
sg7
S'c8'
p858
sa(dp859
g7
S'd1'
p860
sa(dp861
g5
S'white_pawn'
p862
sg7
S'd2'
p863
sa(dp864
g7
S'd3'
p865
sa(dp866
g7
S'd4'
p867
sa(dp868
g5
S'white_knight'
p869
sg7
S'd5'
p870
sa(dp871
g7
S'd6'
p872
sa(dp873
g7
S'd7'
p874
sa(dp875
g7
S'd8'
p876
sa(dp877
g5
S'white_king'
p878
sg7
S'e1'
p879
sa(dp880
g7
S'e2'
p881
sa(dp882
g7
S'e3'
p883
sa(dp884
g5
S'white_pawn'
p885
sg7
S'e4'
p886
sa(dp887
g7
S'e5'
p888
sa(dp889
g5
S'black_pawn'
p890
sg7
S'e6'
p891
sa(dp892
g7
S'e7'
p893
sa(dp894
g5
S'black_king'
p895
sg7
S'e8'
p896
sa(dp897
g7
S'f1'
p898
sa(dp899
g5
S'white_pawn'
p900
sg7
S'f2'
p901
sa(dp902
g5
S'white_queen'
p903
sg7
S'f3'
p904
sa(dp905
g7
S'f4'
p906
sa(dp907
g7
S'f5'
p908
sa(dp909
g5
S'black_pawn'
p910
sg7
S'f6'
p911
sa(dp912
g7
S'f7'
p913
sa(dp914
g5
S'black_bishop'
p915
sg7
S'f8'
p916
sa(dp917
g7
S'g1'
p918
sa(dp919
g5
S'white_pawn'
p920
sg7
S'g2'
p921
sa(dp922
g7
S'g3'
p923
sa(dp924
g7
S'g4'
p925
sa(dp926
g7
S'g5'
p927
sa(dp928
g7
S'g6'
p929
sa(dp930
g5
S'black_pawn'
p931
sg7
S'g7'
p932
sa(dp933
g5
S'black_knight'
p934
sg7
S'g8'
p935
sa(dp936
g5
S'white_rook'
p937
sg7
S'h1'
p938
sa(dp939
g5
S'white_pawn'
p940
sg7
S'h2'
p941
sa(dp942
g7
S'h3'
p943
sa(dp944
g7
S'h4'
p945
sa(dp946
g7
S'h5'
p947
sa(dp948
g7
S'h6'
p949
sa(dp950
g5
S'black_pawn'
p951
sg7
S'h7'
p952
sa(dp953
g5
S'black_rook'
p954
sg7
S'h8'
p955
saaVI hit his knight.
p956
aa(lp957
S'14. Ba3'
p958
a(lp959
(dp960
g5
S'white_rook'
p961
sg7
S'a1'
p962
sa(dp963
g5
S'white_pawn'
p964
sg7
S'a2'
p965
sa(dp966
g5
S'white_bishop'
p967
sg7
S'a3'
p968
sa(dp969
g7
S'a4'
p970
sa(dp971
g7
S'a5'
p972
sa(dp973
g5
S'black_pawn'
p974
sg7
S'a6'
p975
sa(dp976
g7
S'a7'
p977
sa(dp978
g5
S'black_rook'
p979
sg7
S'a8'
p980
sa(dp981
g5
S'white_knight'
p982
sg7
S'b1'
p983
sa(dp984
g7
S'b2'
p985
sa(dp986
g5
S'white_pawn'
p987
sg7
S'b3'
p988
sa(dp989
g7
S'b4'
p990
sa(dp991
g7
S'b5'
p992
sa(dp993
g7
S'b6'
p994
sa(dp995
g5
S'black_pawn'
p996
sg7
S'b7'
p997
sa(dp998
g7
S'b8'
p999
sa(dp1000
g7
S'c1'
p1001
sa(dp1002
g7
S'c2'
p1003
sa(dp1004
g7
S'c3'
p1005
sa(dp1006
g7
S'c4'
p1007
sa(dp1008
g5
S'black_queen'
p1009
sg7
S'c5'
p1010
sa(dp1011
g7
S'c6'
p1012
sa(dp1013
g7
S'c7'
p1014
sa(dp1015
g5
S'black_bishop'
p1016
sg7
S'c8'
p1017
sa(dp1018
g7
S'd1'
p1019
sa(dp1020
g5
S'white_pawn'
p1021
sg7
S'd2'
p1022
sa(dp1023
g7
S'd3'
p1024
sa(dp1025
g7
S'd4'
p1026
sa(dp1027
g5
S'white_knight'
p1028
sg7
S'd5'
p1029
sa(dp1030
g7
S'd6'
p1031
sa(dp1032
g7
S'd7'
p1033
sa(dp1034
g7
S'd8'
p1035
sa(dp1036
g5
S'white_king'
p1037
sg7
S'e1'
p1038
sa(dp1039
g7
S'e2'
p1040
sa(dp1041
g7
S'e3'
p1042
sa(dp1043
g5
S'white_pawn'
p1044
sg7
S'e4'
p1045
sa(dp1046
g7
S'e5'
p1047
sa(dp1048
g5
S'black_pawn'
p1049
sg7
S'e6'
p1050
sa(dp1051
g7
S'e7'
p1052
sa(dp1053
g5
S'black_king'
p1054
sg7
S'e8'
p1055
sa(dp1056
g7
S'f1'
p1057
sa(dp1058
g5
S'white_pawn'
p1059
sg7
S'f2'
p1060
sa(dp1061
g5
S'white_queen'
p1062
sg7
S'f3'
p1063
sa(dp1064
g7
S'f4'
p1065
sa(dp1066
g7
S'f5'
p1067
sa(dp1068
g5
S'black_pawn'
p1069
sg7
S'f6'
p1070
sa(dp1071
g7
S'f7'
p1072
sa(dp1073
g5
S'black_bishop'
p1074
sg7
S'f8'
p1075
sa(dp1076
g7
S'g1'
p1077
sa(dp1078
g5
S'white_pawn'
p1079
sg7
S'g2'
p1080
sa(dp1081
g7
S'g3'
p1082
sa(dp1083
g7
S'g4'
p1084
sa(dp1085
g7
S'g5'
p1086
sa(dp1087
g7
S'g6'
p1088
sa(dp1089
g5
S'black_pawn'
p1090
sg7
S'g7'
p1091
sa(dp1092
g5
S'black_knight'
p1093
sg7
S'g8'
p1094
sa(dp1095
g5
S'white_rook'
p1096
sg7
S'h1'
p1097
sa(dp1098
g5
S'white_pawn'
p1099
sg7
S'h2'
p1100
sa(dp1101
g7
S'h3'
p1102
sa(dp1103
g7
S'h4'
p1104
sa(dp1105
g7
S'h5'
p1106
sa(dp1107
g7
S'h6'
p1108
sa(dp1109
g5
S'black_pawn'
p1110
sg7
S'h7'
p1111
sa(dp1112
g5
S'black_rook'
p1113
sg7
S'h8'
p1114
saaVHe hits my queen.
p1115
aa(lp1116
S'14... Qd4'
p1117
a(lp1118
(dp1119
g5
S'white_rook'
p1120
sg7
S'a1'
p1121
sa(dp1122
g5
S'white_pawn'
p1123
sg7
S'a2'
p1124
sa(dp1125
g5
S'white_bishop'
p1126
sg7
S'a3'
p1127
sa(dp1128
g7
S'a4'
p1129
sa(dp1130
g7
S'a5'
p1131
sa(dp1132
g5
S'black_pawn'
p1133
sg7
S'a6'
p1134
sa(dp1135
g7
S'a7'
p1136
sa(dp1137
g5
S'black_rook'
p1138
sg7
S'a8'
p1139
sa(dp1140
g5
S'white_knight'
p1141
sg7
S'b1'
p1142
sa(dp1143
g7
S'b2'
p1144
sa(dp1145
g5
S'white_pawn'
p1146
sg7
S'b3'
p1147
sa(dp1148
g7
S'b4'
p1149
sa(dp1150
g7
S'b5'
p1151
sa(dp1152
g7
S'b6'
p1153
sa(dp1154
g5
S'black_pawn'
p1155
sg7
S'b7'
p1156
sa(dp1157
g7
S'b8'
p1158
sa(dp1159
g7
S'c1'
p1160
sa(dp1161
g7
S'c2'
p1162
sa(dp1163
g7
S'c3'
p1164
sa(dp1165
g7
S'c4'
p1166
sa(dp1167
g7
S'c5'
p1168
sa(dp1169
g7
S'c6'
p1170
sa(dp1171
g7
S'c7'
p1172
sa(dp1173
g5
S'black_bishop'
p1174
sg7
S'c8'
p1175
sa(dp1176
g7
S'd1'
p1177
sa(dp1178
g5
S'white_pawn'
p1179
sg7
S'd2'
p1180
sa(dp1181
g7
S'd3'
p1182
sa(dp1183
g5
S'black_queen'
p1184
sg7
S'd4'
p1185
sa(dp1186
g5
S'white_knight'
p1187
sg7
S'd5'
p1188
sa(dp1189
g7
S'd6'
p1190
sa(dp1191
g7
S'd7'
p1192
sa(dp1193
g7
S'd8'
p1194
sa(dp1195
g5
S'white_king'
p1196
sg7
S'e1'
p1197
sa(dp1198
g7
S'e2'
p1199
sa(dp1200
g7
S'e3'
p1201
sa(dp1202
g5
S'white_pawn'
p1203
sg7
S'e4'
p1204
sa(dp1205
g7
S'e5'
p1206
sa(dp1207
g5
S'black_pawn'
p1208
sg7
S'e6'
p1209
sa(dp1210
g7
S'e7'
p1211
sa(dp1212
g5
S'black_king'
p1213
sg7
S'e8'
p1214
sa(dp1215
g7
S'f1'
p1216
sa(dp1217
g5
S'white_pawn'
p1218
sg7
S'f2'
p1219
sa(dp1220
g5
S'white_queen'
p1221
sg7
S'f3'
p1222
sa(dp1223
g7
S'f4'
p1224
sa(dp1225
g7
S'f5'
p1226
sa(dp1227
g5
S'black_pawn'
p1228
sg7
S'f6'
p1229
sa(dp1230
g7
S'f7'
p1231
sa(dp1232
g5
S'black_bishop'
p1233
sg7
S'f8'
p1234
sa(dp1235
g7
S'g1'
p1236
sa(dp1237
g5
S'white_pawn'
p1238
sg7
S'g2'
p1239
sa(dp1240
g7
S'g3'
p1241
sa(dp1242
g7
S'g4'
p1243
sa(dp1244
g7
S'g5'
p1245
sa(dp1246
g7
S'g6'
p1247
sa(dp1248
g5
S'black_pawn'
p1249
sg7
S'g7'
p1250
sa(dp1251
g5
S'black_knight'
p1252
sg7
S'g8'
p1253
sa(dp1254
g5
S'white_rook'
p1255
sg7
S'h1'
p1256
sa(dp1257
g5
S'white_pawn'
p1258
sg7
S'h2'
p1259
sa(dp1260
g7
S'h3'
p1261
sa(dp1262
g7
S'h4'
p1263
sa(dp1264
g7
S'h5'
p1265
sa(dp1266
g7
S'h6'
p1267
sa(dp1268
g5
S'black_pawn'
p1269
sg7
S'h7'
p1270
sa(dp1271
g5
S'black_rook'
p1272
sg7
S'h8'
p1273
saaVI attack his rook, his knight is still hanging.
p1274
aa(lp1275
S'15. Ndc3'
p1276
a(lp1277
(dp1278
g5
S'white_rook'
p1279
sg7
S'a1'
p1280
sa(dp1281
g5
S'white_pawn'
p1282
sg7
S'a2'
p1283
sa(dp1284
g5
S'white_bishop'
p1285
sg7
S'a3'
p1286
sa(dp1287
g7
S'a4'
p1288
sa(dp1289
g7
S'a5'
p1290
sa(dp1291
g5
S'black_pawn'
p1292
sg7
S'a6'
p1293
sa(dp1294
g7
S'a7'
p1295
sa(dp1296
g5
S'black_rook'
p1297
sg7
S'a8'
p1298
sa(dp1299
g5
S'white_knight'
p1300
sg7
S'b1'
p1301
sa(dp1302
g7
S'b2'
p1303
sa(dp1304
g5
S'white_pawn'
p1305
sg7
S'b3'
p1306
sa(dp1307
g7
S'b4'
p1308
sa(dp1309
g7
S'b5'
p1310
sa(dp1311
g7
S'b6'
p1312
sa(dp1313
g5
S'black_pawn'
p1314
sg7
S'b7'
p1315
sa(dp1316
g7
S'b8'
p1317
sa(dp1318
g7
S'c1'
p1319
sa(dp1320
g7
S'c2'
p1321
sa(dp1322
g5
S'white_knight'
p1323
sg7
S'c3'
p1324
sa(dp1325
g7
S'c4'
p1326
sa(dp1327
g7
S'c5'
p1328
sa(dp1329
g7
S'c6'
p1330
sa(dp1331
g7
S'c7'
p1332
sa(dp1333
g5
S'black_bishop'
p1334
sg7
S'c8'
p1335
sa(dp1336
g7
S'd1'
p1337
sa(dp1338
g5
S'white_pawn'
p1339
sg7
S'd2'
p1340
sa(dp1341
g7
S'd3'
p1342
sa(dp1343
g5
S'black_queen'
p1344
sg7
S'd4'
p1345
sa(dp1346
g7
S'd5'
p1347
sa(dp1348
g7
S'd6'
p1349
sa(dp1350
g7
S'd7'
p1351
sa(dp1352
g7
S'd8'
p1353
sa(dp1354
g5
S'white_king'
p1355
sg7
S'e1'
p1356
sa(dp1357
g7
S'e2'
p1358
sa(dp1359
g7
S'e3'
p1360
sa(dp1361
g5
S'white_pawn'
p1362
sg7
S'e4'
p1363
sa(dp1364
g7
S'e5'
p1365
sa(dp1366
g5
S'black_pawn'
p1367
sg7
S'e6'
p1368
sa(dp1369
g7
S'e7'
p1370
sa(dp1371
g5
S'black_king'
p1372
sg7
S'e8'
p1373
sa(dp1374
g7
S'f1'
p1375
sa(dp1376
g5
S'white_pawn'
p1377
sg7
S'f2'
p1378
sa(dp1379
g5
S'white_queen'
p1380
sg7
S'f3'
p1381
sa(dp1382
g7
S'f4'
p1383
sa(dp1384
g7
S'f5'
p1385
sa(dp1386
g5
S'black_pawn'
p1387
sg7
S'f6'
p1388
sa(dp1389
g7
S'f7'
p1390
sa(dp1391
g5
S'black_bishop'
p1392
sg7
S'f8'
p1393
sa(dp1394
g7
S'g1'
p1395
sa(dp1396
g5
S'white_pawn'
p1397
sg7
S'g2'
p1398
sa(dp1399
g7
S'g3'
p1400
sa(dp1401
g7
S'g4'
p1402
sa(dp1403
g7
S'g5'
p1404
sa(dp1405
g7
S'g6'
p1406
sa(dp1407
g5
S'black_pawn'
p1408
sg7
S'g7'
p1409
sa(dp1410
g5
S'black_knight'
p1411
sg7
S'g8'
p1412
sa(dp1413
g5
S'white_rook'
p1414
sg7
S'h1'
p1415
sa(dp1416
g5
S'white_pawn'
p1417
sg7
S'h2'
p1418
sa(dp1419
g7
S'h3'
p1420
sa(dp1421
g7
S'h4'
p1422
sa(dp1423
g7
S'h5'
p1424
sa(dp1425
g7
S'h6'
p1426
sa(dp1427
g5
S'black_pawn'
p1428
sg7
S'h7'
p1429
sa(dp1430
g5
S'black_rook'
p1431
sg7
S'h8'
p1432
saaVAfter a long think, he realises that tactics based on Nc7+ and/or Bxf8 don't quite work.
p1433
aa(lp1434
S'15... Bxa3'
p1435
a(lp1436
(dp1437
g5
S'white_rook'
p1438
sg7
S'a1'
p1439
sa(dp1440
g5
S'white_pawn'
p1441
sg7
S'a2'
p1442
sa(dp1443
g5
S'black_bishop'
p1444
sg7
S'a3'
p1445
sa(dp1446
g7
S'a4'
p1447
sa(dp1448
g7
S'a5'
p1449
sa(dp1450
g5
S'black_pawn'
p1451
sg7
S'a6'
p1452
sa(dp1453
g7
S'a7'
p1454
sa(dp1455
g5
S'black_rook'
p1456
sg7
S'a8'
p1457
sa(dp1458
g5
S'white_knight'
p1459
sg7
S'b1'
p1460
sa(dp1461
g7
S'b2'
p1462
sa(dp1463
g5
S'white_pawn'
p1464
sg7
S'b3'
p1465
sa(dp1466
g7
S'b4'
p1467
sa(dp1468
g7
S'b5'
p1469
sa(dp1470
g7
S'b6'
p1471
sa(dp1472
g5
S'black_pawn'
p1473
sg7
S'b7'
p1474
sa(dp1475
g7
S'b8'
p1476
sa(dp1477
g7
S'c1'
p1478
sa(dp1479
g7
S'c2'
p1480
sa(dp1481
g5
S'white_knight'
p1482
sg7
S'c3'
p1483
sa(dp1484
g7
S'c4'
p1485
sa(dp1486
g7
S'c5'
p1487
sa(dp1488
g7
S'c6'
p1489
sa(dp1490
g7
S'c7'
p1491
sa(dp1492
g5
S'black_bishop'
p1493
sg7
S'c8'
p1494
sa(dp1495
g7
S'd1'
p1496
sa(dp1497
g5
S'white_pawn'
p1498
sg7
S'd2'
p1499
sa(dp1500
g7
S'd3'
p1501
sa(dp1502
g5
S'black_queen'
p1503
sg7
S'd4'
p1504
sa(dp1505
g7
S'd5'
p1506
sa(dp1507
g7
S'd6'
p1508
sa(dp1509
g7
S'd7'
p1510
sa(dp1511
g7
S'd8'
p1512
sa(dp1513
g5
S'white_king'
p1514
sg7
S'e1'
p1515
sa(dp1516
g7
S'e2'
p1517
sa(dp1518
g7
S'e3'
p1519
sa(dp1520
g5
S'white_pawn'
p1521
sg7
S'e4'
p1522
sa(dp1523
g7
S'e5'
p1524
sa(dp1525
g5
S'black_pawn'
p1526
sg7
S'e6'
p1527
sa(dp1528
g7
S'e7'
p1529
sa(dp1530
g5
S'black_king'
p1531
sg7
S'e8'
p1532
sa(dp1533
g7
S'f1'
p1534
sa(dp1535
g5
S'white_pawn'
p1536
sg7
S'f2'
p1537
sa(dp1538
g5
S'white_queen'
p1539
sg7
S'f3'
p1540
sa(dp1541
g7
S'f4'
p1542
sa(dp1543
g7
S'f5'
p1544
sa(dp1545
g5
S'black_pawn'
p1546
sg7
S'f6'
p1547
sa(dp1548
g7
S'f7'
p1549
sa(dp1550
g7
S'f8'
p1551
sa(dp1552
g7
S'g1'
p1553
sa(dp1554
g5
S'white_pawn'
p1555
sg7
S'g2'
p1556
sa(dp1557
g7
S'g3'
p1558
sa(dp1559
g7
S'g4'
p1560
sa(dp1561
g7
S'g5'
p1562
sa(dp1563
g7
S'g6'
p1564
sa(dp1565
g5
S'black_pawn'
p1566
sg7
S'g7'
p1567
sa(dp1568
g5
S'black_knight'
p1569
sg7
S'g8'
p1570
sa(dp1571
g5
S'white_rook'
p1572
sg7
S'h1'
p1573
sa(dp1574
g5
S'white_pawn'
p1575
sg7
S'h2'
p1576
sa(dp1577
g7
S'h3'
p1578
sa(dp1579
g7
S'h4'
p1580
sa(dp1581
g7
S'h5'
p1582
sa(dp1583
g7
S'h6'
p1584
sa(dp1585
g5
S'black_pawn'
p1586
sg7
S'h7'
p1587
sa(dp1588
g5
S'black_rook'
p1589
sg7
S'h8'
p1590
saaVI am getting back into the game now.
p1591
aa(lp1592
S'16. Nxa3'
p1593
a(lp1594
(dp1595
g5
S'white_rook'
p1596
sg7
S'a1'
p1597
sa(dp1598
g5
S'white_pawn'
p1599
sg7
S'a2'
p1600
sa(dp1601
g5
S'white_knight'
p1602
sg7
S'a3'
p1603
sa(dp1604
g7
S'a4'
p1605
sa(dp1606
g7
S'a5'
p1607
sa(dp1608
g5
S'black_pawn'
p1609
sg7
S'a6'
p1610
sa(dp1611
g7
S'a7'
p1612
sa(dp1613
g5
S'black_rook'
p1614
sg7
S'a8'
p1615
sa(dp1616
g7
S'b1'
p1617
sa(dp1618
g7
S'b2'
p1619
sa(dp1620
g5
S'white_pawn'
p1621
sg7
S'b3'
p1622
sa(dp1623
g7
S'b4'
p1624
sa(dp1625
g7
S'b5'
p1626
sa(dp1627
g7
S'b6'
p1628
sa(dp1629
g5
S'black_pawn'
p1630
sg7
S'b7'
p1631
sa(dp1632
g7
S'b8'
p1633
sa(dp1634
g7
S'c1'
p1635
sa(dp1636
g7
S'c2'
p1637
sa(dp1638
g5
S'white_knight'
p1639
sg7
S'c3'
p1640
sa(dp1641
g7
S'c4'
p1642
sa(dp1643
g7
S'c5'
p1644
sa(dp1645
g7
S'c6'
p1646
sa(dp1647
g7
S'c7'
p1648
sa(dp1649
g5
S'black_bishop'
p1650
sg7
S'c8'
p1651
sa(dp1652
g7
S'd1'
p1653
sa(dp1654
g5
S'white_pawn'
p1655
sg7
S'd2'
p1656
sa(dp1657
g7
S'd3'
p1658
sa(dp1659
g5
S'black_queen'
p1660
sg7
S'd4'
p1661
sa(dp1662
g7
S'd5'
p1663
sa(dp1664
g7
S'd6'
p1665
sa(dp1666
g7
S'd7'
p1667
sa(dp1668
g7
S'd8'
p1669
sa(dp1670
g5
S'white_king'
p1671
sg7
S'e1'
p1672
sa(dp1673
g7
S'e2'
p1674
sa(dp1675
g7
S'e3'
p1676
sa(dp1677
g5
S'white_pawn'
p1678
sg7
S'e4'
p1679
sa(dp1680
g7
S'e5'
p1681
sa(dp1682
g5
S'black_pawn'
p1683
sg7
S'e6'
p1684
sa(dp1685
g7
S'e7'
p1686
sa(dp1687
g5
S'black_king'
p1688
sg7
S'e8'
p1689
sa(dp1690
g7
S'f1'
p1691
sa(dp1692
g5
S'white_pawn'
p1693
sg7
S'f2'
p1694
sa(dp1695
g5
S'white_queen'
p1696
sg7
S'f3'
p1697
sa(dp1698
g7
S'f4'
p1699
sa(dp1700
g7
S'f5'
p1701
sa(dp1702
g5
S'black_pawn'
p1703
sg7
S'f6'
p1704
sa(dp1705
g7
S'f7'
p1706
sa(dp1707
g7
S'f8'
p1708
sa(dp1709
g7
S'g1'
p1710
sa(dp1711
g5
S'white_pawn'
p1712
sg7
S'g2'
p1713
sa(dp1714
g7
S'g3'
p1715
sa(dp1716
g7
S'g4'
p1717
sa(dp1718
g7
S'g5'
p1719
sa(dp1720
g7
S'g6'
p1721
sa(dp1722
g5
S'black_pawn'
p1723
sg7
S'g7'
p1724
sa(dp1725
g5
S'black_knight'
p1726
sg7
S'g8'
p1727
sa(dp1728
g5
S'white_rook'
p1729
sg7
S'h1'
p1730
sa(dp1731
g5
S'white_pawn'
p1732
sg7
S'h2'
p1733
sa(dp1734
g7
S'h3'
p1735
sa(dp1736
g7
S'h4'
p1737
sa(dp1738
g7
S'h5'
p1739
sa(dp1740
g7
S'h6'
p1741
sa(dp1742
g5
S'black_pawn'
p1743
sg7
S'h7'
p1744
sa(dp1745
g5
S'black_rook'
p1746
sg7
S'h8'
p1747
saaVHe takes back.
p1748
aa(lp1749
S'16... e5'
p1750
a(lp1751
(dp1752
g5
S'white_rook'
p1753
sg7
S'a1'
p1754
sa(dp1755
g5
S'white_pawn'
p1756
sg7
S'a2'
p1757
sa(dp1758
g5
S'white_knight'
p1759
sg7
S'a3'
p1760
sa(dp1761
g7
S'a4'
p1762
sa(dp1763
g7
S'a5'
p1764
sa(dp1765
g5
S'black_pawn'
p1766
sg7
S'a6'
p1767
sa(dp1768
g7
S'a7'
p1769
sa(dp1770
g5
S'black_rook'
p1771
sg7
S'a8'
p1772
sa(dp1773
g7
S'b1'
p1774
sa(dp1775
g7
S'b2'
p1776
sa(dp1777
g5
S'white_pawn'
p1778
sg7
S'b3'
p1779
sa(dp1780
g7
S'b4'
p1781
sa(dp1782
g7
S'b5'
p1783
sa(dp1784
g7
S'b6'
p1785
sa(dp1786
g5
S'black_pawn'
p1787
sg7
S'b7'
p1788
sa(dp1789
g7
S'b8'
p1790
sa(dp1791
g7
S'c1'
p1792
sa(dp1793
g7
S'c2'
p1794
sa(dp1795
g5
S'white_knight'
p1796
sg7
S'c3'
p1797
sa(dp1798
g7
S'c4'
p1799
sa(dp1800
g7
S'c5'
p1801
sa(dp1802
g7
S'c6'
p1803
sa(dp1804
g7
S'c7'
p1805
sa(dp1806
g5
S'black_bishop'
p1807
sg7
S'c8'
p1808
sa(dp1809
g7
S'd1'
p1810
sa(dp1811
g5
S'white_pawn'
p1812
sg7
S'd2'
p1813
sa(dp1814
g7
S'd3'
p1815
sa(dp1816
g5
S'black_queen'
p1817
sg7
S'd4'
p1818
sa(dp1819
g7
S'd5'
p1820
sa(dp1821
g7
S'd6'
p1822
sa(dp1823
g7
S'd7'
p1824
sa(dp1825
g7
S'd8'
p1826
sa(dp1827
g5
S'white_king'
p1828
sg7
S'e1'
p1829
sa(dp1830
g7
S'e2'
p1831
sa(dp1832
g7
S'e3'
p1833
sa(dp1834
g5
S'white_pawn'
p1835
sg7
S'e4'
p1836
sa(dp1837
g5
S'black_pawn'
p1838
sg7
S'e5'
p1839
sa(dp1840
g7
S'e6'
p1841
sa(dp1842
g7
S'e7'
p1843
sa(dp1844
g5
S'black_king'
p1845
sg7
S'e8'
p1846
sa(dp1847
g7
S'f1'
p1848
sa(dp1849
g5
S'white_pawn'
p1850
sg7
S'f2'
p1851
sa(dp1852
g5
S'white_queen'
p1853
sg7
S'f3'
p1854
sa(dp1855
g7
S'f4'
p1856
sa(dp1857
g7
S'f5'
p1858
sa(dp1859
g5
S'black_pawn'
p1860
sg7
S'f6'
p1861
sa(dp1862
g7
S'f7'
p1863
sa(dp1864
g7
S'f8'
p1865
sa(dp1866
g7
S'g1'
p1867
sa(dp1868
g5
S'white_pawn'
p1869
sg7
S'g2'
p1870
sa(dp1871
g7
S'g3'
p1872
sa(dp1873
g7
S'g4'
p1874
sa(dp1875
g7
S'g5'
p1876
sa(dp1877
g7
S'g6'
p1878
sa(dp1879
g5
S'black_pawn'
p1880
sg7
S'g7'
p1881
sa(dp1882
g5
S'black_knight'
p1883
sg7
S'g8'
p1884
sa(dp1885
g5
S'white_rook'
p1886
sg7
S'h1'
p1887
sa(dp1888
g5
S'white_pawn'
p1889
sg7
S'h2'
p1890
sa(dp1891
g7
S'h3'
p1892
sa(dp1893
g7
S'h4'
p1894
sa(dp1895
g7
S'h5'
p1896
sa(dp1897
g7
S'h6'
p1898
sa(dp1899
g5
S'black_pawn'
p1900
sg7
S'h7'
p1901
sa(dp1902
g5
S'black_rook'
p1903
sg7
S'h8'
p1904
saaVI finally secure the centre, and his pawn on d2 is backward on a semi-open file.
p1905
aa(lp1906
S'17. O-O'
p1907
a(lp1908
(dp1909
g5
S'white_rook'
p1910
sg7
S'a1'
p1911
sa(dp1912
g5
S'white_pawn'
p1913
sg7
S'a2'
p1914
sa(dp1915
g5
S'white_knight'
p1916
sg7
S'a3'
p1917
sa(dp1918
g7
S'a4'
p1919
sa(dp1920
g7
S'a5'
p1921
sa(dp1922
g5
S'black_pawn'
p1923
sg7
S'a6'
p1924
sa(dp1925
g7
S'a7'
p1926
sa(dp1927
g5
S'black_rook'
p1928
sg7
S'a8'
p1929
sa(dp1930
g7
S'b1'
p1931
sa(dp1932
g7
S'b2'
p1933
sa(dp1934
g5
S'white_pawn'
p1935
sg7
S'b3'
p1936
sa(dp1937
g7
S'b4'
p1938
sa(dp1939
g7
S'b5'
p1940
sa(dp1941
g7
S'b6'
p1942
sa(dp1943
g5
S'black_pawn'
p1944
sg7
S'b7'
p1945
sa(dp1946
g7
S'b8'
p1947
sa(dp1948
g7
S'c1'
p1949
sa(dp1950
g7
S'c2'
p1951
sa(dp1952
g5
S'white_knight'
p1953
sg7
S'c3'
p1954
sa(dp1955
g7
S'c4'
p1956
sa(dp1957
g7
S'c5'
p1958
sa(dp1959
g7
S'c6'
p1960
sa(dp1961
g7
S'c7'
p1962
sa(dp1963
g5
S'black_bishop'
p1964
sg7
S'c8'
p1965
sa(dp1966
g7
S'd1'
p1967
sa(dp1968
g5
S'white_pawn'
p1969
sg7
S'd2'
p1970
sa(dp1971
g7
S'd3'
p1972
sa(dp1973
g5
S'black_queen'
p1974
sg7
S'd4'
p1975
sa(dp1976
g7
S'd5'
p1977
sa(dp1978
g7
S'd6'
p1979
sa(dp1980
g7
S'd7'
p1981
sa(dp1982
g7
S'd8'
p1983
sa(dp1984
g7
S'e1'
p1985
sa(dp1986
g7
S'e2'
p1987
sa(dp1988
g7
S'e3'
p1989
sa(dp1990
g5
S'white_pawn'
p1991
sg7
S'e4'
p1992
sa(dp1993
g5
S'black_pawn'
p1994
sg7
S'e5'
p1995
sa(dp1996
g7
S'e6'
p1997
sa(dp1998
g7
S'e7'
p1999
sa(dp2000
g5
S'black_king'
p2001
sg7
S'e8'
p2002
sa(dp2003
g5
S'white_rook'
p2004
sg7
S'f1'
p2005
sa(dp2006
g5
S'white_pawn'
p2007
sg7
S'f2'
p2008
sa(dp2009
g5
S'white_queen'
p2010
sg7
S'f3'
p2011
sa(dp2012
g7
S'f4'
p2013
sa(dp2014
g7
S'f5'
p2015
sa(dp2016
g5
S'black_pawn'
p2017
sg7
S'f6'
p2018
sa(dp2019
g7
S'f7'
p2020
sa(dp2021
g7
S'f8'
p2022
sa(dp2023
g5
S'white_king'
p2024
sg7
S'g1'
p2025
sa(dp2026
g5
S'white_pawn'
p2027
sg7
S'g2'
p2028
sa(dp2029
g7
S'g3'
p2030
sa(dp2031
g7
S'g4'
p2032
sa(dp2033
g7
S'g5'
p2034
sa(dp2035
g7
S'g6'
p2036
sa(dp2037
g5
S'black_pawn'
p2038
sg7
S'g7'
p2039
sa(dp2040
g5
S'black_knight'
p2041
sg7
S'g8'
p2042
sa(dp2043
g7
S'h1'
p2044
sa(dp2045
g5
S'white_pawn'
p2046
sg7
S'h2'
p2047
sa(dp2048
g7
S'h3'
p2049
sa(dp2050
g7
S'h4'
p2051
sa(dp2052
g7
S'h5'
p2053
sa(dp2054
g7
S'h6'
p2055
sa(dp2056
g5
S'black_pawn'
p2057
sg7
S'h7'
p2058
sa(dp2059
g5
S'black_rook'
p2060
sg7
S'h8'
p2061
saaVCastles
p2062
aa(lp2063
S'17... Be6'
p2064
a(lp2065
(dp2066
g5
S'white_rook'
p2067
sg7
S'a1'
p2068
sa(dp2069
g5
S'white_pawn'
p2070
sg7
S'a2'
p2071
sa(dp2072
g5
S'white_knight'
p2073
sg7
S'a3'
p2074
sa(dp2075
g7
S'a4'
p2076
sa(dp2077
g7
S'a5'
p2078
sa(dp2079
g5
S'black_pawn'
p2080
sg7
S'a6'
p2081
sa(dp2082
g7
S'a7'
p2083
sa(dp2084
g5
S'black_rook'
p2085
sg7
S'a8'
p2086
sa(dp2087
g7
S'b1'
p2088
sa(dp2089
g7
S'b2'
p2090
sa(dp2091
g5
S'white_pawn'
p2092
sg7
S'b3'
p2093
sa(dp2094
g7
S'b4'
p2095
sa(dp2096
g7
S'b5'
p2097
sa(dp2098
g7
S'b6'
p2099
sa(dp2100
g5
S'black_pawn'
p2101
sg7
S'b7'
p2102
sa(dp2103
g7
S'b8'
p2104
sa(dp2105
g7
S'c1'
p2106
sa(dp2107
g7
S'c2'
p2108
sa(dp2109
g5
S'white_knight'
p2110
sg7
S'c3'
p2111
sa(dp2112
g7
S'c4'
p2113
sa(dp2114
g7
S'c5'
p2115
sa(dp2116
g7
S'c6'
p2117
sa(dp2118
g7
S'c7'
p2119
sa(dp2120
g7
S'c8'
p2121
sa(dp2122
g7
S'd1'
p2123
sa(dp2124
g5
S'white_pawn'
p2125
sg7
S'd2'
p2126
sa(dp2127
g7
S'd3'
p2128
sa(dp2129
g5
S'black_queen'
p2130
sg7
S'd4'
p2131
sa(dp2132
g7
S'd5'
p2133
sa(dp2134
g7
S'd6'
p2135
sa(dp2136
g7
S'd7'
p2137
sa(dp2138
g7
S'd8'
p2139
sa(dp2140
g7
S'e1'
p2141
sa(dp2142
g7
S'e2'
p2143
sa(dp2144
g7
S'e3'
p2145
sa(dp2146
g5
S'white_pawn'
p2147
sg7
S'e4'
p2148
sa(dp2149
g5
S'black_pawn'
p2150
sg7
S'e5'
p2151
sa(dp2152
g5
S'black_bishop'
p2153
sg7
S'e6'
p2154
sa(dp2155
g7
S'e7'
p2156
sa(dp2157
g5
S'black_king'
p2158
sg7
S'e8'
p2159
sa(dp2160
g5
S'white_rook'
p2161
sg7
S'f1'
p2162
sa(dp2163
g5
S'white_pawn'
p2164
sg7
S'f2'
p2165
sa(dp2166
g5
S'white_queen'
p2167
sg7
S'f3'
p2168
sa(dp2169
g7
S'f4'
p2170
sa(dp2171
g7
S'f5'
p2172
sa(dp2173
g5
S'black_pawn'
p2174
sg7
S'f6'
p2175
sa(dp2176
g7
S'f7'
p2177
sa(dp2178
g7
S'f8'
p2179
sa(dp2180
g5
S'white_king'
p2181
sg7
S'g1'
p2182
sa(dp2183
g5
S'white_pawn'
p2184
sg7
S'g2'
p2185
sa(dp2186
g7
S'g3'
p2187
sa(dp2188
g7
S'g4'
p2189
sa(dp2190
g7
S'g5'
p2191
sa(dp2192
g7
S'g6'
p2193
sa(dp2194
g5
S'black_pawn'
p2195
sg7
S'g7'
p2196
sa(dp2197
g5
S'black_knight'
p2198
sg7
S'g8'
p2199
sa(dp2200
g7
S'h1'
p2201
sa(dp2202
g5
S'white_pawn'
p2203
sg7
S'h2'
p2204
sa(dp2205
g7
S'h3'
p2206
sa(dp2207
g7
S'h4'
p2208
sa(dp2209
g7
S'h5'
p2210
sa(dp2211
g7
S'h6'
p2212
sa(dp2213
g5
S'black_pawn'
p2214
sg7
S'h7'
p2215
sa(dp2216
g5
S'black_rook'
p2217
sg7
S'h8'
p2218
saaVStopping his knight returning to d5 I thought.
p2219
aa(lp2220
S'18. Nd5'
p2221
a(lp2222
(dp2223
g5
S'white_rook'
p2224
sg7
S'a1'
p2225
sa(dp2226
g5
S'white_pawn'
p2227
sg7
S'a2'
p2228
sa(dp2229
g5
S'white_knight'
p2230
sg7
S'a3'
p2231
sa(dp2232
g7
S'a4'
p2233
sa(dp2234
g7
S'a5'
p2235
sa(dp2236
g5
S'black_pawn'
p2237
sg7
S'a6'
p2238
sa(dp2239
g7
S'a7'
p2240
sa(dp2241
g5
S'black_rook'
p2242
sg7
S'a8'
p2243
sa(dp2244
g7
S'b1'
p2245
sa(dp2246
g7
S'b2'
p2247
sa(dp2248
g5
S'white_pawn'
p2249
sg7
S'b3'
p2250
sa(dp2251
g7
S'b4'
p2252
sa(dp2253
g7
S'b5'
p2254
sa(dp2255
g7
S'b6'
p2256
sa(dp2257
g5
S'black_pawn'
p2258
sg7
S'b7'
p2259
sa(dp2260
g7
S'b8'
p2261
sa(dp2262
g7
S'c1'
p2263
sa(dp2264
g7
S'c2'
p2265
sa(dp2266
g7
S'c3'
p2267
sa(dp2268
g7
S'c4'
p2269
sa(dp2270
g7
S'c5'
p2271
sa(dp2272
g7
S'c6'
p2273
sa(dp2274
g7
S'c7'
p2275
sa(dp2276
g7
S'c8'
p2277
sa(dp2278
g7
S'd1'
p2279
sa(dp2280
g5
S'white_pawn'
p2281
sg7
S'd2'
p2282
sa(dp2283
g7
S'd3'
p2284
sa(dp2285
g5
S'black_queen'
p2286
sg7
S'd4'
p2287
sa(dp2288
g5
S'white_knight'
p2289
sg7
S'd5'
p2290
sa(dp2291
g7
S'd6'
p2292
sa(dp2293
g7
S'd7'
p2294
sa(dp2295
g7
S'd8'
p2296
sa(dp2297
g7
S'e1'
p2298
sa(dp2299
g7
S'e2'
p2300
sa(dp2301
g7
S'e3'
p2302
sa(dp2303
g5
S'white_pawn'
p2304
sg7
S'e4'
p2305
sa(dp2306
g5
S'black_pawn'
p2307
sg7
S'e5'
p2308
sa(dp2309
g5
S'black_bishop'
p2310
sg7
S'e6'
p2311
sa(dp2312
g7
S'e7'
p2313
sa(dp2314
g5
S'black_king'
p2315
sg7
S'e8'
p2316
sa(dp2317
g5
S'white_rook'
p2318
sg7
S'f1'
p2319
sa(dp2320
g5
S'white_pawn'
p2321
sg7
S'f2'
p2322
sa(dp2323
g5
S'white_queen'
p2324
sg7
S'f3'
p2325
sa(dp2326
g7
S'f4'
p2327
sa(dp2328
g7
S'f5'
p2329
sa(dp2330
g5
S'black_pawn'
p2331
sg7
S'f6'
p2332
sa(dp2333
g7
S'f7'
p2334
sa(dp2335
g7
S'f8'
p2336
sa(dp2337
g5
S'white_king'
p2338
sg7
S'g1'
p2339
sa(dp2340
g5
S'white_pawn'
p2341
sg7
S'g2'
p2342
sa(dp2343
g7
S'g3'
p2344
sa(dp2345
g7
S'g4'
p2346
sa(dp2347
g7
S'g5'
p2348
sa(dp2349
g7
S'g6'
p2350
sa(dp2351
g5
S'black_pawn'
p2352
sg7
S'g7'
p2353
sa(dp2354
g5
S'black_knight'
p2355
sg7
S'g8'
p2356
sa(dp2357
g7
S'h1'
p2358
sa(dp2359
g5
S'white_pawn'
p2360
sg7
S'h2'
p2361
sa(dp2362
g7
S'h3'
p2363
sa(dp2364
g7
S'h4'
p2365
sa(dp2366
g7
S'h5'
p2367
sa(dp2368
g7
S'h6'
p2369
sa(dp2370
g5
S'black_pawn'
p2371
sg7
S'h7'
p2372
sa(dp2373
g5
S'black_rook'
p2374
sg7
S'h8'
p2375
saaVBut he plays it anyway. This leads to the loss of a pawn and slight advantage to black.
p2376
aa(lp2377
S'18... Bxd5'
p2378
a(lp2379
(dp2380
g5
S'white_rook'
p2381
sg7
S'a1'
p2382
sa(dp2383
g5
S'white_pawn'
p2384
sg7
S'a2'
p2385
sa(dp2386
g5
S'white_knight'
p2387
sg7
S'a3'
p2388
sa(dp2389
g7
S'a4'
p2390
sa(dp2391
g7
S'a5'
p2392
sa(dp2393
g5
S'black_pawn'
p2394
sg7
S'a6'
p2395
sa(dp2396
g7
S'a7'
p2397
sa(dp2398
g5
S'black_rook'
p2399
sg7
S'a8'
p2400
sa(dp2401
g7
S'b1'
p2402
sa(dp2403
g7
S'b2'
p2404
sa(dp2405
g5
S'white_pawn'
p2406
sg7
S'b3'
p2407
sa(dp2408
g7
S'b4'
p2409
sa(dp2410
g7
S'b5'
p2411
sa(dp2412
g7
S'b6'
p2413
sa(dp2414
g5
S'black_pawn'
p2415
sg7
S'b7'
p2416
sa(dp2417
g7
S'b8'
p2418
sa(dp2419
g7
S'c1'
p2420
sa(dp2421
g7
S'c2'
p2422
sa(dp2423
g7
S'c3'
p2424
sa(dp2425
g7
S'c4'
p2426
sa(dp2427
g7
S'c5'
p2428
sa(dp2429
g7
S'c6'
p2430
sa(dp2431
g7
S'c7'
p2432
sa(dp2433
g7
S'c8'
p2434
sa(dp2435
g7
S'd1'
p2436
sa(dp2437
g5
S'white_pawn'
p2438
sg7
S'd2'
p2439
sa(dp2440
g7
S'd3'
p2441
sa(dp2442
g5
S'black_queen'
p2443
sg7
S'd4'
p2444
sa(dp2445
g5
S'black_bishop'
p2446
sg7
S'd5'
p2447
sa(dp2448
g7
S'd6'
p2449
sa(dp2450
g7
S'd7'
p2451
sa(dp2452
g7
S'd8'
p2453
sa(dp2454
g7
S'e1'
p2455
sa(dp2456
g7
S'e2'
p2457
sa(dp2458
g7
S'e3'
p2459
sa(dp2460
g5
S'white_pawn'
p2461
sg7
S'e4'
p2462
sa(dp2463
g5
S'black_pawn'
p2464
sg7
S'e5'
p2465
sa(dp2466
g7
S'e6'
p2467
sa(dp2468
g7
S'e7'
p2469
sa(dp2470
g5
S'black_king'
p2471
sg7
S'e8'
p2472
sa(dp2473
g5
S'white_rook'
p2474
sg7
S'f1'
p2475
sa(dp2476
g5
S'white_pawn'
p2477
sg7
S'f2'
p2478
sa(dp2479
g5
S'white_queen'
p2480
sg7
S'f3'
p2481
sa(dp2482
g7
S'f4'
p2483
sa(dp2484
g7
S'f5'
p2485
sa(dp2486
g5
S'black_pawn'
p2487
sg7
S'f6'
p2488
sa(dp2489
g7
S'f7'
p2490
sa(dp2491
g7
S'f8'
p2492
sa(dp2493
g5
S'white_king'
p2494
sg7
S'g1'
p2495
sa(dp2496
g5
S'white_pawn'
p2497
sg7
S'g2'
p2498
sa(dp2499
g7
S'g3'
p2500
sa(dp2501
g7
S'g4'
p2502
sa(dp2503
g7
S'g5'
p2504
sa(dp2505
g7
S'g6'
p2506
sa(dp2507
g5
S'black_pawn'
p2508
sg7
S'g7'
p2509
sa(dp2510
g5
S'black_knight'
p2511
sg7
S'g8'
p2512
sa(dp2513
g7
S'h1'
p2514
sa(dp2515
g5
S'white_pawn'
p2516
sg7
S'h2'
p2517
sa(dp2518
g7
S'h3'
p2519
sa(dp2520
g7
S'h4'
p2521
sa(dp2522
g7
S'h5'
p2523
sa(dp2524
g7
S'h6'
p2525
sa(dp2526
g5
S'black_pawn'
p2527
sg7
S'h7'
p2528
sa(dp2529
g5
S'black_rook'
p2530
sg7
S'h8'
p2531
saaVSo I take.
p2532
aa(lp2533
S'19. exd5'
p2534
a(lp2535
(dp2536
g5
S'white_rook'
p2537
sg7
S'a1'
p2538
sa(dp2539
g5
S'white_pawn'
p2540
sg7
S'a2'
p2541
sa(dp2542
g5
S'white_knight'
p2543
sg7
S'a3'
p2544
sa(dp2545
g7
S'a4'
p2546
sa(dp2547
g7
S'a5'
p2548
sa(dp2549
g5
S'black_pawn'
p2550
sg7
S'a6'
p2551
sa(dp2552
g7
S'a7'
p2553
sa(dp2554
g5
S'black_rook'
p2555
sg7
S'a8'
p2556
sa(dp2557
g7
S'b1'
p2558
sa(dp2559
g7
S'b2'
p2560
sa(dp2561
g5
S'white_pawn'
p2562
sg7
S'b3'
p2563
sa(dp2564
g7
S'b4'
p2565
sa(dp2566
g7
S'b5'
p2567
sa(dp2568
g7
S'b6'
p2569
sa(dp2570
g5
S'black_pawn'
p2571
sg7
S'b7'
p2572
sa(dp2573
g7
S'b8'
p2574
sa(dp2575
g7
S'c1'
p2576
sa(dp2577
g7
S'c2'
p2578
sa(dp2579
g7
S'c3'
p2580
sa(dp2581
g7
S'c4'
p2582
sa(dp2583
g7
S'c5'
p2584
sa(dp2585
g7
S'c6'
p2586
sa(dp2587
g7
S'c7'
p2588
sa(dp2589
g7
S'c8'
p2590
sa(dp2591
g7
S'd1'
p2592
sa(dp2593
g5
S'white_pawn'
p2594
sg7
S'd2'
p2595
sa(dp2596
g7
S'd3'
p2597
sa(dp2598
g5
S'black_queen'
p2599
sg7
S'd4'
p2600
sa(dp2601
g5
S'white_pawn'
p2602
sg7
S'd5'
p2603
sa(dp2604
g7
S'd6'
p2605
sa(dp2606
g7
S'd7'
p2607
sa(dp2608
g7
S'd8'
p2609
sa(dp2610
g7
S'e1'
p2611
sa(dp2612
g7
S'e2'
p2613
sa(dp2614
g7
S'e3'
p2615
sa(dp2616
g7
S'e4'
p2617
sa(dp2618
g5
S'black_pawn'
p2619
sg7
S'e5'
p2620
sa(dp2621
g7
S'e6'
p2622
sa(dp2623
g7
S'e7'
p2624
sa(dp2625
g5
S'black_king'
p2626
sg7
S'e8'
p2627
sa(dp2628
g5
S'white_rook'
p2629
sg7
S'f1'
p2630
sa(dp2631
g5
S'white_pawn'
p2632
sg7
S'f2'
p2633
sa(dp2634
g5
S'white_queen'
p2635
sg7
S'f3'
p2636
sa(dp2637
g7
S'f4'
p2638
sa(dp2639
g7
S'f5'
p2640
sa(dp2641
g5
S'black_pawn'
p2642
sg7
S'f6'
p2643
sa(dp2644
g7
S'f7'
p2645
sa(dp2646
g7
S'f8'
p2647
sa(dp2648
g5
S'white_king'
p2649
sg7
S'g1'
p2650
sa(dp2651
g5
S'white_pawn'
p2652
sg7
S'g2'
p2653
sa(dp2654
g7
S'g3'
p2655
sa(dp2656
g7
S'g4'
p2657
sa(dp2658
g7
S'g5'
p2659
sa(dp2660
g7
S'g6'
p2661
sa(dp2662
g5
S'black_pawn'
p2663
sg7
S'g7'
p2664
sa(dp2665
g5
S'black_knight'
p2666
sg7
S'g8'
p2667
sa(dp2668
g7
S'h1'
p2669
sa(dp2670
g5
S'white_pawn'
p2671
sg7
S'h2'
p2672
sa(dp2673
g7
S'h3'
p2674
sa(dp2675
g7
S'h4'
p2676
sa(dp2677
g7
S'h5'
p2678
sa(dp2679
g7
S'h6'
p2680
sa(dp2681
g5
S'black_pawn'
p2682
sg7
S'h7'
p2683
sa(dp2684
g5
S'black_rook'
p2685
sg7
S'h8'
p2686
saaVHe takes back.
p2687
aa(lp2688
S'19... Rd8'
p2689
a(lp2690
(dp2691
g5
S'white_rook'
p2692
sg7
S'a1'
p2693
sa(dp2694
g5
S'white_pawn'
p2695
sg7
S'a2'
p2696
sa(dp2697
g5
S'white_knight'
p2698
sg7
S'a3'
p2699
sa(dp2700
g7
S'a4'
p2701
sa(dp2702
g7
S'a5'
p2703
sa(dp2704
g5
S'black_pawn'
p2705
sg7
S'a6'
p2706
sa(dp2707
g7
S'a7'
p2708
sa(dp2709
g7
S'a8'
p2710
sa(dp2711
g7
S'b1'
p2712
sa(dp2713
g7
S'b2'
p2714
sa(dp2715
g5
S'white_pawn'
p2716
sg7
S'b3'
p2717
sa(dp2718
g7
S'b4'
p2719
sa(dp2720
g7
S'b5'
p2721
sa(dp2722
g7
S'b6'
p2723
sa(dp2724
g5
S'black_pawn'
p2725
sg7
S'b7'
p2726
sa(dp2727
g7
S'b8'
p2728
sa(dp2729
g7
S'c1'
p2730
sa(dp2731
g7
S'c2'
p2732
sa(dp2733
g7
S'c3'
p2734
sa(dp2735
g7
S'c4'
p2736
sa(dp2737
g7
S'c5'
p2738
sa(dp2739
g7
S'c6'
p2740
sa(dp2741
g7
S'c7'
p2742
sa(dp2743
g7
S'c8'
p2744
sa(dp2745
g7
S'd1'
p2746
sa(dp2747
g5
S'white_pawn'
p2748
sg7
S'd2'
p2749
sa(dp2750
g7
S'd3'
p2751
sa(dp2752
g5
S'black_queen'
p2753
sg7
S'd4'
p2754
sa(dp2755
g5
S'white_pawn'
p2756
sg7
S'd5'
p2757
sa(dp2758
g7
S'd6'
p2759
sa(dp2760
g7
S'd7'
p2761
sa(dp2762
g5
S'black_rook'
p2763
sg7
S'd8'
p2764
sa(dp2765
g7
S'e1'
p2766
sa(dp2767
g7
S'e2'
p2768
sa(dp2769
g7
S'e3'
p2770
sa(dp2771
g7
S'e4'
p2772
sa(dp2773
g5
S'black_pawn'
p2774
sg7
S'e5'
p2775
sa(dp2776
g7
S'e6'
p2777
sa(dp2778
g7
S'e7'
p2779
sa(dp2780
g5
S'black_king'
p2781
sg7
S'e8'
p2782
sa(dp2783
g5
S'white_rook'
p2784
sg7
S'f1'
p2785
sa(dp2786
g5
S'white_pawn'
p2787
sg7
S'f2'
p2788
sa(dp2789
g5
S'white_queen'
p2790
sg7
S'f3'
p2791
sa(dp2792
g7
S'f4'
p2793
sa(dp2794
g7
S'f5'
p2795
sa(dp2796
g5
S'black_pawn'
p2797
sg7
S'f6'
p2798
sa(dp2799
g7
S'f7'
p2800
sa(dp2801
g7
S'f8'
p2802
sa(dp2803
g5
S'white_king'
p2804
sg7
S'g1'
p2805
sa(dp2806
g5
S'white_pawn'
p2807
sg7
S'g2'
p2808
sa(dp2809
g7
S'g3'
p2810
sa(dp2811
g7
S'g4'
p2812
sa(dp2813
g7
S'g5'
p2814
sa(dp2815
g7
S'g6'
p2816
sa(dp2817
g5
S'black_pawn'
p2818
sg7
S'g7'
p2819
sa(dp2820
g5
S'black_knight'
p2821
sg7
S'g8'
p2822
sa(dp2823
g7
S'h1'
p2824
sa(dp2825
g5
S'white_pawn'
p2826
sg7
S'h2'
p2827
sa(dp2828
g7
S'h3'
p2829
sa(dp2830
g7
S'h4'
p2831
sa(dp2832
g7
S'h5'
p2833
sa(dp2834
g7
S'h6'
p2835
sa(dp2836
g5
S'black_pawn'
p2837
sg7
S'h7'
p2838
sa(dp2839
g5
S'black_rook'
p2840
sg7
S'h8'
p2841
saaVI attack his pawn again.
p2842
aa(lp2843
S'20. d6'
p2844
a(lp2845
(dp2846
g5
S'white_rook'
p2847
sg7
S'a1'
p2848
sa(dp2849
g5
S'white_pawn'
p2850
sg7
S'a2'
p2851
sa(dp2852
g5
S'white_knight'
p2853
sg7
S'a3'
p2854
sa(dp2855
g7
S'a4'
p2856
sa(dp2857
g7
S'a5'
p2858
sa(dp2859
g5
S'black_pawn'
p2860
sg7
S'a6'
p2861
sa(dp2862
g7
S'a7'
p2863
sa(dp2864
g7
S'a8'
p2865
sa(dp2866
g7
S'b1'
p2867
sa(dp2868
g7
S'b2'
p2869
sa(dp2870
g5
S'white_pawn'
p2871
sg7
S'b3'
p2872
sa(dp2873
g7
S'b4'
p2874
sa(dp2875
g7
S'b5'
p2876
sa(dp2877
g7
S'b6'
p2878
sa(dp2879
g5
S'black_pawn'
p2880
sg7
S'b7'
p2881
sa(dp2882
g7
S'b8'
p2883
sa(dp2884
g7
S'c1'
p2885
sa(dp2886
g7
S'c2'
p2887
sa(dp2888
g7
S'c3'
p2889
sa(dp2890
g7
S'c4'
p2891
sa(dp2892
g7
S'c5'
p2893
sa(dp2894
g7
S'c6'
p2895
sa(dp2896
g7
S'c7'
p2897
sa(dp2898
g7
S'c8'
p2899
sa(dp2900
g7
S'd1'
p2901
sa(dp2902
g5
S'white_pawn'
p2903
sg7
S'd2'
p2904
sa(dp2905
g7
S'd3'
p2906
sa(dp2907
g5
S'black_queen'
p2908
sg7
S'd4'
p2909
sa(dp2910
g7
S'd5'
p2911
sa(dp2912
g5
S'white_pawn'
p2913
sg7
S'd6'
p2914
sa(dp2915
g7
S'd7'
p2916
sa(dp2917
g5
S'black_rook'
p2918
sg7
S'd8'
p2919
sa(dp2920
g7
S'e1'
p2921
sa(dp2922
g7
S'e2'
p2923
sa(dp2924
g7
S'e3'
p2925
sa(dp2926
g7
S'e4'
p2927
sa(dp2928
g5
S'black_pawn'
p2929
sg7
S'e5'
p2930
sa(dp2931
g7
S'e6'
p2932
sa(dp2933
g7
S'e7'
p2934
sa(dp2935
g5
S'black_king'
p2936
sg7
S'e8'
p2937
sa(dp2938
g5
S'white_rook'
p2939
sg7
S'f1'
p2940
sa(dp2941
g5
S'white_pawn'
p2942
sg7
S'f2'
p2943
sa(dp2944
g5
S'white_queen'
p2945
sg7
S'f3'
p2946
sa(dp2947
g7
S'f4'
p2948
sa(dp2949
g7
S'f5'
p2950
sa(dp2951
g5
S'black_pawn'
p2952
sg7
S'f6'
p2953
sa(dp2954
g7
S'f7'
p2955
sa(dp2956
g7
S'f8'
p2957
sa(dp2958
g5
S'white_king'
p2959
sg7
S'g1'
p2960
sa(dp2961
g5
S'white_pawn'
p2962
sg7
S'g2'
p2963
sa(dp2964
g7
S'g3'
p2965
sa(dp2966
g7
S'g4'
p2967
sa(dp2968
g7
S'g5'
p2969
sa(dp2970
g7
S'g6'
p2971
sa(dp2972
g5
S'black_pawn'
p2973
sg7
S'g7'
p2974
sa(dp2975
g5
S'black_knight'
p2976
sg7
S'g8'
p2977
sa(dp2978
g7
S'h1'
p2979
sa(dp2980
g5
S'white_pawn'
p2981
sg7
S'h2'
p2982
sa(dp2983
g7
S'h3'
p2984
sa(dp2985
g7
S'h4'
p2986
sa(dp2987
g7
S'h5'
p2988
sa(dp2989
g7
S'h6'
p2990
sa(dp2991
g5
S'black_pawn'
p2992
sg7
S'h7'
p2993
sa(dp2994
g5
S'black_rook'
p2995
sg7
S'h8'
p2996
saaVhe advances.
p2997
aa(lp2998
S'20... Rd7'
p2999
a(lp3000
(dp3001
g5
S'white_rook'
p3002
sg7
S'a1'
p3003
sa(dp3004
g5
S'white_pawn'
p3005
sg7
S'a2'
p3006
sa(dp3007
g5
S'white_knight'
p3008
sg7
S'a3'
p3009
sa(dp3010
g7
S'a4'
p3011
sa(dp3012
g7
S'a5'
p3013
sa(dp3014
g5
S'black_pawn'
p3015
sg7
S'a6'
p3016
sa(dp3017
g7
S'a7'
p3018
sa(dp3019
g7
S'a8'
p3020
sa(dp3021
g7
S'b1'
p3022
sa(dp3023
g7
S'b2'
p3024
sa(dp3025
g5
S'white_pawn'
p3026
sg7
S'b3'
p3027
sa(dp3028
g7
S'b4'
p3029
sa(dp3030
g7
S'b5'
p3031
sa(dp3032
g7
S'b6'
p3033
sa(dp3034
g5
S'black_pawn'
p3035
sg7
S'b7'
p3036
sa(dp3037
g7
S'b8'
p3038
sa(dp3039
g7
S'c1'
p3040
sa(dp3041
g7
S'c2'
p3042
sa(dp3043
g7
S'c3'
p3044
sa(dp3045
g7
S'c4'
p3046
sa(dp3047
g7
S'c5'
p3048
sa(dp3049
g7
S'c6'
p3050
sa(dp3051
g7
S'c7'
p3052
sa(dp3053
g7
S'c8'
p3054
sa(dp3055
g7
S'd1'
p3056
sa(dp3057
g5
S'white_pawn'
p3058
sg7
S'd2'
p3059
sa(dp3060
g7
S'd3'
p3061
sa(dp3062
g5
S'black_queen'
p3063
sg7
S'd4'
p3064
sa(dp3065
g7
S'd5'
p3066
sa(dp3067
g5
S'white_pawn'
p3068
sg7
S'd6'
p3069
sa(dp3070
g5
S'black_rook'
p3071
sg7
S'd7'
p3072
sa(dp3073
g7
S'd8'
p3074
sa(dp3075
g7
S'e1'
p3076
sa(dp3077
g7
S'e2'
p3078
sa(dp3079
g7
S'e3'
p3080
sa(dp3081
g7
S'e4'
p3082
sa(dp3083
g5
S'black_pawn'
p3084
sg7
S'e5'
p3085
sa(dp3086
g7
S'e6'
p3087
sa(dp3088
g7
S'e7'
p3089
sa(dp3090
g5
S'black_king'
p3091
sg7
S'e8'
p3092
sa(dp3093
g5
S'white_rook'
p3094
sg7
S'f1'
p3095
sa(dp3096
g5
S'white_pawn'
p3097
sg7
S'f2'
p3098
sa(dp3099
g5
S'white_queen'
p3100
sg7
S'f3'
p3101
sa(dp3102
g7
S'f4'
p3103
sa(dp3104
g7
S'f5'
p3105
sa(dp3106
g5
S'black_pawn'
p3107
sg7
S'f6'
p3108
sa(dp3109
g7
S'f7'
p3110
sa(dp3111
g7
S'f8'
p3112
sa(dp3113
g5
S'white_king'
p3114
sg7
S'g1'
p3115
sa(dp3116
g5
S'white_pawn'
p3117
sg7
S'g2'
p3118
sa(dp3119
g7
S'g3'
p3120
sa(dp3121
g7
S'g4'
p3122
sa(dp3123
g7
S'g5'
p3124
sa(dp3125
g7
S'g6'
p3126
sa(dp3127
g5
S'black_pawn'
p3128
sg7
S'g7'
p3129
sa(dp3130
g5
S'black_knight'
p3131
sg7
S'g8'
p3132
sa(dp3133
g7
S'h1'
p3134
sa(dp3135
g5
S'white_pawn'
p3136
sg7
S'h2'
p3137
sa(dp3138
g7
S'h3'
p3139
sa(dp3140
g7
S'h4'
p3141
sa(dp3142
g7
S'h5'
p3143
sa(dp3144
g7
S'h6'
p3145
sa(dp3146
g5
S'black_pawn'
p3147
sg7
S'h7'
p3148
sa(dp3149
g5
S'black_rook'
p3150
sg7
S'h8'
p3151
saaVI protect b7.
p3152
aa.