(lp0
(lp1
S'1. e4'
p2
a(lp3
(dp4
S'piece'
p5
S'white_rook'
p6
sS'location'
p7
S'a1'
p8
sa(dp9
g5
S'white_pawn'
p10
sg7
S'a2'
p11
sa(dp12
g7
S'a3'
p13
sa(dp14
g7
S'a4'
p15
sa(dp16
g7
S'a5'
p17
sa(dp18
g7
S'a6'
p19
sa(dp20
g5
S'black_pawn'
p21
sg7
S'a7'
p22
sa(dp23
g5
S'black_rook'
p24
sg7
S'a8'
p25
sa(dp26
g5
S'white_knight'
p27
sg7
S'b1'
p28
sa(dp29
g5
S'white_pawn'
p30
sg7
S'b2'
p31
sa(dp32
g7
S'b3'
p33
sa(dp34
g7
S'b4'
p35
sa(dp36
g7
S'b5'
p37
sa(dp38
g7
S'b6'
p39
sa(dp40
g5
S'black_pawn'
p41
sg7
S'b7'
p42
sa(dp43
g5
S'black_knight'
p44
sg7
S'b8'
p45
sa(dp46
g5
S'white_bishop'
p47
sg7
S'c1'
p48
sa(dp49
g5
S'white_pawn'
p50
sg7
S'c2'
p51
sa(dp52
g7
S'c3'
p53
sa(dp54
g7
S'c4'
p55
sa(dp56
g7
S'c5'
p57
sa(dp58
g7
S'c6'
p59
sa(dp60
g5
S'black_pawn'
p61
sg7
S'c7'
p62
sa(dp63
g5
S'black_bishop'
p64
sg7
S'c8'
p65
sa(dp66
g5
S'white_queen'
p67
sg7
S'd1'
p68
sa(dp69
g5
S'white_pawn'
p70
sg7
S'd2'
p71
sa(dp72
g7
S'd3'
p73
sa(dp74
g7
S'd4'
p75
sa(dp76
g7
S'd5'
p77
sa(dp78
g7
S'd6'
p79
sa(dp80
g5
S'black_pawn'
p81
sg7
S'd7'
p82
sa(dp83
g5
S'black_queen'
p84
sg7
S'd8'
p85
sa(dp86
g5
S'white_king'
p87
sg7
S'e1'
p88
sa(dp89
g7
S'e2'
p90
sa(dp91
g7
S'e3'
p92
sa(dp93
g5
S'white_pawn'
p94
sg7
S'e4'
p95
sa(dp96
g7
S'e5'
p97
sa(dp98
g7
S'e6'
p99
sa(dp100
g5
S'black_pawn'
p101
sg7
S'e7'
p102
sa(dp103
g5
S'black_king'
p104
sg7
S'e8'
p105
sa(dp106
g5
S'white_bishop'
p107
sg7
S'f1'
p108
sa(dp109
g5
S'white_pawn'
p110
sg7
S'f2'
p111
sa(dp112
g7
S'f3'
p113
sa(dp114
g7
S'f4'
p115
sa(dp116
g7
S'f5'
p117
sa(dp118
g7
S'f6'
p119
sa(dp120
g5
S'black_pawn'
p121
sg7
S'f7'
p122
sa(dp123
g5
S'black_bishop'
p124
sg7
S'f8'
p125
sa(dp126
g5
S'white_knight'
p127
sg7
S'g1'
p128
sa(dp129
g5
S'white_pawn'
p130
sg7
S'g2'
p131
sa(dp132
g7
S'g3'
p133
sa(dp134
g7
S'g4'
p135
sa(dp136
g7
S'g5'
p137
sa(dp138
g7
S'g6'
p139
sa(dp140
g5
S'black_pawn'
p141
sg7
S'g7'
p142
sa(dp143
g5
S'black_knight'
p144
sg7
S'g8'
p145
sa(dp146
g5
S'white_rook'
p147
sg7
S'h1'
p148
sa(dp149
g5
S'white_pawn'
p150
sg7
S'h2'
p151
sa(dp152
g7
S'h3'
p153
sa(dp154
g7
S'h4'
p155
sa(dp156
g7
S'h5'
p157
sa(dp158
g7
S'h6'
p159
sa(dp160
g5
S'black_pawn'
p161
sg7
S'h7'
p162
sa(dp163
g5
S'black_rook'
p164
sg7
S'h8'
p165
saaVJoe starts off with the usual.
p166
aa(lp167
S'1... b6'
p168
a(lp169
(dp170
g5
S'white_rook'
p171
sg7
S'a1'
p172
sa(dp173
g5
S'white_pawn'
p174
sg7
S'a2'
p175
sa(dp176
g7
S'a3'
p177
sa(dp178
g7
S'a4'
p179
sa(dp180
g7
S'a5'
p181
sa(dp182
g7
S'a6'
p183
sa(dp184
g5
S'black_pawn'
p185
sg7
S'a7'
p186
sa(dp187
g5
S'black_rook'
p188
sg7
S'a8'
p189
sa(dp190
g5
S'white_knight'
p191
sg7
S'b1'
p192
sa(dp193
g5
S'white_pawn'
p194
sg7
S'b2'
p195
sa(dp196
g7
S'b3'
p197
sa(dp198
g7
S'b4'
p199
sa(dp200
g7
S'b5'
p201
sa(dp202
g5
S'black_pawn'
p203
sg7
S'b6'
p204
sa(dp205
g7
S'b7'
p206
sa(dp207
g5
S'black_knight'
p208
sg7
S'b8'
p209
sa(dp210
g5
S'white_bishop'
p211
sg7
S'c1'
p212
sa(dp213
g5
S'white_pawn'
p214
sg7
S'c2'
p215
sa(dp216
g7
S'c3'
p217
sa(dp218
g7
S'c4'
p219
sa(dp220
g7
S'c5'
p221
sa(dp222
g7
S'c6'
p223
sa(dp224
g5
S'black_pawn'
p225
sg7
S'c7'
p226
sa(dp227
g5
S'black_bishop'
p228
sg7
S'c8'
p229
sa(dp230
g5
S'white_queen'
p231
sg7
S'd1'
p232
sa(dp233
g5
S'white_pawn'
p234
sg7
S'd2'
p235
sa(dp236
g7
S'd3'
p237
sa(dp238
g7
S'd4'
p239
sa(dp240
g7
S'd5'
p241
sa(dp242
g7
S'd6'
p243
sa(dp244
g5
S'black_pawn'
p245
sg7
S'd7'
p246
sa(dp247
g5
S'black_queen'
p248
sg7
S'd8'
p249
sa(dp250
g5
S'white_king'
p251
sg7
S'e1'
p252
sa(dp253
g7
S'e2'
p254
sa(dp255
g7
S'e3'
p256
sa(dp257
g5
S'white_pawn'
p258
sg7
S'e4'
p259
sa(dp260
g7
S'e5'
p261
sa(dp262
g7
S'e6'
p263
sa(dp264
g5
S'black_pawn'
p265
sg7
S'e7'
p266
sa(dp267
g5
S'black_king'
p268
sg7
S'e8'
p269
sa(dp270
g5
S'white_bishop'
p271
sg7
S'f1'
p272
sa(dp273
g5
S'white_pawn'
p274
sg7
S'f2'
p275
sa(dp276
g7
S'f3'
p277
sa(dp278
g7
S'f4'
p279
sa(dp280
g7
S'f5'
p281
sa(dp282
g7
S'f6'
p283
sa(dp284
g5
S'black_pawn'
p285
sg7
S'f7'
p286
sa(dp287
g5
S'black_bishop'
p288
sg7
S'f8'
p289
sa(dp290
g5
S'white_knight'
p291
sg7
S'g1'
p292
sa(dp293
g5
S'white_pawn'
p294
sg7
S'g2'
p295
sa(dp296
g7
S'g3'
p297
sa(dp298
g7
S'g4'
p299
sa(dp300
g7
S'g5'
p301
sa(dp302
g7
S'g6'
p303
sa(dp304
g5
S'black_pawn'
p305
sg7
S'g7'
p306
sa(dp307
g5
S'black_knight'
p308
sg7
S'g8'
p309
sa(dp310
g5
S'white_rook'
p311
sg7
S'h1'
p312
sa(dp313
g5
S'white_pawn'
p314
sg7
S'h2'
p315
sa(dp316
g7
S'h3'
p317
sa(dp318
g7
S'h4'
p319
sa(dp320
g7
S'h5'
p321
sa(dp322
g7
S'h6'
p323
sa(dp324
g5
S'black_pawn'
p325
sg7
S'h7'
p326
sa(dp327
g5
S'black_rook'
p328
sg7
S'h8'
p329
saaVDan played the Owen's Defense.  Since, for only the second time, I'm seeing that against two really strong players, there's still something for me to learn.  The first time I saw this was during the GAC era.  Even though, I don't take that seriously given that he's a thing of the past, I still remember from that far back.  This was similar except that it wasn't too GM's, but it's the first time I've seen it with strong players during a blitz game like this.  It doesn't matter, however, as Joe is about to give up his Q for a pawn in the usual way.
p330
aa(lp331
S'2. Qh5 Nf6 3. Qxf7+ Kxf7 4. e5'
p332
a(lp333
(dp334
g5
S'white_rook'
p335
sg7
S'a1'
p336
sa(dp337
g5
S'white_pawn'
p338
sg7
S'a2'
p339
sa(dp340
g7
S'a3'
p341
sa(dp342
g7
S'a4'
p343
sa(dp344
g7
S'a5'
p345
sa(dp346
g7
S'a6'
p347
sa(dp348
g5
S'black_pawn'
p349
sg7
S'a7'
p350
sa(dp351
g5
S'black_rook'
p352
sg7
S'a8'
p353
sa(dp354
g5
S'white_knight'
p355
sg7
S'b1'
p356
sa(dp357
g5
S'white_pawn'
p358
sg7
S'b2'
p359
sa(dp360
g7
S'b3'
p361
sa(dp362
g7
S'b4'
p363
sa(dp364
g7
S'b5'
p365
sa(dp366
g5
S'black_pawn'
p367
sg7
S'b6'
p368
sa(dp369
g7
S'b7'
p370
sa(dp371
g5
S'black_knight'
p372
sg7
S'b8'
p373
sa(dp374
g5
S'white_bishop'
p375
sg7
S'c1'
p376
sa(dp377
g5
S'white_pawn'
p378
sg7
S'c2'
p379
sa(dp380
g7
S'c3'
p381
sa(dp382
g7
S'c4'
p383
sa(dp384
g7
S'c5'
p385
sa(dp386
g7
S'c6'
p387
sa(dp388
g5
S'black_pawn'
p389
sg7
S'c7'
p390
sa(dp391
g5
S'black_bishop'
p392
sg7
S'c8'
p393
sa(dp394
g7
S'd1'
p395
sa(dp396
g5
S'white_pawn'
p397
sg7
S'd2'
p398
sa(dp399
g7
S'd3'
p400
sa(dp401
g7
S'd4'
p402
sa(dp403
g7
S'd5'
p404
sa(dp405
g7
S'd6'
p406
sa(dp407
g5
S'black_pawn'
p408
sg7
S'd7'
p409
sa(dp410
g5
S'black_queen'
p411
sg7
S'd8'
p412
sa(dp413
g5
S'white_king'
p414
sg7
S'e1'
p415
sa(dp416
g7
S'e2'
p417
sa(dp418
g7
S'e3'
p419
sa(dp420
g7
S'e4'
p421
sa(dp422
g5
S'white_pawn'
p423
sg7
S'e5'
p424
sa(dp425
g7
S'e6'
p426
sa(dp427
g5
S'black_pawn'
p428
sg7
S'e7'
p429
sa(dp430
g7
S'e8'
p431
sa(dp432
g5
S'white_bishop'
p433
sg7
S'f1'
p434
sa(dp435
g5
S'white_pawn'
p436
sg7
S'f2'
p437
sa(dp438
g7
S'f3'
p439
sa(dp440
g7
S'f4'
p441
sa(dp442
g7
S'f5'
p443
sa(dp444
g5
S'black_knight'
p445
sg7
S'f6'
p446
sa(dp447
g5
S'black_king'
p448
sg7
S'f7'
p449
sa(dp450
g5
S'black_bishop'
p451
sg7
S'f8'
p452
sa(dp453
g5
S'white_knight'
p454
sg7
S'g1'
p455
sa(dp456
g5
S'white_pawn'
p457
sg7
S'g2'
p458
sa(dp459
g7
S'g3'
p460
sa(dp461
g7
S'g4'
p462
sa(dp463
g7
S'g5'
p464
sa(dp465
g7
S'g6'
p466
sa(dp467
g5
S'black_pawn'
p468
sg7
S'g7'
p469
sa(dp470
g7
S'g8'
p471
sa(dp472
g5
S'white_rook'
p473
sg7
S'h1'
p474
sa(dp475
g5
S'white_pawn'
p476
sg7
S'h2'
p477
sa(dp478
g7
S'h3'
p479
sa(dp480
g7
S'h4'
p481
sa(dp482
g7
S'h5'
p483
sa(dp484
g7
S'h6'
p485
sa(dp486
g5
S'black_pawn'
p487
sg7
S'h7'
p488
sa(dp489
g5
S'black_rook'
p490
sg7
S'h8'
p491
saaVThis move was played for tempo gain.  Being a Q for pawn down, he'll do whatever he can to catch up time.  Yes, this is one of Joe's strategies.  I saw a similar example in a game that fiercequeen annotated.  The only thing is that material was level, but constant gain of tempo is what allowed white to win the game.  So, it's very important, even here.
p492
aa(lp493
S'4... Kg8'
p494
a(lp495
(dp496
g5
S'white_rook'
p497
sg7
S'a1'
p498
sa(dp499
g5
S'white_pawn'
p500
sg7
S'a2'
p501
sa(dp502
g7
S'a3'
p503
sa(dp504
g7
S'a4'
p505
sa(dp506
g7
S'a5'
p507
sa(dp508
g7
S'a6'
p509
sa(dp510
g5
S'black_pawn'
p511
sg7
S'a7'
p512
sa(dp513
g5
S'black_rook'
p514
sg7
S'a8'
p515
sa(dp516
g5
S'white_knight'
p517
sg7
S'b1'
p518
sa(dp519
g5
S'white_pawn'
p520
sg7
S'b2'
p521
sa(dp522
g7
S'b3'
p523
sa(dp524
g7
S'b4'
p525
sa(dp526
g7
S'b5'
p527
sa(dp528
g5
S'black_pawn'
p529
sg7
S'b6'
p530
sa(dp531
g7
S'b7'
p532
sa(dp533
g5
S'black_knight'
p534
sg7
S'b8'
p535
sa(dp536
g5
S'white_bishop'
p537
sg7
S'c1'
p538
sa(dp539
g5
S'white_pawn'
p540
sg7
S'c2'
p541
sa(dp542
g7
S'c3'
p543
sa(dp544
g7
S'c4'
p545
sa(dp546
g7
S'c5'
p547
sa(dp548
g7
S'c6'
p549
sa(dp550
g5
S'black_pawn'
p551
sg7
S'c7'
p552
sa(dp553
g5
S'black_bishop'
p554
sg7
S'c8'
p555
sa(dp556
g7
S'd1'
p557
sa(dp558
g5
S'white_pawn'
p559
sg7
S'd2'
p560
sa(dp561
g7
S'd3'
p562
sa(dp563
g7
S'd4'
p564
sa(dp565
g7
S'd5'
p566
sa(dp567
g7
S'd6'
p568
sa(dp569
g5
S'black_pawn'
p570
sg7
S'd7'
p571
sa(dp572
g5
S'black_queen'
p573
sg7
S'd8'
p574
sa(dp575
g5
S'white_king'
p576
sg7
S'e1'
p577
sa(dp578
g7
S'e2'
p579
sa(dp580
g7
S'e3'
p581
sa(dp582
g7
S'e4'
p583
sa(dp584
g5
S'white_pawn'
p585
sg7
S'e5'
p586
sa(dp587
g7
S'e6'
p588
sa(dp589
g5
S'black_pawn'
p590
sg7
S'e7'
p591
sa(dp592
g7
S'e8'
p593
sa(dp594
g5
S'white_bishop'
p595
sg7
S'f1'
p596
sa(dp597
g5
S'white_pawn'
p598
sg7
S'f2'
p599
sa(dp600
g7
S'f3'
p601
sa(dp602
g7
S'f4'
p603
sa(dp604
g7
S'f5'
p605
sa(dp606
g5
S'black_knight'
p607
sg7
S'f6'
p608
sa(dp609
g7
S'f7'
p610
sa(dp611
g5
S'black_bishop'
p612
sg7
S'f8'
p613
sa(dp614
g5
S'white_knight'
p615
sg7
S'g1'
p616
sa(dp617
g5
S'white_pawn'
p618
sg7
S'g2'
p619
sa(dp620
g7
S'g3'
p621
sa(dp622
g7
S'g4'
p623
sa(dp624
g7
S'g5'
p625
sa(dp626
g7
S'g6'
p627
sa(dp628
g5
S'black_pawn'
p629
sg7
S'g7'
p630
sa(dp631
g5
S'black_king'
p632
sg7
S'g8'
p633
sa(dp634
g5
S'white_rook'
p635
sg7
S'h1'
p636
sa(dp637
g5
S'white_pawn'
p638
sg7
S'h2'
p639
sa(dp640
g7
S'h3'
p641
sa(dp642
g7
S'h4'
p643
sa(dp644
g7
S'h5'
p645
sa(dp646
g7
S'h6'
p647
sa(dp648
g5
S'black_pawn'
p649
sg7
S'h7'
p650
sa(dp651
g5
S'black_rook'
p652
sg7
S'h8'
p653
saaVWith that being said, I believe that much better was for Dan to retreat his Nf6.  This move gives Joe a minor piece for a pawn as compensation.  But, after this move, Dan doesn't give anything else away.
p654
aa(lp655
S'5. exf6 exf6 6. d4'
p656
a(lp657
(dp658
g5
S'white_rook'
p659
sg7
S'a1'
p660
sa(dp661
g5
S'white_pawn'
p662
sg7
S'a2'
p663
sa(dp664
g7
S'a3'
p665
sa(dp666
g7
S'a4'
p667
sa(dp668
g7
S'a5'
p669
sa(dp670
g7
S'a6'
p671
sa(dp672
g5
S'black_pawn'
p673
sg7
S'a7'
p674
sa(dp675
g5
S'black_rook'
p676
sg7
S'a8'
p677
sa(dp678
g5
S'white_knight'
p679
sg7
S'b1'
p680
sa(dp681
g5
S'white_pawn'
p682
sg7
S'b2'
p683
sa(dp684
g7
S'b3'
p685
sa(dp686
g7
S'b4'
p687
sa(dp688
g7
S'b5'
p689
sa(dp690
g5
S'black_pawn'
p691
sg7
S'b6'
p692
sa(dp693
g7
S'b7'
p694
sa(dp695
g5
S'black_knight'
p696
sg7
S'b8'
p697
sa(dp698
g5
S'white_bishop'
p699
sg7
S'c1'
p700
sa(dp701
g5
S'white_pawn'
p702
sg7
S'c2'
p703
sa(dp704
g7
S'c3'
p705
sa(dp706
g7
S'c4'
p707
sa(dp708
g7
S'c5'
p709
sa(dp710
g7
S'c6'
p711
sa(dp712
g5
S'black_pawn'
p713
sg7
S'c7'
p714
sa(dp715
g5
S'black_bishop'
p716
sg7
S'c8'
p717
sa(dp718
g7
S'd1'
p719
sa(dp720
g7
S'd2'
p721
sa(dp722
g7
S'd3'
p723
sa(dp724
g5
S'white_pawn'
p725
sg7
S'd4'
p726
sa(dp727
g7
S'd5'
p728
sa(dp729
g7
S'd6'
p730
sa(dp731
g5
S'black_pawn'
p732
sg7
S'd7'
p733
sa(dp734
g5
S'black_queen'
p735
sg7
S'd8'
p736
sa(dp737
g5
S'white_king'
p738
sg7
S'e1'
p739
sa(dp740
g7
S'e2'
p741
sa(dp742
g7
S'e3'
p743
sa(dp744
g7
S'e4'
p745
sa(dp746
g7
S'e5'
p747
sa(dp748
g7
S'e6'
p749
sa(dp750
g7
S'e7'
p751
sa(dp752
g7
S'e8'
p753
sa(dp754
g5
S'white_bishop'
p755
sg7
S'f1'
p756
sa(dp757
g5
S'white_pawn'
p758
sg7
S'f2'
p759
sa(dp760
g7
S'f3'
p761
sa(dp762
g7
S'f4'
p763
sa(dp764
g7
S'f5'
p765
sa(dp766
g5
S'black_pawn'
p767
sg7
S'f6'
p768
sa(dp769
g7
S'f7'
p770
sa(dp771
g5
S'black_bishop'
p772
sg7
S'f8'
p773
sa(dp774
g5
S'white_knight'
p775
sg7
S'g1'
p776
sa(dp777
g5
S'white_pawn'
p778
sg7
S'g2'
p779
sa(dp780
g7
S'g3'
p781
sa(dp782
g7
S'g4'
p783
sa(dp784
g7
S'g5'
p785
sa(dp786
g7
S'g6'
p787
sa(dp788
g5
S'black_pawn'
p789
sg7
S'g7'
p790
sa(dp791
g5
S'black_king'
p792
sg7
S'g8'
p793
sa(dp794
g5
S'white_rook'
p795
sg7
S'h1'
p796
sa(dp797
g5
S'white_pawn'
p798
sg7
S'h2'
p799
sa(dp800
g7
S'h3'
p801
sa(dp802
g7
S'h4'
p803
sa(dp804
g7
S'h5'
p805
sa(dp806
g7
S'h6'
p807
sa(dp808
g5
S'black_pawn'
p809
sg7
S'h7'
p810
sa(dp811
g5
S'black_rook'
p812
sg7
S'h8'
p813
saaVOpening up a line for his Bc1.
p814
aa(lp815
S'6... d5'
p816
a(lp817
(dp818
g5
S'white_rook'
p819
sg7
S'a1'
p820
sa(dp821
g5
S'white_pawn'
p822
sg7
S'a2'
p823
sa(dp824
g7
S'a3'
p825
sa(dp826
g7
S'a4'
p827
sa(dp828
g7
S'a5'
p829
sa(dp830
g7
S'a6'
p831
sa(dp832
g5
S'black_pawn'
p833
sg7
S'a7'
p834
sa(dp835
g5
S'black_rook'
p836
sg7
S'a8'
p837
sa(dp838
g5
S'white_knight'
p839
sg7
S'b1'
p840
sa(dp841
g5
S'white_pawn'
p842
sg7
S'b2'
p843
sa(dp844
g7
S'b3'
p845
sa(dp846
g7
S'b4'
p847
sa(dp848
g7
S'b5'
p849
sa(dp850
g5
S'black_pawn'
p851
sg7
S'b6'
p852
sa(dp853
g7
S'b7'
p854
sa(dp855
g5
S'black_knight'
p856
sg7
S'b8'
p857
sa(dp858
g5
S'white_bishop'
p859
sg7
S'c1'
p860
sa(dp861
g5
S'white_pawn'
p862
sg7
S'c2'
p863
sa(dp864
g7
S'c3'
p865
sa(dp866
g7
S'c4'
p867
sa(dp868
g7
S'c5'
p869
sa(dp870
g7
S'c6'
p871
sa(dp872
g5
S'black_pawn'
p873
sg7
S'c7'
p874
sa(dp875
g5
S'black_bishop'
p876
sg7
S'c8'
p877
sa(dp878
g7
S'd1'
p879
sa(dp880
g7
S'd2'
p881
sa(dp882
g7
S'd3'
p883
sa(dp884
g5
S'white_pawn'
p885
sg7
S'd4'
p886
sa(dp887
g5
S'black_pawn'
p888
sg7
S'd5'
p889
sa(dp890
g7
S'd6'
p891
sa(dp892
g7
S'd7'
p893
sa(dp894
g5
S'black_queen'
p895
sg7
S'd8'
p896
sa(dp897
g5
S'white_king'
p898
sg7
S'e1'
p899
sa(dp900
g7
S'e2'
p901
sa(dp902
g7
S'e3'
p903
sa(dp904
g7
S'e4'
p905
sa(dp906
g7
S'e5'
p907
sa(dp908
g7
S'e6'
p909
sa(dp910
g7
S'e7'
p911
sa(dp912
g7
S'e8'
p913
sa(dp914
g5
S'white_bishop'
p915
sg7
S'f1'
p916
sa(dp917
g5
S'white_pawn'
p918
sg7
S'f2'
p919
sa(dp920
g7
S'f3'
p921
sa(dp922
g7
S'f4'
p923
sa(dp924
g7
S'f5'
p925
sa(dp926
g5
S'black_pawn'
p927
sg7
S'f6'
p928
sa(dp929
g7
S'f7'
p930
sa(dp931
g5
S'black_bishop'
p932
sg7
S'f8'
p933
sa(dp934
g5
S'white_knight'
p935
sg7
S'g1'
p936
sa(dp937
g5
S'white_pawn'
p938
sg7
S'g2'
p939
sa(dp940
g7
S'g3'
p941
sa(dp942
g7
S'g4'
p943
sa(dp944
g7
S'g5'
p945
sa(dp946
g7
S'g6'
p947
sa(dp948
g5
S'black_pawn'
p949
sg7
S'g7'
p950
sa(dp951
g5
S'black_king'
p952
sg7
S'g8'
p953
sa(dp954
g5
S'white_rook'
p955
sg7
S'h1'
p956
sa(dp957
g5
S'white_pawn'
p958
sg7
S'h2'
p959
sa(dp960
g7
S'h3'
p961
sa(dp962
g7
S'h4'
p963
sa(dp964
g7
S'h5'
p965
sa(dp966
g7
S'h6'
p967
sa(dp968
g5
S'black_pawn'
p969
sg7
S'h7'
p970
sa(dp971
g5
S'black_rook'
p972
sg7
S'h8'
p973
saaVSimilarly, Dan opens up a line for his Bc8.
p974
aa(lp975
S'7. Nc3'
p976
a(lp977
(dp978
g5
S'white_rook'
p979
sg7
S'a1'
p980
sa(dp981
g5
S'white_pawn'
p982
sg7
S'a2'
p983
sa(dp984
g7
S'a3'
p985
sa(dp986
g7
S'a4'
p987
sa(dp988
g7
S'a5'
p989
sa(dp990
g7
S'a6'
p991
sa(dp992
g5
S'black_pawn'
p993
sg7
S'a7'
p994
sa(dp995
g5
S'black_rook'
p996
sg7
S'a8'
p997
sa(dp998
g7
S'b1'
p999
sa(dp1000
g5
S'white_pawn'
p1001
sg7
S'b2'
p1002
sa(dp1003
g7
S'b3'
p1004
sa(dp1005
g7
S'b4'
p1006
sa(dp1007
g7
S'b5'
p1008
sa(dp1009
g5
S'black_pawn'
p1010
sg7
S'b6'
p1011
sa(dp1012
g7
S'b7'
p1013
sa(dp1014
g5
S'black_knight'
p1015
sg7
S'b8'
p1016
sa(dp1017
g5
S'white_bishop'
p1018
sg7
S'c1'
p1019
sa(dp1020
g5
S'white_pawn'
p1021
sg7
S'c2'
p1022
sa(dp1023
g5
S'white_knight'
p1024
sg7
S'c3'
p1025
sa(dp1026
g7
S'c4'
p1027
sa(dp1028
g7
S'c5'
p1029
sa(dp1030
g7
S'c6'
p1031
sa(dp1032
g5
S'black_pawn'
p1033
sg7
S'c7'
p1034
sa(dp1035
g5
S'black_bishop'
p1036
sg7
S'c8'
p1037
sa(dp1038
g7
S'd1'
p1039
sa(dp1040
g7
S'd2'
p1041
sa(dp1042
g7
S'd3'
p1043
sa(dp1044
g5
S'white_pawn'
p1045
sg7
S'd4'
p1046
sa(dp1047
g5
S'black_pawn'
p1048
sg7
S'd5'
p1049
sa(dp1050
g7
S'd6'
p1051
sa(dp1052
g7
S'd7'
p1053
sa(dp1054
g5
S'black_queen'
p1055
sg7
S'd8'
p1056
sa(dp1057
g5
S'white_king'
p1058
sg7
S'e1'
p1059
sa(dp1060
g7
S'e2'
p1061
sa(dp1062
g7
S'e3'
p1063
sa(dp1064
g7
S'e4'
p1065
sa(dp1066
g7
S'e5'
p1067
sa(dp1068
g7
S'e6'
p1069
sa(dp1070
g7
S'e7'
p1071
sa(dp1072
g7
S'e8'
p1073
sa(dp1074
g5
S'white_bishop'
p1075
sg7
S'f1'
p1076
sa(dp1077
g5
S'white_pawn'
p1078
sg7
S'f2'
p1079
sa(dp1080
g7
S'f3'
p1081
sa(dp1082
g7
S'f4'
p1083
sa(dp1084
g7
S'f5'
p1085
sa(dp1086
g5
S'black_pawn'
p1087
sg7
S'f6'
p1088
sa(dp1089
g7
S'f7'
p1090
sa(dp1091
g5
S'black_bishop'
p1092
sg7
S'f8'
p1093
sa(dp1094
g5
S'white_knight'
p1095
sg7
S'g1'
p1096
sa(dp1097
g5
S'white_pawn'
p1098
sg7
S'g2'
p1099
sa(dp1100
g7
S'g3'
p1101
sa(dp1102
g7
S'g4'
p1103
sa(dp1104
g7
S'g5'
p1105
sa(dp1106
g7
S'g6'
p1107
sa(dp1108
g5
S'black_pawn'
p1109
sg7
S'g7'
p1110
sa(dp1111
g5
S'black_king'
p1112
sg7
S'g8'
p1113
sa(dp1114
g5
S'white_rook'
p1115
sg7
S'h1'
p1116
sa(dp1117
g5
S'white_pawn'
p1118
sg7
S'h2'
p1119
sa(dp1120
g7
S'h3'
p1121
sa(dp1122
g7
S'h4'
p1123
sa(dp1124
g7
S'h5'
p1125
sa(dp1126
g7
S'h6'
p1127
sa(dp1128
g5
S'black_pawn'
p1129
sg7
S'h7'
p1130
sa(dp1131
g5
S'black_rook'
p1132
sg7
S'h8'
p1133
saaVThis where Joe, formally, develops his first piece.  What I mean is that guideline of develop your minor pieces.
p1134
aa(lp1135
S'7... c6'
p1136
a(lp1137
(dp1138
g5
S'white_rook'
p1139
sg7
S'a1'
p1140
sa(dp1141
g5
S'white_pawn'
p1142
sg7
S'a2'
p1143
sa(dp1144
g7
S'a3'
p1145
sa(dp1146
g7
S'a4'
p1147
sa(dp1148
g7
S'a5'
p1149
sa(dp1150
g7
S'a6'
p1151
sa(dp1152
g5
S'black_pawn'
p1153
sg7
S'a7'
p1154
sa(dp1155
g5
S'black_rook'
p1156
sg7
S'a8'
p1157
sa(dp1158
g7
S'b1'
p1159
sa(dp1160
g5
S'white_pawn'
p1161
sg7
S'b2'
p1162
sa(dp1163
g7
S'b3'
p1164
sa(dp1165
g7
S'b4'
p1166
sa(dp1167
g7
S'b5'
p1168
sa(dp1169
g5
S'black_pawn'
p1170
sg7
S'b6'
p1171
sa(dp1172
g7
S'b7'
p1173
sa(dp1174
g5
S'black_knight'
p1175
sg7
S'b8'
p1176
sa(dp1177
g5
S'white_bishop'
p1178
sg7
S'c1'
p1179
sa(dp1180
g5
S'white_pawn'
p1181
sg7
S'c2'
p1182
sa(dp1183
g5
S'white_knight'
p1184
sg7
S'c3'
p1185
sa(dp1186
g7
S'c4'
p1187
sa(dp1188
g7
S'c5'
p1189
sa(dp1190
g5
S'black_pawn'
p1191
sg7
S'c6'
p1192
sa(dp1193
g7
S'c7'
p1194
sa(dp1195
g5
S'black_bishop'
p1196
sg7
S'c8'
p1197
sa(dp1198
g7
S'd1'
p1199
sa(dp1200
g7
S'd2'
p1201
sa(dp1202
g7
S'd3'
p1203
sa(dp1204
g5
S'white_pawn'
p1205
sg7
S'd4'
p1206
sa(dp1207
g5
S'black_pawn'
p1208
sg7
S'd5'
p1209
sa(dp1210
g7
S'd6'
p1211
sa(dp1212
g7
S'd7'
p1213
sa(dp1214
g5
S'black_queen'
p1215
sg7
S'd8'
p1216
sa(dp1217
g5
S'white_king'
p1218
sg7
S'e1'
p1219
sa(dp1220
g7
S'e2'
p1221
sa(dp1222
g7
S'e3'
p1223
sa(dp1224
g7
S'e4'
p1225
sa(dp1226
g7
S'e5'
p1227
sa(dp1228
g7
S'e6'
p1229
sa(dp1230
g7
S'e7'
p1231
sa(dp1232
g7
S'e8'
p1233
sa(dp1234
g5
S'white_bishop'
p1235
sg7
S'f1'
p1236
sa(dp1237
g5
S'white_pawn'
p1238
sg7
S'f2'
p1239
sa(dp1240
g7
S'f3'
p1241
sa(dp1242
g7
S'f4'
p1243
sa(dp1244
g7
S'f5'
p1245
sa(dp1246
g5
S'black_pawn'
p1247
sg7
S'f6'
p1248
sa(dp1249
g7
S'f7'
p1250
sa(dp1251
g5
S'black_bishop'
p1252
sg7
S'f8'
p1253
sa(dp1254
g5
S'white_knight'
p1255
sg7
S'g1'
p1256
sa(dp1257
g5
S'white_pawn'
p1258
sg7
S'g2'
p1259
sa(dp1260
g7
S'g3'
p1261
sa(dp1262
g7
S'g4'
p1263
sa(dp1264
g7
S'g5'
p1265
sa(dp1266
g7
S'g6'
p1267
sa(dp1268
g5
S'black_pawn'
p1269
sg7
S'g7'
p1270
sa(dp1271
g5
S'black_king'
p1272
sg7
S'g8'
p1273
sa(dp1274
g5
S'white_rook'
p1275
sg7
S'h1'
p1276
sa(dp1277
g5
S'white_pawn'
p1278
sg7
S'h2'
p1279
sa(dp1280
g7
S'h3'
p1281
sa(dp1282
g7
S'h4'
p1283
sa(dp1284
g7
S'h5'
p1285
sa(dp1286
g7
S'h6'
p1287
sa(dp1288
g5
S'black_pawn'
p1289
sg7
S'h7'
p1290
sa(dp1291
g5
S'black_rook'
p1292
sg7
S'h8'
p1293
saaVI don't understand why Dan played this.  It doesn't help with his development in any way.  Instead, it hinders his Nb8.  That's why, as black even in blitz, I would've played 7...Nc6.
p1294
aa(lp1295
S'8. Bd2'
p1296
a(lp1297
(dp1298
g5
S'white_rook'
p1299
sg7
S'a1'
p1300
sa(dp1301
g5
S'white_pawn'
p1302
sg7
S'a2'
p1303
sa(dp1304
g7
S'a3'
p1305
sa(dp1306
g7
S'a4'
p1307
sa(dp1308
g7
S'a5'
p1309
sa(dp1310
g7
S'a6'
p1311
sa(dp1312
g5
S'black_pawn'
p1313
sg7
S'a7'
p1314
sa(dp1315
g5
S'black_rook'
p1316
sg7
S'a8'
p1317
sa(dp1318
g7
S'b1'
p1319
sa(dp1320
g5
S'white_pawn'
p1321
sg7
S'b2'
p1322
sa(dp1323
g7
S'b3'
p1324
sa(dp1325
g7
S'b4'
p1326
sa(dp1327
g7
S'b5'
p1328
sa(dp1329
g5
S'black_pawn'
p1330
sg7
S'b6'
p1331
sa(dp1332
g7
S'b7'
p1333
sa(dp1334
g5
S'black_knight'
p1335
sg7
S'b8'
p1336
sa(dp1337
g7
S'c1'
p1338
sa(dp1339
g5
S'white_pawn'
p1340
sg7
S'c2'
p1341
sa(dp1342
g5
S'white_knight'
p1343
sg7
S'c3'
p1344
sa(dp1345
g7
S'c4'
p1346
sa(dp1347
g7
S'c5'
p1348
sa(dp1349
g5
S'black_pawn'
p1350
sg7
S'c6'
p1351
sa(dp1352
g7
S'c7'
p1353
sa(dp1354
g5
S'black_bishop'
p1355
sg7
S'c8'
p1356
sa(dp1357
g7
S'd1'
p1358
sa(dp1359
g5
S'white_bishop'
p1360
sg7
S'd2'
p1361
sa(dp1362
g7
S'd3'
p1363
sa(dp1364
g5
S'white_pawn'
p1365
sg7
S'd4'
p1366
sa(dp1367
g5
S'black_pawn'
p1368
sg7
S'd5'
p1369
sa(dp1370
g7
S'd6'
p1371
sa(dp1372
g7
S'd7'
p1373
sa(dp1374
g5
S'black_queen'
p1375
sg7
S'd8'
p1376
sa(dp1377
g5
S'white_king'
p1378
sg7
S'e1'
p1379
sa(dp1380
g7
S'e2'
p1381
sa(dp1382
g7
S'e3'
p1383
sa(dp1384
g7
S'e4'
p1385
sa(dp1386
g7
S'e5'
p1387
sa(dp1388
g7
S'e6'
p1389
sa(dp1390
g7
S'e7'
p1391
sa(dp1392
g7
S'e8'
p1393
sa(dp1394
g5
S'white_bishop'
p1395
sg7
S'f1'
p1396
sa(dp1397
g5
S'white_pawn'
p1398
sg7
S'f2'
p1399
sa(dp1400
g7
S'f3'
p1401
sa(dp1402
g7
S'f4'
p1403
sa(dp1404
g7
S'f5'
p1405
sa(dp1406
g5
S'black_pawn'
p1407
sg7
S'f6'
p1408
sa(dp1409
g7
S'f7'
p1410
sa(dp1411
g5
S'black_bishop'
p1412
sg7
S'f8'
p1413
sa(dp1414
g5
S'white_knight'
p1415
sg7
S'g1'
p1416
sa(dp1417
g5
S'white_pawn'
p1418
sg7
S'g2'
p1419
sa(dp1420
g7
S'g3'
p1421
sa(dp1422
g7
S'g4'
p1423
sa(dp1424
g7
S'g5'
p1425
sa(dp1426
g7
S'g6'
p1427
sa(dp1428
g5
S'black_pawn'
p1429
sg7
S'g7'
p1430
sa(dp1431
g5
S'black_king'
p1432
sg7
S'g8'
p1433
sa(dp1434
g5
S'white_rook'
p1435
sg7
S'h1'
p1436
sa(dp1437
g5
S'white_pawn'
p1438
sg7
S'h2'
p1439
sa(dp1440
g7
S'h3'
p1441
sa(dp1442
g7
S'h4'
p1443
sa(dp1444
g7
S'h5'
p1445
sa(dp1446
g7
S'h6'
p1447
sa(dp1448
g5
S'black_pawn'
p1449
sg7
S'h7'
p1450
sa(dp1451
g5
S'black_rook'
p1452
sg7
S'h8'
p1453
saaVAs now, Dan is falling behind in development.  Might seem little, but against a senior master, however, it is a big deal.
p1454
aa(lp1455
S'8... Qe7+'
p1456
a(lp1457
(dp1458
g5
S'white_rook'
p1459
sg7
S'a1'
p1460
sa(dp1461
g5
S'white_pawn'
p1462
sg7
S'a2'
p1463
sa(dp1464
g7
S'a3'
p1465
sa(dp1466
g7
S'a4'
p1467
sa(dp1468
g7
S'a5'
p1469
sa(dp1470
g7
S'a6'
p1471
sa(dp1472
g5
S'black_pawn'
p1473
sg7
S'a7'
p1474
sa(dp1475
g5
S'black_rook'
p1476
sg7
S'a8'
p1477
sa(dp1478
g7
S'b1'
p1479
sa(dp1480
g5
S'white_pawn'
p1481
sg7
S'b2'
p1482
sa(dp1483
g7
S'b3'
p1484
sa(dp1485
g7
S'b4'
p1486
sa(dp1487
g7
S'b5'
p1488
sa(dp1489
g5
S'black_pawn'
p1490
sg7
S'b6'
p1491
sa(dp1492
g7
S'b7'
p1493
sa(dp1494
g5
S'black_knight'
p1495
sg7
S'b8'
p1496
sa(dp1497
g7
S'c1'
p1498
sa(dp1499
g5
S'white_pawn'
p1500
sg7
S'c2'
p1501
sa(dp1502
g5
S'white_knight'
p1503
sg7
S'c3'
p1504
sa(dp1505
g7
S'c4'
p1506
sa(dp1507
g7
S'c5'
p1508
sa(dp1509
g5
S'black_pawn'
p1510
sg7
S'c6'
p1511
sa(dp1512
g7
S'c7'
p1513
sa(dp1514
g5
S'black_bishop'
p1515
sg7
S'c8'
p1516
sa(dp1517
g7
S'd1'
p1518
sa(dp1519
g5
S'white_bishop'
p1520
sg7
S'd2'
p1521
sa(dp1522
g7
S'd3'
p1523
sa(dp1524
g5
S'white_pawn'
p1525
sg7
S'd4'
p1526
sa(dp1527
g5
S'black_pawn'
p1528
sg7
S'd5'
p1529
sa(dp1530
g7
S'd6'
p1531
sa(dp1532
g7
S'd7'
p1533
sa(dp1534
g7
S'd8'
p1535
sa(dp1536
g5
S'white_king'
p1537
sg7
S'e1'
p1538
sa(dp1539
g7
S'e2'
p1540
sa(dp1541
g7
S'e3'
p1542
sa(dp1543
g7
S'e4'
p1544
sa(dp1545
g7
S'e5'
p1546
sa(dp1547
g7
S'e6'
p1548
sa(dp1549
g5
S'black_queen'
p1550
sg7
S'e7'
p1551
sa(dp1552
g7
S'e8'
p1553
sa(dp1554
g5
S'white_bishop'
p1555
sg7
S'f1'
p1556
sa(dp1557
g5
S'white_pawn'
p1558
sg7
S'f2'
p1559
sa(dp1560
g7
S'f3'
p1561
sa(dp1562
g7
S'f4'
p1563
sa(dp1564
g7
S'f5'
p1565
sa(dp1566
g5
S'black_pawn'
p1567
sg7
S'f6'
p1568
sa(dp1569
g7
S'f7'
p1570
sa(dp1571
g5
S'black_bishop'
p1572
sg7
S'f8'
p1573
sa(dp1574
g5
S'white_knight'
p1575
sg7
S'g1'
p1576
sa(dp1577
g5
S'white_pawn'
p1578
sg7
S'g2'
p1579
sa(dp1580
g7
S'g3'
p1581
sa(dp1582
g7
S'g4'
p1583
sa(dp1584
g7
S'g5'
p1585
sa(dp1586
g7
S'g6'
p1587
sa(dp1588
g5
S'black_pawn'
p1589
sg7
S'g7'
p1590
sa(dp1591
g5
S'black_king'
p1592
sg7
S'g8'
p1593
sa(dp1594
g5
S'white_rook'
p1595
sg7
S'h1'
p1596
sa(dp1597
g5
S'white_pawn'
p1598
sg7
S'h2'
p1599
sa(dp1600
g7
S'h3'
p1601
sa(dp1602
g7
S'h4'
p1603
sa(dp1604
g7
S'h5'
p1605
sa(dp1606
g7
S'h6'
p1607
sa(dp1608
g5
S'black_pawn'
p1609
sg7
S'h7'
p1610
sa(dp1611
g5
S'black_rook'
p1612
sg7
S'h8'
p1613
saaVTrying to put pressure against Joe, Dan throws in this check.  But, from my perspective, it wasn't necessary.  As now, black's Q appears to be out prematurely.  In fact, it's out, just about, as soon as, what I saw with Botvinik when he played Fischer.  It can be argued, however, that Joe brought it out earlier since he gave it away.  But, white can get away with not following the principles because of who he's against.  However, opponents who are not as strong should at least follow some of the guidelines.  Not doing so can be a recipe for trouble.  And, that is often the case in games like this.
p1614
aa(lp1615
S'9. Nge2'
p1616
a(lp1617
(dp1618
g5
S'white_rook'
p1619
sg7
S'a1'
p1620
sa(dp1621
g5
S'white_pawn'
p1622
sg7
S'a2'
p1623
sa(dp1624
g7
S'a3'
p1625
sa(dp1626
g7
S'a4'
p1627
sa(dp1628
g7
S'a5'
p1629
sa(dp1630
g7
S'a6'
p1631
sa(dp1632
g5
S'black_pawn'
p1633
sg7
S'a7'
p1634
sa(dp1635
g5
S'black_rook'
p1636
sg7
S'a8'
p1637
sa(dp1638
g7
S'b1'
p1639
sa(dp1640
g5
S'white_pawn'
p1641
sg7
S'b2'
p1642
sa(dp1643
g7
S'b3'
p1644
sa(dp1645
g7
S'b4'
p1646
sa(dp1647
g7
S'b5'
p1648
sa(dp1649
g5
S'black_pawn'
p1650
sg7
S'b6'
p1651
sa(dp1652
g7
S'b7'
p1653
sa(dp1654
g5
S'black_knight'
p1655
sg7
S'b8'
p1656
sa(dp1657
g7
S'c1'
p1658
sa(dp1659
g5
S'white_pawn'
p1660
sg7
S'c2'
p1661
sa(dp1662
g5
S'white_knight'
p1663
sg7
S'c3'
p1664
sa(dp1665
g7
S'c4'
p1666
sa(dp1667
g7
S'c5'
p1668
sa(dp1669
g5
S'black_pawn'
p1670
sg7
S'c6'
p1671
sa(dp1672
g7
S'c7'
p1673
sa(dp1674
g5
S'black_bishop'
p1675
sg7
S'c8'
p1676
sa(dp1677
g7
S'd1'
p1678
sa(dp1679
g5
S'white_bishop'
p1680
sg7
S'd2'
p1681
sa(dp1682
g7
S'd3'
p1683
sa(dp1684
g5
S'white_pawn'
p1685
sg7
S'd4'
p1686
sa(dp1687
g5
S'black_pawn'
p1688
sg7
S'd5'
p1689
sa(dp1690
g7
S'd6'
p1691
sa(dp1692
g7
S'd7'
p1693
sa(dp1694
g7
S'd8'
p1695
sa(dp1696
g5
S'white_king'
p1697
sg7
S'e1'
p1698
sa(dp1699
g5
S'white_knight'
p1700
sg7
S'e2'
p1701
sa(dp1702
g7
S'e3'
p1703
sa(dp1704
g7
S'e4'
p1705
sa(dp1706
g7
S'e5'
p1707
sa(dp1708
g7
S'e6'
p1709
sa(dp1710
g5
S'black_queen'
p1711
sg7
S'e7'
p1712
sa(dp1713
g7
S'e8'
p1714
sa(dp1715
g5
S'white_bishop'
p1716
sg7
S'f1'
p1717
sa(dp1718
g5
S'white_pawn'
p1719
sg7
S'f2'
p1720
sa(dp1721
g7
S'f3'
p1722
sa(dp1723
g7
S'f4'
p1724
sa(dp1725
g7
S'f5'
p1726
sa(dp1727
g5
S'black_pawn'
p1728
sg7
S'f6'
p1729
sa(dp1730
g7
S'f7'
p1731
sa(dp1732
g5
S'black_bishop'
p1733
sg7
S'f8'
p1734
sa(dp1735
g7
S'g1'
p1736
sa(dp1737
g5
S'white_pawn'
p1738
sg7
S'g2'
p1739
sa(dp1740
g7
S'g3'
p1741
sa(dp1742
g7
S'g4'
p1743
sa(dp1744
g7
S'g5'
p1745
sa(dp1746
g7
S'g6'
p1747
sa(dp1748
g5
S'black_pawn'
p1749
sg7
S'g7'
p1750
sa(dp1751
g5
S'black_king'
p1752
sg7
S'g8'
p1753
sa(dp1754
g5
S'white_rook'
p1755
sg7
S'h1'
p1756
sa(dp1757
g5
S'white_pawn'
p1758
sg7
S'h2'
p1759
sa(dp1760
g7
S'h3'
p1761
sa(dp1762
g7
S'h4'
p1763
sa(dp1764
g7
S'h5'
p1765
sa(dp1766
g7
S'h6'
p1767
sa(dp1768
g5
S'black_pawn'
p1769
sg7
S'h7'
p1770
sa(dp1771
g5
S'black_rook'
p1772
sg7
S'h8'
p1773
saaVAs the check helped Joe since another piece is now in play and well coordinated with the other N.
p1774
aa(lp1775
S'9... Bf5'
p1776
a(lp1777
(dp1778
g5
S'white_rook'
p1779
sg7
S'a1'
p1780
sa(dp1781
g5
S'white_pawn'
p1782
sg7
S'a2'
p1783
sa(dp1784
g7
S'a3'
p1785
sa(dp1786
g7
S'a4'
p1787
sa(dp1788
g7
S'a5'
p1789
sa(dp1790
g7
S'a6'
p1791
sa(dp1792
g5
S'black_pawn'
p1793
sg7
S'a7'
p1794
sa(dp1795
g5
S'black_rook'
p1796
sg7
S'a8'
p1797
sa(dp1798
g7
S'b1'
p1799
sa(dp1800
g5
S'white_pawn'
p1801
sg7
S'b2'
p1802
sa(dp1803
g7
S'b3'
p1804
sa(dp1805
g7
S'b4'
p1806
sa(dp1807
g7
S'b5'
p1808
sa(dp1809
g5
S'black_pawn'
p1810
sg7
S'b6'
p1811
sa(dp1812
g7
S'b7'
p1813
sa(dp1814
g5
S'black_knight'
p1815
sg7
S'b8'
p1816
sa(dp1817
g7
S'c1'
p1818
sa(dp1819
g5
S'white_pawn'
p1820
sg7
S'c2'
p1821
sa(dp1822
g5
S'white_knight'
p1823
sg7
S'c3'
p1824
sa(dp1825
g7
S'c4'
p1826
sa(dp1827
g7
S'c5'
p1828
sa(dp1829
g5
S'black_pawn'
p1830
sg7
S'c6'
p1831
sa(dp1832
g7
S'c7'
p1833
sa(dp1834
g7
S'c8'
p1835
sa(dp1836
g7
S'd1'
p1837
sa(dp1838
g5
S'white_bishop'
p1839
sg7
S'd2'
p1840
sa(dp1841
g7
S'd3'
p1842
sa(dp1843
g5
S'white_pawn'
p1844
sg7
S'd4'
p1845
sa(dp1846
g5
S'black_pawn'
p1847
sg7
S'd5'
p1848
sa(dp1849
g7
S'd6'
p1850
sa(dp1851
g7
S'd7'
p1852
sa(dp1853
g7
S'd8'
p1854
sa(dp1855
g5
S'white_king'
p1856
sg7
S'e1'
p1857
sa(dp1858
g5
S'white_knight'
p1859
sg7
S'e2'
p1860
sa(dp1861
g7
S'e3'
p1862
sa(dp1863
g7
S'e4'
p1864
sa(dp1865
g7
S'e5'
p1866
sa(dp1867
g7
S'e6'
p1868
sa(dp1869
g5
S'black_queen'
p1870
sg7
S'e7'
p1871
sa(dp1872
g7
S'e8'
p1873
sa(dp1874
g5
S'white_bishop'
p1875
sg7
S'f1'
p1876
sa(dp1877
g5
S'white_pawn'
p1878
sg7
S'f2'
p1879
sa(dp1880
g7
S'f3'
p1881
sa(dp1882
g7
S'f4'
p1883
sa(dp1884
g5
S'black_bishop'
p1885
sg7
S'f5'
p1886
sa(dp1887
g5
S'black_pawn'
p1888
sg7
S'f6'
p1889
sa(dp1890
g7
S'f7'
p1891
sa(dp1892
g5
S'black_bishop'
p1893
sg7
S'f8'
p1894
sa(dp1895
g7
S'g1'
p1896
sa(dp1897
g5
S'white_pawn'
p1898
sg7
S'g2'
p1899
sa(dp1900
g7
S'g3'
p1901
sa(dp1902
g7
S'g4'
p1903
sa(dp1904
g7
S'g5'
p1905
sa(dp1906
g7
S'g6'
p1907
sa(dp1908
g5
S'black_pawn'
p1909
sg7
S'g7'
p1910
sa(dp1911
g5
S'black_king'
p1912
sg7
S'g8'
p1913
sa(dp1914
g5
S'white_rook'
p1915
sg7
S'h1'
p1916
sa(dp1917
g5
S'white_pawn'
p1918
sg7
S'h2'
p1919
sa(dp1920
g7
S'h3'
p1921
sa(dp1922
g7
S'h4'
p1923
sa(dp1924
g7
S'h5'
p1925
sa(dp1926
g7
S'h6'
p1927
sa(dp1928
g5
S'black_pawn'
p1929
sg7
S'h7'
p1930
sa(dp1931
g5
S'black_rook'
p1932
sg7
S'h8'
p1933
saaVThis is where Dan starts developing another piece.  
p1934
aa(lp1935
S'10. O-O-O'
p1936
a(lp1937
(dp1938
g7
S'a1'
p1939
sa(dp1940
g5
S'white_pawn'
p1941
sg7
S'a2'
p1942
sa(dp1943
g7
S'a3'
p1944
sa(dp1945
g7
S'a4'
p1946
sa(dp1947
g7
S'a5'
p1948
sa(dp1949
g7
S'a6'
p1950
sa(dp1951
g5
S'black_pawn'
p1952
sg7
S'a7'
p1953
sa(dp1954
g5
S'black_rook'
p1955
sg7
S'a8'
p1956
sa(dp1957
g7
S'b1'
p1958
sa(dp1959
g5
S'white_pawn'
p1960
sg7
S'b2'
p1961
sa(dp1962
g7
S'b3'
p1963
sa(dp1964
g7
S'b4'
p1965
sa(dp1966
g7
S'b5'
p1967
sa(dp1968
g5
S'black_pawn'
p1969
sg7
S'b6'
p1970
sa(dp1971
g7
S'b7'
p1972
sa(dp1973
g5
S'black_knight'
p1974
sg7
S'b8'
p1975
sa(dp1976
g5
S'white_king'
p1977
sg7
S'c1'
p1978
sa(dp1979
g5
S'white_pawn'
p1980
sg7
S'c2'
p1981
sa(dp1982
g5
S'white_knight'
p1983
sg7
S'c3'
p1984
sa(dp1985
g7
S'c4'
p1986
sa(dp1987
g7
S'c5'
p1988
sa(dp1989
g5
S'black_pawn'
p1990
sg7
S'c6'
p1991
sa(dp1992
g7
S'c7'
p1993
sa(dp1994
g7
S'c8'
p1995
sa(dp1996
g5
S'white_rook'
p1997
sg7
S'd1'
p1998
sa(dp1999
g5
S'white_bishop'
p2000
sg7
S'd2'
p2001
sa(dp2002
g7
S'd3'
p2003
sa(dp2004
g5
S'white_pawn'
p2005
sg7
S'd4'
p2006
sa(dp2007
g5
S'black_pawn'
p2008
sg7
S'd5'
p2009
sa(dp2010
g7
S'd6'
p2011
sa(dp2012
g7
S'd7'
p2013
sa(dp2014
g7
S'd8'
p2015
sa(dp2016
g7
S'e1'
p2017
sa(dp2018
g5
S'white_knight'
p2019
sg7
S'e2'
p2020
sa(dp2021
g7
S'e3'
p2022
sa(dp2023
g7
S'e4'
p2024
sa(dp2025
g7
S'e5'
p2026
sa(dp2027
g7
S'e6'
p2028
sa(dp2029
g5
S'black_queen'
p2030
sg7
S'e7'
p2031
sa(dp2032
g7
S'e8'
p2033
sa(dp2034
g5
S'white_bishop'
p2035
sg7
S'f1'
p2036
sa(dp2037
g5
S'white_pawn'
p2038
sg7
S'f2'
p2039
sa(dp2040
g7
S'f3'
p2041
sa(dp2042
g7
S'f4'
p2043
sa(dp2044
g5
S'black_bishop'
p2045
sg7
S'f5'
p2046
sa(dp2047
g5
S'black_pawn'
p2048
sg7
S'f6'
p2049
sa(dp2050
g7
S'f7'
p2051
sa(dp2052
g5
S'black_bishop'
p2053
sg7
S'f8'
p2054
sa(dp2055
g7
S'g1'
p2056
sa(dp2057
g5
S'white_pawn'
p2058
sg7
S'g2'
p2059
sa(dp2060
g7
S'g3'
p2061
sa(dp2062
g7
S'g4'
p2063
sa(dp2064
g7
S'g5'
p2065
sa(dp2066
g7
S'g6'
p2067
sa(dp2068
g5
S'black_pawn'
p2069
sg7
S'g7'
p2070
sa(dp2071
g5
S'black_king'
p2072
sg7
S'g8'
p2073
sa(dp2074
g5
S'white_rook'
p2075
sg7
S'h1'
p2076
sa(dp2077
g5
S'white_pawn'
p2078
sg7
S'h2'
p2079
sa(dp2080
g7
S'h3'
p2081
sa(dp2082
g7
S'h4'
p2083
sa(dp2084
g7
S'h5'
p2085
sa(dp2086
g7
S'h6'
p2087
sa(dp2088
g5
S'black_pawn'
p2089
sg7
S'h7'
p2090
sa(dp2091
g5
S'black_rook'
p2092
sg7
S'h8'
p2093
saaVThe best part, however, is that Joe had a very good spot to castle, whereas, Dan does not have that opportunity.
p2094
aa(lp2095
S'10... a5'
p2096
a(lp2097
(dp2098
g7
S'a1'
p2099
sa(dp2100
g5
S'white_pawn'
p2101
sg7
S'a2'
p2102
sa(dp2103
g7
S'a3'
p2104
sa(dp2105
g7
S'a4'
p2106
sa(dp2107
g5
S'black_pawn'
p2108
sg7
S'a5'
p2109
sa(dp2110
g7
S'a6'
p2111
sa(dp2112
g7
S'a7'
p2113
sa(dp2114
g5
S'black_rook'
p2115
sg7
S'a8'
p2116
sa(dp2117
g7
S'b1'
p2118
sa(dp2119
g5
S'white_pawn'
p2120
sg7
S'b2'
p2121
sa(dp2122
g7
S'b3'
p2123
sa(dp2124
g7
S'b4'
p2125
sa(dp2126
g7
S'b5'
p2127
sa(dp2128
g5
S'black_pawn'
p2129
sg7
S'b6'
p2130
sa(dp2131
g7
S'b7'
p2132
sa(dp2133
g5
S'black_knight'
p2134
sg7
S'b8'
p2135
sa(dp2136
g5
S'white_king'
p2137
sg7
S'c1'
p2138
sa(dp2139
g5
S'white_pawn'
p2140
sg7
S'c2'
p2141
sa(dp2142
g5
S'white_knight'
p2143
sg7
S'c3'
p2144
sa(dp2145
g7
S'c4'
p2146
sa(dp2147
g7
S'c5'
p2148
sa(dp2149
g5
S'black_pawn'
p2150
sg7
S'c6'
p2151
sa(dp2152
g7
S'c7'
p2153
sa(dp2154
g7
S'c8'
p2155
sa(dp2156
g5
S'white_rook'
p2157
sg7
S'd1'
p2158
sa(dp2159
g5
S'white_bishop'
p2160
sg7
S'd2'
p2161
sa(dp2162
g7
S'd3'
p2163
sa(dp2164
g5
S'white_pawn'
p2165
sg7
S'd4'
p2166
sa(dp2167
g5
S'black_pawn'
p2168
sg7
S'd5'
p2169
sa(dp2170
g7
S'd6'
p2171
sa(dp2172
g7
S'd7'
p2173
sa(dp2174
g7
S'd8'
p2175
sa(dp2176
g7
S'e1'
p2177
sa(dp2178
g5
S'white_knight'
p2179
sg7
S'e2'
p2180
sa(dp2181
g7
S'e3'
p2182
sa(dp2183
g7
S'e4'
p2184
sa(dp2185
g7
S'e5'
p2186
sa(dp2187
g7
S'e6'
p2188
sa(dp2189
g5
S'black_queen'
p2190
sg7
S'e7'
p2191
sa(dp2192
g7
S'e8'
p2193
sa(dp2194
g5
S'white_bishop'
p2195
sg7
S'f1'
p2196
sa(dp2197
g5
S'white_pawn'
p2198
sg7
S'f2'
p2199
sa(dp2200
g7
S'f3'
p2201
sa(dp2202
g7
S'f4'
p2203
sa(dp2204
g5
S'black_bishop'
p2205
sg7
S'f5'
p2206
sa(dp2207
g5
S'black_pawn'
p2208
sg7
S'f6'
p2209
sa(dp2210
g7
S'f7'
p2211
sa(dp2212
g5
S'black_bishop'
p2213
sg7
S'f8'
p2214
sa(dp2215
g7
S'g1'
p2216
sa(dp2217
g5
S'white_pawn'
p2218
sg7
S'g2'
p2219
sa(dp2220
g7
S'g3'
p2221
sa(dp2222
g7
S'g4'
p2223
sa(dp2224
g7
S'g5'
p2225
sa(dp2226
g7
S'g6'
p2227
sa(dp2228
g5
S'black_pawn'
p2229
sg7
S'g7'
p2230
sa(dp2231
g5
S'black_king'
p2232
sg7
S'g8'
p2233
sa(dp2234
g5
S'white_rook'
p2235
sg7
S'h1'
p2236
sa(dp2237
g5
S'white_pawn'
p2238
sg7
S'h2'
p2239
sa(dp2240
g7
S'h3'
p2241
sa(dp2242
g7
S'h4'
p2243
sa(dp2244
g7
S'h5'
p2245
sa(dp2246
g7
S'h6'
p2247
sa(dp2248
g5
S'black_pawn'
p2249
sg7
S'h7'
p2250
sa(dp2251
g5
S'black_rook'
p2252
sg7
S'h8'
p2253
saaVJust like before, I don't see the point behind this move.  It doesn't develop anything.  I know that it's not all development, and that's not how I usually think.  But, against a Senior Master, I feel that it's vital.  Afterall, the idea is, "know your principles."
p2254
aa(lp2255
S'11. Ng3'
p2256
a(lp2257
(dp2258
g7
S'a1'
p2259
sa(dp2260
g5
S'white_pawn'
p2261
sg7
S'a2'
p2262
sa(dp2263
g7
S'a3'
p2264
sa(dp2265
g7
S'a4'
p2266
sa(dp2267
g5
S'black_pawn'
p2268
sg7
S'a5'
p2269
sa(dp2270
g7
S'a6'
p2271
sa(dp2272
g7
S'a7'
p2273
sa(dp2274
g5
S'black_rook'
p2275
sg7
S'a8'
p2276
sa(dp2277
g7
S'b1'
p2278
sa(dp2279
g5
S'white_pawn'
p2280
sg7
S'b2'
p2281
sa(dp2282
g7
S'b3'
p2283
sa(dp2284
g7
S'b4'
p2285
sa(dp2286
g7
S'b5'
p2287
sa(dp2288
g5
S'black_pawn'
p2289
sg7
S'b6'
p2290
sa(dp2291
g7
S'b7'
p2292
sa(dp2293
g5
S'black_knight'
p2294
sg7
S'b8'
p2295
sa(dp2296
g5
S'white_king'
p2297
sg7
S'c1'
p2298
sa(dp2299
g5
S'white_pawn'
p2300
sg7
S'c2'
p2301
sa(dp2302
g5
S'white_knight'
p2303
sg7
S'c3'
p2304
sa(dp2305
g7
S'c4'
p2306
sa(dp2307
g7
S'c5'
p2308
sa(dp2309
g5
S'black_pawn'
p2310
sg7
S'c6'
p2311
sa(dp2312
g7
S'c7'
p2313
sa(dp2314
g7
S'c8'
p2315
sa(dp2316
g5
S'white_rook'
p2317
sg7
S'd1'
p2318
sa(dp2319
g5
S'white_bishop'
p2320
sg7
S'd2'
p2321
sa(dp2322
g7
S'd3'
p2323
sa(dp2324
g5
S'white_pawn'
p2325
sg7
S'd4'
p2326
sa(dp2327
g5
S'black_pawn'
p2328
sg7
S'd5'
p2329
sa(dp2330
g7
S'd6'
p2331
sa(dp2332
g7
S'd7'
p2333
sa(dp2334
g7
S'd8'
p2335
sa(dp2336
g7
S'e1'
p2337
sa(dp2338
g7
S'e2'
p2339
sa(dp2340
g7
S'e3'
p2341
sa(dp2342
g7
S'e4'
p2343
sa(dp2344
g7
S'e5'
p2345
sa(dp2346
g7
S'e6'
p2347
sa(dp2348
g5
S'black_queen'
p2349
sg7
S'e7'
p2350
sa(dp2351
g7
S'e8'
p2352
sa(dp2353
g5
S'white_bishop'
p2354
sg7
S'f1'
p2355
sa(dp2356
g5
S'white_pawn'
p2357
sg7
S'f2'
p2358
sa(dp2359
g7
S'f3'
p2360
sa(dp2361
g7
S'f4'
p2362
sa(dp2363
g5
S'black_bishop'
p2364
sg7
S'f5'
p2365
sa(dp2366
g5
S'black_pawn'
p2367
sg7
S'f6'
p2368
sa(dp2369
g7
S'f7'
p2370
sa(dp2371
g5
S'black_bishop'
p2372
sg7
S'f8'
p2373
sa(dp2374
g7
S'g1'
p2375
sa(dp2376
g5
S'white_pawn'
p2377
sg7
S'g2'
p2378
sa(dp2379
g5
S'white_knight'
p2380
sg7
S'g3'
p2381
sa(dp2382
g7
S'g4'
p2383
sa(dp2384
g7
S'g5'
p2385
sa(dp2386
g7
S'g6'
p2387
sa(dp2388
g5
S'black_pawn'
p2389
sg7
S'g7'
p2390
sa(dp2391
g5
S'black_king'
p2392
sg7
S'g8'
p2393
sa(dp2394
g5
S'white_rook'
p2395
sg7
S'h1'
p2396
sa(dp2397
g5
S'white_pawn'
p2398
sg7
S'h2'
p2399
sa(dp2400
g7
S'h3'
p2401
sa(dp2402
g7
S'h4'
p2403
sa(dp2404
g7
S'h5'
p2405
sa(dp2406
g7
S'h6'
p2407
sa(dp2408
g5
S'black_pawn'
p2409
sg7
S'h7'
p2410
sa(dp2411
g5
S'black_rook'
p2412
sg7
S'h8'
p2413
saaVAs now, Joe has a better place for his N.  In part, it's because his Bf1 is now free to move about.  In addition, this is an important tempo gainer.  So, despite remaining this far down, I strongly favor white's position here.
p2414
aa(lp2415
S'11... Bg6 12. h4'
p2416
a(lp2417
(dp2418
g7
S'a1'
p2419
sa(dp2420
g5
S'white_pawn'
p2421
sg7
S'a2'
p2422
sa(dp2423
g7
S'a3'
p2424
sa(dp2425
g7
S'a4'
p2426
sa(dp2427
g5
S'black_pawn'
p2428
sg7
S'a5'
p2429
sa(dp2430
g7
S'a6'
p2431
sa(dp2432
g7
S'a7'
p2433
sa(dp2434
g5
S'black_rook'
p2435
sg7
S'a8'
p2436
sa(dp2437
g7
S'b1'
p2438
sa(dp2439
g5
S'white_pawn'
p2440
sg7
S'b2'
p2441
sa(dp2442
g7
S'b3'
p2443
sa(dp2444
g7
S'b4'
p2445
sa(dp2446
g7
S'b5'
p2447
sa(dp2448
g5
S'black_pawn'
p2449
sg7
S'b6'
p2450
sa(dp2451
g7
S'b7'
p2452
sa(dp2453
g5
S'black_knight'
p2454
sg7
S'b8'
p2455
sa(dp2456
g5
S'white_king'
p2457
sg7
S'c1'
p2458
sa(dp2459
g5
S'white_pawn'
p2460
sg7
S'c2'
p2461
sa(dp2462
g5
S'white_knight'
p2463
sg7
S'c3'
p2464
sa(dp2465
g7
S'c4'
p2466
sa(dp2467
g7
S'c5'
p2468
sa(dp2469
g5
S'black_pawn'
p2470
sg7
S'c6'
p2471
sa(dp2472
g7
S'c7'
p2473
sa(dp2474
g7
S'c8'
p2475
sa(dp2476
g5
S'white_rook'
p2477
sg7
S'd1'
p2478
sa(dp2479
g5
S'white_bishop'
p2480
sg7
S'd2'
p2481
sa(dp2482
g7
S'd3'
p2483
sa(dp2484
g5
S'white_pawn'
p2485
sg7
S'd4'
p2486
sa(dp2487
g5
S'black_pawn'
p2488
sg7
S'd5'
p2489
sa(dp2490
g7
S'd6'
p2491
sa(dp2492
g7
S'd7'
p2493
sa(dp2494
g7
S'd8'
p2495
sa(dp2496
g7
S'e1'
p2497
sa(dp2498
g7
S'e2'
p2499
sa(dp2500
g7
S'e3'
p2501
sa(dp2502
g7
S'e4'
p2503
sa(dp2504
g7
S'e5'
p2505
sa(dp2506
g7
S'e6'
p2507
sa(dp2508
g5
S'black_queen'
p2509
sg7
S'e7'
p2510
sa(dp2511
g7
S'e8'
p2512
sa(dp2513
g5
S'white_bishop'
p2514
sg7
S'f1'
p2515
sa(dp2516
g5
S'white_pawn'
p2517
sg7
S'f2'
p2518
sa(dp2519
g7
S'f3'
p2520
sa(dp2521
g7
S'f4'
p2522
sa(dp2523
g7
S'f5'
p2524
sa(dp2525
g5
S'black_pawn'
p2526
sg7
S'f6'
p2527
sa(dp2528
g7
S'f7'
p2529
sa(dp2530
g5
S'black_bishop'
p2531
sg7
S'f8'
p2532
sa(dp2533
g7
S'g1'
p2534
sa(dp2535
g5
S'white_pawn'
p2536
sg7
S'g2'
p2537
sa(dp2538
g5
S'white_knight'
p2539
sg7
S'g3'
p2540
sa(dp2541
g7
S'g4'
p2542
sa(dp2543
g7
S'g5'
p2544
sa(dp2545
g5
S'black_bishop'
p2546
sg7
S'g6'
p2547
sa(dp2548
g5
S'black_pawn'
p2549
sg7
S'g7'
p2550
sa(dp2551
g5
S'black_king'
p2552
sg7
S'g8'
p2553
sa(dp2554
g5
S'white_rook'
p2555
sg7
S'h1'
p2556
sa(dp2557
g7
S'h2'
p2558
sa(dp2559
g7
S'h3'
p2560
sa(dp2561
g5
S'white_pawn'
p2562
sg7
S'h4'
p2563
sa(dp2564
g7
S'h5'
p2565
sa(dp2566
g7
S'h6'
p2567
sa(dp2568
g5
S'black_pawn'
p2569
sg7
S'h7'
p2570
sa(dp2571
g5
S'black_rook'
p2572
sg7
S'h8'
p2573
saaVAs now, Joe is planning to attack the B again.
p2574
aa(lp2575
S'12... a4'
p2576
a(lp2577
(dp2578
g7
S'a1'
p2579
sa(dp2580
g5
S'white_pawn'
p2581
sg7
S'a2'
p2582
sa(dp2583
g7
S'a3'
p2584
sa(dp2585
g5
S'black_pawn'
p2586
sg7
S'a4'
p2587
sa(dp2588
g7
S'a5'
p2589
sa(dp2590
g7
S'a6'
p2591
sa(dp2592
g7
S'a7'
p2593
sa(dp2594
g5
S'black_rook'
p2595
sg7
S'a8'
p2596
sa(dp2597
g7
S'b1'
p2598
sa(dp2599
g5
S'white_pawn'
p2600
sg7
S'b2'
p2601
sa(dp2602
g7
S'b3'
p2603
sa(dp2604
g7
S'b4'
p2605
sa(dp2606
g7
S'b5'
p2607
sa(dp2608
g5
S'black_pawn'
p2609
sg7
S'b6'
p2610
sa(dp2611
g7
S'b7'
p2612
sa(dp2613
g5
S'black_knight'
p2614
sg7
S'b8'
p2615
sa(dp2616
g5
S'white_king'
p2617
sg7
S'c1'
p2618
sa(dp2619
g5
S'white_pawn'
p2620
sg7
S'c2'
p2621
sa(dp2622
g5
S'white_knight'
p2623
sg7
S'c3'
p2624
sa(dp2625
g7
S'c4'
p2626
sa(dp2627
g7
S'c5'
p2628
sa(dp2629
g5
S'black_pawn'
p2630
sg7
S'c6'
p2631
sa(dp2632
g7
S'c7'
p2633
sa(dp2634
g7
S'c8'
p2635
sa(dp2636
g5
S'white_rook'
p2637
sg7
S'd1'
p2638
sa(dp2639
g5
S'white_bishop'
p2640
sg7
S'd2'
p2641
sa(dp2642
g7
S'd3'
p2643
sa(dp2644
g5
S'white_pawn'
p2645
sg7
S'd4'
p2646
sa(dp2647
g5
S'black_pawn'
p2648
sg7
S'd5'
p2649
sa(dp2650
g7
S'd6'
p2651
sa(dp2652
g7
S'd7'
p2653
sa(dp2654
g7
S'd8'
p2655
sa(dp2656
g7
S'e1'
p2657
sa(dp2658
g7
S'e2'
p2659
sa(dp2660
g7
S'e3'
p2661
sa(dp2662
g7
S'e4'
p2663
sa(dp2664
g7
S'e5'
p2665
sa(dp2666
g7
S'e6'
p2667
sa(dp2668
g5
S'black_queen'
p2669
sg7
S'e7'
p2670
sa(dp2671
g7
S'e8'
p2672
sa(dp2673
g5
S'white_bishop'
p2674
sg7
S'f1'
p2675
sa(dp2676
g5
S'white_pawn'
p2677
sg7
S'f2'
p2678
sa(dp2679
g7
S'f3'
p2680
sa(dp2681
g7
S'f4'
p2682
sa(dp2683
g7
S'f5'
p2684
sa(dp2685
g5
S'black_pawn'
p2686
sg7
S'f6'
p2687
sa(dp2688
g7
S'f7'
p2689
sa(dp2690
g5
S'black_bishop'
p2691
sg7
S'f8'
p2692
sa(dp2693
g7
S'g1'
p2694
sa(dp2695
g5
S'white_pawn'
p2696
sg7
S'g2'
p2697
sa(dp2698
g5
S'white_knight'
p2699
sg7
S'g3'
p2700
sa(dp2701
g7
S'g4'
p2702
sa(dp2703
g7
S'g5'
p2704
sa(dp2705
g5
S'black_bishop'
p2706
sg7
S'g6'
p2707
sa(dp2708
g5
S'black_pawn'
p2709
sg7
S'g7'
p2710
sa(dp2711
g5
S'black_king'
p2712
sg7
S'g8'
p2713
sa(dp2714
g5
S'white_rook'
p2715
sg7
S'h1'
p2716
sa(dp2717
g7
S'h2'
p2718
sa(dp2719
g7
S'h3'
p2720
sa(dp2721
g5
S'white_pawn'
p2722
sg7
S'h4'
p2723
sa(dp2724
g7
S'h5'
p2725
sa(dp2726
g7
S'h6'
p2727
sa(dp2728
g5
S'black_pawn'
p2729
sg7
S'h7'
p2730
sa(dp2731
g5
S'black_rook'
p2732
sg7
S'h8'
p2733
saaVThis time, I do see the point behind this move.  Dan is threatening to expose the black K.  The plan is to break through and double up white's pawns on the b file where Joe would be forced to recapture away from the center.  After that, black can prepare for something like ...Qxa3+ with a devastating attack.  In fact, it would pretty much be a forced mate.  For example, 14...Qxa3 15.Kb1 Qxa2+ 16.Kc1 Qa1#   Instead, I would've played 13...Nd7, so that even after 13.h5, black has gotten another piece developed.  However, being that Joe would not allow that, I give this move as an inaccuracy.  Once again, it's not going to help with black's development.
p2734
aa(lp2735
S'13. h5 Bf7 14. Kb1'
p2736
a(lp2737
(dp2738
g7
S'a1'
p2739
sa(dp2740
g5
S'white_pawn'
p2741
sg7
S'a2'
p2742
sa(dp2743
g7
S'a3'
p2744
sa(dp2745
g5
S'black_pawn'
p2746
sg7
S'a4'
p2747
sa(dp2748
g7
S'a5'
p2749
sa(dp2750
g7
S'a6'
p2751
sa(dp2752
g7
S'a7'
p2753
sa(dp2754
g5
S'black_rook'
p2755
sg7
S'a8'
p2756
sa(dp2757
g5
S'white_king'
p2758
sg7
S'b1'
p2759
sa(dp2760
g5
S'white_pawn'
p2761
sg7
S'b2'
p2762
sa(dp2763
g7
S'b3'
p2764
sa(dp2765
g7
S'b4'
p2766
sa(dp2767
g7
S'b5'
p2768
sa(dp2769
g5
S'black_pawn'
p2770
sg7
S'b6'
p2771
sa(dp2772
g7
S'b7'
p2773
sa(dp2774
g5
S'black_knight'
p2775
sg7
S'b8'
p2776
sa(dp2777
g7
S'c1'
p2778
sa(dp2779
g5
S'white_pawn'
p2780
sg7
S'c2'
p2781
sa(dp2782
g5
S'white_knight'
p2783
sg7
S'c3'
p2784
sa(dp2785
g7
S'c4'
p2786
sa(dp2787
g7
S'c5'
p2788
sa(dp2789
g5
S'black_pawn'
p2790
sg7
S'c6'
p2791
sa(dp2792
g7
S'c7'
p2793
sa(dp2794
g7
S'c8'
p2795
sa(dp2796
g5
S'white_rook'
p2797
sg7
S'd1'
p2798
sa(dp2799
g5
S'white_bishop'
p2800
sg7
S'd2'
p2801
sa(dp2802
g7
S'd3'
p2803
sa(dp2804
g5
S'white_pawn'
p2805
sg7
S'd4'
p2806
sa(dp2807
g5
S'black_pawn'
p2808
sg7
S'd5'
p2809
sa(dp2810
g7
S'd6'
p2811
sa(dp2812
g7
S'd7'
p2813
sa(dp2814
g7
S'd8'
p2815
sa(dp2816
g7
S'e1'
p2817
sa(dp2818
g7
S'e2'
p2819
sa(dp2820
g7
S'e3'
p2821
sa(dp2822
g7
S'e4'
p2823
sa(dp2824
g7
S'e5'
p2825
sa(dp2826
g7
S'e6'
p2827
sa(dp2828
g5
S'black_queen'
p2829
sg7
S'e7'
p2830
sa(dp2831
g7
S'e8'
p2832
sa(dp2833
g5
S'white_bishop'
p2834
sg7
S'f1'
p2835
sa(dp2836
g5
S'white_pawn'
p2837
sg7
S'f2'
p2838
sa(dp2839
g7
S'f3'
p2840
sa(dp2841
g7
S'f4'
p2842
sa(dp2843
g7
S'f5'
p2844
sa(dp2845
g5
S'black_pawn'
p2846
sg7
S'f6'
p2847
sa(dp2848
g5
S'black_bishop'
p2849
sg7
S'f7'
p2850
sa(dp2851
g5
S'black_bishop'
p2852
sg7
S'f8'
p2853
sa(dp2854
g7
S'g1'
p2855
sa(dp2856
g5
S'white_pawn'
p2857
sg7
S'g2'
p2858
sa(dp2859
g5
S'white_knight'
p2860
sg7
S'g3'
p2861
sa(dp2862
g7
S'g4'
p2863
sa(dp2864
g7
S'g5'
p2865
sa(dp2866
g7
S'g6'
p2867
sa(dp2868
g5
S'black_pawn'
p2869
sg7
S'g7'
p2870
sa(dp2871
g5
S'black_king'
p2872
sg7
S'g8'
p2873
sa(dp2874
g5
S'white_rook'
p2875
sg7
S'h1'
p2876
sa(dp2877
g7
S'h2'
p2878
sa(dp2879
g7
S'h3'
p2880
sa(dp2881
g7
S'h4'
p2882
sa(dp2883
g5
S'white_pawn'
p2884
sg7
S'h5'
p2885
sa(dp2886
g7
S'h6'
p2887
sa(dp2888
g5
S'black_pawn'
p2889
sg7
S'h7'
p2890
sa(dp2891
g5
S'black_rook'
p2892
sg7
S'h8'
p2893
saaVTo prevent black's next move from being a problem such as the checkmate example as shown above, Joe played this.
p2894
aa(lp2895
S'14... a3'
p2896
a(lp2897
(dp2898
g7
S'a1'
p2899
sa(dp2900
g5
S'white_pawn'
p2901
sg7
S'a2'
p2902
sa(dp2903
g5
S'black_pawn'
p2904
sg7
S'a3'
p2905
sa(dp2906
g7
S'a4'
p2907
sa(dp2908
g7
S'a5'
p2909
sa(dp2910
g7
S'a6'
p2911
sa(dp2912
g7
S'a7'
p2913
sa(dp2914
g5
S'black_rook'
p2915
sg7
S'a8'
p2916
sa(dp2917
g5
S'white_king'
p2918
sg7
S'b1'
p2919
sa(dp2920
g5
S'white_pawn'
p2921
sg7
S'b2'
p2922
sa(dp2923
g7
S'b3'
p2924
sa(dp2925
g7
S'b4'
p2926
sa(dp2927
g7
S'b5'
p2928
sa(dp2929
g5
S'black_pawn'
p2930
sg7
S'b6'
p2931
sa(dp2932
g7
S'b7'
p2933
sa(dp2934
g5
S'black_knight'
p2935
sg7
S'b8'
p2936
sa(dp2937
g7
S'c1'
p2938
sa(dp2939
g5
S'white_pawn'
p2940
sg7
S'c2'
p2941
sa(dp2942
g5
S'white_knight'
p2943
sg7
S'c3'
p2944
sa(dp2945
g7
S'c4'
p2946
sa(dp2947
g7
S'c5'
p2948
sa(dp2949
g5
S'black_pawn'
p2950
sg7
S'c6'
p2951
sa(dp2952
g7
S'c7'
p2953
sa(dp2954
g7
S'c8'
p2955
sa(dp2956
g5
S'white_rook'
p2957
sg7
S'd1'
p2958
sa(dp2959
g5
S'white_bishop'
p2960
sg7
S'd2'
p2961
sa(dp2962
g7
S'd3'
p2963
sa(dp2964
g5
S'white_pawn'
p2965
sg7
S'd4'
p2966
sa(dp2967
g5
S'black_pawn'
p2968
sg7
S'd5'
p2969
sa(dp2970
g7
S'd6'
p2971
sa(dp2972
g7
S'd7'
p2973
sa(dp2974
g7
S'd8'
p2975
sa(dp2976
g7
S'e1'
p2977
sa(dp2978
g7
S'e2'
p2979
sa(dp2980
g7
S'e3'
p2981
sa(dp2982
g7
S'e4'
p2983
sa(dp2984
g7
S'e5'
p2985
sa(dp2986
g7
S'e6'
p2987
sa(dp2988
g5
S'black_queen'
p2989
sg7
S'e7'
p2990
sa(dp2991
g7
S'e8'
p2992
sa(dp2993
g5
S'white_bishop'
p2994
sg7
S'f1'
p2995
sa(dp2996
g5
S'white_pawn'
p2997
sg7
S'f2'
p2998
sa(dp2999
g7
S'f3'
p3000
sa(dp3001
g7
S'f4'
p3002
sa(dp3003
g7
S'f5'
p3004
sa(dp3005
g5
S'black_pawn'
p3006
sg7
S'f6'
p3007
sa(dp3008
g5
S'black_bishop'
p3009
sg7
S'f7'
p3010
sa(dp3011
g5
S'black_bishop'
p3012
sg7
S'f8'
p3013
sa(dp3014
g7
S'g1'
p3015
sa(dp3016
g5
S'white_pawn'
p3017
sg7
S'g2'
p3018
sa(dp3019
g5
S'white_knight'
p3020
sg7
S'g3'
p3021
sa(dp3022
g7
S'g4'
p3023
sa(dp3024
g7
S'g5'
p3025
sa(dp3026
g7
S'g6'
p3027
sa(dp3028
g5
S'black_pawn'
p3029
sg7
S'g7'
p3030
sa(dp3031
g5
S'black_king'
p3032
sg7
S'g8'
p3033
sa(dp3034
g5
S'white_rook'
p3035
sg7
S'h1'
p3036
sa(dp3037
g7
S'h2'
p3038
sa(dp3039
g7
S'h3'
p3040
sa(dp3041
g7
S'h4'
p3042
sa(dp3043
g5
S'white_pawn'
p3044
sg7
S'h5'
p3045
sa(dp3046
g7
S'h6'
p3047
sa(dp3048
g5
S'black_pawn'
p3049
sg7
S'h7'
p3050
sa(dp3051
g5
S'black_rook'
p3052
sg7
S'h8'
p3053
saaVThis is the move that I was worried about.  As now, capturing leads to mate.
p3054
aa(lp3055
S'15. b3'
p3056
a(lp3057
(dp3058
g7
S'a1'
p3059
sa(dp3060
g5
S'white_pawn'
p3061
sg7
S'a2'
p3062
sa(dp3063
g5
S'black_pawn'
p3064
sg7
S'a3'
p3065
sa(dp3066
g7
S'a4'
p3067
sa(dp3068
g7
S'a5'
p3069
sa(dp3070
g7
S'a6'
p3071
sa(dp3072
g7
S'a7'
p3073
sa(dp3074
g5
S'black_rook'
p3075
sg7
S'a8'
p3076
sa(dp3077
g5
S'white_king'
p3078
sg7
S'b1'
p3079
sa(dp3080
g7
S'b2'
p3081
sa(dp3082
g5
S'white_pawn'
p3083
sg7
S'b3'
p3084
sa(dp3085
g7
S'b4'
p3086
sa(dp3087
g7
S'b5'
p3088
sa(dp3089
g5
S'black_pawn'
p3090
sg7
S'b6'
p3091
sa(dp3092
g7
S'b7'
p3093
sa(dp3094
g5
S'black_knight'
p3095
sg7
S'b8'
p3096
sa(dp3097
g7
S'c1'
p3098
sa(dp3099
g5
S'white_pawn'
p3100
sg7
S'c2'
p3101
sa(dp3102
g5
S'white_knight'
p3103
sg7
S'c3'
p3104
sa(dp3105
g7
S'c4'
p3106
sa(dp3107
g7
S'c5'
p3108
sa(dp3109
g5
S'black_pawn'
p3110
sg7
S'c6'
p3111
sa(dp3112
g7
S'c7'
p3113
sa(dp3114
g7
S'c8'
p3115
sa(dp3116
g5
S'white_rook'
p3117
sg7
S'd1'
p3118
sa(dp3119
g5
S'white_bishop'
p3120
sg7
S'd2'
p3121
sa(dp3122
g7
S'd3'
p3123
sa(dp3124
g5
S'white_pawn'
p3125
sg7
S'd4'
p3126
sa(dp3127
g5
S'black_pawn'
p3128
sg7
S'd5'
p3129
sa(dp3130
g7
S'd6'
p3131
sa(dp3132
g7
S'd7'
p3133
sa(dp3134
g7
S'd8'
p3135
sa(dp3136
g7
S'e1'
p3137
sa(dp3138
g7
S'e2'
p3139
sa(dp3140
g7
S'e3'
p3141
sa(dp3142
g7
S'e4'
p3143
sa(dp3144
g7
S'e5'
p3145
sa(dp3146
g7
S'e6'
p3147
sa(dp3148
g5
S'black_queen'
p3149
sg7
S'e7'
p3150
sa(dp3151
g7
S'e8'
p3152
sa(dp3153
g5
S'white_bishop'
p3154
sg7
S'f1'
p3155
sa(dp3156
g5
S'white_pawn'
p3157
sg7
S'f2'
p3158
sa(dp3159
g7
S'f3'
p3160
sa(dp3161
g7
S'f4'
p3162
sa(dp3163
g7
S'f5'
p3164
sa(dp3165
g5
S'black_pawn'
p3166
sg7
S'f6'
p3167
sa(dp3168
g5
S'black_bishop'
p3169
sg7
S'f7'
p3170
sa(dp3171
g5
S'black_bishop'
p3172
sg7
S'f8'
p3173
sa(dp3174
g7
S'g1'
p3175
sa(dp3176
g5
S'white_pawn'
p3177
sg7
S'g2'
p3178
sa(dp3179
g5
S'white_knight'
p3180
sg7
S'g3'
p3181
sa(dp3182
g7
S'g4'
p3183
sa(dp3184
g7
S'g5'
p3185
sa(dp3186
g7
S'g6'
p3187
sa(dp3188
g5
S'black_pawn'
p3189
sg7
S'g7'
p3190
sa(dp3191
g5
S'black_king'
p3192
sg7
S'g8'
p3193
sa(dp3194
g5
S'white_rook'
p3195
sg7
S'h1'
p3196
sa(dp3197
g7
S'h2'
p3198
sa(dp3199
g7
S'h3'
p3200
sa(dp3201
g7
S'h4'
p3202
sa(dp3203
g5
S'white_pawn'
p3204
sg7
S'h5'
p3205
sa(dp3206
g7
S'h6'
p3207
sa(dp3208
g5
S'black_pawn'
p3209
sg7
S'h7'
p3210
sa(dp3211
g5
S'black_rook'
p3212
sg7
S'h8'
p3213
saaV! And, being that this was only 5 minutes, there's a good chance that I would've overlooked this opportunity and allowed the checkmate or further loss of material which may even lead to resignation.  With that being said, this was well executed by Joe, and I give him credit for that just based on an incorrect assessment that I would've mate which would lose immediately.
p3214
aa.