(lp0
(lp1
S'1. e4 e5 2. Nf3 Nc6 3. Bb5 a6 4. Ba4 Nf6 5. d3'
p2
a(lp3
(dp4
S'piece'
p5
S'white_rook'
p6
sS'location'
p7
S'a1'
p8
sa(dp9
g5
S'white_pawn'
p10
sg7
S'a2'
p11
sa(dp12
g7
S'a3'
p13
sa(dp14
g5
S'white_bishop'
p15
sg7
S'a4'
p16
sa(dp17
g7
S'a5'
p18
sa(dp19
g5
S'black_pawn'
p20
sg7
S'a6'
p21
sa(dp22
g7
S'a7'
p23
sa(dp24
g5
S'black_rook'
p25
sg7
S'a8'
p26
sa(dp27
g5
S'white_knight'
p28
sg7
S'b1'
p29
sa(dp30
g5
S'white_pawn'
p31
sg7
S'b2'
p32
sa(dp33
g7
S'b3'
p34
sa(dp35
g7
S'b4'
p36
sa(dp37
g7
S'b5'
p38
sa(dp39
g7
S'b6'
p40
sa(dp41
g5
S'black_pawn'
p42
sg7
S'b7'
p43
sa(dp44
g7
S'b8'
p45
sa(dp46
g5
S'white_bishop'
p47
sg7
S'c1'
p48
sa(dp49
g5
S'white_pawn'
p50
sg7
S'c2'
p51
sa(dp52
g7
S'c3'
p53
sa(dp54
g7
S'c4'
p55
sa(dp56
g7
S'c5'
p57
sa(dp58
g5
S'black_knight'
p59
sg7
S'c6'
p60
sa(dp61
g5
S'black_pawn'
p62
sg7
S'c7'
p63
sa(dp64
g5
S'black_bishop'
p65
sg7
S'c8'
p66
sa(dp67
g5
S'white_queen'
p68
sg7
S'd1'
p69
sa(dp70
g7
S'd2'
p71
sa(dp72
g5
S'white_pawn'
p73
sg7
S'd3'
p74
sa(dp75
g7
S'd4'
p76
sa(dp77
g7
S'd5'
p78
sa(dp79
g7
S'd6'
p80
sa(dp81
g5
S'black_pawn'
p82
sg7
S'd7'
p83
sa(dp84
g5
S'black_queen'
p85
sg7
S'd8'
p86
sa(dp87
g5
S'white_king'
p88
sg7
S'e1'
p89
sa(dp90
g7
S'e2'
p91
sa(dp92
g7
S'e3'
p93
sa(dp94
g5
S'white_pawn'
p95
sg7
S'e4'
p96
sa(dp97
g5
S'black_pawn'
p98
sg7
S'e5'
p99
sa(dp100
g7
S'e6'
p101
sa(dp102
g7
S'e7'
p103
sa(dp104
g5
S'black_king'
p105
sg7
S'e8'
p106
sa(dp107
g7
S'f1'
p108
sa(dp109
g5
S'white_pawn'
p110
sg7
S'f2'
p111
sa(dp112
g5
S'white_knight'
p113
sg7
S'f3'
p114
sa(dp115
g7
S'f4'
p116
sa(dp117
g7
S'f5'
p118
sa(dp119
g5
S'black_knight'
p120
sg7
S'f6'
p121
sa(dp122
g5
S'black_pawn'
p123
sg7
S'f7'
p124
sa(dp125
g5
S'black_bishop'
p126
sg7
S'f8'
p127
sa(dp128
g7
S'g1'
p129
sa(dp130
g5
S'white_pawn'
p131
sg7
S'g2'
p132
sa(dp133
g7
S'g3'
p134
sa(dp135
g7
S'g4'
p136
sa(dp137
g7
S'g5'
p138
sa(dp139
g7
S'g6'
p140
sa(dp141
g5
S'black_pawn'
p142
sg7
S'g7'
p143
sa(dp144
g7
S'g8'
p145
sa(dp146
g5
S'white_rook'
p147
sg7
S'h1'
p148
sa(dp149
g5
S'white_pawn'
p150
sg7
S'h2'
p151
sa(dp152
g7
S'h3'
p153
sa(dp154
g7
S'h4'
p155
sa(dp156
g7
S'h5'
p157
sa(dp158
g7
S'h6'
p159
sa(dp160
g5
S'black_pawn'
p161
sg7
S'h7'
p162
sa(dp163
g5
S'black_rook'
p164
sg7
S'h8'
p165
saaVI decided to play slow I guess lol
p166
aa(lp167
S'5... b5 6. Bb3 Be7 7. c3 O-O 8. O-O d6 9. Re1 Na5 10. Bc2'
p168
a(lp169
(dp170
g5
S'white_rook'
p171
sg7
S'a1'
p172
sa(dp173
g5
S'white_pawn'
p174
sg7
S'a2'
p175
sa(dp176
g7
S'a3'
p177
sa(dp178
g7
S'a4'
p179
sa(dp180
g5
S'black_knight'
p181
sg7
S'a5'
p182
sa(dp183
g5
S'black_pawn'
p184
sg7
S'a6'
p185
sa(dp186
g7
S'a7'
p187
sa(dp188
g5
S'black_rook'
p189
sg7
S'a8'
p190
sa(dp191
g5
S'white_knight'
p192
sg7
S'b1'
p193
sa(dp194
g5
S'white_pawn'
p195
sg7
S'b2'
p196
sa(dp197
g7
S'b3'
p198
sa(dp199
g7
S'b4'
p200
sa(dp201
g5
S'black_pawn'
p202
sg7
S'b5'
p203
sa(dp204
g7
S'b6'
p205
sa(dp206
g7
S'b7'
p207
sa(dp208
g7
S'b8'
p209
sa(dp210
g5
S'white_bishop'
p211
sg7
S'c1'
p212
sa(dp213
g5
S'white_bishop'
p214
sg7
S'c2'
p215
sa(dp216
g5
S'white_pawn'
p217
sg7
S'c3'
p218
sa(dp219
g7
S'c4'
p220
sa(dp221
g7
S'c5'
p222
sa(dp223
g7
S'c6'
p224
sa(dp225
g5
S'black_pawn'
p226
sg7
S'c7'
p227
sa(dp228
g5
S'black_bishop'
p229
sg7
S'c8'
p230
sa(dp231
g5
S'white_queen'
p232
sg7
S'd1'
p233
sa(dp234
g7
S'd2'
p235
sa(dp236
g5
S'white_pawn'
p237
sg7
S'd3'
p238
sa(dp239
g7
S'd4'
p240
sa(dp241
g7
S'd5'
p242
sa(dp243
g5
S'black_pawn'
p244
sg7
S'd6'
p245
sa(dp246
g7
S'd7'
p247
sa(dp248
g5
S'black_queen'
p249
sg7
S'd8'
p250
sa(dp251
g5
S'white_rook'
p252
sg7
S'e1'
p253
sa(dp254
g7
S'e2'
p255
sa(dp256
g7
S'e3'
p257
sa(dp258
g5
S'white_pawn'
p259
sg7
S'e4'
p260
sa(dp261
g5
S'black_pawn'
p262
sg7
S'e5'
p263
sa(dp264
g7
S'e6'
p265
sa(dp266
g5
S'black_bishop'
p267
sg7
S'e7'
p268
sa(dp269
g7
S'e8'
p270
sa(dp271
g7
S'f1'
p272
sa(dp273
g5
S'white_pawn'
p274
sg7
S'f2'
p275
sa(dp276
g5
S'white_knight'
p277
sg7
S'f3'
p278
sa(dp279
g7
S'f4'
p280
sa(dp281
g7
S'f5'
p282
sa(dp283
g5
S'black_knight'
p284
sg7
S'f6'
p285
sa(dp286
g5
S'black_pawn'
p287
sg7
S'f7'
p288
sa(dp289
g5
S'black_rook'
p290
sg7
S'f8'
p291
sa(dp292
g5
S'white_king'
p293
sg7
S'g1'
p294
sa(dp295
g5
S'white_pawn'
p296
sg7
S'g2'
p297
sa(dp298
g7
S'g3'
p299
sa(dp300
g7
S'g4'
p301
sa(dp302
g7
S'g5'
p303
sa(dp304
g7
S'g6'
p305
sa(dp306
g5
S'black_pawn'
p307
sg7
S'g7'
p308
sa(dp309
g5
S'black_king'
p310
sg7
S'g8'
p311
sa(dp312
g7
S'h1'
p313
sa(dp314
g5
S'white_pawn'
p315
sg7
S'h2'
p316
sa(dp317
g7
S'h3'
p318
sa(dp319
g7
S'h4'
p320
sa(dp321
g7
S'h5'
p322
sa(dp323
g7
S'h6'
p324
sa(dp325
g5
S'black_pawn'
p326
sg7
S'h7'
p327
sa(dp328
g7
S'h8'
p329
saaVMy B will be happy here.
p330
aa(lp331
S'10... c5'
p332
a(lp333
(dp334
g5
S'white_rook'
p335
sg7
S'a1'
p336
sa(dp337
g5
S'white_pawn'
p338
sg7
S'a2'
p339
sa(dp340
g7
S'a3'
p341
sa(dp342
g7
S'a4'
p343
sa(dp344
g5
S'black_knight'
p345
sg7
S'a5'
p346
sa(dp347
g5
S'black_pawn'
p348
sg7
S'a6'
p349
sa(dp350
g7
S'a7'
p351
sa(dp352
g5
S'black_rook'
p353
sg7
S'a8'
p354
sa(dp355
g5
S'white_knight'
p356
sg7
S'b1'
p357
sa(dp358
g5
S'white_pawn'
p359
sg7
S'b2'
p360
sa(dp361
g7
S'b3'
p362
sa(dp363
g7
S'b4'
p364
sa(dp365
g5
S'black_pawn'
p366
sg7
S'b5'
p367
sa(dp368
g7
S'b6'
p369
sa(dp370
g7
S'b7'
p371
sa(dp372
g7
S'b8'
p373
sa(dp374
g5
S'white_bishop'
p375
sg7
S'c1'
p376
sa(dp377
g5
S'white_bishop'
p378
sg7
S'c2'
p379
sa(dp380
g5
S'white_pawn'
p381
sg7
S'c3'
p382
sa(dp383
g7
S'c4'
p384
sa(dp385
g5
S'black_pawn'
p386
sg7
S'c5'
p387
sa(dp388
g7
S'c6'
p389
sa(dp390
g7
S'c7'
p391
sa(dp392
g5
S'black_bishop'
p393
sg7
S'c8'
p394
sa(dp395
g5
S'white_queen'
p396
sg7
S'd1'
p397
sa(dp398
g7
S'd2'
p399
sa(dp400
g5
S'white_pawn'
p401
sg7
S'd3'
p402
sa(dp403
g7
S'd4'
p404
sa(dp405
g7
S'd5'
p406
sa(dp407
g5
S'black_pawn'
p408
sg7
S'd6'
p409
sa(dp410
g7
S'd7'
p411
sa(dp412
g5
S'black_queen'
p413
sg7
S'd8'
p414
sa(dp415
g5
S'white_rook'
p416
sg7
S'e1'
p417
sa(dp418
g7
S'e2'
p419
sa(dp420
g7
S'e3'
p421
sa(dp422
g5
S'white_pawn'
p423
sg7
S'e4'
p424
sa(dp425
g5
S'black_pawn'
p426
sg7
S'e5'
p427
sa(dp428
g7
S'e6'
p429
sa(dp430
g5
S'black_bishop'
p431
sg7
S'e7'
p432
sa(dp433
g7
S'e8'
p434
sa(dp435
g7
S'f1'
p436
sa(dp437
g5
S'white_pawn'
p438
sg7
S'f2'
p439
sa(dp440
g5
S'white_knight'
p441
sg7
S'f3'
p442
sa(dp443
g7
S'f4'
p444
sa(dp445
g7
S'f5'
p446
sa(dp447
g5
S'black_knight'
p448
sg7
S'f6'
p449
sa(dp450
g5
S'black_pawn'
p451
sg7
S'f7'
p452
sa(dp453
g5
S'black_rook'
p454
sg7
S'f8'
p455
sa(dp456
g5
S'white_king'
p457
sg7
S'g1'
p458
sa(dp459
g5
S'white_pawn'
p460
sg7
S'g2'
p461
sa(dp462
g7
S'g3'
p463
sa(dp464
g7
S'g4'
p465
sa(dp466
g7
S'g5'
p467
sa(dp468
g7
S'g6'
p469
sa(dp470
g5
S'black_pawn'
p471
sg7
S'g7'
p472
sa(dp473
g5
S'black_king'
p474
sg7
S'g8'
p475
sa(dp476
g7
S'h1'
p477
sa(dp478
g5
S'white_pawn'
p479
sg7
S'h2'
p480
sa(dp481
g7
S'h3'
p482
sa(dp483
g7
S'h4'
p484
sa(dp485
g7
S'h5'
p486
sa(dp487
g7
S'h6'
p488
sa(dp489
g5
S'black_pawn'
p490
sg7
S'h7'
p491
sa(dp492
g7
S'h8'
p493
saaV=
p494
aa(lp495
S'11. Bg5 h6 12. Bh4 Bg4 13. Nbd2 g5 14. Bg3 Nh5'
p496
a(lp497
(dp498
g5
S'white_rook'
p499
sg7
S'a1'
p500
sa(dp501
g5
S'white_pawn'
p502
sg7
S'a2'
p503
sa(dp504
g7
S'a3'
p505
sa(dp506
g7
S'a4'
p507
sa(dp508
g5
S'black_knight'
p509
sg7
S'a5'
p510
sa(dp511
g5
S'black_pawn'
p512
sg7
S'a6'
p513
sa(dp514
g7
S'a7'
p515
sa(dp516
g5
S'black_rook'
p517
sg7
S'a8'
p518
sa(dp519
g7
S'b1'
p520
sa(dp521
g5
S'white_pawn'
p522
sg7
S'b2'
p523
sa(dp524
g7
S'b3'
p525
sa(dp526
g7
S'b4'
p527
sa(dp528
g5
S'black_pawn'
p529
sg7
S'b5'
p530
sa(dp531
g7
S'b6'
p532
sa(dp533
g7
S'b7'
p534
sa(dp535
g7
S'b8'
p536
sa(dp537
g7
S'c1'
p538
sa(dp539
g5
S'white_bishop'
p540
sg7
S'c2'
p541
sa(dp542
g5
S'white_pawn'
p543
sg7
S'c3'
p544
sa(dp545
g7
S'c4'
p546
sa(dp547
g5
S'black_pawn'
p548
sg7
S'c5'
p549
sa(dp550
g7
S'c6'
p551
sa(dp552
g7
S'c7'
p553
sa(dp554
g7
S'c8'
p555
sa(dp556
g5
S'white_queen'
p557
sg7
S'd1'
p558
sa(dp559
g5
S'white_knight'
p560
sg7
S'd2'
p561
sa(dp562
g5
S'white_pawn'
p563
sg7
S'd3'
p564
sa(dp565
g7
S'd4'
p566
sa(dp567
g7
S'd5'
p568
sa(dp569
g5
S'black_pawn'
p570
sg7
S'd6'
p571
sa(dp572
g7
S'd7'
p573
sa(dp574
g5
S'black_queen'
p575
sg7
S'd8'
p576
sa(dp577
g5
S'white_rook'
p578
sg7
S'e1'
p579
sa(dp580
g7
S'e2'
p581
sa(dp582
g7
S'e3'
p583
sa(dp584
g5
S'white_pawn'
p585
sg7
S'e4'
p586
sa(dp587
g5
S'black_pawn'
p588
sg7
S'e5'
p589
sa(dp590
g7
S'e6'
p591
sa(dp592
g5
S'black_bishop'
p593
sg7
S'e7'
p594
sa(dp595
g7
S'e8'
p596
sa(dp597
g7
S'f1'
p598
sa(dp599
g5
S'white_pawn'
p600
sg7
S'f2'
p601
sa(dp602
g5
S'white_knight'
p603
sg7
S'f3'
p604
sa(dp605
g7
S'f4'
p606
sa(dp607
g7
S'f5'
p608
sa(dp609
g7
S'f6'
p610
sa(dp611
g5
S'black_pawn'
p612
sg7
S'f7'
p613
sa(dp614
g5
S'black_rook'
p615
sg7
S'f8'
p616
sa(dp617
g5
S'white_king'
p618
sg7
S'g1'
p619
sa(dp620
g5
S'white_pawn'
p621
sg7
S'g2'
p622
sa(dp623
g5
S'white_bishop'
p624
sg7
S'g3'
p625
sa(dp626
g5
S'black_bishop'
p627
sg7
S'g4'
p628
sa(dp629
g5
S'black_pawn'
p630
sg7
S'g5'
p631
sa(dp632
g7
S'g6'
p633
sa(dp634
g7
S'g7'
p635
sa(dp636
g5
S'black_king'
p637
sg7
S'g8'
p638
sa(dp639
g7
S'h1'
p640
sa(dp641
g5
S'white_pawn'
p642
sg7
S'h2'
p643
sa(dp644
g7
S'h3'
p645
sa(dp646
g7
S'h4'
p647
sa(dp648
g5
S'black_knight'
p649
sg7
S'h5'
p650
sa(dp651
g5
S'black_pawn'
p652
sg7
S'h6'
p653
sa(dp654
g7
S'h7'
p655
sa(dp656
g7
S'h8'
p657
saaV?!  The computer begs for this move a few tempo ago but now it's too late.
p658
aa(lp659
S'15. h3 Be6'
p660
a(lp661
(dp662
g5
S'white_rook'
p663
sg7
S'a1'
p664
sa(dp665
g5
S'white_pawn'
p666
sg7
S'a2'
p667
sa(dp668
g7
S'a3'
p669
sa(dp670
g7
S'a4'
p671
sa(dp672
g5
S'black_knight'
p673
sg7
S'a5'
p674
sa(dp675
g5
S'black_pawn'
p676
sg7
S'a6'
p677
sa(dp678
g7
S'a7'
p679
sa(dp680
g5
S'black_rook'
p681
sg7
S'a8'
p682
sa(dp683
g7
S'b1'
p684
sa(dp685
g5
S'white_pawn'
p686
sg7
S'b2'
p687
sa(dp688
g7
S'b3'
p689
sa(dp690
g7
S'b4'
p691
sa(dp692
g5
S'black_pawn'
p693
sg7
S'b5'
p694
sa(dp695
g7
S'b6'
p696
sa(dp697
g7
S'b7'
p698
sa(dp699
g7
S'b8'
p700
sa(dp701
g7
S'c1'
p702
sa(dp703
g5
S'white_bishop'
p704
sg7
S'c2'
p705
sa(dp706
g5
S'white_pawn'
p707
sg7
S'c3'
p708
sa(dp709
g7
S'c4'
p710
sa(dp711
g5
S'black_pawn'
p712
sg7
S'c5'
p713
sa(dp714
g7
S'c6'
p715
sa(dp716
g7
S'c7'
p717
sa(dp718
g7
S'c8'
p719
sa(dp720
g5
S'white_queen'
p721
sg7
S'd1'
p722
sa(dp723
g5
S'white_knight'
p724
sg7
S'd2'
p725
sa(dp726
g5
S'white_pawn'
p727
sg7
S'd3'
p728
sa(dp729
g7
S'd4'
p730
sa(dp731
g7
S'd5'
p732
sa(dp733
g5
S'black_pawn'
p734
sg7
S'd6'
p735
sa(dp736
g7
S'd7'
p737
sa(dp738
g5
S'black_queen'
p739
sg7
S'd8'
p740
sa(dp741
g5
S'white_rook'
p742
sg7
S'e1'
p743
sa(dp744
g7
S'e2'
p745
sa(dp746
g7
S'e3'
p747
sa(dp748
g5
S'white_pawn'
p749
sg7
S'e4'
p750
sa(dp751
g5
S'black_pawn'
p752
sg7
S'e5'
p753
sa(dp754
g5
S'black_bishop'
p755
sg7
S'e6'
p756
sa(dp757
g5
S'black_bishop'
p758
sg7
S'e7'
p759
sa(dp760
g7
S'e8'
p761
sa(dp762
g7
S'f1'
p763
sa(dp764
g5
S'white_pawn'
p765
sg7
S'f2'
p766
sa(dp767
g5
S'white_knight'
p768
sg7
S'f3'
p769
sa(dp770
g7
S'f4'
p771
sa(dp772
g7
S'f5'
p773
sa(dp774
g7
S'f6'
p775
sa(dp776
g5
S'black_pawn'
p777
sg7
S'f7'
p778
sa(dp779
g5
S'black_rook'
p780
sg7
S'f8'
p781
sa(dp782
g5
S'white_king'
p783
sg7
S'g1'
p784
sa(dp785
g5
S'white_pawn'
p786
sg7
S'g2'
p787
sa(dp788
g5
S'white_bishop'
p789
sg7
S'g3'
p790
sa(dp791
g7
S'g4'
p792
sa(dp793
g5
S'black_pawn'
p794
sg7
S'g5'
p795
sa(dp796
g7
S'g6'
p797
sa(dp798
g7
S'g7'
p799
sa(dp800
g5
S'black_king'
p801
sg7
S'g8'
p802
sa(dp803
g7
S'h1'
p804
sa(dp805
g7
S'h2'
p806
sa(dp807
g5
S'white_pawn'
p808
sg7
S'h3'
p809
sa(dp810
g7
S'h4'
p811
sa(dp812
g5
S'black_knight'
p813
sg7
S'h5'
p814
sa(dp815
g5
S'black_pawn'
p816
sg7
S'h6'
p817
sa(dp818
g7
S'h7'
p819
sa(dp820
g7
S'h8'
p821
saaVI'm aiming at 7 central squares vs his 3.  So let's open up his k-side.......
p822
aa(lp823
S'16. Nxe5'
p824
a(lp825
(dp826
g5
S'white_rook'
p827
sg7
S'a1'
p828
sa(dp829
g5
S'white_pawn'
p830
sg7
S'a2'
p831
sa(dp832
g7
S'a3'
p833
sa(dp834
g7
S'a4'
p835
sa(dp836
g5
S'black_knight'
p837
sg7
S'a5'
p838
sa(dp839
g5
S'black_pawn'
p840
sg7
S'a6'
p841
sa(dp842
g7
S'a7'
p843
sa(dp844
g5
S'black_rook'
p845
sg7
S'a8'
p846
sa(dp847
g7
S'b1'
p848
sa(dp849
g5
S'white_pawn'
p850
sg7
S'b2'
p851
sa(dp852
g7
S'b3'
p853
sa(dp854
g7
S'b4'
p855
sa(dp856
g5
S'black_pawn'
p857
sg7
S'b5'
p858
sa(dp859
g7
S'b6'
p860
sa(dp861
g7
S'b7'
p862
sa(dp863
g7
S'b8'
p864
sa(dp865
g7
S'c1'
p866
sa(dp867
g5
S'white_bishop'
p868
sg7
S'c2'
p869
sa(dp870
g5
S'white_pawn'
p871
sg7
S'c3'
p872
sa(dp873
g7
S'c4'
p874
sa(dp875
g5
S'black_pawn'
p876
sg7
S'c5'
p877
sa(dp878
g7
S'c6'
p879
sa(dp880
g7
S'c7'
p881
sa(dp882
g7
S'c8'
p883
sa(dp884
g5
S'white_queen'
p885
sg7
S'd1'
p886
sa(dp887
g5
S'white_knight'
p888
sg7
S'd2'
p889
sa(dp890
g5
S'white_pawn'
p891
sg7
S'd3'
p892
sa(dp893
g7
S'd4'
p894
sa(dp895
g7
S'd5'
p896
sa(dp897
g5
S'black_pawn'
p898
sg7
S'd6'
p899
sa(dp900
g7
S'd7'
p901
sa(dp902
g5
S'black_queen'
p903
sg7
S'd8'
p904
sa(dp905
g5
S'white_rook'
p906
sg7
S'e1'
p907
sa(dp908
g7
S'e2'
p909
sa(dp910
g7
S'e3'
p911
sa(dp912
g5
S'white_pawn'
p913
sg7
S'e4'
p914
sa(dp915
g5
S'white_knight'
p916
sg7
S'e5'
p917
sa(dp918
g5
S'black_bishop'
p919
sg7
S'e6'
p920
sa(dp921
g5
S'black_bishop'
p922
sg7
S'e7'
p923
sa(dp924
g7
S'e8'
p925
sa(dp926
g7
S'f1'
p927
sa(dp928
g5
S'white_pawn'
p929
sg7
S'f2'
p930
sa(dp931
g7
S'f3'
p932
sa(dp933
g7
S'f4'
p934
sa(dp935
g7
S'f5'
p936
sa(dp937
g7
S'f6'
p938
sa(dp939
g5
S'black_pawn'
p940
sg7
S'f7'
p941
sa(dp942
g5
S'black_rook'
p943
sg7
S'f8'
p944
sa(dp945
g5
S'white_king'
p946
sg7
S'g1'
p947
sa(dp948
g5
S'white_pawn'
p949
sg7
S'g2'
p950
sa(dp951
g5
S'white_bishop'
p952
sg7
S'g3'
p953
sa(dp954
g7
S'g4'
p955
sa(dp956
g5
S'black_pawn'
p957
sg7
S'g5'
p958
sa(dp959
g7
S'g6'
p960
sa(dp961
g7
S'g7'
p962
sa(dp963
g5
S'black_king'
p964
sg7
S'g8'
p965
sa(dp966
g7
S'h1'
p967
sa(dp968
g7
S'h2'
p969
sa(dp970
g5
S'white_pawn'
p971
sg7
S'h3'
p972
sa(dp973
g7
S'h4'
p974
sa(dp975
g5
S'black_knight'
p976
sg7
S'h5'
p977
sa(dp978
g5
S'black_pawn'
p979
sg7
S'h6'
p980
sa(dp981
g7
S'h7'
p982
sa(dp983
g7
S'h8'
p984
saaVIf he replies dxe5 I get active with the obvious 17.Qxh5 +/- or even 17.Bxe5
p985
aa(lp986
S'16... Nxg3 17. Nxf7 Rxf7 18. fxg3'
p987
a(lp988
(dp989
g5
S'white_rook'
p990
sg7
S'a1'
p991
sa(dp992
g5
S'white_pawn'
p993
sg7
S'a2'
p994
sa(dp995
g7
S'a3'
p996
sa(dp997
g7
S'a4'
p998
sa(dp999
g5
S'black_knight'
p1000
sg7
S'a5'
p1001
sa(dp1002
g5
S'black_pawn'
p1003
sg7
S'a6'
p1004
sa(dp1005
g7
S'a7'
p1006
sa(dp1007
g5
S'black_rook'
p1008
sg7
S'a8'
p1009
sa(dp1010
g7
S'b1'
p1011
sa(dp1012
g5
S'white_pawn'
p1013
sg7
S'b2'
p1014
sa(dp1015
g7
S'b3'
p1016
sa(dp1017
g7
S'b4'
p1018
sa(dp1019
g5
S'black_pawn'
p1020
sg7
S'b5'
p1021
sa(dp1022
g7
S'b6'
p1023
sa(dp1024
g7
S'b7'
p1025
sa(dp1026
g7
S'b8'
p1027
sa(dp1028
g7
S'c1'
p1029
sa(dp1030
g5
S'white_bishop'
p1031
sg7
S'c2'
p1032
sa(dp1033
g5
S'white_pawn'
p1034
sg7
S'c3'
p1035
sa(dp1036
g7
S'c4'
p1037
sa(dp1038
g5
S'black_pawn'
p1039
sg7
S'c5'
p1040
sa(dp1041
g7
S'c6'
p1042
sa(dp1043
g7
S'c7'
p1044
sa(dp1045
g7
S'c8'
p1046
sa(dp1047
g5
S'white_queen'
p1048
sg7
S'd1'
p1049
sa(dp1050
g5
S'white_knight'
p1051
sg7
S'd2'
p1052
sa(dp1053
g5
S'white_pawn'
p1054
sg7
S'd3'
p1055
sa(dp1056
g7
S'd4'
p1057
sa(dp1058
g7
S'd5'
p1059
sa(dp1060
g5
S'black_pawn'
p1061
sg7
S'd6'
p1062
sa(dp1063
g7
S'd7'
p1064
sa(dp1065
g5
S'black_queen'
p1066
sg7
S'd8'
p1067
sa(dp1068
g5
S'white_rook'
p1069
sg7
S'e1'
p1070
sa(dp1071
g7
S'e2'
p1072
sa(dp1073
g7
S'e3'
p1074
sa(dp1075
g5
S'white_pawn'
p1076
sg7
S'e4'
p1077
sa(dp1078
g7
S'e5'
p1079
sa(dp1080
g5
S'black_bishop'
p1081
sg7
S'e6'
p1082
sa(dp1083
g5
S'black_bishop'
p1084
sg7
S'e7'
p1085
sa(dp1086
g7
S'e8'
p1087
sa(dp1088
g7
S'f1'
p1089
sa(dp1090
g7
S'f2'
p1091
sa(dp1092
g7
S'f3'
p1093
sa(dp1094
g7
S'f4'
p1095
sa(dp1096
g7
S'f5'
p1097
sa(dp1098
g7
S'f6'
p1099
sa(dp1100
g5
S'black_rook'
p1101
sg7
S'f7'
p1102
sa(dp1103
g7
S'f8'
p1104
sa(dp1105
g5
S'white_king'
p1106
sg7
S'g1'
p1107
sa(dp1108
g5
S'white_pawn'
p1109
sg7
S'g2'
p1110
sa(dp1111
g5
S'white_pawn'
p1112
sg7
S'g3'
p1113
sa(dp1114
g7
S'g4'
p1115
sa(dp1116
g5
S'black_pawn'
p1117
sg7
S'g5'
p1118
sa(dp1119
g7
S'g6'
p1120
sa(dp1121
g7
S'g7'
p1122
sa(dp1123
g5
S'black_king'
p1124
sg7
S'g8'
p1125
sa(dp1126
g7
S'h1'
p1127
sa(dp1128
g7
S'h2'
p1129
sa(dp1130
g5
S'white_pawn'
p1131
sg7
S'h3'
p1132
sa(dp1133
g7
S'h4'
p1134
sa(dp1135
g7
S'h5'
p1136
sa(dp1137
g5
S'black_pawn'
p1138
sg7
S'h6'
p1139
sa(dp1140
g7
S'h7'
p1141
sa(dp1142
g7
S'h8'
p1143
saaVComputer says -/+ worse than 2 pawns behind.
p1144
aa(lp1145
S'18... Qd7'
p1146
a(lp1147
(dp1148
g5
S'white_rook'
p1149
sg7
S'a1'
p1150
sa(dp1151
g5
S'white_pawn'
p1152
sg7
S'a2'
p1153
sa(dp1154
g7
S'a3'
p1155
sa(dp1156
g7
S'a4'
p1157
sa(dp1158
g5
S'black_knight'
p1159
sg7
S'a5'
p1160
sa(dp1161
g5
S'black_pawn'
p1162
sg7
S'a6'
p1163
sa(dp1164
g7
S'a7'
p1165
sa(dp1166
g5
S'black_rook'
p1167
sg7
S'a8'
p1168
sa(dp1169
g7
S'b1'
p1170
sa(dp1171
g5
S'white_pawn'
p1172
sg7
S'b2'
p1173
sa(dp1174
g7
S'b3'
p1175
sa(dp1176
g7
S'b4'
p1177
sa(dp1178
g5
S'black_pawn'
p1179
sg7
S'b5'
p1180
sa(dp1181
g7
S'b6'
p1182
sa(dp1183
g7
S'b7'
p1184
sa(dp1185
g7
S'b8'
p1186
sa(dp1187
g7
S'c1'
p1188
sa(dp1189
g5
S'white_bishop'
p1190
sg7
S'c2'
p1191
sa(dp1192
g5
S'white_pawn'
p1193
sg7
S'c3'
p1194
sa(dp1195
g7
S'c4'
p1196
sa(dp1197
g5
S'black_pawn'
p1198
sg7
S'c5'
p1199
sa(dp1200
g7
S'c6'
p1201
sa(dp1202
g7
S'c7'
p1203
sa(dp1204
g7
S'c8'
p1205
sa(dp1206
g5
S'white_queen'
p1207
sg7
S'd1'
p1208
sa(dp1209
g5
S'white_knight'
p1210
sg7
S'd2'
p1211
sa(dp1212
g5
S'white_pawn'
p1213
sg7
S'd3'
p1214
sa(dp1215
g7
S'd4'
p1216
sa(dp1217
g7
S'd5'
p1218
sa(dp1219
g5
S'black_pawn'
p1220
sg7
S'd6'
p1221
sa(dp1222
g5
S'black_queen'
p1223
sg7
S'd7'
p1224
sa(dp1225
g7
S'd8'
p1226
sa(dp1227
g5
S'white_rook'
p1228
sg7
S'e1'
p1229
sa(dp1230
g7
S'e2'
p1231
sa(dp1232
g7
S'e3'
p1233
sa(dp1234
g5
S'white_pawn'
p1235
sg7
S'e4'
p1236
sa(dp1237
g7
S'e5'
p1238
sa(dp1239
g5
S'black_bishop'
p1240
sg7
S'e6'
p1241
sa(dp1242
g5
S'black_bishop'
p1243
sg7
S'e7'
p1244
sa(dp1245
g7
S'e8'
p1246
sa(dp1247
g7
S'f1'
p1248
sa(dp1249
g7
S'f2'
p1250
sa(dp1251
g7
S'f3'
p1252
sa(dp1253
g7
S'f4'
p1254
sa(dp1255
g7
S'f5'
p1256
sa(dp1257
g7
S'f6'
p1258
sa(dp1259
g5
S'black_rook'
p1260
sg7
S'f7'
p1261
sa(dp1262
g7
S'f8'
p1263
sa(dp1264
g5
S'white_king'
p1265
sg7
S'g1'
p1266
sa(dp1267
g5
S'white_pawn'
p1268
sg7
S'g2'
p1269
sa(dp1270
g5
S'white_pawn'
p1271
sg7
S'g3'
p1272
sa(dp1273
g7
S'g4'
p1274
sa(dp1275
g5
S'black_pawn'
p1276
sg7
S'g5'
p1277
sa(dp1278
g7
S'g6'
p1279
sa(dp1280
g7
S'g7'
p1281
sa(dp1282
g5
S'black_king'
p1283
sg7
S'g8'
p1284
sa(dp1285
g7
S'h1'
p1286
sa(dp1287
g7
S'h2'
p1288
sa(dp1289
g5
S'white_pawn'
p1290
sg7
S'h3'
p1291
sa(dp1292
g7
S'h4'
p1293
sa(dp1294
g7
S'h5'
p1295
sa(dp1296
g5
S'black_pawn'
p1297
sg7
S'h6'
p1298
sa(dp1299
g7
S'h7'
p1300
sa(dp1301
g7
S'h8'
p1302
saaVA distraction.
p1303
aa(lp1304
S'19. Kh2 Raf8'
p1305
a(lp1306
(dp1307
g5
S'white_rook'
p1308
sg7
S'a1'
p1309
sa(dp1310
g5
S'white_pawn'
p1311
sg7
S'a2'
p1312
sa(dp1313
g7
S'a3'
p1314
sa(dp1315
g7
S'a4'
p1316
sa(dp1317
g5
S'black_knight'
p1318
sg7
S'a5'
p1319
sa(dp1320
g5
S'black_pawn'
p1321
sg7
S'a6'
p1322
sa(dp1323
g7
S'a7'
p1324
sa(dp1325
g7
S'a8'
p1326
sa(dp1327
g7
S'b1'
p1328
sa(dp1329
g5
S'white_pawn'
p1330
sg7
S'b2'
p1331
sa(dp1332
g7
S'b3'
p1333
sa(dp1334
g7
S'b4'
p1335
sa(dp1336
g5
S'black_pawn'
p1337
sg7
S'b5'
p1338
sa(dp1339
g7
S'b6'
p1340
sa(dp1341
g7
S'b7'
p1342
sa(dp1343
g7
S'b8'
p1344
sa(dp1345
g7
S'c1'
p1346
sa(dp1347
g5
S'white_bishop'
p1348
sg7
S'c2'
p1349
sa(dp1350
g5
S'white_pawn'
p1351
sg7
S'c3'
p1352
sa(dp1353
g7
S'c4'
p1354
sa(dp1355
g5
S'black_pawn'
p1356
sg7
S'c5'
p1357
sa(dp1358
g7
S'c6'
p1359
sa(dp1360
g7
S'c7'
p1361
sa(dp1362
g7
S'c8'
p1363
sa(dp1364
g5
S'white_queen'
p1365
sg7
S'd1'
p1366
sa(dp1367
g5
S'white_knight'
p1368
sg7
S'd2'
p1369
sa(dp1370
g5
S'white_pawn'
p1371
sg7
S'd3'
p1372
sa(dp1373
g7
S'd4'
p1374
sa(dp1375
g7
S'd5'
p1376
sa(dp1377
g5
S'black_pawn'
p1378
sg7
S'd6'
p1379
sa(dp1380
g5
S'black_queen'
p1381
sg7
S'd7'
p1382
sa(dp1383
g7
S'd8'
p1384
sa(dp1385
g5
S'white_rook'
p1386
sg7
S'e1'
p1387
sa(dp1388
g7
S'e2'
p1389
sa(dp1390
g7
S'e3'
p1391
sa(dp1392
g5
S'white_pawn'
p1393
sg7
S'e4'
p1394
sa(dp1395
g7
S'e5'
p1396
sa(dp1397
g5
S'black_bishop'
p1398
sg7
S'e6'
p1399
sa(dp1400
g5
S'black_bishop'
p1401
sg7
S'e7'
p1402
sa(dp1403
g7
S'e8'
p1404
sa(dp1405
g7
S'f1'
p1406
sa(dp1407
g7
S'f2'
p1408
sa(dp1409
g7
S'f3'
p1410
sa(dp1411
g7
S'f4'
p1412
sa(dp1413
g7
S'f5'
p1414
sa(dp1415
g7
S'f6'
p1416
sa(dp1417
g5
S'black_rook'
p1418
sg7
S'f7'
p1419
sa(dp1420
g5
S'black_rook'
p1421
sg7
S'f8'
p1422
sa(dp1423
g7
S'g1'
p1424
sa(dp1425
g5
S'white_pawn'
p1426
sg7
S'g2'
p1427
sa(dp1428
g5
S'white_pawn'
p1429
sg7
S'g3'
p1430
sa(dp1431
g7
S'g4'
p1432
sa(dp1433
g5
S'black_pawn'
p1434
sg7
S'g5'
p1435
sa(dp1436
g7
S'g6'
p1437
sa(dp1438
g7
S'g7'
p1439
sa(dp1440
g5
S'black_king'
p1441
sg7
S'g8'
p1442
sa(dp1443
g7
S'h1'
p1444
sa(dp1445
g5
S'white_king'
p1446
sg7
S'h2'
p1447
sa(dp1448
g5
S'white_pawn'
p1449
sg7
S'h3'
p1450
sa(dp1451
g7
S'h4'
p1452
sa(dp1453
g7
S'h5'
p1454
sa(dp1455
g5
S'black_pawn'
p1456
sg7
S'h6'
p1457
sa(dp1458
g7
S'h7'
p1459
sa(dp1460
g7
S'h8'
p1461
saaVComputer suggests 19...g4 and that certainly would have been annoying.  20.Qh5 is already showing up in the computer.  Later on I see it.
p1462
aa(lp1463
S'20. Nf3'
p1464
a(lp1465
(dp1466
g5
S'white_rook'
p1467
sg7
S'a1'
p1468
sa(dp1469
g5
S'white_pawn'
p1470
sg7
S'a2'
p1471
sa(dp1472
g7
S'a3'
p1473
sa(dp1474
g7
S'a4'
p1475
sa(dp1476
g5
S'black_knight'
p1477
sg7
S'a5'
p1478
sa(dp1479
g5
S'black_pawn'
p1480
sg7
S'a6'
p1481
sa(dp1482
g7
S'a7'
p1483
sa(dp1484
g7
S'a8'
p1485
sa(dp1486
g7
S'b1'
p1487
sa(dp1488
g5
S'white_pawn'
p1489
sg7
S'b2'
p1490
sa(dp1491
g7
S'b3'
p1492
sa(dp1493
g7
S'b4'
p1494
sa(dp1495
g5
S'black_pawn'
p1496
sg7
S'b5'
p1497
sa(dp1498
g7
S'b6'
p1499
sa(dp1500
g7
S'b7'
p1501
sa(dp1502
g7
S'b8'
p1503
sa(dp1504
g7
S'c1'
p1505
sa(dp1506
g5
S'white_bishop'
p1507
sg7
S'c2'
p1508
sa(dp1509
g5
S'white_pawn'
p1510
sg7
S'c3'
p1511
sa(dp1512
g7
S'c4'
p1513
sa(dp1514
g5
S'black_pawn'
p1515
sg7
S'c5'
p1516
sa(dp1517
g7
S'c6'
p1518
sa(dp1519
g7
S'c7'
p1520
sa(dp1521
g7
S'c8'
p1522
sa(dp1523
g5
S'white_queen'
p1524
sg7
S'd1'
p1525
sa(dp1526
g7
S'd2'
p1527
sa(dp1528
g5
S'white_pawn'
p1529
sg7
S'd3'
p1530
sa(dp1531
g7
S'd4'
p1532
sa(dp1533
g7
S'd5'
p1534
sa(dp1535
g5
S'black_pawn'
p1536
sg7
S'd6'
p1537
sa(dp1538
g5
S'black_queen'
p1539
sg7
S'd7'
p1540
sa(dp1541
g7
S'd8'
p1542
sa(dp1543
g5
S'white_rook'
p1544
sg7
S'e1'
p1545
sa(dp1546
g7
S'e2'
p1547
sa(dp1548
g7
S'e3'
p1549
sa(dp1550
g5
S'white_pawn'
p1551
sg7
S'e4'
p1552
sa(dp1553
g7
S'e5'
p1554
sa(dp1555
g5
S'black_bishop'
p1556
sg7
S'e6'
p1557
sa(dp1558
g5
S'black_bishop'
p1559
sg7
S'e7'
p1560
sa(dp1561
g7
S'e8'
p1562
sa(dp1563
g7
S'f1'
p1564
sa(dp1565
g7
S'f2'
p1566
sa(dp1567
g5
S'white_knight'
p1568
sg7
S'f3'
p1569
sa(dp1570
g7
S'f4'
p1571
sa(dp1572
g7
S'f5'
p1573
sa(dp1574
g7
S'f6'
p1575
sa(dp1576
g5
S'black_rook'
p1577
sg7
S'f7'
p1578
sa(dp1579
g5
S'black_rook'
p1580
sg7
S'f8'
p1581
sa(dp1582
g7
S'g1'
p1583
sa(dp1584
g5
S'white_pawn'
p1585
sg7
S'g2'
p1586
sa(dp1587
g5
S'white_pawn'
p1588
sg7
S'g3'
p1589
sa(dp1590
g7
S'g4'
p1591
sa(dp1592
g5
S'black_pawn'
p1593
sg7
S'g5'
p1594
sa(dp1595
g7
S'g6'
p1596
sa(dp1597
g7
S'g7'
p1598
sa(dp1599
g5
S'black_king'
p1600
sg7
S'g8'
p1601
sa(dp1602
g7
S'h1'
p1603
sa(dp1604
g5
S'white_king'
p1605
sg7
S'h2'
p1606
sa(dp1607
g5
S'white_pawn'
p1608
sg7
S'h3'
p1609
sa(dp1610
g7
S'h4'
p1611
sa(dp1612
g7
S'h5'
p1613
sa(dp1614
g5
S'black_pawn'
p1615
sg7
S'h6'
p1616
sa(dp1617
g7
S'h7'
p1618
sa(dp1619
g7
S'h8'
p1620
saaV?  I moved my K to h2 knowing that ...Bxh3 was annoying but I got blind to the result of .gxh3 Rxf3 and how the g-pawn protector of the f3 N is gone.  Thankfully he missed it too.
p1621
aa(lp1622
S'20... g4 21. hxg4 Bxg4 22. Rf1 c4'
p1623
a(lp1624
(dp1625
g5
S'white_rook'
p1626
sg7
S'a1'
p1627
sa(dp1628
g5
S'white_pawn'
p1629
sg7
S'a2'
p1630
sa(dp1631
g7
S'a3'
p1632
sa(dp1633
g7
S'a4'
p1634
sa(dp1635
g5
S'black_knight'
p1636
sg7
S'a5'
p1637
sa(dp1638
g5
S'black_pawn'
p1639
sg7
S'a6'
p1640
sa(dp1641
g7
S'a7'
p1642
sa(dp1643
g7
S'a8'
p1644
sa(dp1645
g7
S'b1'
p1646
sa(dp1647
g5
S'white_pawn'
p1648
sg7
S'b2'
p1649
sa(dp1650
g7
S'b3'
p1651
sa(dp1652
g7
S'b4'
p1653
sa(dp1654
g5
S'black_pawn'
p1655
sg7
S'b5'
p1656
sa(dp1657
g7
S'b6'
p1658
sa(dp1659
g7
S'b7'
p1660
sa(dp1661
g7
S'b8'
p1662
sa(dp1663
g7
S'c1'
p1664
sa(dp1665
g5
S'white_bishop'
p1666
sg7
S'c2'
p1667
sa(dp1668
g5
S'white_pawn'
p1669
sg7
S'c3'
p1670
sa(dp1671
g5
S'black_pawn'
p1672
sg7
S'c4'
p1673
sa(dp1674
g7
S'c5'
p1675
sa(dp1676
g7
S'c6'
p1677
sa(dp1678
g7
S'c7'
p1679
sa(dp1680
g7
S'c8'
p1681
sa(dp1682
g5
S'white_queen'
p1683
sg7
S'd1'
p1684
sa(dp1685
g7
S'd2'
p1686
sa(dp1687
g5
S'white_pawn'
p1688
sg7
S'd3'
p1689
sa(dp1690
g7
S'd4'
p1691
sa(dp1692
g7
S'd5'
p1693
sa(dp1694
g5
S'black_pawn'
p1695
sg7
S'd6'
p1696
sa(dp1697
g5
S'black_queen'
p1698
sg7
S'd7'
p1699
sa(dp1700
g7
S'd8'
p1701
sa(dp1702
g7
S'e1'
p1703
sa(dp1704
g7
S'e2'
p1705
sa(dp1706
g7
S'e3'
p1707
sa(dp1708
g5
S'white_pawn'
p1709
sg7
S'e4'
p1710
sa(dp1711
g7
S'e5'
p1712
sa(dp1713
g7
S'e6'
p1714
sa(dp1715
g5
S'black_bishop'
p1716
sg7
S'e7'
p1717
sa(dp1718
g7
S'e8'
p1719
sa(dp1720
g5
S'white_rook'
p1721
sg7
S'f1'
p1722
sa(dp1723
g7
S'f2'
p1724
sa(dp1725
g5
S'white_knight'
p1726
sg7
S'f3'
p1727
sa(dp1728
g7
S'f4'
p1729
sa(dp1730
g7
S'f5'
p1731
sa(dp1732
g7
S'f6'
p1733
sa(dp1734
g5
S'black_rook'
p1735
sg7
S'f7'
p1736
sa(dp1737
g5
S'black_rook'
p1738
sg7
S'f8'
p1739
sa(dp1740
g7
S'g1'
p1741
sa(dp1742
g5
S'white_pawn'
p1743
sg7
S'g2'
p1744
sa(dp1745
g5
S'white_pawn'
p1746
sg7
S'g3'
p1747
sa(dp1748
g5
S'black_bishop'
p1749
sg7
S'g4'
p1750
sa(dp1751
g7
S'g5'
p1752
sa(dp1753
g7
S'g6'
p1754
sa(dp1755
g7
S'g7'
p1756
sa(dp1757
g5
S'black_king'
p1758
sg7
S'g8'
p1759
sa(dp1760
g7
S'h1'
p1761
sa(dp1762
g5
S'white_king'
p1763
sg7
S'h2'
p1764
sa(dp1765
g7
S'h3'
p1766
sa(dp1767
g7
S'h4'
p1768
sa(dp1769
g7
S'h5'
p1770
sa(dp1771
g5
S'black_pawn'
p1772
sg7
S'h6'
p1773
sa(dp1774
g7
S'h7'
p1775
sa(dp1776
g7
S'h8'
p1777
saaVComputer considers this bad.  Probably should have maintained pressure on K-side I guess.  Anyway it's annoying counterplay.  Also computer wanted me to reply 23.b4 or d4.
p1778
aa(lp1779
S'23. Qd2'
p1780
a(lp1781
(dp1782
g5
S'white_rook'
p1783
sg7
S'a1'
p1784
sa(dp1785
g5
S'white_pawn'
p1786
sg7
S'a2'
p1787
sa(dp1788
g7
S'a3'
p1789
sa(dp1790
g7
S'a4'
p1791
sa(dp1792
g5
S'black_knight'
p1793
sg7
S'a5'
p1794
sa(dp1795
g5
S'black_pawn'
p1796
sg7
S'a6'
p1797
sa(dp1798
g7
S'a7'
p1799
sa(dp1800
g7
S'a8'
p1801
sa(dp1802
g7
S'b1'
p1803
sa(dp1804
g5
S'white_pawn'
p1805
sg7
S'b2'
p1806
sa(dp1807
g7
S'b3'
p1808
sa(dp1809
g7
S'b4'
p1810
sa(dp1811
g5
S'black_pawn'
p1812
sg7
S'b5'
p1813
sa(dp1814
g7
S'b6'
p1815
sa(dp1816
g7
S'b7'
p1817
sa(dp1818
g7
S'b8'
p1819
sa(dp1820
g7
S'c1'
p1821
sa(dp1822
g5
S'white_bishop'
p1823
sg7
S'c2'
p1824
sa(dp1825
g5
S'white_pawn'
p1826
sg7
S'c3'
p1827
sa(dp1828
g5
S'black_pawn'
p1829
sg7
S'c4'
p1830
sa(dp1831
g7
S'c5'
p1832
sa(dp1833
g7
S'c6'
p1834
sa(dp1835
g7
S'c7'
p1836
sa(dp1837
g7
S'c8'
p1838
sa(dp1839
g7
S'd1'
p1840
sa(dp1841
g5
S'white_queen'
p1842
sg7
S'd2'
p1843
sa(dp1844
g5
S'white_pawn'
p1845
sg7
S'd3'
p1846
sa(dp1847
g7
S'd4'
p1848
sa(dp1849
g7
S'd5'
p1850
sa(dp1851
g5
S'black_pawn'
p1852
sg7
S'd6'
p1853
sa(dp1854
g5
S'black_queen'
p1855
sg7
S'd7'
p1856
sa(dp1857
g7
S'd8'
p1858
sa(dp1859
g7
S'e1'
p1860
sa(dp1861
g7
S'e2'
p1862
sa(dp1863
g7
S'e3'
p1864
sa(dp1865
g5
S'white_pawn'
p1866
sg7
S'e4'
p1867
sa(dp1868
g7
S'e5'
p1869
sa(dp1870
g7
S'e6'
p1871
sa(dp1872
g5
S'black_bishop'
p1873
sg7
S'e7'
p1874
sa(dp1875
g7
S'e8'
p1876
sa(dp1877
g5
S'white_rook'
p1878
sg7
S'f1'
p1879
sa(dp1880
g7
S'f2'
p1881
sa(dp1882
g5
S'white_knight'
p1883
sg7
S'f3'
p1884
sa(dp1885
g7
S'f4'
p1886
sa(dp1887
g7
S'f5'
p1888
sa(dp1889
g7
S'f6'
p1890
sa(dp1891
g5
S'black_rook'
p1892
sg7
S'f7'
p1893
sa(dp1894
g5
S'black_rook'
p1895
sg7
S'f8'
p1896
sa(dp1897
g7
S'g1'
p1898
sa(dp1899
g5
S'white_pawn'
p1900
sg7
S'g2'
p1901
sa(dp1902
g5
S'white_pawn'
p1903
sg7
S'g3'
p1904
sa(dp1905
g5
S'black_bishop'
p1906
sg7
S'g4'
p1907
sa(dp1908
g7
S'g5'
p1909
sa(dp1910
g7
S'g6'
p1911
sa(dp1912
g7
S'g7'
p1913
sa(dp1914
g5
S'black_king'
p1915
sg7
S'g8'
p1916
sa(dp1917
g7
S'h1'
p1918
sa(dp1919
g5
S'white_king'
p1920
sg7
S'h2'
p1921
sa(dp1922
g7
S'h3'
p1923
sa(dp1924
g7
S'h4'
p1925
sa(dp1926
g7
S'h5'
p1927
sa(dp1928
g5
S'black_pawn'
p1929
sg7
S'h6'
p1930
sa(dp1931
g7
S'h7'
p1932
sa(dp1933
g7
S'h8'
p1934
saaVI'm starting to see his open K-side so let's counter attack.  Do or die time!!
p1935
aa(lp1936
S'23... Rh7 24. d4 Bxf3 25. gxf3 Qe8 26. Kg2 Qh5 27. f4 Rg7 28. Qd1'
p1937
a(lp1938
(dp1939
g5
S'white_rook'
p1940
sg7
S'a1'
p1941
sa(dp1942
g5
S'white_pawn'
p1943
sg7
S'a2'
p1944
sa(dp1945
g7
S'a3'
p1946
sa(dp1947
g7
S'a4'
p1948
sa(dp1949
g5
S'black_knight'
p1950
sg7
S'a5'
p1951
sa(dp1952
g5
S'black_pawn'
p1953
sg7
S'a6'
p1954
sa(dp1955
g7
S'a7'
p1956
sa(dp1957
g7
S'a8'
p1958
sa(dp1959
g7
S'b1'
p1960
sa(dp1961
g5
S'white_pawn'
p1962
sg7
S'b2'
p1963
sa(dp1964
g7
S'b3'
p1965
sa(dp1966
g7
S'b4'
p1967
sa(dp1968
g5
S'black_pawn'
p1969
sg7
S'b5'
p1970
sa(dp1971
g7
S'b6'
p1972
sa(dp1973
g7
S'b7'
p1974
sa(dp1975
g7
S'b8'
p1976
sa(dp1977
g7
S'c1'
p1978
sa(dp1979
g5
S'white_bishop'
p1980
sg7
S'c2'
p1981
sa(dp1982
g5
S'white_pawn'
p1983
sg7
S'c3'
p1984
sa(dp1985
g5
S'black_pawn'
p1986
sg7
S'c4'
p1987
sa(dp1988
g7
S'c5'
p1989
sa(dp1990
g7
S'c6'
p1991
sa(dp1992
g7
S'c7'
p1993
sa(dp1994
g7
S'c8'
p1995
sa(dp1996
g5
S'white_queen'
p1997
sg7
S'd1'
p1998
sa(dp1999
g7
S'd2'
p2000
sa(dp2001
g7
S'd3'
p2002
sa(dp2003
g5
S'white_pawn'
p2004
sg7
S'd4'
p2005
sa(dp2006
g7
S'd5'
p2007
sa(dp2008
g5
S'black_pawn'
p2009
sg7
S'd6'
p2010
sa(dp2011
g7
S'd7'
p2012
sa(dp2013
g7
S'd8'
p2014
sa(dp2015
g7
S'e1'
p2016
sa(dp2017
g7
S'e2'
p2018
sa(dp2019
g7
S'e3'
p2020
sa(dp2021
g5
S'white_pawn'
p2022
sg7
S'e4'
p2023
sa(dp2024
g7
S'e5'
p2025
sa(dp2026
g7
S'e6'
p2027
sa(dp2028
g5
S'black_bishop'
p2029
sg7
S'e7'
p2030
sa(dp2031
g7
S'e8'
p2032
sa(dp2033
g5
S'white_rook'
p2034
sg7
S'f1'
p2035
sa(dp2036
g7
S'f2'
p2037
sa(dp2038
g7
S'f3'
p2039
sa(dp2040
g5
S'white_pawn'
p2041
sg7
S'f4'
p2042
sa(dp2043
g7
S'f5'
p2044
sa(dp2045
g7
S'f6'
p2046
sa(dp2047
g7
S'f7'
p2048
sa(dp2049
g5
S'black_rook'
p2050
sg7
S'f8'
p2051
sa(dp2052
g7
S'g1'
p2053
sa(dp2054
g5
S'white_king'
p2055
sg7
S'g2'
p2056
sa(dp2057
g5
S'white_pawn'
p2058
sg7
S'g3'
p2059
sa(dp2060
g7
S'g4'
p2061
sa(dp2062
g7
S'g5'
p2063
sa(dp2064
g7
S'g6'
p2065
sa(dp2066
g5
S'black_rook'
p2067
sg7
S'g7'
p2068
sa(dp2069
g5
S'black_king'
p2070
sg7
S'g8'
p2071
sa(dp2072
g7
S'h1'
p2073
sa(dp2074
g7
S'h2'
p2075
sa(dp2076
g7
S'h3'
p2077
sa(dp2078
g7
S'h4'
p2079
sa(dp2080
g5
S'black_queen'
p2081
sg7
S'h5'
p2082
sa(dp2083
g5
S'black_pawn'
p2084
sg7
S'h6'
p2085
sa(dp2086
g7
S'h7'
p2087
sa(dp2088
g7
S'h8'
p2089
saaVComputer says I'm almost back to even as of a few moves ago.  I foiled his threat and built my own attack with initiative.  But the text move is wimpy, slow and clunky.  Qe3 or even Bd1 would have been better.
p2090
aa(lp2091
S'28... Qg6 29. Qf3 Bh4 30. Kh3'
p2092
a(lp2093
(dp2094
g5
S'white_rook'
p2095
sg7
S'a1'
p2096
sa(dp2097
g5
S'white_pawn'
p2098
sg7
S'a2'
p2099
sa(dp2100
g7
S'a3'
p2101
sa(dp2102
g7
S'a4'
p2103
sa(dp2104
g5
S'black_knight'
p2105
sg7
S'a5'
p2106
sa(dp2107
g5
S'black_pawn'
p2108
sg7
S'a6'
p2109
sa(dp2110
g7
S'a7'
p2111
sa(dp2112
g7
S'a8'
p2113
sa(dp2114
g7
S'b1'
p2115
sa(dp2116
g5
S'white_pawn'
p2117
sg7
S'b2'
p2118
sa(dp2119
g7
S'b3'
p2120
sa(dp2121
g7
S'b4'
p2122
sa(dp2123
g5
S'black_pawn'
p2124
sg7
S'b5'
p2125
sa(dp2126
g7
S'b6'
p2127
sa(dp2128
g7
S'b7'
p2129
sa(dp2130
g7
S'b8'
p2131
sa(dp2132
g7
S'c1'
p2133
sa(dp2134
g5
S'white_bishop'
p2135
sg7
S'c2'
p2136
sa(dp2137
g5
S'white_pawn'
p2138
sg7
S'c3'
p2139
sa(dp2140
g5
S'black_pawn'
p2141
sg7
S'c4'
p2142
sa(dp2143
g7
S'c5'
p2144
sa(dp2145
g7
S'c6'
p2146
sa(dp2147
g7
S'c7'
p2148
sa(dp2149
g7
S'c8'
p2150
sa(dp2151
g7
S'd1'
p2152
sa(dp2153
g7
S'd2'
p2154
sa(dp2155
g7
S'd3'
p2156
sa(dp2157
g5
S'white_pawn'
p2158
sg7
S'd4'
p2159
sa(dp2160
g7
S'd5'
p2161
sa(dp2162
g5
S'black_pawn'
p2163
sg7
S'd6'
p2164
sa(dp2165
g7
S'd7'
p2166
sa(dp2167
g7
S'd8'
p2168
sa(dp2169
g7
S'e1'
p2170
sa(dp2171
g7
S'e2'
p2172
sa(dp2173
g7
S'e3'
p2174
sa(dp2175
g5
S'white_pawn'
p2176
sg7
S'e4'
p2177
sa(dp2178
g7
S'e5'
p2179
sa(dp2180
g7
S'e6'
p2181
sa(dp2182
g7
S'e7'
p2183
sa(dp2184
g7
S'e8'
p2185
sa(dp2186
g5
S'white_rook'
p2187
sg7
S'f1'
p2188
sa(dp2189
g7
S'f2'
p2190
sa(dp2191
g5
S'white_queen'
p2192
sg7
S'f3'
p2193
sa(dp2194
g5
S'white_pawn'
p2195
sg7
S'f4'
p2196
sa(dp2197
g7
S'f5'
p2198
sa(dp2199
g7
S'f6'
p2200
sa(dp2201
g7
S'f7'
p2202
sa(dp2203
g5
S'black_rook'
p2204
sg7
S'f8'
p2205
sa(dp2206
g7
S'g1'
p2207
sa(dp2208
g7
S'g2'
p2209
sa(dp2210
g5
S'white_pawn'
p2211
sg7
S'g3'
p2212
sa(dp2213
g7
S'g4'
p2214
sa(dp2215
g7
S'g5'
p2216
sa(dp2217
g5
S'black_queen'
p2218
sg7
S'g6'
p2219
sa(dp2220
g5
S'black_rook'
p2221
sg7
S'g7'
p2222
sa(dp2223
g5
S'black_king'
p2224
sg7
S'g8'
p2225
sa(dp2226
g7
S'h1'
p2227
sa(dp2228
g7
S'h2'
p2229
sa(dp2230
g5
S'white_king'
p2231
sg7
S'h3'
p2232
sa(dp2233
g5
S'black_bishop'
p2234
sg7
S'h4'
p2235
sa(dp2236
g7
S'h5'
p2237
sa(dp2238
g5
S'black_pawn'
p2239
sg7
S'h6'
p2240
sa(dp2241
g7
S'h7'
p2242
sa(dp2243
g7
S'h8'
p2244
saaV??  30...Bxg3 will still work.  Computer says 31.e5 (don't get it) Qxc2 32.Qxg3 Rxg3+ 33.Kxg3 Kh7 34.Rg1 Qxb2 chasing me around with checks and captures.  But he missed it too lol.
p2245
aa(lp2246
S'30... Be7 31. Rac1'
p2247
a(lp2248
(dp2249
g7
S'a1'
p2250
sa(dp2251
g5
S'white_pawn'
p2252
sg7
S'a2'
p2253
sa(dp2254
g7
S'a3'
p2255
sa(dp2256
g7
S'a4'
p2257
sa(dp2258
g5
S'black_knight'
p2259
sg7
S'a5'
p2260
sa(dp2261
g5
S'black_pawn'
p2262
sg7
S'a6'
p2263
sa(dp2264
g7
S'a7'
p2265
sa(dp2266
g7
S'a8'
p2267
sa(dp2268
g7
S'b1'
p2269
sa(dp2270
g5
S'white_pawn'
p2271
sg7
S'b2'
p2272
sa(dp2273
g7
S'b3'
p2274
sa(dp2275
g7
S'b4'
p2276
sa(dp2277
g5
S'black_pawn'
p2278
sg7
S'b5'
p2279
sa(dp2280
g7
S'b6'
p2281
sa(dp2282
g7
S'b7'
p2283
sa(dp2284
g7
S'b8'
p2285
sa(dp2286
g5
S'white_rook'
p2287
sg7
S'c1'
p2288
sa(dp2289
g5
S'white_bishop'
p2290
sg7
S'c2'
p2291
sa(dp2292
g5
S'white_pawn'
p2293
sg7
S'c3'
p2294
sa(dp2295
g5
S'black_pawn'
p2296
sg7
S'c4'
p2297
sa(dp2298
g7
S'c5'
p2299
sa(dp2300
g7
S'c6'
p2301
sa(dp2302
g7
S'c7'
p2303
sa(dp2304
g7
S'c8'
p2305
sa(dp2306
g7
S'd1'
p2307
sa(dp2308
g7
S'd2'
p2309
sa(dp2310
g7
S'd3'
p2311
sa(dp2312
g5
S'white_pawn'
p2313
sg7
S'd4'
p2314
sa(dp2315
g7
S'd5'
p2316
sa(dp2317
g5
S'black_pawn'
p2318
sg7
S'd6'
p2319
sa(dp2320
g7
S'd7'
p2321
sa(dp2322
g7
S'd8'
p2323
sa(dp2324
g7
S'e1'
p2325
sa(dp2326
g7
S'e2'
p2327
sa(dp2328
g7
S'e3'
p2329
sa(dp2330
g5
S'white_pawn'
p2331
sg7
S'e4'
p2332
sa(dp2333
g7
S'e5'
p2334
sa(dp2335
g7
S'e6'
p2336
sa(dp2337
g5
S'black_bishop'
p2338
sg7
S'e7'
p2339
sa(dp2340
g7
S'e8'
p2341
sa(dp2342
g5
S'white_rook'
p2343
sg7
S'f1'
p2344
sa(dp2345
g7
S'f2'
p2346
sa(dp2347
g5
S'white_queen'
p2348
sg7
S'f3'
p2349
sa(dp2350
g5
S'white_pawn'
p2351
sg7
S'f4'
p2352
sa(dp2353
g7
S'f5'
p2354
sa(dp2355
g7
S'f6'
p2356
sa(dp2357
g7
S'f7'
p2358
sa(dp2359
g5
S'black_rook'
p2360
sg7
S'f8'
p2361
sa(dp2362
g7
S'g1'
p2363
sa(dp2364
g7
S'g2'
p2365
sa(dp2366
g5
S'white_pawn'
p2367
sg7
S'g3'
p2368
sa(dp2369
g7
S'g4'
p2370
sa(dp2371
g7
S'g5'
p2372
sa(dp2373
g5
S'black_queen'
p2374
sg7
S'g6'
p2375
sa(dp2376
g5
S'black_rook'
p2377
sg7
S'g7'
p2378
sa(dp2379
g5
S'black_king'
p2380
sg7
S'g8'
p2381
sa(dp2382
g7
S'h1'
p2383
sa(dp2384
g7
S'h2'
p2385
sa(dp2386
g5
S'white_king'
p2387
sg7
S'h3'
p2388
sa(dp2389
g7
S'h4'
p2390
sa(dp2391
g7
S'h5'
p2392
sa(dp2393
g5
S'black_pawn'
p2394
sg7
S'h6'
p2395
sa(dp2396
g7
S'h7'
p2397
sa(dp2398
g7
S'h8'
p2399
saaVSets up possible e5 with discovered attack on his Q
p2400
aa(lp2401
S'31... Nc6 32. e5 Qe8 33. Be4 Nd8 34. Bd5+ Kh8 35. b3'
p2402
a(lp2403
(dp2404
g7
S'a1'
p2405
sa(dp2406
g5
S'white_pawn'
p2407
sg7
S'a2'
p2408
sa(dp2409
g7
S'a3'
p2410
sa(dp2411
g7
S'a4'
p2412
sa(dp2413
g7
S'a5'
p2414
sa(dp2415
g5
S'black_pawn'
p2416
sg7
S'a6'
p2417
sa(dp2418
g7
S'a7'
p2419
sa(dp2420
g7
S'a8'
p2421
sa(dp2422
g7
S'b1'
p2423
sa(dp2424
g7
S'b2'
p2425
sa(dp2426
g5
S'white_pawn'
p2427
sg7
S'b3'
p2428
sa(dp2429
g7
S'b4'
p2430
sa(dp2431
g5
S'black_pawn'
p2432
sg7
S'b5'
p2433
sa(dp2434
g7
S'b6'
p2435
sa(dp2436
g7
S'b7'
p2437
sa(dp2438
g7
S'b8'
p2439
sa(dp2440
g5
S'white_rook'
p2441
sg7
S'c1'
p2442
sa(dp2443
g7
S'c2'
p2444
sa(dp2445
g5
S'white_pawn'
p2446
sg7
S'c3'
p2447
sa(dp2448
g5
S'black_pawn'
p2449
sg7
S'c4'
p2450
sa(dp2451
g7
S'c5'
p2452
sa(dp2453
g7
S'c6'
p2454
sa(dp2455
g7
S'c7'
p2456
sa(dp2457
g7
S'c8'
p2458
sa(dp2459
g7
S'd1'
p2460
sa(dp2461
g7
S'd2'
p2462
sa(dp2463
g7
S'd3'
p2464
sa(dp2465
g5
S'white_pawn'
p2466
sg7
S'd4'
p2467
sa(dp2468
g5
S'white_bishop'
p2469
sg7
S'd5'
p2470
sa(dp2471
g5
S'black_pawn'
p2472
sg7
S'd6'
p2473
sa(dp2474
g7
S'd7'
p2475
sa(dp2476
g5
S'black_knight'
p2477
sg7
S'd8'
p2478
sa(dp2479
g7
S'e1'
p2480
sa(dp2481
g7
S'e2'
p2482
sa(dp2483
g7
S'e3'
p2484
sa(dp2485
g7
S'e4'
p2486
sa(dp2487
g5
S'white_pawn'
p2488
sg7
S'e5'
p2489
sa(dp2490
g7
S'e6'
p2491
sa(dp2492
g5
S'black_bishop'
p2493
sg7
S'e7'
p2494
sa(dp2495
g5
S'black_queen'
p2496
sg7
S'e8'
p2497
sa(dp2498
g5
S'white_rook'
p2499
sg7
S'f1'
p2500
sa(dp2501
g7
S'f2'
p2502
sa(dp2503
g5
S'white_queen'
p2504
sg7
S'f3'
p2505
sa(dp2506
g5
S'white_pawn'
p2507
sg7
S'f4'
p2508
sa(dp2509
g7
S'f5'
p2510
sa(dp2511
g7
S'f6'
p2512
sa(dp2513
g7
S'f7'
p2514
sa(dp2515
g5
S'black_rook'
p2516
sg7
S'f8'
p2517
sa(dp2518
g7
S'g1'
p2519
sa(dp2520
g7
S'g2'
p2521
sa(dp2522
g5
S'white_pawn'
p2523
sg7
S'g3'
p2524
sa(dp2525
g7
S'g4'
p2526
sa(dp2527
g7
S'g5'
p2528
sa(dp2529
g7
S'g6'
p2530
sa(dp2531
g5
S'black_rook'
p2532
sg7
S'g7'
p2533
sa(dp2534
g7
S'g8'
p2535
sa(dp2536
g7
S'h1'
p2537
sa(dp2538
g7
S'h2'
p2539
sa(dp2540
g5
S'white_king'
p2541
sg7
S'h3'
p2542
sa(dp2543
g7
S'h4'
p2544
sa(dp2545
g7
S'h5'
p2546
sa(dp2547
g5
S'black_pawn'
p2548
sg7
S'h6'
p2549
sa(dp2550
g7
S'h7'
p2551
sa(dp2552
g5
S'black_king'
p2553
sg7
S'h8'
p2554
saaVWasn't sure about this move.  It's pointless when you've already got a k-side attack and initiative is so important.  Anyway, computer doesn't like it but he played in to it so he was obviously distracted by it.  Mission accomplished.
p2555
aa(lp2556
S'35... cxb3 36. axb3 Nf7'
p2557
a(lp2558
(dp2559
g7
S'a1'
p2560
sa(dp2561
g7
S'a2'
p2562
sa(dp2563
g7
S'a3'
p2564
sa(dp2565
g7
S'a4'
p2566
sa(dp2567
g7
S'a5'
p2568
sa(dp2569
g5
S'black_pawn'
p2570
sg7
S'a6'
p2571
sa(dp2572
g7
S'a7'
p2573
sa(dp2574
g7
S'a8'
p2575
sa(dp2576
g7
S'b1'
p2577
sa(dp2578
g7
S'b2'
p2579
sa(dp2580
g5
S'white_pawn'
p2581
sg7
S'b3'
p2582
sa(dp2583
g7
S'b4'
p2584
sa(dp2585
g5
S'black_pawn'
p2586
sg7
S'b5'
p2587
sa(dp2588
g7
S'b6'
p2589
sa(dp2590
g7
S'b7'
p2591
sa(dp2592
g7
S'b8'
p2593
sa(dp2594
g5
S'white_rook'
p2595
sg7
S'c1'
p2596
sa(dp2597
g7
S'c2'
p2598
sa(dp2599
g5
S'white_pawn'
p2600
sg7
S'c3'
p2601
sa(dp2602
g7
S'c4'
p2603
sa(dp2604
g7
S'c5'
p2605
sa(dp2606
g7
S'c6'
p2607
sa(dp2608
g7
S'c7'
p2609
sa(dp2610
g7
S'c8'
p2611
sa(dp2612
g7
S'd1'
p2613
sa(dp2614
g7
S'd2'
p2615
sa(dp2616
g7
S'd3'
p2617
sa(dp2618
g5
S'white_pawn'
p2619
sg7
S'd4'
p2620
sa(dp2621
g5
S'white_bishop'
p2622
sg7
S'd5'
p2623
sa(dp2624
g5
S'black_pawn'
p2625
sg7
S'd6'
p2626
sa(dp2627
g7
S'd7'
p2628
sa(dp2629
g7
S'd8'
p2630
sa(dp2631
g7
S'e1'
p2632
sa(dp2633
g7
S'e2'
p2634
sa(dp2635
g7
S'e3'
p2636
sa(dp2637
g7
S'e4'
p2638
sa(dp2639
g5
S'white_pawn'
p2640
sg7
S'e5'
p2641
sa(dp2642
g7
S'e6'
p2643
sa(dp2644
g5
S'black_bishop'
p2645
sg7
S'e7'
p2646
sa(dp2647
g5
S'black_queen'
p2648
sg7
S'e8'
p2649
sa(dp2650
g5
S'white_rook'
p2651
sg7
S'f1'
p2652
sa(dp2653
g7
S'f2'
p2654
sa(dp2655
g5
S'white_queen'
p2656
sg7
S'f3'
p2657
sa(dp2658
g5
S'white_pawn'
p2659
sg7
S'f4'
p2660
sa(dp2661
g7
S'f5'
p2662
sa(dp2663
g7
S'f6'
p2664
sa(dp2665
g5
S'black_knight'
p2666
sg7
S'f7'
p2667
sa(dp2668
g5
S'black_rook'
p2669
sg7
S'f8'
p2670
sa(dp2671
g7
S'g1'
p2672
sa(dp2673
g7
S'g2'
p2674
sa(dp2675
g5
S'white_pawn'
p2676
sg7
S'g3'
p2677
sa(dp2678
g7
S'g4'
p2679
sa(dp2680
g7
S'g5'
p2681
sa(dp2682
g7
S'g6'
p2683
sa(dp2684
g5
S'black_rook'
p2685
sg7
S'g7'
p2686
sa(dp2687
g7
S'g8'
p2688
sa(dp2689
g7
S'h1'
p2690
sa(dp2691
g7
S'h2'
p2692
sa(dp2693
g5
S'white_king'
p2694
sg7
S'h3'
p2695
sa(dp2696
g7
S'h4'
p2697
sa(dp2698
g7
S'h5'
p2699
sa(dp2700
g5
S'black_pawn'
p2701
sg7
S'h6'
p2702
sa(dp2703
g7
S'h7'
p2704
sa(dp2705
g5
S'black_king'
p2706
sg7
S'h8'
p2707
saaV!  Sets up a possible fork on g5.  In hind-sight I should have taken his N sooner.
p2708
aa(lp2709
S'37. b4 dxe5 38. Bxf7'
p2710
a(lp2711
(dp2712
g7
S'a1'
p2713
sa(dp2714
g7
S'a2'
p2715
sa(dp2716
g7
S'a3'
p2717
sa(dp2718
g7
S'a4'
p2719
sa(dp2720
g7
S'a5'
p2721
sa(dp2722
g5
S'black_pawn'
p2723
sg7
S'a6'
p2724
sa(dp2725
g7
S'a7'
p2726
sa(dp2727
g7
S'a8'
p2728
sa(dp2729
g7
S'b1'
p2730
sa(dp2731
g7
S'b2'
p2732
sa(dp2733
g7
S'b3'
p2734
sa(dp2735
g5
S'white_pawn'
p2736
sg7
S'b4'
p2737
sa(dp2738
g5
S'black_pawn'
p2739
sg7
S'b5'
p2740
sa(dp2741
g7
S'b6'
p2742
sa(dp2743
g7
S'b7'
p2744
sa(dp2745
g7
S'b8'
p2746
sa(dp2747
g5
S'white_rook'
p2748
sg7
S'c1'
p2749
sa(dp2750
g7
S'c2'
p2751
sa(dp2752
g5
S'white_pawn'
p2753
sg7
S'c3'
p2754
sa(dp2755
g7
S'c4'
p2756
sa(dp2757
g7
S'c5'
p2758
sa(dp2759
g7
S'c6'
p2760
sa(dp2761
g7
S'c7'
p2762
sa(dp2763
g7
S'c8'
p2764
sa(dp2765
g7
S'd1'
p2766
sa(dp2767
g7
S'd2'
p2768
sa(dp2769
g7
S'd3'
p2770
sa(dp2771
g5
S'white_pawn'
p2772
sg7
S'd4'
p2773
sa(dp2774
g7
S'd5'
p2775
sa(dp2776
g7
S'd6'
p2777
sa(dp2778
g7
S'd7'
p2779
sa(dp2780
g7
S'd8'
p2781
sa(dp2782
g7
S'e1'
p2783
sa(dp2784
g7
S'e2'
p2785
sa(dp2786
g7
S'e3'
p2787
sa(dp2788
g7
S'e4'
p2789
sa(dp2790
g5
S'black_pawn'
p2791
sg7
S'e5'
p2792
sa(dp2793
g7
S'e6'
p2794
sa(dp2795
g5
S'black_bishop'
p2796
sg7
S'e7'
p2797
sa(dp2798
g5
S'black_queen'
p2799
sg7
S'e8'
p2800
sa(dp2801
g5
S'white_rook'
p2802
sg7
S'f1'
p2803
sa(dp2804
g7
S'f2'
p2805
sa(dp2806
g5
S'white_queen'
p2807
sg7
S'f3'
p2808
sa(dp2809
g5
S'white_pawn'
p2810
sg7
S'f4'
p2811
sa(dp2812
g7
S'f5'
p2813
sa(dp2814
g7
S'f6'
p2815
sa(dp2816
g5
S'white_bishop'
p2817
sg7
S'f7'
p2818
sa(dp2819
g5
S'black_rook'
p2820
sg7
S'f8'
p2821
sa(dp2822
g7
S'g1'
p2823
sa(dp2824
g7
S'g2'
p2825
sa(dp2826
g5
S'white_pawn'
p2827
sg7
S'g3'
p2828
sa(dp2829
g7
S'g4'
p2830
sa(dp2831
g7
S'g5'
p2832
sa(dp2833
g7
S'g6'
p2834
sa(dp2835
g5
S'black_rook'
p2836
sg7
S'g7'
p2837
sa(dp2838
g7
S'g8'
p2839
sa(dp2840
g7
S'h1'
p2841
sa(dp2842
g7
S'h2'
p2843
sa(dp2844
g5
S'white_king'
p2845
sg7
S'h3'
p2846
sa(dp2847
g7
S'h4'
p2848
sa(dp2849
g7
S'h5'
p2850
sa(dp2851
g5
S'black_pawn'
p2852
sg7
S'h6'
p2853
sa(dp2854
g7
S'h7'
p2855
sa(dp2856
g5
S'black_king'
p2857
sg7
S'h8'
p2858
saaVNot dxe5 because 38...Ng5+!! is an obvious fork but also initiates a discovered attack on my Q if I reply with the natural fxg5.  Also watch that his h-pawn is doing absolutely nothing.
p2859
aa(lp2860
S'38... Rfxf7 39. dxe5 Bf8 40. Rcd1 Qe6+ 41. Kh2 Qf5 42. Rd8 Qc2+ 43. Rf2 Qb3'
p2861
a(lp2862
(dp2863
g7
S'a1'
p2864
sa(dp2865
g7
S'a2'
p2866
sa(dp2867
g7
S'a3'
p2868
sa(dp2869
g7
S'a4'
p2870
sa(dp2871
g7
S'a5'
p2872
sa(dp2873
g5
S'black_pawn'
p2874
sg7
S'a6'
p2875
sa(dp2876
g7
S'a7'
p2877
sa(dp2878
g7
S'a8'
p2879
sa(dp2880
g7
S'b1'
p2881
sa(dp2882
g7
S'b2'
p2883
sa(dp2884
g5
S'black_queen'
p2885
sg7
S'b3'
p2886
sa(dp2887
g5
S'white_pawn'
p2888
sg7
S'b4'
p2889
sa(dp2890
g5
S'black_pawn'
p2891
sg7
S'b5'
p2892
sa(dp2893
g7
S'b6'
p2894
sa(dp2895
g7
S'b7'
p2896
sa(dp2897
g7
S'b8'
p2898
sa(dp2899
g7
S'c1'
p2900
sa(dp2901
g7
S'c2'
p2902
sa(dp2903
g5
S'white_pawn'
p2904
sg7
S'c3'
p2905
sa(dp2906
g7
S'c4'
p2907
sa(dp2908
g7
S'c5'
p2909
sa(dp2910
g7
S'c6'
p2911
sa(dp2912
g7
S'c7'
p2913
sa(dp2914
g7
S'c8'
p2915
sa(dp2916
g7
S'd1'
p2917
sa(dp2918
g7
S'd2'
p2919
sa(dp2920
g7
S'd3'
p2921
sa(dp2922
g7
S'd4'
p2923
sa(dp2924
g7
S'd5'
p2925
sa(dp2926
g7
S'd6'
p2927
sa(dp2928
g7
S'd7'
p2929
sa(dp2930
g5
S'white_rook'
p2931
sg7
S'd8'
p2932
sa(dp2933
g7
S'e1'
p2934
sa(dp2935
g7
S'e2'
p2936
sa(dp2937
g7
S'e3'
p2938
sa(dp2939
g7
S'e4'
p2940
sa(dp2941
g5
S'white_pawn'
p2942
sg7
S'e5'
p2943
sa(dp2944
g7
S'e6'
p2945
sa(dp2946
g7
S'e7'
p2947
sa(dp2948
g7
S'e8'
p2949
sa(dp2950
g7
S'f1'
p2951
sa(dp2952
g5
S'white_rook'
p2953
sg7
S'f2'
p2954
sa(dp2955
g5
S'white_queen'
p2956
sg7
S'f3'
p2957
sa(dp2958
g5
S'white_pawn'
p2959
sg7
S'f4'
p2960
sa(dp2961
g7
S'f5'
p2962
sa(dp2963
g7
S'f6'
p2964
sa(dp2965
g5
S'black_rook'
p2966
sg7
S'f7'
p2967
sa(dp2968
g5
S'black_bishop'
p2969
sg7
S'f8'
p2970
sa(dp2971
g7
S'g1'
p2972
sa(dp2973
g7
S'g2'
p2974
sa(dp2975
g5
S'white_pawn'
p2976
sg7
S'g3'
p2977
sa(dp2978
g7
S'g4'
p2979
sa(dp2980
g7
S'g5'
p2981
sa(dp2982
g7
S'g6'
p2983
sa(dp2984
g5
S'black_rook'
p2985
sg7
S'g7'
p2986
sa(dp2987
g7
S'g8'
p2988
sa(dp2989
g7
S'h1'
p2990
sa(dp2991
g5
S'white_king'
p2992
sg7
S'h2'
p2993
sa(dp2994
g7
S'h3'
p2995
sa(dp2996
g7
S'h4'
p2997
sa(dp2998
g7
S'h5'
p2999
sa(dp3000
g5
S'black_pawn'
p3001
sg7
S'h6'
p3002
sa(dp3003
g7
S'h7'
p3004
sa(dp3005
g5
S'black_king'
p3006
sg7
S'h8'
p3007
saaV?  Takes his Q out of action.  Computer says clear advantage white and he never recovers.
p3008
aa(lp3009
S'44. f5 Kg8 45. Rxf8+'
p3010
a(lp3011
(dp3012
g7
S'a1'
p3013
sa(dp3014
g7
S'a2'
p3015
sa(dp3016
g7
S'a3'
p3017
sa(dp3018
g7
S'a4'
p3019
sa(dp3020
g7
S'a5'
p3021
sa(dp3022
g5
S'black_pawn'
p3023
sg7
S'a6'
p3024
sa(dp3025
g7
S'a7'
p3026
sa(dp3027
g7
S'a8'
p3028
sa(dp3029
g7
S'b1'
p3030
sa(dp3031
g7
S'b2'
p3032
sa(dp3033
g5
S'black_queen'
p3034
sg7
S'b3'
p3035
sa(dp3036
g5
S'white_pawn'
p3037
sg7
S'b4'
p3038
sa(dp3039
g5
S'black_pawn'
p3040
sg7
S'b5'
p3041
sa(dp3042
g7
S'b6'
p3043
sa(dp3044
g7
S'b7'
p3045
sa(dp3046
g7
S'b8'
p3047
sa(dp3048
g7
S'c1'
p3049
sa(dp3050
g7
S'c2'
p3051
sa(dp3052
g5
S'white_pawn'
p3053
sg7
S'c3'
p3054
sa(dp3055
g7
S'c4'
p3056
sa(dp3057
g7
S'c5'
p3058
sa(dp3059
g7
S'c6'
p3060
sa(dp3061
g7
S'c7'
p3062
sa(dp3063
g7
S'c8'
p3064
sa(dp3065
g7
S'd1'
p3066
sa(dp3067
g7
S'd2'
p3068
sa(dp3069
g7
S'd3'
p3070
sa(dp3071
g7
S'd4'
p3072
sa(dp3073
g7
S'd5'
p3074
sa(dp3075
g7
S'd6'
p3076
sa(dp3077
g7
S'd7'
p3078
sa(dp3079
g7
S'd8'
p3080
sa(dp3081
g7
S'e1'
p3082
sa(dp3083
g7
S'e2'
p3084
sa(dp3085
g7
S'e3'
p3086
sa(dp3087
g7
S'e4'
p3088
sa(dp3089
g5
S'white_pawn'
p3090
sg7
S'e5'
p3091
sa(dp3092
g7
S'e6'
p3093
sa(dp3094
g7
S'e7'
p3095
sa(dp3096
g7
S'e8'
p3097
sa(dp3098
g7
S'f1'
p3099
sa(dp3100
g5
S'white_rook'
p3101
sg7
S'f2'
p3102
sa(dp3103
g5
S'white_queen'
p3104
sg7
S'f3'
p3105
sa(dp3106
g7
S'f4'
p3107
sa(dp3108
g5
S'white_pawn'
p3109
sg7
S'f5'
p3110
sa(dp3111
g7
S'f6'
p3112
sa(dp3113
g5
S'black_rook'
p3114
sg7
S'f7'
p3115
sa(dp3116
g5
S'white_rook'
p3117
sg7
S'f8'
p3118
sa(dp3119
g7
S'g1'
p3120
sa(dp3121
g7
S'g2'
p3122
sa(dp3123
g5
S'white_pawn'
p3124
sg7
S'g3'
p3125
sa(dp3126
g7
S'g4'
p3127
sa(dp3128
g7
S'g5'
p3129
sa(dp3130
g7
S'g6'
p3131
sa(dp3132
g5
S'black_rook'
p3133
sg7
S'g7'
p3134
sa(dp3135
g5
S'black_king'
p3136
sg7
S'g8'
p3137
sa(dp3138
g7
S'h1'
p3139
sa(dp3140
g5
S'white_king'
p3141
sg7
S'h2'
p3142
sa(dp3143
g7
S'h3'
p3144
sa(dp3145
g7
S'h4'
p3146
sa(dp3147
g7
S'h5'
p3148
sa(dp3149
g5
S'black_pawn'
p3150
sg7
S'h6'
p3151
sa(dp3152
g7
S'h7'
p3153
sa(dp3154
g7
S'h8'
p3155
saaVAnalyze this.  Trying to smother his K but the simple pawn advance would have been quicker and still keep that R so inaccurate.  But he makes a few mistakes and I capitalize.  He who makes the last mistake loses lol.  The position begged for certain tactics that reminded me of those puzzles that I loath.  But I guess they pay off.
p3156
aa.