(lp0
(lp1
S'13... e6'
p2
a(lp3
(dp4
S'location'
p5
S'a1'
p6
sa(dp7
S'piece'
p8
S'white_pawn'
p9
sg5
S'a2'
p10
sa(dp11
g5
S'a3'
p12
sa(dp13
g5
S'a4'
p14
sa(dp15
g5
S'a5'
p16
sa(dp17
g5
S'a6'
p18
sa(dp19
g8
S'black_pawn'
p20
sg5
S'a7'
p21
sa(dp22
g8
S'black_rook'
p23
sg5
S'a8'
p24
sa(dp25
g5
S'b1'
p26
sa(dp27
g8
S'white_pawn'
p28
sg5
S'b2'
p29
sa(dp30
g5
S'b3'
p31
sa(dp32
g5
S'b4'
p33
sa(dp34
g5
S'b5'
p35
sa(dp36
g5
S'b6'
p37
sa(dp38
g8
S'black_pawn'
p39
sg5
S'b7'
p40
sa(dp41
g5
S'b8'
p42
sa(dp43
g8
S'white_king'
p44
sg5
S'c1'
p45
sa(dp46
g8
S'white_pawn'
p47
sg5
S'c2'
p48
sa(dp49
g5
S'c3'
p50
sa(dp51
g5
S'c4'
p52
sa(dp53
g5
S'c5'
p54
sa(dp55
g8
S'black_pawn'
p56
sg5
S'c6'
p57
sa(dp58
g5
S'c7'
p59
sa(dp60
g5
S'c8'
p61
sa(dp62
g8
S'white_rook'
p63
sg5
S'd1'
p64
sa(dp65
g8
S'white_bishop'
p66
sg5
S'd2'
p67
sa(dp68
g8
S'white_queen'
p69
sg5
S'd3'
p70
sa(dp71
g8
S'white_pawn'
p72
sg5
S'd4'
p73
sa(dp74
g8
S'black_knight'
p75
sg5
S'd5'
p76
sa(dp77
g5
S'd6'
p78
sa(dp79
g5
S'd7'
p80
sa(dp81
g8
S'black_queen'
p82
sg5
S'd8'
p83
sa(dp84
g5
S'e1'
p85
sa(dp86
g5
S'e2'
p87
sa(dp88
g5
S'e3'
p89
sa(dp90
g5
S'e4'
p91
sa(dp92
g5
S'e5'
p93
sa(dp94
g8
S'black_pawn'
p95
sg5
S'e6'
p96
sa(dp97
g5
S'e7'
p98
sa(dp99
g8
S'black_king'
p100
sg5
S'e8'
p101
sa(dp102
g5
S'f1'
p103
sa(dp104
g8
S'white_pawn'
p105
sg5
S'f2'
p106
sa(dp107
g8
S'white_knight'
p108
sg5
S'f3'
p109
sa(dp110
g5
S'f4'
p111
sa(dp112
g5
S'f5'
p113
sa(dp114
g8
S'black_knight'
p115
sg5
S'f6'
p116
sa(dp117
g8
S'black_pawn'
p118
sg5
S'f7'
p119
sa(dp120
g8
S'black_bishop'
p121
sg5
S'f8'
p122
sa(dp123
g5
S'g1'
p124
sa(dp125
g8
S'white_pawn'
p126
sg5
S'g2'
p127
sa(dp128
g8
S'white_knight'
p129
sg5
S'g3'
p130
sa(dp131
g5
S'g4'
p132
sa(dp133
g5
S'g5'
p134
sa(dp135
g5
S'g6'
p136
sa(dp137
g8
S'black_pawn'
p138
sg5
S'g7'
p139
sa(dp140
g5
S'g8'
p141
sa(dp142
g8
S'white_rook'
p143
sg5
S'h1'
p144
sa(dp145
g5
S'h2'
p146
sa(dp147
g5
S'h3'
p148
sa(dp149
g5
S'h4'
p150
sa(dp151
g8
S'white_pawn'
p152
sg5
S'h5'
p153
sa(dp154
g8
S'black_pawn'
p155
sg5
S'h6'
p156
sa(dp157
g5
S'h7'
p158
sa(dp159
g8
S'black_rook'
p160
sg5
S'h8'
p161
saaV[!]  Blunting the c2-c4 thrust as 14.c4 Nb4! is now possible, disrupting White.  
p162
aa(lp163
S'14. Rhe1 Bd6'
p164
a(lp165
(dp166
g5
S'a1'
p167
sa(dp168
g8
S'white_pawn'
p169
sg5
S'a2'
p170
sa(dp171
g5
S'a3'
p172
sa(dp173
g5
S'a4'
p174
sa(dp175
g5
S'a5'
p176
sa(dp177
g5
S'a6'
p178
sa(dp179
g8
S'black_pawn'
p180
sg5
S'a7'
p181
sa(dp182
g8
S'black_rook'
p183
sg5
S'a8'
p184
sa(dp185
g5
S'b1'
p186
sa(dp187
g8
S'white_pawn'
p188
sg5
S'b2'
p189
sa(dp190
g5
S'b3'
p191
sa(dp192
g5
S'b4'
p193
sa(dp194
g5
S'b5'
p195
sa(dp196
g5
S'b6'
p197
sa(dp198
g8
S'black_pawn'
p199
sg5
S'b7'
p200
sa(dp201
g5
S'b8'
p202
sa(dp203
g8
S'white_king'
p204
sg5
S'c1'
p205
sa(dp206
g8
S'white_pawn'
p207
sg5
S'c2'
p208
sa(dp209
g5
S'c3'
p210
sa(dp211
g5
S'c4'
p212
sa(dp213
g5
S'c5'
p214
sa(dp215
g8
S'black_pawn'
p216
sg5
S'c6'
p217
sa(dp218
g5
S'c7'
p219
sa(dp220
g5
S'c8'
p221
sa(dp222
g8
S'white_rook'
p223
sg5
S'd1'
p224
sa(dp225
g8
S'white_bishop'
p226
sg5
S'd2'
p227
sa(dp228
g8
S'white_queen'
p229
sg5
S'd3'
p230
sa(dp231
g8
S'white_pawn'
p232
sg5
S'd4'
p233
sa(dp234
g8
S'black_knight'
p235
sg5
S'd5'
p236
sa(dp237
g8
S'black_bishop'
p238
sg5
S'd6'
p239
sa(dp240
g5
S'd7'
p241
sa(dp242
g8
S'black_queen'
p243
sg5
S'd8'
p244
sa(dp245
g8
S'white_rook'
p246
sg5
S'e1'
p247
sa(dp248
g5
S'e2'
p249
sa(dp250
g5
S'e3'
p251
sa(dp252
g5
S'e4'
p253
sa(dp254
g5
S'e5'
p255
sa(dp256
g8
S'black_pawn'
p257
sg5
S'e6'
p258
sa(dp259
g5
S'e7'
p260
sa(dp261
g8
S'black_king'
p262
sg5
S'e8'
p263
sa(dp264
g5
S'f1'
p265
sa(dp266
g8
S'white_pawn'
p267
sg5
S'f2'
p268
sa(dp269
g8
S'white_knight'
p270
sg5
S'f3'
p271
sa(dp272
g5
S'f4'
p273
sa(dp274
g5
S'f5'
p275
sa(dp276
g8
S'black_knight'
p277
sg5
S'f6'
p278
sa(dp279
g8
S'black_pawn'
p280
sg5
S'f7'
p281
sa(dp282
g5
S'f8'
p283
sa(dp284
g5
S'g1'
p285
sa(dp286
g8
S'white_pawn'
p287
sg5
S'g2'
p288
sa(dp289
g8
S'white_knight'
p290
sg5
S'g3'
p291
sa(dp292
g5
S'g4'
p293
sa(dp294
g5
S'g5'
p295
sa(dp296
g5
S'g6'
p297
sa(dp298
g8
S'black_pawn'
p299
sg5
S'g7'
p300
sa(dp301
g5
S'g8'
p302
sa(dp303
g5
S'h1'
p304
sa(dp305
g5
S'h2'
p306
sa(dp307
g5
S'h3'
p308
sa(dp309
g5
S'h4'
p310
sa(dp311
g8
S'white_pawn'
p312
sg5
S'h5'
p313
sa(dp314
g8
S'black_pawn'
p315
sg5
S'h6'
p316
sa(dp317
g5
S'h7'
p318
sa(dp319
g8
S'black_rook'
p320
sg5
S'h8'
p321
saaVWhite is fully mobilised (developed); Black very nearly so.  There doesn't seem to be much in it, eh?  But White does have a move that might have occasioned Black something of a headache...
p322
aa(lp323
S'15. Ne5'
p324
a(lp325
(dp326
g5
S'a1'
p327
sa(dp328
g8
S'white_pawn'
p329
sg5
S'a2'
p330
sa(dp331
g5
S'a3'
p332
sa(dp333
g5
S'a4'
p334
sa(dp335
g5
S'a5'
p336
sa(dp337
g5
S'a6'
p338
sa(dp339
g8
S'black_pawn'
p340
sg5
S'a7'
p341
sa(dp342
g8
S'black_rook'
p343
sg5
S'a8'
p344
sa(dp345
g5
S'b1'
p346
sa(dp347
g8
S'white_pawn'
p348
sg5
S'b2'
p349
sa(dp350
g5
S'b3'
p351
sa(dp352
g5
S'b4'
p353
sa(dp354
g5
S'b5'
p355
sa(dp356
g5
S'b6'
p357
sa(dp358
g8
S'black_pawn'
p359
sg5
S'b7'
p360
sa(dp361
g5
S'b8'
p362
sa(dp363
g8
S'white_king'
p364
sg5
S'c1'
p365
sa(dp366
g8
S'white_pawn'
p367
sg5
S'c2'
p368
sa(dp369
g5
S'c3'
p370
sa(dp371
g5
S'c4'
p372
sa(dp373
g5
S'c5'
p374
sa(dp375
g8
S'black_pawn'
p376
sg5
S'c6'
p377
sa(dp378
g5
S'c7'
p379
sa(dp380
g5
S'c8'
p381
sa(dp382
g8
S'white_rook'
p383
sg5
S'd1'
p384
sa(dp385
g8
S'white_bishop'
p386
sg5
S'd2'
p387
sa(dp388
g8
S'white_queen'
p389
sg5
S'd3'
p390
sa(dp391
g8
S'white_pawn'
p392
sg5
S'd4'
p393
sa(dp394
g8
S'black_knight'
p395
sg5
S'd5'
p396
sa(dp397
g8
S'black_bishop'
p398
sg5
S'd6'
p399
sa(dp400
g5
S'd7'
p401
sa(dp402
g8
S'black_queen'
p403
sg5
S'd8'
p404
sa(dp405
g8
S'white_rook'
p406
sg5
S'e1'
p407
sa(dp408
g5
S'e2'
p409
sa(dp410
g5
S'e3'
p411
sa(dp412
g5
S'e4'
p413
sa(dp414
g8
S'white_knight'
p415
sg5
S'e5'
p416
sa(dp417
g8
S'black_pawn'
p418
sg5
S'e6'
p419
sa(dp420
g5
S'e7'
p421
sa(dp422
g8
S'black_king'
p423
sg5
S'e8'
p424
sa(dp425
g5
S'f1'
p426
sa(dp427
g8
S'white_pawn'
p428
sg5
S'f2'
p429
sa(dp430
g5
S'f3'
p431
sa(dp432
g5
S'f4'
p433
sa(dp434
g5
S'f5'
p435
sa(dp436
g8
S'black_knight'
p437
sg5
S'f6'
p438
sa(dp439
g8
S'black_pawn'
p440
sg5
S'f7'
p441
sa(dp442
g5
S'f8'
p443
sa(dp444
g5
S'g1'
p445
sa(dp446
g8
S'white_pawn'
p447
sg5
S'g2'
p448
sa(dp449
g8
S'white_knight'
p450
sg5
S'g3'
p451
sa(dp452
g5
S'g4'
p453
sa(dp454
g5
S'g5'
p455
sa(dp456
g5
S'g6'
p457
sa(dp458
g8
S'black_pawn'
p459
sg5
S'g7'
p460
sa(dp461
g5
S'g8'
p462
sa(dp463
g5
S'h1'
p464
sa(dp465
g5
S'h2'
p466
sa(dp467
g5
S'h3'
p468
sa(dp469
g5
S'h4'
p470
sa(dp471
g8
S'white_pawn'
p472
sg5
S'h5'
p473
sa(dp474
g8
S'black_pawn'
p475
sg5
S'h6'
p476
sa(dp477
g5
S'h7'
p478
sa(dp479
g8
S'black_rook'
p480
sg5
S'h8'
p481
saaV[?!] This isn't it, though it's an OK move.  Instead 15.Nf5!  attacking the g-pawn and threatening the bishop would have placed Black in some difficulty.  Could he contemplate undeveloping the bishop (...Bf8)?  The line is extremely complicated and hard to see: 15.Nf5! Nh5!  16.g4! ... (16.Nxd6 would be OK if White was prepared to settle for a game little more than equal) 16...Nf4! 17.Qb3!  ... The string of fine, unexpected, moves leaves White attacking b7 and g7, and still with the c4 thrust to consider.  However unclear and murky the position arising from 15.Nf5, I reckon White must have had an edge.
p482
aa(lp483
S'15... Qc7'
p484
a(lp485
(dp486
g5
S'a1'
p487
sa(dp488
g8
S'white_pawn'
p489
sg5
S'a2'
p490
sa(dp491
g5
S'a3'
p492
sa(dp493
g5
S'a4'
p494
sa(dp495
g5
S'a5'
p496
sa(dp497
g5
S'a6'
p498
sa(dp499
g8
S'black_pawn'
p500
sg5
S'a7'
p501
sa(dp502
g8
S'black_rook'
p503
sg5
S'a8'
p504
sa(dp505
g5
S'b1'
p506
sa(dp507
g8
S'white_pawn'
p508
sg5
S'b2'
p509
sa(dp510
g5
S'b3'
p511
sa(dp512
g5
S'b4'
p513
sa(dp514
g5
S'b5'
p515
sa(dp516
g5
S'b6'
p517
sa(dp518
g8
S'black_pawn'
p519
sg5
S'b7'
p520
sa(dp521
g5
S'b8'
p522
sa(dp523
g8
S'white_king'
p524
sg5
S'c1'
p525
sa(dp526
g8
S'white_pawn'
p527
sg5
S'c2'
p528
sa(dp529
g5
S'c3'
p530
sa(dp531
g5
S'c4'
p532
sa(dp533
g5
S'c5'
p534
sa(dp535
g8
S'black_pawn'
p536
sg5
S'c6'
p537
sa(dp538
g8
S'black_queen'
p539
sg5
S'c7'
p540
sa(dp541
g5
S'c8'
p542
sa(dp543
g8
S'white_rook'
p544
sg5
S'd1'
p545
sa(dp546
g8
S'white_bishop'
p547
sg5
S'd2'
p548
sa(dp549
g8
S'white_queen'
p550
sg5
S'd3'
p551
sa(dp552
g8
S'white_pawn'
p553
sg5
S'd4'
p554
sa(dp555
g8
S'black_knight'
p556
sg5
S'd5'
p557
sa(dp558
g8
S'black_bishop'
p559
sg5
S'd6'
p560
sa(dp561
g5
S'd7'
p562
sa(dp563
g5
S'd8'
p564
sa(dp565
g8
S'white_rook'
p566
sg5
S'e1'
p567
sa(dp568
g5
S'e2'
p569
sa(dp570
g5
S'e3'
p571
sa(dp572
g5
S'e4'
p573
sa(dp574
g8
S'white_knight'
p575
sg5
S'e5'
p576
sa(dp577
g8
S'black_pawn'
p578
sg5
S'e6'
p579
sa(dp580
g5
S'e7'
p581
sa(dp582
g8
S'black_king'
p583
sg5
S'e8'
p584
sa(dp585
g5
S'f1'
p586
sa(dp587
g8
S'white_pawn'
p588
sg5
S'f2'
p589
sa(dp590
g5
S'f3'
p591
sa(dp592
g5
S'f4'
p593
sa(dp594
g5
S'f5'
p595
sa(dp596
g8
S'black_knight'
p597
sg5
S'f6'
p598
sa(dp599
g8
S'black_pawn'
p600
sg5
S'f7'
p601
sa(dp602
g5
S'f8'
p603
sa(dp604
g5
S'g1'
p605
sa(dp606
g8
S'white_pawn'
p607
sg5
S'g2'
p608
sa(dp609
g8
S'white_knight'
p610
sg5
S'g3'
p611
sa(dp612
g5
S'g4'
p613
sa(dp614
g5
S'g5'
p615
sa(dp616
g5
S'g6'
p617
sa(dp618
g8
S'black_pawn'
p619
sg5
S'g7'
p620
sa(dp621
g5
S'g8'
p622
sa(dp623
g5
S'h1'
p624
sa(dp625
g5
S'h2'
p626
sa(dp627
g5
S'h3'
p628
sa(dp629
g5
S'h4'
p630
sa(dp631
g8
S'white_pawn'
p632
sg5
S'h5'
p633
sa(dp634
g8
S'black_pawn'
p635
sg5
S'h6'
p636
sa(dp637
g5
S'h7'
p638
sa(dp639
g8
S'black_rook'
p640
sg5
S'h8'
p641
saaVCastling K-side came into consideration.  Now that Black has established communications with both his rooks, White has to concern herself about her willingness to commit to one sector at a time when Black can switch his King to somewhere less exciting.
p642
aa(lp643
S'16. Ne4'
p644
a(lp645
(dp646
g5
S'a1'
p647
sa(dp648
g8
S'white_pawn'
p649
sg5
S'a2'
p650
sa(dp651
g5
S'a3'
p652
sa(dp653
g5
S'a4'
p654
sa(dp655
g5
S'a5'
p656
sa(dp657
g5
S'a6'
p658
sa(dp659
g8
S'black_pawn'
p660
sg5
S'a7'
p661
sa(dp662
g8
S'black_rook'
p663
sg5
S'a8'
p664
sa(dp665
g5
S'b1'
p666
sa(dp667
g8
S'white_pawn'
p668
sg5
S'b2'
p669
sa(dp670
g5
S'b3'
p671
sa(dp672
g5
S'b4'
p673
sa(dp674
g5
S'b5'
p675
sa(dp676
g5
S'b6'
p677
sa(dp678
g8
S'black_pawn'
p679
sg5
S'b7'
p680
sa(dp681
g5
S'b8'
p682
sa(dp683
g8
S'white_king'
p684
sg5
S'c1'
p685
sa(dp686
g8
S'white_pawn'
p687
sg5
S'c2'
p688
sa(dp689
g5
S'c3'
p690
sa(dp691
g5
S'c4'
p692
sa(dp693
g5
S'c5'
p694
sa(dp695
g8
S'black_pawn'
p696
sg5
S'c6'
p697
sa(dp698
g8
S'black_queen'
p699
sg5
S'c7'
p700
sa(dp701
g5
S'c8'
p702
sa(dp703
g8
S'white_rook'
p704
sg5
S'd1'
p705
sa(dp706
g8
S'white_bishop'
p707
sg5
S'd2'
p708
sa(dp709
g8
S'white_queen'
p710
sg5
S'd3'
p711
sa(dp712
g8
S'white_pawn'
p713
sg5
S'd4'
p714
sa(dp715
g8
S'black_knight'
p716
sg5
S'd5'
p717
sa(dp718
g8
S'black_bishop'
p719
sg5
S'd6'
p720
sa(dp721
g5
S'd7'
p722
sa(dp723
g5
S'd8'
p724
sa(dp725
g8
S'white_rook'
p726
sg5
S'e1'
p727
sa(dp728
g5
S'e2'
p729
sa(dp730
g5
S'e3'
p731
sa(dp732
g8
S'white_knight'
p733
sg5
S'e4'
p734
sa(dp735
g8
S'white_knight'
p736
sg5
S'e5'
p737
sa(dp738
g8
S'black_pawn'
p739
sg5
S'e6'
p740
sa(dp741
g5
S'e7'
p742
sa(dp743
g8
S'black_king'
p744
sg5
S'e8'
p745
sa(dp746
g5
S'f1'
p747
sa(dp748
g8
S'white_pawn'
p749
sg5
S'f2'
p750
sa(dp751
g5
S'f3'
p752
sa(dp753
g5
S'f4'
p754
sa(dp755
g5
S'f5'
p756
sa(dp757
g8
S'black_knight'
p758
sg5
S'f6'
p759
sa(dp760
g8
S'black_pawn'
p761
sg5
S'f7'
p762
sa(dp763
g5
S'f8'
p764
sa(dp765
g5
S'g1'
p766
sa(dp767
g8
S'white_pawn'
p768
sg5
S'g2'
p769
sa(dp770
g5
S'g3'
p771
sa(dp772
g5
S'g4'
p773
sa(dp774
g5
S'g5'
p775
sa(dp776
g5
S'g6'
p777
sa(dp778
g8
S'black_pawn'
p779
sg5
S'g7'
p780
sa(dp781
g5
S'g8'
p782
sa(dp783
g5
S'h1'
p784
sa(dp785
g5
S'h2'
p786
sa(dp787
g5
S'h3'
p788
sa(dp789
g5
S'h4'
p790
sa(dp791
g8
S'white_pawn'
p792
sg5
S'h5'
p793
sa(dp794
g8
S'black_pawn'
p795
sg5
S'h6'
p796
sa(dp797
g5
S'h7'
p798
sa(dp799
g8
S'black_rook'
p800
sg5
S'h8'
p801
saaVTalk about centralisation!  You can not get pieces more centralised than White's right now.  Even so, I still like 16.c4 here: 16...Ne7  17.c5 Bxe5  18.dxe5 Rd8  19.Qa3, with a White knight likely very soon to come in at d6.
p802
aa(lp803
S'16... Nxh5'
p804
a(lp805
(dp806
g5
S'a1'
p807
sa(dp808
g8
S'white_pawn'
p809
sg5
S'a2'
p810
sa(dp811
g5
S'a3'
p812
sa(dp813
g5
S'a4'
p814
sa(dp815
g5
S'a5'
p816
sa(dp817
g5
S'a6'
p818
sa(dp819
g8
S'black_pawn'
p820
sg5
S'a7'
p821
sa(dp822
g8
S'black_rook'
p823
sg5
S'a8'
p824
sa(dp825
g5
S'b1'
p826
sa(dp827
g8
S'white_pawn'
p828
sg5
S'b2'
p829
sa(dp830
g5
S'b3'
p831
sa(dp832
g5
S'b4'
p833
sa(dp834
g5
S'b5'
p835
sa(dp836
g5
S'b6'
p837
sa(dp838
g8
S'black_pawn'
p839
sg5
S'b7'
p840
sa(dp841
g5
S'b8'
p842
sa(dp843
g8
S'white_king'
p844
sg5
S'c1'
p845
sa(dp846
g8
S'white_pawn'
p847
sg5
S'c2'
p848
sa(dp849
g5
S'c3'
p850
sa(dp851
g5
S'c4'
p852
sa(dp853
g5
S'c5'
p854
sa(dp855
g8
S'black_pawn'
p856
sg5
S'c6'
p857
sa(dp858
g8
S'black_queen'
p859
sg5
S'c7'
p860
sa(dp861
g5
S'c8'
p862
sa(dp863
g8
S'white_rook'
p864
sg5
S'd1'
p865
sa(dp866
g8
S'white_bishop'
p867
sg5
S'd2'
p868
sa(dp869
g8
S'white_queen'
p870
sg5
S'd3'
p871
sa(dp872
g8
S'white_pawn'
p873
sg5
S'd4'
p874
sa(dp875
g8
S'black_knight'
p876
sg5
S'd5'
p877
sa(dp878
g8
S'black_bishop'
p879
sg5
S'd6'
p880
sa(dp881
g5
S'd7'
p882
sa(dp883
g5
S'd8'
p884
sa(dp885
g8
S'white_rook'
p886
sg5
S'e1'
p887
sa(dp888
g5
S'e2'
p889
sa(dp890
g5
S'e3'
p891
sa(dp892
g8
S'white_knight'
p893
sg5
S'e4'
p894
sa(dp895
g8
S'white_knight'
p896
sg5
S'e5'
p897
sa(dp898
g8
S'black_pawn'
p899
sg5
S'e6'
p900
sa(dp901
g5
S'e7'
p902
sa(dp903
g8
S'black_king'
p904
sg5
S'e8'
p905
sa(dp906
g5
S'f1'
p907
sa(dp908
g8
S'white_pawn'
p909
sg5
S'f2'
p910
sa(dp911
g5
S'f3'
p912
sa(dp913
g5
S'f4'
p914
sa(dp915
g5
S'f5'
p916
sa(dp917
g5
S'f6'
p918
sa(dp919
g8
S'black_pawn'
p920
sg5
S'f7'
p921
sa(dp922
g5
S'f8'
p923
sa(dp924
g5
S'g1'
p925
sa(dp926
g8
S'white_pawn'
p927
sg5
S'g2'
p928
sa(dp929
g5
S'g3'
p930
sa(dp931
g5
S'g4'
p932
sa(dp933
g5
S'g5'
p934
sa(dp935
g5
S'g6'
p936
sa(dp937
g8
S'black_pawn'
p938
sg5
S'g7'
p939
sa(dp940
g5
S'g8'
p941
sa(dp942
g5
S'h1'
p943
sa(dp944
g5
S'h2'
p945
sa(dp946
g5
S'h3'
p947
sa(dp948
g5
S'h4'
p949
sa(dp950
g8
S'black_knight'
p951
sg5
S'h5'
p952
sa(dp953
g8
S'black_pawn'
p954
sg5
S'h6'
p955
sa(dp956
g5
S'h7'
p957
sa(dp958
g8
S'black_rook'
p959
sg5
S'h8'
p960
saaVDecentralisation in the face of White's plan looks like a misjudgement.  Possibly Black hoped to unbalance the game, pick up a pawn and trust in the vagaries of blitz play to survive an attack. Maybe.  At any rate, White obtains a small edge.
p961
aa(lp962
S'17. Nxd6+'
p963
a(lp964
(dp965
g5
S'a1'
p966
sa(dp967
g8
S'white_pawn'
p968
sg5
S'a2'
p969
sa(dp970
g5
S'a3'
p971
sa(dp972
g5
S'a4'
p973
sa(dp974
g5
S'a5'
p975
sa(dp976
g5
S'a6'
p977
sa(dp978
g8
S'black_pawn'
p979
sg5
S'a7'
p980
sa(dp981
g8
S'black_rook'
p982
sg5
S'a8'
p983
sa(dp984
g5
S'b1'
p985
sa(dp986
g8
S'white_pawn'
p987
sg5
S'b2'
p988
sa(dp989
g5
S'b3'
p990
sa(dp991
g5
S'b4'
p992
sa(dp993
g5
S'b5'
p994
sa(dp995
g5
S'b6'
p996
sa(dp997
g8
S'black_pawn'
p998
sg5
S'b7'
p999
sa(dp1000
g5
S'b8'
p1001
sa(dp1002
g8
S'white_king'
p1003
sg5
S'c1'
p1004
sa(dp1005
g8
S'white_pawn'
p1006
sg5
S'c2'
p1007
sa(dp1008
g5
S'c3'
p1009
sa(dp1010
g5
S'c4'
p1011
sa(dp1012
g5
S'c5'
p1013
sa(dp1014
g8
S'black_pawn'
p1015
sg5
S'c6'
p1016
sa(dp1017
g8
S'black_queen'
p1018
sg5
S'c7'
p1019
sa(dp1020
g5
S'c8'
p1021
sa(dp1022
g8
S'white_rook'
p1023
sg5
S'd1'
p1024
sa(dp1025
g8
S'white_bishop'
p1026
sg5
S'd2'
p1027
sa(dp1028
g8
S'white_queen'
p1029
sg5
S'd3'
p1030
sa(dp1031
g8
S'white_pawn'
p1032
sg5
S'd4'
p1033
sa(dp1034
g8
S'black_knight'
p1035
sg5
S'd5'
p1036
sa(dp1037
g8
S'white_knight'
p1038
sg5
S'd6'
p1039
sa(dp1040
g5
S'd7'
p1041
sa(dp1042
g5
S'd8'
p1043
sa(dp1044
g8
S'white_rook'
p1045
sg5
S'e1'
p1046
sa(dp1047
g5
S'e2'
p1048
sa(dp1049
g5
S'e3'
p1050
sa(dp1051
g5
S'e4'
p1052
sa(dp1053
g8
S'white_knight'
p1054
sg5
S'e5'
p1055
sa(dp1056
g8
S'black_pawn'
p1057
sg5
S'e6'
p1058
sa(dp1059
g5
S'e7'
p1060
sa(dp1061
g8
S'black_king'
p1062
sg5
S'e8'
p1063
sa(dp1064
g5
S'f1'
p1065
sa(dp1066
g8
S'white_pawn'
p1067
sg5
S'f2'
p1068
sa(dp1069
g5
S'f3'
p1070
sa(dp1071
g5
S'f4'
p1072
sa(dp1073
g5
S'f5'
p1074
sa(dp1075
g5
S'f6'
p1076
sa(dp1077
g8
S'black_pawn'
p1078
sg5
S'f7'
p1079
sa(dp1080
g5
S'f8'
p1081
sa(dp1082
g5
S'g1'
p1083
sa(dp1084
g8
S'white_pawn'
p1085
sg5
S'g2'
p1086
sa(dp1087
g5
S'g3'
p1088
sa(dp1089
g5
S'g4'
p1090
sa(dp1091
g5
S'g5'
p1092
sa(dp1093
g5
S'g6'
p1094
sa(dp1095
g8
S'black_pawn'
p1096
sg5
S'g7'
p1097
sa(dp1098
g5
S'g8'
p1099
sa(dp1100
g5
S'h1'
p1101
sa(dp1102
g5
S'h2'
p1103
sa(dp1104
g5
S'h3'
p1105
sa(dp1106
g5
S'h4'
p1107
sa(dp1108
g8
S'black_knight'
p1109
sg5
S'h5'
p1110
sa(dp1111
g8
S'black_pawn'
p1112
sg5
S'h6'
p1113
sa(dp1114
g5
S'h7'
p1115
sa(dp1116
g8
S'black_rook'
p1117
sg5
S'h8'
p1118
saaV[?!] More forcing would have been 17.c4.   White's game seems to be crying out for this move to be played.  White's game is healthy enough that without it she can still keep Black under constraint.  Yet 17.c4 Ne7 (evidently Black loses the knight after ...Nf6 or ...Nb6)  18. c5 Bxe5  19.dxc5 0-0 20.Nd6 ... led to a fine game for White.
p1119
aa(lp1120
S'17... Qxd6 18. a3'
p1121
a(lp1122
(dp1123
g5
S'a1'
p1124
sa(dp1125
g5
S'a2'
p1126
sa(dp1127
g8
S'white_pawn'
p1128
sg5
S'a3'
p1129
sa(dp1130
g5
S'a4'
p1131
sa(dp1132
g5
S'a5'
p1133
sa(dp1134
g5
S'a6'
p1135
sa(dp1136
g8
S'black_pawn'
p1137
sg5
S'a7'
p1138
sa(dp1139
g8
S'black_rook'
p1140
sg5
S'a8'
p1141
sa(dp1142
g5
S'b1'
p1143
sa(dp1144
g8
S'white_pawn'
p1145
sg5
S'b2'
p1146
sa(dp1147
g5
S'b3'
p1148
sa(dp1149
g5
S'b4'
p1150
sa(dp1151
g5
S'b5'
p1152
sa(dp1153
g5
S'b6'
p1154
sa(dp1155
g8
S'black_pawn'
p1156
sg5
S'b7'
p1157
sa(dp1158
g5
S'b8'
p1159
sa(dp1160
g8
S'white_king'
p1161
sg5
S'c1'
p1162
sa(dp1163
g8
S'white_pawn'
p1164
sg5
S'c2'
p1165
sa(dp1166
g5
S'c3'
p1167
sa(dp1168
g5
S'c4'
p1169
sa(dp1170
g5
S'c5'
p1171
sa(dp1172
g8
S'black_pawn'
p1173
sg5
S'c6'
p1174
sa(dp1175
g5
S'c7'
p1176
sa(dp1177
g5
S'c8'
p1178
sa(dp1179
g8
S'white_rook'
p1180
sg5
S'd1'
p1181
sa(dp1182
g8
S'white_bishop'
p1183
sg5
S'd2'
p1184
sa(dp1185
g8
S'white_queen'
p1186
sg5
S'd3'
p1187
sa(dp1188
g8
S'white_pawn'
p1189
sg5
S'd4'
p1190
sa(dp1191
g8
S'black_knight'
p1192
sg5
S'd5'
p1193
sa(dp1194
g8
S'black_queen'
p1195
sg5
S'd6'
p1196
sa(dp1197
g5
S'd7'
p1198
sa(dp1199
g5
S'd8'
p1200
sa(dp1201
g8
S'white_rook'
p1202
sg5
S'e1'
p1203
sa(dp1204
g5
S'e2'
p1205
sa(dp1206
g5
S'e3'
p1207
sa(dp1208
g5
S'e4'
p1209
sa(dp1210
g8
S'white_knight'
p1211
sg5
S'e5'
p1212
sa(dp1213
g8
S'black_pawn'
p1214
sg5
S'e6'
p1215
sa(dp1216
g5
S'e7'
p1217
sa(dp1218
g8
S'black_king'
p1219
sg5
S'e8'
p1220
sa(dp1221
g5
S'f1'
p1222
sa(dp1223
g8
S'white_pawn'
p1224
sg5
S'f2'
p1225
sa(dp1226
g5
S'f3'
p1227
sa(dp1228
g5
S'f4'
p1229
sa(dp1230
g5
S'f5'
p1231
sa(dp1232
g5
S'f6'
p1233
sa(dp1234
g8
S'black_pawn'
p1235
sg5
S'f7'
p1236
sa(dp1237
g5
S'f8'
p1238
sa(dp1239
g5
S'g1'
p1240
sa(dp1241
g8
S'white_pawn'
p1242
sg5
S'g2'
p1243
sa(dp1244
g5
S'g3'
p1245
sa(dp1246
g5
S'g4'
p1247
sa(dp1248
g5
S'g5'
p1249
sa(dp1250
g5
S'g6'
p1251
sa(dp1252
g8
S'black_pawn'
p1253
sg5
S'g7'
p1254
sa(dp1255
g5
S'g8'
p1256
sa(dp1257
g5
S'h1'
p1258
sa(dp1259
g5
S'h2'
p1260
sa(dp1261
g5
S'h3'
p1262
sa(dp1263
g5
S'h4'
p1264
sa(dp1265
g8
S'black_knight'
p1266
sg5
S'h5'
p1267
sa(dp1268
g8
S'black_pawn'
p1269
sg5
S'h6'
p1270
sa(dp1271
g5
S'h7'
p1272
sa(dp1273
g8
S'black_rook'
p1274
sg5
S'h8'
p1275
saaV'Preparing' c4?  But that oft-mentioned thrust was playable immediately, as 18.c4 Nb4?? 19.Qb3 would be horrible for Black.  Instead of 18.c4, also possible would have been 18.Qf3, with threats against the knight at h5 and the pawn at f7.
p1276
aa(lp1277
S'18... Qc7 19. g4 Nhf6'
p1278
a(lp1279
(dp1280
g5
S'a1'
p1281
sa(dp1282
g5
S'a2'
p1283
sa(dp1284
g8
S'white_pawn'
p1285
sg5
S'a3'
p1286
sa(dp1287
g5
S'a4'
p1288
sa(dp1289
g5
S'a5'
p1290
sa(dp1291
g5
S'a6'
p1292
sa(dp1293
g8
S'black_pawn'
p1294
sg5
S'a7'
p1295
sa(dp1296
g8
S'black_rook'
p1297
sg5
S'a8'
p1298
sa(dp1299
g5
S'b1'
p1300
sa(dp1301
g8
S'white_pawn'
p1302
sg5
S'b2'
p1303
sa(dp1304
g5
S'b3'
p1305
sa(dp1306
g5
S'b4'
p1307
sa(dp1308
g5
S'b5'
p1309
sa(dp1310
g5
S'b6'
p1311
sa(dp1312
g8
S'black_pawn'
p1313
sg5
S'b7'
p1314
sa(dp1315
g5
S'b8'
p1316
sa(dp1317
g8
S'white_king'
p1318
sg5
S'c1'
p1319
sa(dp1320
g8
S'white_pawn'
p1321
sg5
S'c2'
p1322
sa(dp1323
g5
S'c3'
p1324
sa(dp1325
g5
S'c4'
p1326
sa(dp1327
g5
S'c5'
p1328
sa(dp1329
g8
S'black_pawn'
p1330
sg5
S'c6'
p1331
sa(dp1332
g8
S'black_queen'
p1333
sg5
S'c7'
p1334
sa(dp1335
g5
S'c8'
p1336
sa(dp1337
g8
S'white_rook'
p1338
sg5
S'd1'
p1339
sa(dp1340
g8
S'white_bishop'
p1341
sg5
S'd2'
p1342
sa(dp1343
g8
S'white_queen'
p1344
sg5
S'd3'
p1345
sa(dp1346
g8
S'white_pawn'
p1347
sg5
S'd4'
p1348
sa(dp1349
g8
S'black_knight'
p1350
sg5
S'd5'
p1351
sa(dp1352
g5
S'd6'
p1353
sa(dp1354
g5
S'd7'
p1355
sa(dp1356
g5
S'd8'
p1357
sa(dp1358
g8
S'white_rook'
p1359
sg5
S'e1'
p1360
sa(dp1361
g5
S'e2'
p1362
sa(dp1363
g5
S'e3'
p1364
sa(dp1365
g5
S'e4'
p1366
sa(dp1367
g8
S'white_knight'
p1368
sg5
S'e5'
p1369
sa(dp1370
g8
S'black_pawn'
p1371
sg5
S'e6'
p1372
sa(dp1373
g5
S'e7'
p1374
sa(dp1375
g8
S'black_king'
p1376
sg5
S'e8'
p1377
sa(dp1378
g5
S'f1'
p1379
sa(dp1380
g8
S'white_pawn'
p1381
sg5
S'f2'
p1382
sa(dp1383
g5
S'f3'
p1384
sa(dp1385
g5
S'f4'
p1386
sa(dp1387
g5
S'f5'
p1388
sa(dp1389
g8
S'black_knight'
p1390
sg5
S'f6'
p1391
sa(dp1392
g8
S'black_pawn'
p1393
sg5
S'f7'
p1394
sa(dp1395
g5
S'f8'
p1396
sa(dp1397
g5
S'g1'
p1398
sa(dp1399
g5
S'g2'
p1400
sa(dp1401
g5
S'g3'
p1402
sa(dp1403
g8
S'white_pawn'
p1404
sg5
S'g4'
p1405
sa(dp1406
g5
S'g5'
p1407
sa(dp1408
g5
S'g6'
p1409
sa(dp1410
g8
S'black_pawn'
p1411
sg5
S'g7'
p1412
sa(dp1413
g5
S'g8'
p1414
sa(dp1415
g5
S'h1'
p1416
sa(dp1417
g5
S'h2'
p1418
sa(dp1419
g5
S'h3'
p1420
sa(dp1421
g5
S'h4'
p1422
sa(dp1423
g5
S'h5'
p1424
sa(dp1425
g8
S'black_pawn'
p1426
sg5
S'h6'
p1427
sa(dp1428
g5
S'h7'
p1429
sa(dp1430
g8
S'black_rook'
p1431
sg5
S'h8'
p1432
saaVAlso possible was ...Nhf4.  The text seems the more circumspect, though.
p1433
aa(lp1434
S'20. Qf3'
p1435
a(lp1436
(dp1437
g5
S'a1'
p1438
sa(dp1439
g5
S'a2'
p1440
sa(dp1441
g8
S'white_pawn'
p1442
sg5
S'a3'
p1443
sa(dp1444
g5
S'a4'
p1445
sa(dp1446
g5
S'a5'
p1447
sa(dp1448
g5
S'a6'
p1449
sa(dp1450
g8
S'black_pawn'
p1451
sg5
S'a7'
p1452
sa(dp1453
g8
S'black_rook'
p1454
sg5
S'a8'
p1455
sa(dp1456
g5
S'b1'
p1457
sa(dp1458
g8
S'white_pawn'
p1459
sg5
S'b2'
p1460
sa(dp1461
g5
S'b3'
p1462
sa(dp1463
g5
S'b4'
p1464
sa(dp1465
g5
S'b5'
p1466
sa(dp1467
g5
S'b6'
p1468
sa(dp1469
g8
S'black_pawn'
p1470
sg5
S'b7'
p1471
sa(dp1472
g5
S'b8'
p1473
sa(dp1474
g8
S'white_king'
p1475
sg5
S'c1'
p1476
sa(dp1477
g8
S'white_pawn'
p1478
sg5
S'c2'
p1479
sa(dp1480
g5
S'c3'
p1481
sa(dp1482
g5
S'c4'
p1483
sa(dp1484
g5
S'c5'
p1485
sa(dp1486
g8
S'black_pawn'
p1487
sg5
S'c6'
p1488
sa(dp1489
g8
S'black_queen'
p1490
sg5
S'c7'
p1491
sa(dp1492
g5
S'c8'
p1493
sa(dp1494
g8
S'white_rook'
p1495
sg5
S'd1'
p1496
sa(dp1497
g8
S'white_bishop'
p1498
sg5
S'd2'
p1499
sa(dp1500
g5
S'd3'
p1501
sa(dp1502
g8
S'white_pawn'
p1503
sg5
S'd4'
p1504
sa(dp1505
g8
S'black_knight'
p1506
sg5
S'd5'
p1507
sa(dp1508
g5
S'd6'
p1509
sa(dp1510
g5
S'd7'
p1511
sa(dp1512
g5
S'd8'
p1513
sa(dp1514
g8
S'white_rook'
p1515
sg5
S'e1'
p1516
sa(dp1517
g5
S'e2'
p1518
sa(dp1519
g5
S'e3'
p1520
sa(dp1521
g5
S'e4'
p1522
sa(dp1523
g8
S'white_knight'
p1524
sg5
S'e5'
p1525
sa(dp1526
g8
S'black_pawn'
p1527
sg5
S'e6'
p1528
sa(dp1529
g5
S'e7'
p1530
sa(dp1531
g8
S'black_king'
p1532
sg5
S'e8'
p1533
sa(dp1534
g5
S'f1'
p1535
sa(dp1536
g8
S'white_pawn'
p1537
sg5
S'f2'
p1538
sa(dp1539
g8
S'white_queen'
p1540
sg5
S'f3'
p1541
sa(dp1542
g5
S'f4'
p1543
sa(dp1544
g5
S'f5'
p1545
sa(dp1546
g8
S'black_knight'
p1547
sg5
S'f6'
p1548
sa(dp1549
g8
S'black_pawn'
p1550
sg5
S'f7'
p1551
sa(dp1552
g5
S'f8'
p1553
sa(dp1554
g5
S'g1'
p1555
sa(dp1556
g5
S'g2'
p1557
sa(dp1558
g5
S'g3'
p1559
sa(dp1560
g8
S'white_pawn'
p1561
sg5
S'g4'
p1562
sa(dp1563
g5
S'g5'
p1564
sa(dp1565
g5
S'g6'
p1566
sa(dp1567
g8
S'black_pawn'
p1568
sg5
S'g7'
p1569
sa(dp1570
g5
S'g8'
p1571
sa(dp1572
g5
S'h1'
p1573
sa(dp1574
g5
S'h2'
p1575
sa(dp1576
g5
S'h3'
p1577
sa(dp1578
g5
S'h4'
p1579
sa(dp1580
g5
S'h5'
p1581
sa(dp1582
g8
S'black_pawn'
p1583
sg5
S'h6'
p1584
sa(dp1585
g5
S'h7'
p1586
sa(dp1587
g8
S'black_rook'
p1588
sg5
S'h8'
p1589
saaVAlso 20.c4 was still good.  But White seems now poised to bash her way through the centre to come at Black's King.  In the light of that, Black's next is understandable.
p1590
aa(lp1591
S'20... O-O-O'
p1592
a(lp1593
(dp1594
g5
S'a1'
p1595
sa(dp1596
g5
S'a2'
p1597
sa(dp1598
g8
S'white_pawn'
p1599
sg5
S'a3'
p1600
sa(dp1601
g5
S'a4'
p1602
sa(dp1603
g5
S'a5'
p1604
sa(dp1605
g5
S'a6'
p1606
sa(dp1607
g8
S'black_pawn'
p1608
sg5
S'a7'
p1609
sa(dp1610
g5
S'a8'
p1611
sa(dp1612
g5
S'b1'
p1613
sa(dp1614
g8
S'white_pawn'
p1615
sg5
S'b2'
p1616
sa(dp1617
g5
S'b3'
p1618
sa(dp1619
g5
S'b4'
p1620
sa(dp1621
g5
S'b5'
p1622
sa(dp1623
g5
S'b6'
p1624
sa(dp1625
g8
S'black_pawn'
p1626
sg5
S'b7'
p1627
sa(dp1628
g5
S'b8'
p1629
sa(dp1630
g8
S'white_king'
p1631
sg5
S'c1'
p1632
sa(dp1633
g8
S'white_pawn'
p1634
sg5
S'c2'
p1635
sa(dp1636
g5
S'c3'
p1637
sa(dp1638
g5
S'c4'
p1639
sa(dp1640
g5
S'c5'
p1641
sa(dp1642
g8
S'black_pawn'
p1643
sg5
S'c6'
p1644
sa(dp1645
g8
S'black_queen'
p1646
sg5
S'c7'
p1647
sa(dp1648
g8
S'black_king'
p1649
sg5
S'c8'
p1650
sa(dp1651
g8
S'white_rook'
p1652
sg5
S'd1'
p1653
sa(dp1654
g8
S'white_bishop'
p1655
sg5
S'd2'
p1656
sa(dp1657
g5
S'd3'
p1658
sa(dp1659
g8
S'white_pawn'
p1660
sg5
S'd4'
p1661
sa(dp1662
g8
S'black_knight'
p1663
sg5
S'd5'
p1664
sa(dp1665
g5
S'd6'
p1666
sa(dp1667
g5
S'd7'
p1668
sa(dp1669
g8
S'black_rook'
p1670
sg5
S'd8'
p1671
sa(dp1672
g8
S'white_rook'
p1673
sg5
S'e1'
p1674
sa(dp1675
g5
S'e2'
p1676
sa(dp1677
g5
S'e3'
p1678
sa(dp1679
g5
S'e4'
p1680
sa(dp1681
g8
S'white_knight'
p1682
sg5
S'e5'
p1683
sa(dp1684
g8
S'black_pawn'
p1685
sg5
S'e6'
p1686
sa(dp1687
g5
S'e7'
p1688
sa(dp1689
g5
S'e8'
p1690
sa(dp1691
g5
S'f1'
p1692
sa(dp1693
g8
S'white_pawn'
p1694
sg5
S'f2'
p1695
sa(dp1696
g8
S'white_queen'
p1697
sg5
S'f3'
p1698
sa(dp1699
g5
S'f4'
p1700
sa(dp1701
g5
S'f5'
p1702
sa(dp1703
g8
S'black_knight'
p1704
sg5
S'f6'
p1705
sa(dp1706
g8
S'black_pawn'
p1707
sg5
S'f7'
p1708
sa(dp1709
g5
S'f8'
p1710
sa(dp1711
g5
S'g1'
p1712
sa(dp1713
g5
S'g2'
p1714
sa(dp1715
g5
S'g3'
p1716
sa(dp1717
g8
S'white_pawn'
p1718
sg5
S'g4'
p1719
sa(dp1720
g5
S'g5'
p1721
sa(dp1722
g5
S'g6'
p1723
sa(dp1724
g8
S'black_pawn'
p1725
sg5
S'g7'
p1726
sa(dp1727
g5
S'g8'
p1728
sa(dp1729
g5
S'h1'
p1730
sa(dp1731
g5
S'h2'
p1732
sa(dp1733
g5
S'h3'
p1734
sa(dp1735
g5
S'h4'
p1736
sa(dp1737
g5
S'h5'
p1738
sa(dp1739
g8
S'black_pawn'
p1740
sg5
S'h6'
p1741
sa(dp1742
g5
S'h7'
p1743
sa(dp1744
g8
S'black_rook'
p1745
sg5
S'h8'
p1746
saaV[??] A terrible misjudgement.  Black has been keeping up, pretty much, for the whole game so far, though 16...Nh5 did some self-inflicted damage. With 20...b5! Black could finally have stymied White's delayed c2-c4 thrust, and been left with a reasonable game.
p1747
aa(lp1748
S'21. c4'
p1749
a(lp1750
(dp1751
g5
S'a1'
p1752
sa(dp1753
g5
S'a2'
p1754
sa(dp1755
g8
S'white_pawn'
p1756
sg5
S'a3'
p1757
sa(dp1758
g5
S'a4'
p1759
sa(dp1760
g5
S'a5'
p1761
sa(dp1762
g5
S'a6'
p1763
sa(dp1764
g8
S'black_pawn'
p1765
sg5
S'a7'
p1766
sa(dp1767
g5
S'a8'
p1768
sa(dp1769
g5
S'b1'
p1770
sa(dp1771
g8
S'white_pawn'
p1772
sg5
S'b2'
p1773
sa(dp1774
g5
S'b3'
p1775
sa(dp1776
g5
S'b4'
p1777
sa(dp1778
g5
S'b5'
p1779
sa(dp1780
g5
S'b6'
p1781
sa(dp1782
g8
S'black_pawn'
p1783
sg5
S'b7'
p1784
sa(dp1785
g5
S'b8'
p1786
sa(dp1787
g8
S'white_king'
p1788
sg5
S'c1'
p1789
sa(dp1790
g5
S'c2'
p1791
sa(dp1792
g5
S'c3'
p1793
sa(dp1794
g8
S'white_pawn'
p1795
sg5
S'c4'
p1796
sa(dp1797
g5
S'c5'
p1798
sa(dp1799
g8
S'black_pawn'
p1800
sg5
S'c6'
p1801
sa(dp1802
g8
S'black_queen'
p1803
sg5
S'c7'
p1804
sa(dp1805
g8
S'black_king'
p1806
sg5
S'c8'
p1807
sa(dp1808
g8
S'white_rook'
p1809
sg5
S'd1'
p1810
sa(dp1811
g8
S'white_bishop'
p1812
sg5
S'd2'
p1813
sa(dp1814
g5
S'd3'
p1815
sa(dp1816
g8
S'white_pawn'
p1817
sg5
S'd4'
p1818
sa(dp1819
g8
S'black_knight'
p1820
sg5
S'd5'
p1821
sa(dp1822
g5
S'd6'
p1823
sa(dp1824
g5
S'd7'
p1825
sa(dp1826
g8
S'black_rook'
p1827
sg5
S'd8'
p1828
sa(dp1829
g8
S'white_rook'
p1830
sg5
S'e1'
p1831
sa(dp1832
g5
S'e2'
p1833
sa(dp1834
g5
S'e3'
p1835
sa(dp1836
g5
S'e4'
p1837
sa(dp1838
g8
S'white_knight'
p1839
sg5
S'e5'
p1840
sa(dp1841
g8
S'black_pawn'
p1842
sg5
S'e6'
p1843
sa(dp1844
g5
S'e7'
p1845
sa(dp1846
g5
S'e8'
p1847
sa(dp1848
g5
S'f1'
p1849
sa(dp1850
g8
S'white_pawn'
p1851
sg5
S'f2'
p1852
sa(dp1853
g8
S'white_queen'
p1854
sg5
S'f3'
p1855
sa(dp1856
g5
S'f4'
p1857
sa(dp1858
g5
S'f5'
p1859
sa(dp1860
g8
S'black_knight'
p1861
sg5
S'f6'
p1862
sa(dp1863
g8
S'black_pawn'
p1864
sg5
S'f7'
p1865
sa(dp1866
g5
S'f8'
p1867
sa(dp1868
g5
S'g1'
p1869
sa(dp1870
g5
S'g2'
p1871
sa(dp1872
g5
S'g3'
p1873
sa(dp1874
g8
S'white_pawn'
p1875
sg5
S'g4'
p1876
sa(dp1877
g5
S'g5'
p1878
sa(dp1879
g5
S'g6'
p1880
sa(dp1881
g8
S'black_pawn'
p1882
sg5
S'g7'
p1883
sa(dp1884
g5
S'g8'
p1885
sa(dp1886
g5
S'h1'
p1887
sa(dp1888
g5
S'h2'
p1889
sa(dp1890
g5
S'h3'
p1891
sa(dp1892
g5
S'h4'
p1893
sa(dp1894
g5
S'h5'
p1895
sa(dp1896
g8
S'black_pawn'
p1897
sg5
S'h6'
p1898
sa(dp1899
g5
S'h7'
p1900
sa(dp1901
g8
S'black_rook'
p1902
sg5
S'h8'
p1903
saaV[!] At last!  And still strong.
p1904
aa(lp1905
S'21... Nb6'
p1906
a(lp1907
(dp1908
g5
S'a1'
p1909
sa(dp1910
g5
S'a2'
p1911
sa(dp1912
g8
S'white_pawn'
p1913
sg5
S'a3'
p1914
sa(dp1915
g5
S'a4'
p1916
sa(dp1917
g5
S'a5'
p1918
sa(dp1919
g5
S'a6'
p1920
sa(dp1921
g8
S'black_pawn'
p1922
sg5
S'a7'
p1923
sa(dp1924
g5
S'a8'
p1925
sa(dp1926
g5
S'b1'
p1927
sa(dp1928
g8
S'white_pawn'
p1929
sg5
S'b2'
p1930
sa(dp1931
g5
S'b3'
p1932
sa(dp1933
g5
S'b4'
p1934
sa(dp1935
g5
S'b5'
p1936
sa(dp1937
g8
S'black_knight'
p1938
sg5
S'b6'
p1939
sa(dp1940
g8
S'black_pawn'
p1941
sg5
S'b7'
p1942
sa(dp1943
g5
S'b8'
p1944
sa(dp1945
g8
S'white_king'
p1946
sg5
S'c1'
p1947
sa(dp1948
g5
S'c2'
p1949
sa(dp1950
g5
S'c3'
p1951
sa(dp1952
g8
S'white_pawn'
p1953
sg5
S'c4'
p1954
sa(dp1955
g5
S'c5'
p1956
sa(dp1957
g8
S'black_pawn'
p1958
sg5
S'c6'
p1959
sa(dp1960
g8
S'black_queen'
p1961
sg5
S'c7'
p1962
sa(dp1963
g8
S'black_king'
p1964
sg5
S'c8'
p1965
sa(dp1966
g8
S'white_rook'
p1967
sg5
S'd1'
p1968
sa(dp1969
g8
S'white_bishop'
p1970
sg5
S'd2'
p1971
sa(dp1972
g5
S'd3'
p1973
sa(dp1974
g8
S'white_pawn'
p1975
sg5
S'd4'
p1976
sa(dp1977
g5
S'd5'
p1978
sa(dp1979
g5
S'd6'
p1980
sa(dp1981
g5
S'd7'
p1982
sa(dp1983
g8
S'black_rook'
p1984
sg5
S'd8'
p1985
sa(dp1986
g8
S'white_rook'
p1987
sg5
S'e1'
p1988
sa(dp1989
g5
S'e2'
p1990
sa(dp1991
g5
S'e3'
p1992
sa(dp1993
g5
S'e4'
p1994
sa(dp1995
g8
S'white_knight'
p1996
sg5
S'e5'
p1997
sa(dp1998
g8
S'black_pawn'
p1999
sg5
S'e6'
p2000
sa(dp2001
g5
S'e7'
p2002
sa(dp2003
g5
S'e8'
p2004
sa(dp2005
g5
S'f1'
p2006
sa(dp2007
g8
S'white_pawn'
p2008
sg5
S'f2'
p2009
sa(dp2010
g8
S'white_queen'
p2011
sg5
S'f3'
p2012
sa(dp2013
g5
S'f4'
p2014
sa(dp2015
g5
S'f5'
p2016
sa(dp2017
g8
S'black_knight'
p2018
sg5
S'f6'
p2019
sa(dp2020
g8
S'black_pawn'
p2021
sg5
S'f7'
p2022
sa(dp2023
g5
S'f8'
p2024
sa(dp2025
g5
S'g1'
p2026
sa(dp2027
g5
S'g2'
p2028
sa(dp2029
g5
S'g3'
p2030
sa(dp2031
g8
S'white_pawn'
p2032
sg5
S'g4'
p2033
sa(dp2034
g5
S'g5'
p2035
sa(dp2036
g5
S'g6'
p2037
sa(dp2038
g8
S'black_pawn'
p2039
sg5
S'g7'
p2040
sa(dp2041
g5
S'g8'
p2042
sa(dp2043
g5
S'h1'
p2044
sa(dp2045
g5
S'h2'
p2046
sa(dp2047
g5
S'h3'
p2048
sa(dp2049
g5
S'h4'
p2050
sa(dp2051
g5
S'h5'
p2052
sa(dp2053
g8
S'black_pawn'
p2054
sg5
S'h6'
p2055
sa(dp2056
g5
S'h7'
p2057
sa(dp2058
g8
S'black_rook'
p2059
sg5
S'h8'
p2060
saaVThe only retreat, as after 21...Ne7, 22.Nxf7 would have been good enough to win.
p2061
aa(lp2062
S'22. Bf4'
p2063
a(lp2064
(dp2065
g5
S'a1'
p2066
sa(dp2067
g5
S'a2'
p2068
sa(dp2069
g8
S'white_pawn'
p2070
sg5
S'a3'
p2071
sa(dp2072
g5
S'a4'
p2073
sa(dp2074
g5
S'a5'
p2075
sa(dp2076
g5
S'a6'
p2077
sa(dp2078
g8
S'black_pawn'
p2079
sg5
S'a7'
p2080
sa(dp2081
g5
S'a8'
p2082
sa(dp2083
g5
S'b1'
p2084
sa(dp2085
g8
S'white_pawn'
p2086
sg5
S'b2'
p2087
sa(dp2088
g5
S'b3'
p2089
sa(dp2090
g5
S'b4'
p2091
sa(dp2092
g5
S'b5'
p2093
sa(dp2094
g8
S'black_knight'
p2095
sg5
S'b6'
p2096
sa(dp2097
g8
S'black_pawn'
p2098
sg5
S'b7'
p2099
sa(dp2100
g5
S'b8'
p2101
sa(dp2102
g8
S'white_king'
p2103
sg5
S'c1'
p2104
sa(dp2105
g5
S'c2'
p2106
sa(dp2107
g5
S'c3'
p2108
sa(dp2109
g8
S'white_pawn'
p2110
sg5
S'c4'
p2111
sa(dp2112
g5
S'c5'
p2113
sa(dp2114
g8
S'black_pawn'
p2115
sg5
S'c6'
p2116
sa(dp2117
g8
S'black_queen'
p2118
sg5
S'c7'
p2119
sa(dp2120
g8
S'black_king'
p2121
sg5
S'c8'
p2122
sa(dp2123
g8
S'white_rook'
p2124
sg5
S'd1'
p2125
sa(dp2126
g5
S'd2'
p2127
sa(dp2128
g5
S'd3'
p2129
sa(dp2130
g8
S'white_pawn'
p2131
sg5
S'd4'
p2132
sa(dp2133
g5
S'd5'
p2134
sa(dp2135
g5
S'd6'
p2136
sa(dp2137
g5
S'd7'
p2138
sa(dp2139
g8
S'black_rook'
p2140
sg5
S'd8'
p2141
sa(dp2142
g8
S'white_rook'
p2143
sg5
S'e1'
p2144
sa(dp2145
g5
S'e2'
p2146
sa(dp2147
g5
S'e3'
p2148
sa(dp2149
g5
S'e4'
p2150
sa(dp2151
g8
S'white_knight'
p2152
sg5
S'e5'
p2153
sa(dp2154
g8
S'black_pawn'
p2155
sg5
S'e6'
p2156
sa(dp2157
g5
S'e7'
p2158
sa(dp2159
g5
S'e8'
p2160
sa(dp2161
g5
S'f1'
p2162
sa(dp2163
g8
S'white_pawn'
p2164
sg5
S'f2'
p2165
sa(dp2166
g8
S'white_queen'
p2167
sg5
S'f3'
p2168
sa(dp2169
g8
S'white_bishop'
p2170
sg5
S'f4'
p2171
sa(dp2172
g5
S'f5'
p2173
sa(dp2174
g8
S'black_knight'
p2175
sg5
S'f6'
p2176
sa(dp2177
g8
S'black_pawn'
p2178
sg5
S'f7'
p2179
sa(dp2180
g5
S'f8'
p2181
sa(dp2182
g5
S'g1'
p2183
sa(dp2184
g5
S'g2'
p2185
sa(dp2186
g5
S'g3'
p2187
sa(dp2188
g8
S'white_pawn'
p2189
sg5
S'g4'
p2190
sa(dp2191
g5
S'g5'
p2192
sa(dp2193
g5
S'g6'
p2194
sa(dp2195
g8
S'black_pawn'
p2196
sg5
S'g7'
p2197
sa(dp2198
g5
S'g8'
p2199
sa(dp2200
g5
S'h1'
p2201
sa(dp2202
g5
S'h2'
p2203
sa(dp2204
g5
S'h3'
p2205
sa(dp2206
g5
S'h4'
p2207
sa(dp2208
g5
S'h5'
p2209
sa(dp2210
g8
S'black_pawn'
p2211
sg5
S'h6'
p2212
sa(dp2213
g5
S'h7'
p2214
sa(dp2215
g8
S'black_rook'
p2216
sg5
S'h8'
p2217
saaVCreating what I call a 'masked battery' against the Black Queen.  The idea is that the masking piece - the e5-knight - moves aside to attack something else (Ng6 attacking the h1-rook), exposing the bishop's attack on the Queen.  The unmasking of a battery is usually so deadly, the defender has to do something about it before the unmasking.
p2218
aa(lp2219
S'22... Qe7'
p2220
a(lp2221
(dp2222
g5
S'a1'
p2223
sa(dp2224
g5
S'a2'
p2225
sa(dp2226
g8
S'white_pawn'
p2227
sg5
S'a3'
p2228
sa(dp2229
g5
S'a4'
p2230
sa(dp2231
g5
S'a5'
p2232
sa(dp2233
g5
S'a6'
p2234
sa(dp2235
g8
S'black_pawn'
p2236
sg5
S'a7'
p2237
sa(dp2238
g5
S'a8'
p2239
sa(dp2240
g5
S'b1'
p2241
sa(dp2242
g8
S'white_pawn'
p2243
sg5
S'b2'
p2244
sa(dp2245
g5
S'b3'
p2246
sa(dp2247
g5
S'b4'
p2248
sa(dp2249
g5
S'b5'
p2250
sa(dp2251
g8
S'black_knight'
p2252
sg5
S'b6'
p2253
sa(dp2254
g8
S'black_pawn'
p2255
sg5
S'b7'
p2256
sa(dp2257
g5
S'b8'
p2258
sa(dp2259
g8
S'white_king'
p2260
sg5
S'c1'
p2261
sa(dp2262
g5
S'c2'
p2263
sa(dp2264
g5
S'c3'
p2265
sa(dp2266
g8
S'white_pawn'
p2267
sg5
S'c4'
p2268
sa(dp2269
g5
S'c5'
p2270
sa(dp2271
g8
S'black_pawn'
p2272
sg5
S'c6'
p2273
sa(dp2274
g5
S'c7'
p2275
sa(dp2276
g8
S'black_king'
p2277
sg5
S'c8'
p2278
sa(dp2279
g8
S'white_rook'
p2280
sg5
S'd1'
p2281
sa(dp2282
g5
S'd2'
p2283
sa(dp2284
g5
S'd3'
p2285
sa(dp2286
g8
S'white_pawn'
p2287
sg5
S'd4'
p2288
sa(dp2289
g5
S'd5'
p2290
sa(dp2291
g5
S'd6'
p2292
sa(dp2293
g5
S'd7'
p2294
sa(dp2295
g8
S'black_rook'
p2296
sg5
S'd8'
p2297
sa(dp2298
g8
S'white_rook'
p2299
sg5
S'e1'
p2300
sa(dp2301
g5
S'e2'
p2302
sa(dp2303
g5
S'e3'
p2304
sa(dp2305
g5
S'e4'
p2306
sa(dp2307
g8
S'white_knight'
p2308
sg5
S'e5'
p2309
sa(dp2310
g8
S'black_pawn'
p2311
sg5
S'e6'
p2312
sa(dp2313
g8
S'black_queen'
p2314
sg5
S'e7'
p2315
sa(dp2316
g5
S'e8'
p2317
sa(dp2318
g5
S'f1'
p2319
sa(dp2320
g8
S'white_pawn'
p2321
sg5
S'f2'
p2322
sa(dp2323
g8
S'white_queen'
p2324
sg5
S'f3'
p2325
sa(dp2326
g8
S'white_bishop'
p2327
sg5
S'f4'
p2328
sa(dp2329
g5
S'f5'
p2330
sa(dp2331
g8
S'black_knight'
p2332
sg5
S'f6'
p2333
sa(dp2334
g8
S'black_pawn'
p2335
sg5
S'f7'
p2336
sa(dp2337
g5
S'f8'
p2338
sa(dp2339
g5
S'g1'
p2340
sa(dp2341
g5
S'g2'
p2342
sa(dp2343
g5
S'g3'
p2344
sa(dp2345
g8
S'white_pawn'
p2346
sg5
S'g4'
p2347
sa(dp2348
g5
S'g5'
p2349
sa(dp2350
g5
S'g6'
p2351
sa(dp2352
g8
S'black_pawn'
p2353
sg5
S'g7'
p2354
sa(dp2355
g5
S'g8'
p2356
sa(dp2357
g5
S'h1'
p2358
sa(dp2359
g5
S'h2'
p2360
sa(dp2361
g5
S'h3'
p2362
sa(dp2363
g5
S'h4'
p2364
sa(dp2365
g5
S'h5'
p2366
sa(dp2367
g8
S'black_pawn'
p2368
sg5
S'h6'
p2369
sa(dp2370
g5
S'h7'
p2371
sa(dp2372
g8
S'black_rook'
p2373
sg5
S'h8'
p2374
saaVOn this occasion, there was in fact nothing to be done about it about White's threat ...Ng6.  By saving the Queen in this way, Black will lose his King!  22...g5 would not have helped much (23.Bg3! and the threat remains), but Black might have been able to contain the damage in this line: 22...h5! 23.g5 Ng4  24.Nxg4 hxg4  25.Bxc7 gxf3 26.Bxd8 Kxd8, leaving White the Exchange ahead in the end game.
p2375
aa(lp2376
S'23. Nxc6'
p2377
a(lp2378
(dp2379
g5
S'a1'
p2380
sa(dp2381
g5
S'a2'
p2382
sa(dp2383
g8
S'white_pawn'
p2384
sg5
S'a3'
p2385
sa(dp2386
g5
S'a4'
p2387
sa(dp2388
g5
S'a5'
p2389
sa(dp2390
g5
S'a6'
p2391
sa(dp2392
g8
S'black_pawn'
p2393
sg5
S'a7'
p2394
sa(dp2395
g5
S'a8'
p2396
sa(dp2397
g5
S'b1'
p2398
sa(dp2399
g8
S'white_pawn'
p2400
sg5
S'b2'
p2401
sa(dp2402
g5
S'b3'
p2403
sa(dp2404
g5
S'b4'
p2405
sa(dp2406
g5
S'b5'
p2407
sa(dp2408
g8
S'black_knight'
p2409
sg5
S'b6'
p2410
sa(dp2411
g8
S'black_pawn'
p2412
sg5
S'b7'
p2413
sa(dp2414
g5
S'b8'
p2415
sa(dp2416
g8
S'white_king'
p2417
sg5
S'c1'
p2418
sa(dp2419
g5
S'c2'
p2420
sa(dp2421
g5
S'c3'
p2422
sa(dp2423
g8
S'white_pawn'
p2424
sg5
S'c4'
p2425
sa(dp2426
g5
S'c5'
p2427
sa(dp2428
g8
S'white_knight'
p2429
sg5
S'c6'
p2430
sa(dp2431
g5
S'c7'
p2432
sa(dp2433
g8
S'black_king'
p2434
sg5
S'c8'
p2435
sa(dp2436
g8
S'white_rook'
p2437
sg5
S'd1'
p2438
sa(dp2439
g5
S'd2'
p2440
sa(dp2441
g5
S'd3'
p2442
sa(dp2443
g8
S'white_pawn'
p2444
sg5
S'd4'
p2445
sa(dp2446
g5
S'd5'
p2447
sa(dp2448
g5
S'd6'
p2449
sa(dp2450
g5
S'd7'
p2451
sa(dp2452
g8
S'black_rook'
p2453
sg5
S'd8'
p2454
sa(dp2455
g8
S'white_rook'
p2456
sg5
S'e1'
p2457
sa(dp2458
g5
S'e2'
p2459
sa(dp2460
g5
S'e3'
p2461
sa(dp2462
g5
S'e4'
p2463
sa(dp2464
g5
S'e5'
p2465
sa(dp2466
g8
S'black_pawn'
p2467
sg5
S'e6'
p2468
sa(dp2469
g8
S'black_queen'
p2470
sg5
S'e7'
p2471
sa(dp2472
g5
S'e8'
p2473
sa(dp2474
g5
S'f1'
p2475
sa(dp2476
g8
S'white_pawn'
p2477
sg5
S'f2'
p2478
sa(dp2479
g8
S'white_queen'
p2480
sg5
S'f3'
p2481
sa(dp2482
g8
S'white_bishop'
p2483
sg5
S'f4'
p2484
sa(dp2485
g5
S'f5'
p2486
sa(dp2487
g8
S'black_knight'
p2488
sg5
S'f6'
p2489
sa(dp2490
g8
S'black_pawn'
p2491
sg5
S'f7'
p2492
sa(dp2493
g5
S'f8'
p2494
sa(dp2495
g5
S'g1'
p2496
sa(dp2497
g5
S'g2'
p2498
sa(dp2499
g5
S'g3'
p2500
sa(dp2501
g8
S'white_pawn'
p2502
sg5
S'g4'
p2503
sa(dp2504
g5
S'g5'
p2505
sa(dp2506
g5
S'g6'
p2507
sa(dp2508
g8
S'black_pawn'
p2509
sg5
S'g7'
p2510
sa(dp2511
g5
S'g8'
p2512
sa(dp2513
g5
S'h1'
p2514
sa(dp2515
g5
S'h2'
p2516
sa(dp2517
g5
S'h3'
p2518
sa(dp2519
g5
S'h4'
p2520
sa(dp2521
g5
S'h5'
p2522
sa(dp2523
g8
S'black_pawn'
p2524
sg5
S'h6'
p2525
sa(dp2526
g5
S'h7'
p2527
sa(dp2528
g8
S'black_rook'
p2529
sg5
S'h8'
p2530
saaV[!] One of those moves that 'leaps to the eye' of a tactician.  Black is busted.
p2531
aa(lp2532
S'23... Qe8'
p2533
a(lp2534
(dp2535
g5
S'a1'
p2536
sa(dp2537
g5
S'a2'
p2538
sa(dp2539
g8
S'white_pawn'
p2540
sg5
S'a3'
p2541
sa(dp2542
g5
S'a4'
p2543
sa(dp2544
g5
S'a5'
p2545
sa(dp2546
g5
S'a6'
p2547
sa(dp2548
g8
S'black_pawn'
p2549
sg5
S'a7'
p2550
sa(dp2551
g5
S'a8'
p2552
sa(dp2553
g5
S'b1'
p2554
sa(dp2555
g8
S'white_pawn'
p2556
sg5
S'b2'
p2557
sa(dp2558
g5
S'b3'
p2559
sa(dp2560
g5
S'b4'
p2561
sa(dp2562
g5
S'b5'
p2563
sa(dp2564
g8
S'black_knight'
p2565
sg5
S'b6'
p2566
sa(dp2567
g8
S'black_pawn'
p2568
sg5
S'b7'
p2569
sa(dp2570
g5
S'b8'
p2571
sa(dp2572
g8
S'white_king'
p2573
sg5
S'c1'
p2574
sa(dp2575
g5
S'c2'
p2576
sa(dp2577
g5
S'c3'
p2578
sa(dp2579
g8
S'white_pawn'
p2580
sg5
S'c4'
p2581
sa(dp2582
g5
S'c5'
p2583
sa(dp2584
g8
S'white_knight'
p2585
sg5
S'c6'
p2586
sa(dp2587
g5
S'c7'
p2588
sa(dp2589
g8
S'black_king'
p2590
sg5
S'c8'
p2591
sa(dp2592
g8
S'white_rook'
p2593
sg5
S'd1'
p2594
sa(dp2595
g5
S'd2'
p2596
sa(dp2597
g5
S'd3'
p2598
sa(dp2599
g8
S'white_pawn'
p2600
sg5
S'd4'
p2601
sa(dp2602
g5
S'd5'
p2603
sa(dp2604
g5
S'd6'
p2605
sa(dp2606
g5
S'd7'
p2607
sa(dp2608
g8
S'black_rook'
p2609
sg5
S'd8'
p2610
sa(dp2611
g8
S'white_rook'
p2612
sg5
S'e1'
p2613
sa(dp2614
g5
S'e2'
p2615
sa(dp2616
g5
S'e3'
p2617
sa(dp2618
g5
S'e4'
p2619
sa(dp2620
g5
S'e5'
p2621
sa(dp2622
g8
S'black_pawn'
p2623
sg5
S'e6'
p2624
sa(dp2625
g5
S'e7'
p2626
sa(dp2627
g8
S'black_queen'
p2628
sg5
S'e8'
p2629
sa(dp2630
g5
S'f1'
p2631
sa(dp2632
g8
S'white_pawn'
p2633
sg5
S'f2'
p2634
sa(dp2635
g8
S'white_queen'
p2636
sg5
S'f3'
p2637
sa(dp2638
g8
S'white_bishop'
p2639
sg5
S'f4'
p2640
sa(dp2641
g5
S'f5'
p2642
sa(dp2643
g8
S'black_knight'
p2644
sg5
S'f6'
p2645
sa(dp2646
g8
S'black_pawn'
p2647
sg5
S'f7'
p2648
sa(dp2649
g5
S'f8'
p2650
sa(dp2651
g5
S'g1'
p2652
sa(dp2653
g5
S'g2'
p2654
sa(dp2655
g5
S'g3'
p2656
sa(dp2657
g8
S'white_pawn'
p2658
sg5
S'g4'
p2659
sa(dp2660
g5
S'g5'
p2661
sa(dp2662
g5
S'g6'
p2663
sa(dp2664
g8
S'black_pawn'
p2665
sg5
S'g7'
p2666
sa(dp2667
g5
S'g8'
p2668
sa(dp2669
g5
S'h1'
p2670
sa(dp2671
g5
S'h2'
p2672
sa(dp2673
g5
S'h3'
p2674
sa(dp2675
g5
S'h4'
p2676
sa(dp2677
g5
S'h5'
p2678
sa(dp2679
g8
S'black_pawn'
p2680
sg5
S'h6'
p2681
sa(dp2682
g5
S'h7'
p2683
sa(dp2684
g8
S'black_rook'
p2685
sg5
S'h8'
p2686
saaVAbandoning her consort.  No good was 23...bxc6 24.Qxc6ch and mate nest move.  But it is mate in two, now, as well.
p2687
aa(lp2688
S'24. Nxa7+ Kd7 25. Qxb7#'
p2689
a(lp2690
(dp2691
g5
S'a1'
p2692
sa(dp2693
g5
S'a2'
p2694
sa(dp2695
g8
S'white_pawn'
p2696
sg5
S'a3'
p2697
sa(dp2698
g5
S'a4'
p2699
sa(dp2700
g5
S'a5'
p2701
sa(dp2702
g5
S'a6'
p2703
sa(dp2704
g8
S'white_knight'
p2705
sg5
S'a7'
p2706
sa(dp2707
g5
S'a8'
p2708
sa(dp2709
g5
S'b1'
p2710
sa(dp2711
g8
S'white_pawn'
p2712
sg5
S'b2'
p2713
sa(dp2714
g5
S'b3'
p2715
sa(dp2716
g5
S'b4'
p2717
sa(dp2718
g5
S'b5'
p2719
sa(dp2720
g8
S'black_knight'
p2721
sg5
S'b6'
p2722
sa(dp2723
g8
S'white_queen'
p2724
sg5
S'b7'
p2725
sa(dp2726
g5
S'b8'
p2727
sa(dp2728
g8
S'white_king'
p2729
sg5
S'c1'
p2730
sa(dp2731
g5
S'c2'
p2732
sa(dp2733
g5
S'c3'
p2734
sa(dp2735
g8
S'white_pawn'
p2736
sg5
S'c4'
p2737
sa(dp2738
g5
S'c5'
p2739
sa(dp2740
g5
S'c6'
p2741
sa(dp2742
g5
S'c7'
p2743
sa(dp2744
g5
S'c8'
p2745
sa(dp2746
g8
S'white_rook'
p2747
sg5
S'd1'
p2748
sa(dp2749
g5
S'd2'
p2750
sa(dp2751
g5
S'd3'
p2752
sa(dp2753
g8
S'white_pawn'
p2754
sg5
S'd4'
p2755
sa(dp2756
g5
S'd5'
p2757
sa(dp2758
g5
S'd6'
p2759
sa(dp2760
g8
S'black_king'
p2761
sg5
S'd7'
p2762
sa(dp2763
g8
S'black_rook'
p2764
sg5
S'd8'
p2765
sa(dp2766
g8
S'white_rook'
p2767
sg5
S'e1'
p2768
sa(dp2769
g5
S'e2'
p2770
sa(dp2771
g5
S'e3'
p2772
sa(dp2773
g5
S'e4'
p2774
sa(dp2775
g5
S'e5'
p2776
sa(dp2777
g8
S'black_pawn'
p2778
sg5
S'e6'
p2779
sa(dp2780
g5
S'e7'
p2781
sa(dp2782
g8
S'black_queen'
p2783
sg5
S'e8'
p2784
sa(dp2785
g5
S'f1'
p2786
sa(dp2787
g8
S'white_pawn'
p2788
sg5
S'f2'
p2789
sa(dp2790
g5
S'f3'
p2791
sa(dp2792
g8
S'white_bishop'
p2793
sg5
S'f4'
p2794
sa(dp2795
g5
S'f5'
p2796
sa(dp2797
g8
S'black_knight'
p2798
sg5
S'f6'
p2799
sa(dp2800
g8
S'black_pawn'
p2801
sg5
S'f7'
p2802
sa(dp2803
g5
S'f8'
p2804
sa(dp2805
g5
S'g1'
p2806
sa(dp2807
g5
S'g2'
p2808
sa(dp2809
g5
S'g3'
p2810
sa(dp2811
g8
S'white_pawn'
p2812
sg5
S'g4'
p2813
sa(dp2814
g5
S'g5'
p2815
sa(dp2816
g5
S'g6'
p2817
sa(dp2818
g8
S'black_pawn'
p2819
sg5
S'g7'
p2820
sa(dp2821
g5
S'g8'
p2822
sa(dp2823
g5
S'h1'
p2824
sa(dp2825
g5
S'h2'
p2826
sa(dp2827
g5
S'h3'
p2828
sa(dp2829
g5
S'h4'
p2830
sa(dp2831
g5
S'h5'
p2832
sa(dp2833
g8
S'black_pawn'
p2834
sg5
S'h6'
p2835
sa(dp2836
g5
S'h7'
p2837
sa(dp2838
g8
S'black_rook'
p2839
sg5
S'h8'
p2840
saaVA sudden and drastic finish.  During the course of the game, at no time was White under any real pressure or at a disadvantage.  Possibly that explains the strong opponent's lapses in tactical and strategic judgement.  A fine win to White.
p2841
aa.